---
triple:          'x86_64-apple-darwin'
binary-path:     '/Users/kema/git/rust-serv/target/debug/deps/libwasmtime_versioned_export_macros-e312b3c839bfeb20.dylib'
relocations:
  - { offset: 0x1E, size: 0x8, addend: 0x0, symName: __RINvCs68Moq3B2G3C_32wasmtime_versioned_export_macros17versioned_lit_strNtCsaKzlTDPUHDb_11proc_macro25IdentEB2_, symObjAddr: 0x0, symBinAddr: 0xBE0, symSize: 0xA0 }
  - { offset: 0xFA, size: 0x8, addend: 0x0, symName: __RNCNvXs1_NtNtNtCsHUR1vrdMJt_3std2io5error14repr_bitpackedNtB7_4ReprNtNtNtCsieiGu2EXtoJ_4core3ops4drop4Drop4drop0Cs68Moq3B2G3C_32wasmtime_versioned_export_macros, symObjAddr: 0x1CE0, symBinAddr: 0x2880, symSize: 0x30 }
  - { offset: 0x1AF, size: 0x8, addend: 0x0, symName: __RNvXs1_NtNtNtCsHUR1vrdMJt_3std2io5error14repr_bitpackedNtB5_4ReprNtNtNtCsieiGu2EXtoJ_4core3ops4drop4Drop4dropCs68Moq3B2G3C_32wasmtime_versioned_export_macros, symObjAddr: 0x3AE0, symBinAddr: 0x4670, symSize: 0x30 }
  - { offset: 0x1D8, size: 0x8, addend: 0x0, symName: __RINvNtNtNtCsHUR1vrdMJt_3std2io5error14repr_bitpacked11decode_reprINtNtCslJiobkLta79_5alloc5boxed3BoxNtB4_6CustomENCNvXs1_B2_NtB2_4ReprNtNtNtCsieiGu2EXtoJ_4core3ops4drop4Drop4drop0ECs68Moq3B2G3C_32wasmtime_versioned_export_macros, symObjAddr: 0xE40, symBinAddr: 0x19E0, symSize: 0x200 }
  - { offset: 0x439, size: 0x8, addend: 0x0, symName: __RNvNtNtNtCsHUR1vrdMJt_3std2io5error14repr_bitpacked14kind_from_primCs68Moq3B2G3C_32wasmtime_versioned_export_macros, symObjAddr: 0x2B60, symBinAddr: 0x36F0, symSize: 0x5B0 }
  - { offset: 0xF28, size: 0x8, addend: 0x0, symName: __RNCNvMs3_NtNtCsHUR1vrdMJt_3std6thread5localINtB7_8LocalKeyINtNtCsieiGu2EXtoJ_4core4cell4CellPuEE7replace0Cs68Moq3B2G3C_32wasmtime_versioned_export_macros, symObjAddr: 0x1BF0, symBinAddr: 0x2790, symSize: 0x20 }
  - { offset: 0xFCD, size: 0x8, addend: 0x0, symName: __RINvNvNtCsHUR1vrdMJt_3std9panicking12catch_unwind7do_callINtNtNtCsieiGu2EXtoJ_4core5panic11unwind_safe16AssertUnwindSafeNCINvNtNtCscKtU6MdFI5n_10proc_macro6bridge6client10run_clientNtB1Z_11TokenStreamINtNtB10_6option6OptionB2T_ENCNCINvMs6_B1Z_INtB1Z_6ClientNtB23_11TokenStreamB47_E7expand1NvCs68Moq3B2G3C_32wasmtime_versioned_export_macros16versioned_suffixE00E0EuEB4F_, symObjAddr: 0x1360, symBinAddr: 0x1F00, symSize: 0x40 }
  - { offset: 0x1096, size: 0x8, addend: 0x0, symName: __RINvNvNtCsHUR1vrdMJt_3std9panicking12catch_unwind7do_callINtNtNtCsieiGu2EXtoJ_4core5panic11unwind_safe16AssertUnwindSafeNCINvNtNtCscKtU6MdFI5n_10proc_macro6bridge6client10run_clientNtB1Z_11TokenStreamINtNtB10_6option6OptionB2T_ENCNCINvMs6_B1Z_INtB1Z_6ClientNtB23_11TokenStreamB47_E7expand1NvCs68Moq3B2G3C_32wasmtime_versioned_export_macros25versioned_stringify_identE00E0EuEB4F_, symObjAddr: 0x13A0, symBinAddr: 0x1F40, symSize: 0x40 }
  - { offset: 0x115F, size: 0x8, addend: 0x0, symName: __RINvNvNtCsHUR1vrdMJt_3std9panicking12catch_unwind7do_callINtNtNtCsieiGu2EXtoJ_4core5panic11unwind_safe16AssertUnwindSafeNCINvNtNtCscKtU6MdFI5n_10proc_macro6bridge6client10run_clientTNtB1Z_11TokenStreamB2U_EINtNtB10_6option6OptionB2U_ENCNCINvMs7_B1Z_INtB1Z_6ClientTNtB23_11TokenStreamB4e_EB4e_E7expand2NvCs68Moq3B2G3C_32wasmtime_versioned_export_macros14versioned_linkE00E0EuEB4R_, symObjAddr: 0x13E0, symBinAddr: 0x1F80, symSize: 0x40 }
  - { offset: 0x1228, size: 0x8, addend: 0x0, symName: __RINvNvNtCsHUR1vrdMJt_3std9panicking12catch_unwind7do_callINtNtNtCsieiGu2EXtoJ_4core5panic11unwind_safe16AssertUnwindSafeNCINvNtNtCscKtU6MdFI5n_10proc_macro6bridge6client10run_clientTNtB1Z_11TokenStreamB2U_EINtNtB10_6option6OptionB2U_ENCNCINvMs7_B1Z_INtB1Z_6ClientTNtB23_11TokenStreamB4e_EB4e_E7expand2NvCs68Moq3B2G3C_32wasmtime_versioned_export_macros16versioned_exportE00E0EuEB4R_, symObjAddr: 0x1420, symBinAddr: 0x1FC0, symSize: 0x40 }
  - { offset: 0x12F1, size: 0x8, addend: 0x0, symName: __RINvNvNtCsHUR1vrdMJt_3std9panicking12catch_unwind8do_catchINtNtNtCsieiGu2EXtoJ_4core5panic11unwind_safe16AssertUnwindSafeNCINvNtNtCscKtU6MdFI5n_10proc_macro6bridge6client10run_clientNtB20_11TokenStreamINtNtB11_6option6OptionB2U_ENCNCINvMs6_B20_INtB20_6ClientNtB24_11TokenStreamB48_E7expand1NvCs68Moq3B2G3C_32wasmtime_versioned_export_macros16versioned_suffixE00E0EuEB4G_, symObjAddr: 0x1460, symBinAddr: 0x2000, symSize: 0x60 }
  - { offset: 0x1386, size: 0x8, addend: 0x0, symName: __RINvNvNtCsHUR1vrdMJt_3std9panicking12catch_unwind8do_catchINtNtNtCsieiGu2EXtoJ_4core5panic11unwind_safe16AssertUnwindSafeNCINvNtNtCscKtU6MdFI5n_10proc_macro6bridge6client10run_clientNtB20_11TokenStreamINtNtB11_6option6OptionB2U_ENCNCINvMs6_B20_INtB20_6ClientNtB24_11TokenStreamB48_E7expand1NvCs68Moq3B2G3C_32wasmtime_versioned_export_macros25versioned_stringify_identE00E0EuEB4G_, symObjAddr: 0x14C0, symBinAddr: 0x2060, symSize: 0x60 }
  - { offset: 0x141B, size: 0x8, addend: 0x0, symName: __RINvNvNtCsHUR1vrdMJt_3std9panicking12catch_unwind8do_catchINtNtNtCsieiGu2EXtoJ_4core5panic11unwind_safe16AssertUnwindSafeNCINvNtNtCscKtU6MdFI5n_10proc_macro6bridge6client10run_clientTNtB20_11TokenStreamB2V_EINtNtB11_6option6OptionB2V_ENCNCINvMs7_B20_INtB20_6ClientTNtB24_11TokenStreamB4f_EB4f_E7expand2NvCs68Moq3B2G3C_32wasmtime_versioned_export_macros14versioned_linkE00E0EuEB4S_, symObjAddr: 0x1520, symBinAddr: 0x20C0, symSize: 0x60 }
  - { offset: 0x14B0, size: 0x8, addend: 0x0, symName: __RINvNvNtCsHUR1vrdMJt_3std9panicking12catch_unwind8do_catchINtNtNtCsieiGu2EXtoJ_4core5panic11unwind_safe16AssertUnwindSafeNCINvNtNtCscKtU6MdFI5n_10proc_macro6bridge6client10run_clientTNtB20_11TokenStreamB2V_EINtNtB11_6option6OptionB2V_ENCNCINvMs7_B20_INtB20_6ClientTNtB24_11TokenStreamB4f_EB4f_E7expand2NvCs68Moq3B2G3C_32wasmtime_versioned_export_macros16versioned_exportE00E0EuEB4S_, symObjAddr: 0x1580, symBinAddr: 0x2120, symSize: 0x60 }
  - { offset: 0x180F, size: 0x8, addend: 0x0, symName: __RNvNvMs1_NtNtCsieiGu2EXtoJ_4core3ptr8non_nullINtB7_7NonNullpE13new_unchecked18precondition_checkCs68Moq3B2G3C_32wasmtime_versioned_export_macros, symObjAddr: 0x31C0, symBinAddr: 0x3D50, symSize: 0x90 }
  - { offset: 0x1F46, size: 0x8, addend: 0x0, symName: __RINvNtCsieiGu2EXtoJ_4core3ptr13drop_in_placeINtNtB4_4cell10UnsafeCellNtNtNtCscKtU6MdFI5n_10proc_macro6bridge6client6BridgeEECs68Moq3B2G3C_32wasmtime_versioned_export_macros, symObjAddr: 0xA20, symBinAddr: 0x15C0, symSize: 0x20 }
  - { offset: 0x1F75, size: 0x8, addend: 0x0, symName: __RINvNtCsieiGu2EXtoJ_4core3ptr13drop_in_placeINtNtB4_4cell7RefCellNtNtNtCscKtU6MdFI5n_10proc_macro6bridge6client6BridgeEECs68Moq3B2G3C_32wasmtime_versioned_export_macros, symObjAddr: 0xA40, symBinAddr: 0x15E0, symSize: 0x20 }
  - { offset: 0x1FA4, size: 0x8, addend: 0x0, symName: __RINvNtCsieiGu2EXtoJ_4core3ptr13drop_in_placeINtNtCslJiobkLta79_5alloc5boxed3BoxDNtNtB4_5error5ErrorNtNtB4_6marker4SyncNtB1B_4SendEL_EECs68Moq3B2G3C_32wasmtime_versioned_export_macros, symObjAddr: 0xA60, symBinAddr: 0x1600, symSize: 0x70 }
  - { offset: 0x1FD3, size: 0x8, addend: 0x0, symName: __RINvNtCsieiGu2EXtoJ_4core3ptr13drop_in_placeINtNtCslJiobkLta79_5alloc5boxed3BoxNtNtNtCsHUR1vrdMJt_3std2io5error6CustomEECs68Moq3B2G3C_32wasmtime_versioned_export_macros, symObjAddr: 0xAD0, symBinAddr: 0x1670, symSize: 0x50 }
  - { offset: 0x2002, size: 0x8, addend: 0x0, symName: __RINvNtCsieiGu2EXtoJ_4core3ptr13drop_in_placeINtNtNtCsHUR1vrdMJt_3std2io5error9ErrorDataINtNtCslJiobkLta79_5alloc5boxed3BoxNtBJ_6CustomEEECs68Moq3B2G3C_32wasmtime_versioned_export_macros, symObjAddr: 0xB20, symBinAddr: 0x16C0, symSize: 0x30 }
  - { offset: 0x2031, size: 0x8, addend: 0x0, symName: __RINvNtCsieiGu2EXtoJ_4core3ptr13drop_in_placeNCINvMsi_NtCslJiobkLta79_5alloc3vecINtBP_3VechE14extend_trustedINtNtNtNtB4_4iter8adapters3map3MapINtNtNtB4_5slice4iter4IterhENCNvNtBR_3str13replace_ascii0EE0ECs68Moq3B2G3C_32wasmtime_versioned_export_macros, symObjAddr: 0xB50, symBinAddr: 0x16F0, symSize: 0x20 }
  - { offset: 0x2060, size: 0x8, addend: 0x0, symName: __RINvNtCsieiGu2EXtoJ_4core3ptr13drop_in_placeNCINvNtNtNtB4_4iter8adapters3map8map_foldRhhuNCNvNtCslJiobkLta79_5alloc3str13replace_ascii0NCINvNvNtNtNtBP_6traits8iterator8Iterator8for_each4callhNCINvMsi_NtB1v_3vecINtB3c_3VechE14extend_trustedINtBL_3MapINtNtNtB4_5slice4iter4IterhEB1p_EE0E0E0ECs68Moq3B2G3C_32wasmtime_versioned_export_macros, symObjAddr: 0xB70, symBinAddr: 0x1710, symSize: 0x20 }
  - { offset: 0x208F, size: 0x8, addend: 0x0, symName: __RINvNtCsieiGu2EXtoJ_4core3ptr13drop_in_placeNCINvNvNtNtNtNtB4_4iter6traits8iterator8Iterator8for_each4callhNCINvMsi_NtCslJiobkLta79_5alloc3vecINtB1Q_3VechE14extend_trustedINtNtNtBT_8adapters3map3MapINtNtNtB4_5slice4iter4IterhENCNvNtB1S_3str13replace_ascii0EE0E0ECs68Moq3B2G3C_32wasmtime_versioned_export_macros, symObjAddr: 0xB90, symBinAddr: 0x1730, symSize: 0x20 }
  - { offset: 0x20BE, size: 0x8, addend: 0x0, symName: __RINvNtCsieiGu2EXtoJ_4core3ptr13drop_in_placeNCNCINvNtNtCscKtU6MdFI5n_10proc_macro6bridge6client10run_clientNtBN_11TokenStreamINtNtB4_6option6OptionB1H_ENCNCINvMs6_BN_INtBN_6ClientNtBR_11TokenStreamB2R_E7expand1NvCs68Moq3B2G3C_32wasmtime_versioned_export_macros16versioned_suffixE00E00EB3o_, symObjAddr: 0xBB0, symBinAddr: 0x1750, symSize: 0x20 }
  - { offset: 0x20ED, size: 0x8, addend: 0x0, symName: __RINvNtCsieiGu2EXtoJ_4core3ptr13drop_in_placeNCNCINvNtNtCscKtU6MdFI5n_10proc_macro6bridge6client10run_clientNtBN_11TokenStreamINtNtB4_6option6OptionB1H_ENCNCINvMs6_BN_INtBN_6ClientNtBR_11TokenStreamB2R_E7expand1NvCs68Moq3B2G3C_32wasmtime_versioned_export_macros25versioned_stringify_identE00E00EB3o_, symObjAddr: 0xBD0, symBinAddr: 0x1770, symSize: 0x20 }
  - { offset: 0x211C, size: 0x8, addend: 0x0, symName: __RINvNtCsieiGu2EXtoJ_4core3ptr13drop_in_placeNCNCINvNtNtCscKtU6MdFI5n_10proc_macro6bridge6client10run_clientTNtBN_11TokenStreamB1I_EINtNtB4_6option6OptionB1I_ENCNCINvMs7_BN_INtBN_6ClientTNtBR_11TokenStreamB2Y_EB2Y_E7expand2NvCs68Moq3B2G3C_32wasmtime_versioned_export_macros14versioned_linkE00E00EB3A_, symObjAddr: 0xBF0, symBinAddr: 0x1790, symSize: 0x20 }
  - { offset: 0x214B, size: 0x8, addend: 0x0, symName: __RINvNtCsieiGu2EXtoJ_4core3ptr13drop_in_placeNCNCINvNtNtCscKtU6MdFI5n_10proc_macro6bridge6client10run_clientTNtBN_11TokenStreamB1I_EINtNtB4_6option6OptionB1I_ENCNCINvMs7_BN_INtBN_6ClientTNtBR_11TokenStreamB2Y_EB2Y_E7expand2NvCs68Moq3B2G3C_32wasmtime_versioned_export_macros16versioned_exportE00E00EB3A_, symObjAddr: 0xC10, symBinAddr: 0x17B0, symSize: 0x20 }
  - { offset: 0x217A, size: 0x8, addend: 0x0, symName: __RINvNtCsieiGu2EXtoJ_4core3ptr13drop_in_placeNtNtNtCsHUR1vrdMJt_3std2io5error5ErrorECs68Moq3B2G3C_32wasmtime_versioned_export_macros, symObjAddr: 0xC30, symBinAddr: 0x17D0, symSize: 0x20 }
  - { offset: 0x21A9, size: 0x8, addend: 0x0, symName: __RINvNtCsieiGu2EXtoJ_4core3ptr13drop_in_placeNtNtNtCsHUR1vrdMJt_3std2io5error6CustomECs68Moq3B2G3C_32wasmtime_versioned_export_macros, symObjAddr: 0xC50, symBinAddr: 0x17F0, symSize: 0x20 }
  - { offset: 0x21D8, size: 0x8, addend: 0x0, symName: __RINvNtCsieiGu2EXtoJ_4core3ptr13drop_in_placeNtNtNtCscKtU6MdFI5n_10proc_macro6bridge3rpc12PanicMessageECs68Moq3B2G3C_32wasmtime_versioned_export_macros, symObjAddr: 0xC70, symBinAddr: 0x1810, symSize: 0x50 }
  - { offset: 0x2207, size: 0x8, addend: 0x0, symName: __RINvNtCsieiGu2EXtoJ_4core3ptr13drop_in_placeNtNtNtCscKtU6MdFI5n_10proc_macro6bridge6buffer6BufferECs68Moq3B2G3C_32wasmtime_versioned_export_macros, symObjAddr: 0xCC0, symBinAddr: 0x1860, symSize: 0x20 }
  - { offset: 0x2236, size: 0x8, addend: 0x0, symName: __RINvNtCsieiGu2EXtoJ_4core3ptr13drop_in_placeNtNtNtCscKtU6MdFI5n_10proc_macro6bridge6client6BridgeECs68Moq3B2G3C_32wasmtime_versioned_export_macros, symObjAddr: 0xCE0, symBinAddr: 0x1880, symSize: 0x20 }
  - { offset: 0x2265, size: 0x8, addend: 0x0, symName: __RINvNtCsieiGu2EXtoJ_4core3ptr13drop_in_placeNtNtNtNtCsHUR1vrdMJt_3std2io5error14repr_bitpacked4ReprECs68Moq3B2G3C_32wasmtime_versioned_export_macros, symObjAddr: 0xD00, symBinAddr: 0x18A0, symSize: 0x20 }
  - { offset: 0x2294, size: 0x8, addend: 0x0, symName: __RINvNtCsieiGu2EXtoJ_4core3ptr13drop_in_placeNtNvNtNtNtCscKtU6MdFI5n_10proc_macro6bridge6client5state3set13RestoreOnDropECs68Moq3B2G3C_32wasmtime_versioned_export_macros, symObjAddr: 0xD20, symBinAddr: 0x18C0, symSize: 0x20 }
  - { offset: 0x22C3, size: 0x8, addend: 0x0, symName: __RINvNtCsieiGu2EXtoJ_4core3ptr13drop_in_placeTNtNtNtCscKtU6MdFI5n_10proc_macro6bridge6client11TokenStreamBH_EECs68Moq3B2G3C_32wasmtime_versioned_export_macros, symObjAddr: 0xD40, symBinAddr: 0x18E0, symSize: 0x60 }
  - { offset: 0x25E0, size: 0x8, addend: 0x0, symName: __RNvNvNtCsieiGu2EXtoJ_4core3ptr19copy_nonoverlapping18precondition_checkCs68Moq3B2G3C_32wasmtime_versioned_export_macros, symObjAddr: 0x3250, symBinAddr: 0x3DE0, symSize: 0x4B0 }
  - { offset: 0x51E0, size: 0x8, addend: 0x0, symName: __RINvNtCsieiGu2EXtoJ_4core9panicking13panic_displayNtNtCsdGrGZaRBwMb_3syn5error5ErrorECs68Moq3B2G3C_32wasmtime_versioned_export_macros, symObjAddr: 0xDA0, symBinAddr: 0x1940, symSize: 0xA0 }
  - { offset: 0x52A5, size: 0x8, addend: 0x0, symName: __RNvNvNtCsieiGu2EXtoJ_4core4hint21unreachable_unchecked18precondition_checkCs68Moq3B2G3C_32wasmtime_versioned_export_macros, symObjAddr: 0x3700, symBinAddr: 0x4290, symSize: 0x80 }
  - { offset: 0x5514, size: 0x8, addend: 0x0, symName: __RNvXsp_NtCsieiGu2EXtoJ_4core6resultINtB5_6ResultNtNtCsdGrGZaRBwMb_3syn4item13ForeignItemFnNtNtBO_5error5ErrorENtNtNtB7_3ops9try_trait3Try6branchCs68Moq3B2G3C_32wasmtime_versioned_export_macros, symObjAddr: 0x5DD0, symBinAddr: 0x6960, symSize: 0xE0 }
  - { offset: 0x5592, size: 0x8, addend: 0x0, symName: __RNvXsp_NtCsieiGu2EXtoJ_4core6resultINtB5_6ResultNtNtCsdGrGZaRBwMb_3syn4item6ItemFnNtNtBO_5error5ErrorENtNtNtB7_3ops9try_trait3Try6branchCs68Moq3B2G3C_32wasmtime_versioned_export_macros, symObjAddr: 0x5EB0, symBinAddr: 0x6A40, symSize: 0xE0 }
  - { offset: 0x5B4D, size: 0x8, addend: 0x0, symName: __RNvXs1_NtCsieiGu2EXtoJ_4core7convertNtCsaKzlTDPUHDb_11proc_macro211TokenStreamINtB5_4IntoNtCscKtU6MdFI5n_10proc_macro11TokenStreamE4intoCs68Moq3B2G3C_32wasmtime_versioned_export_macros, symObjAddr: 0x3AD0, symBinAddr: 0x4660, symSize: 0x10 }
  - { offset: 0x5EB3, size: 0x8, addend: 0x0, symName: __RNvYNCNkNvNtNtNtCscKtU6MdFI5n_10proc_macro6bridge6client5state12BRIDGE_STATE0s_0INtNtNtCsieiGu2EXtoJ_4core3ops8function6FnOnceTINtNtB1n_6option6OptionQIB22_INtNtB1n_4cell4CellPuEEEEE9call_onceCs68Moq3B2G3C_32wasmtime_versioned_export_macros, symObjAddr: 0x5F90, symBinAddr: 0x6B20, symSize: 0x40 }
  - { offset: 0x5EF7, size: 0x8, addend: 0x0, symName: __RNvYNvYNtCsaKzlTDPUHDb_11proc_macro25IdentNtNtCsdGrGZaRBwMb_3syn5parse5Parse5parseINtNtNtCsieiGu2EXtoJ_4core3ops8function6FnOnceTRNtBG_11ParseBufferEE9call_onceCs68Moq3B2G3C_32wasmtime_versioned_export_macros, symObjAddr: 0x6190, symBinAddr: 0x6D20, symSize: 0x30 }
  - { offset: 0x5F3B, size: 0x8, addend: 0x0, symName: __RNvYNvYNtNtCsdGrGZaRBwMb_3syn4attr9AttributeNtNtB9_11parse_quote10ParseQuote5parseINtNtNtCsieiGu2EXtoJ_4core3ops8function6FnOnceTRNtNtB9_5parse11ParseBufferEE9call_onceCs68Moq3B2G3C_32wasmtime_versioned_export_macros, symObjAddr: 0x6230, symBinAddr: 0x6DC0, symSize: 0x30 }
  - { offset: 0x5F7F, size: 0x8, addend: 0x0, symName: __RNvYNvYNtNtCsdGrGZaRBwMb_3syn4item13ForeignItemFnNtNtB9_5parse5Parse5parseINtNtNtCsieiGu2EXtoJ_4core3ops8function6FnOnceTRNtBN_11ParseBufferEE9call_onceCs68Moq3B2G3C_32wasmtime_versioned_export_macros, symObjAddr: 0x6260, symBinAddr: 0x6DF0, symSize: 0x30 }
  - { offset: 0x5FC3, size: 0x8, addend: 0x0, symName: __RNvYNvYNtNtCsdGrGZaRBwMb_3syn4item6ItemFnNtNtB9_5parse5Parse5parseINtNtNtCsieiGu2EXtoJ_4core3ops8function6FnOnceTRNtBF_11ParseBufferEE9call_onceCs68Moq3B2G3C_32wasmtime_versioned_export_macros, symObjAddr: 0x6300, symBinAddr: 0x6E90, symSize: 0x30 }
  - { offset: 0x600D, size: 0x8, addend: 0x0, symName: __RNvYNvCs68Moq3B2G3C_32wasmtime_versioned_export_macros14versioned_linkINtNtNtCsieiGu2EXtoJ_4core3ops8function2FnTNtCscKtU6MdFI5n_10proc_macro11TokenStreamB1N_EE4callB4_, symObjAddr: 0x60F0, symBinAddr: 0x6C80, symSize: 0x30 }
  - { offset: 0x6051, size: 0x8, addend: 0x0, symName: __RNvYNvCs68Moq3B2G3C_32wasmtime_versioned_export_macros16versioned_exportINtNtNtCsieiGu2EXtoJ_4core3ops8function2FnTNtCscKtU6MdFI5n_10proc_macro11TokenStreamB1P_EE4callB4_, symObjAddr: 0x6120, symBinAddr: 0x6CB0, symSize: 0x30 }
  - { offset: 0x6095, size: 0x8, addend: 0x0, symName: __RNvYNvCs68Moq3B2G3C_32wasmtime_versioned_export_macros16versioned_suffixINtNtNtCsieiGu2EXtoJ_4core3ops8function2FnTNtCscKtU6MdFI5n_10proc_macro11TokenStreamEE4callB4_, symObjAddr: 0x6150, symBinAddr: 0x6CE0, symSize: 0x20 }
  - { offset: 0x60D9, size: 0x8, addend: 0x0, symName: __RNvYNvCs68Moq3B2G3C_32wasmtime_versioned_export_macros25versioned_stringify_identINtNtNtCsieiGu2EXtoJ_4core3ops8function2FnTNtCscKtU6MdFI5n_10proc_macro11TokenStreamEE4callB4_, symObjAddr: 0x6170, symBinAddr: 0x6D00, symSize: 0x20 }
  - { offset: 0x63FE, size: 0x8, addend: 0x0, symName: __RNCINvNtNtNtCsieiGu2EXtoJ_4core4iter8adapters3map8map_foldRhhuNCNvNtCslJiobkLta79_5alloc3str13replace_ascii0NCINvNvNtNtNtB8_6traits8iterator8Iterator8for_each4callhNCINvMsi_NtB14_3vecINtB2L_3VechE14extend_trustedINtB4_3MapINtNtNtBa_5slice4iter4IterhEBY_EE0E0E0Cs68Moq3B2G3C_32wasmtime_versioned_export_macros, symObjAddr: 0x1B60, symBinAddr: 0x2700, symSize: 0x70 }
  - { offset: 0x6489, size: 0x8, addend: 0x0, symName: __RINvXs0_NtNtNtCsieiGu2EXtoJ_4core4iter8adapters3mapINtB6_3MapINtNtNtBc_5slice4iter4IterhENCNvNtCslJiobkLta79_5alloc3str13replace_ascii0ENtNtNtBa_6traits8iterator8Iterator4folduNCINvNvB2a_8for_each4callhNCINvMsi_NtB1v_3vecINtB3n_3VechE14extend_trustedBN_E0E0ECs68Moq3B2G3C_32wasmtime_versioned_export_macros, symObjAddr: 0x1860, symBinAddr: 0x2400, symSize: 0x60 }
  - { offset: 0x6522, size: 0x8, addend: 0x0, symName: __RNvXs0_NtNtNtCsieiGu2EXtoJ_4core4iter8adapters3mapINtB5_3MapINtNtNtBb_5slice4iter4IterhENCNvNtCslJiobkLta79_5alloc3str13replace_ascii0ENtNtNtB9_6traits8iterator8Iterator9size_hintCs68Moq3B2G3C_32wasmtime_versioned_export_macros, symObjAddr: 0x3A00, symBinAddr: 0x4590, symSize: 0x30 }
  - { offset: 0x65CA, size: 0x8, addend: 0x0, symName: __RINvYINtNtNtNtCsieiGu2EXtoJ_4core4iter8adapters3map3MapINtNtNtBc_5slice4iter4IterhENCNvNtCslJiobkLta79_5alloc3str13replace_ascii0ENtNtNtBa_6traits8iterator8Iterator7collectINtNtB1p_3vec3VechEECs68Moq3B2G3C_32wasmtime_versioned_export_macros, symObjAddr: 0x1A90, symBinAddr: 0x2630, symSize: 0x70 }
  - { offset: 0x6660, size: 0x8, addend: 0x0, symName: __RINvYINtNtNtNtCsieiGu2EXtoJ_4core4iter8adapters3map3MapINtNtNtBc_5slice4iter4IterhENCNvNtCslJiobkLta79_5alloc3str13replace_ascii0ENtNtNtBa_6traits8iterator8Iterator8for_eachNCINvMsi_NtB1p_3vecINtB2U_3VechE14extend_trustedB3_E0ECs68Moq3B2G3C_32wasmtime_versioned_export_macros, symObjAddr: 0x1B00, symBinAddr: 0x26A0, symSize: 0x30 }
  - { offset: 0x66D7, size: 0x8, addend: 0x0, symName: __RNvXNtNtNtCsieiGu2EXtoJ_4core4iter6traits7collectINtNtNtB6_8adapters3map3MapINtNtNtB8_5slice4iter4IterhENCNvNtCslJiobkLta79_5alloc3str13replace_ascii0ENtB2_12IntoIterator9into_iterCs68Moq3B2G3C_32wasmtime_versioned_export_macros, symObjAddr: 0x39D0, symBinAddr: 0x4560, symSize: 0x30 }
  - { offset: 0x6757, size: 0x8, addend: 0x0, symName: __RINvXs2E_NtNtCsieiGu2EXtoJ_4core5slice4iterINtB7_4IterhENtNtNtNtBb_4iter6traits8iterator8Iterator4folduNCINvNtNtBY_8adapters3map8map_foldRhhuNCNvNtCslJiobkLta79_5alloc3str13replace_ascii0NCINvNvBS_8for_each4callhNCINvMsi_NtB2l_3vecINtB3x_3VechE14extend_trustedINtB1I_3MapBF_B2f_EE0E0E0ECs68Moq3B2G3C_32wasmtime_versioned_export_macros, symObjAddr: 0x18C0, symBinAddr: 0x2460, symSize: 0x190 }
  - { offset: 0x68ED, size: 0x8, addend: 0x0, symName: __RNvMNtCsieiGu2EXtoJ_4core5sliceSh15copy_from_sliceCs68Moq3B2G3C_32wasmtime_versioned_export_macros, symObjAddr: 0x2770, symBinAddr: 0x3310, symSize: 0xA0 }
  - { offset: 0x6AFE, size: 0x8, addend: 0x0, symName: __RNvNvXs0_NtNtCsieiGu2EXtoJ_4core5slice5indexjINtB7_10SliceIndexSpE13get_unchecked18precondition_checkCs68Moq3B2G3C_32wasmtime_versioned_export_macros, symObjAddr: 0x3840, symBinAddr: 0x43D0, symSize: 0xA0 }
  - { offset: 0x6F2D, size: 0x8, addend: 0x0, symName: __RNvXsn_NtNtCsieiGu2EXtoJ_4core5panic11unwind_safeINtB5_16AssertUnwindSafeNCINvNtNtCscKtU6MdFI5n_10proc_macro6bridge6client10run_clientNtB1e_11TokenStreamINtNtB9_6option6OptionB28_ENCNCINvMs6_B1e_INtB1e_6ClientNtB1i_11TokenStreamB3l_E7expand1NvCs68Moq3B2G3C_32wasmtime_versioned_export_macros16versioned_suffixE00E0EINtNtNtB9_3ops8function6FnOnceuE9call_onceB3T_, symObjAddr: 0x5BD0, symBinAddr: 0x6760, symSize: 0x30 }
  - { offset: 0x6F85, size: 0x8, addend: 0x0, symName: __RNvXsn_NtNtCsieiGu2EXtoJ_4core5panic11unwind_safeINtB5_16AssertUnwindSafeNCINvNtNtCscKtU6MdFI5n_10proc_macro6bridge6client10run_clientNtB1e_11TokenStreamINtNtB9_6option6OptionB28_ENCNCINvMs6_B1e_INtB1e_6ClientNtB1i_11TokenStreamB3l_E7expand1NvCs68Moq3B2G3C_32wasmtime_versioned_export_macros25versioned_stringify_identE00E0EINtNtNtB9_3ops8function6FnOnceuE9call_onceB3T_, symObjAddr: 0x5C00, symBinAddr: 0x6790, symSize: 0x30 }
  - { offset: 0x6FDD, size: 0x8, addend: 0x0, symName: __RNvXsn_NtNtCsieiGu2EXtoJ_4core5panic11unwind_safeINtB5_16AssertUnwindSafeNCINvNtNtCscKtU6MdFI5n_10proc_macro6bridge6client10run_clientTNtB1e_11TokenStreamB29_EINtNtB9_6option6OptionB29_ENCNCINvMs7_B1e_INtB1e_6ClientTNtB1i_11TokenStreamB3s_EB3s_E7expand2NvCs68Moq3B2G3C_32wasmtime_versioned_export_macros14versioned_linkE00E0EINtNtNtB9_3ops8function6FnOnceuE9call_onceB45_, symObjAddr: 0x5C30, symBinAddr: 0x67C0, symSize: 0x30 }
  - { offset: 0x7035, size: 0x8, addend: 0x0, symName: __RNvXsn_NtNtCsieiGu2EXtoJ_4core5panic11unwind_safeINtB5_16AssertUnwindSafeNCINvNtNtCscKtU6MdFI5n_10proc_macro6bridge6client10run_clientTNtB1e_11TokenStreamB29_EINtNtB9_6option6OptionB29_ENCNCINvMs7_B1e_INtB1e_6ClientTNtB1i_11TokenStreamB3s_EB3s_E7expand2NvCs68Moq3B2G3C_32wasmtime_versioned_export_macros16versioned_exportE00E0EINtNtNtB9_3ops8function6FnOnceuE9call_onceB45_, symObjAddr: 0x5C60, symBinAddr: 0x67F0, symSize: 0x30 }
  - { offset: 0x7498, size: 0x8, addend: 0x0, symName: __RNvNvXs5_NtNtCsieiGu2EXtoJ_4core3str6traitsINtNtNtBb_3ops5range5RangejEINtNtNtBb_5slice5index10SliceIndexeE13get_unchecked18precondition_checkCs68Moq3B2G3C_32wasmtime_versioned_export_macros, symObjAddr: 0x38E0, symBinAddr: 0x4470, symSize: 0xC0 }
  - { offset: 0x7594, size: 0x8, addend: 0x0, symName: __RNCNvMsp_NtNtCsieiGu2EXtoJ_4core3str4iterINtB7_20MatchIndicesInternalcE4next0Cs68Moq3B2G3C_32wasmtime_versioned_export_macros, symObjAddr: 0x1C10, symBinAddr: 0x27B0, symSize: 0xD0 }
  - { offset: 0x7709, size: 0x8, addend: 0x0, symName: __RNvXs2_NtNtCsieiGu2EXtoJ_4core3str7patterncNtB5_7Pattern13into_searcherCs68Moq3B2G3C_32wasmtime_versioned_export_macros, symObjAddr: 0x3B10, symBinAddr: 0x46A0, symSize: 0x120 }
  - { offset: 0x7824, size: 0x8, addend: 0x0, symName: __RNvXs2_NtNtCsieiGu2EXtoJ_4core3str7patterncNtB5_7Pattern15as_utf8_patternCs68Moq3B2G3C_32wasmtime_versioned_export_macros, symObjAddr: 0x3C30, symBinAddr: 0x47C0, symSize: 0x40 }
  - { offset: 0x78BF, size: 0x8, addend: 0x0, symName: __RNvXs_NtNtCsieiGu2EXtoJ_4core3str7patternNtB4_12CharSearcherNtB4_8Searcher10next_matchCs68Moq3B2G3C_32wasmtime_versioned_export_macros, symObjAddr: 0x4310, symBinAddr: 0x4EA0, symSize: 0x4A0 }
  - { offset: 0x7E64, size: 0x8, addend: 0x0, symName: __RNvXs_NtNtCsieiGu2EXtoJ_4core3str7patternNtB4_12CharSearcherNtB4_8Searcher8haystackCs68Moq3B2G3C_32wasmtime_versioned_export_macros, symObjAddr: 0x47B0, symBinAddr: 0x5340, symSize: 0x20 }
  - { offset: 0x7F70, size: 0x8, addend: 0x0, symName: __RNvNtNtCsieiGu2EXtoJ_4core4char7methods15encode_utf8_rawCs68Moq3B2G3C_32wasmtime_versioned_export_macros, symObjAddr: 0x2940, symBinAddr: 0x34D0, symSize: 0xE0 }
  - { offset: 0x8070, size: 0x8, addend: 0x0, symName: __RNvNtNtCsieiGu2EXtoJ_4core4char7methods25encode_utf8_raw_uncheckedCs68Moq3B2G3C_32wasmtime_versioned_export_macros, symObjAddr: 0x2A20, symBinAddr: 0x35B0, symSize: 0x140 }
  - { offset: 0x825A, size: 0x8, addend: 0x0, symName: __RNvNvMNtNtCsieiGu2EXtoJ_4core5alloc6layoutNtB4_6Layout25from_size_align_unchecked18precondition_checkCs68Moq3B2G3C_32wasmtime_versioned_export_macros, symObjAddr: 0x3110, symBinAddr: 0x3CA0, symSize: 0xB0 }
  - { offset: 0x843C, size: 0x8, addend: 0x0, symName: __RNvNvNtCsieiGu2EXtoJ_4core9ub_checks23maybe_is_nonoverlapping7runtimeCs68Moq3B2G3C_32wasmtime_versioned_export_macros, symObjAddr: 0x3780, symBinAddr: 0x4310, symSize: 0xC0 }
  - { offset: 0x8735, size: 0x8, addend: 0x0, symName: ___rustc_proc_macro_decls_4789073e07b125ea__, symObjAddr: 0x7720, symBinAddr: 0x194710, symSize: 0x0 }
  - { offset: 0x8743, size: 0x8, addend: 0x0, symName: __RINvCs68Moq3B2G3C_32wasmtime_versioned_export_macros17versioned_lit_strNtCsaKzlTDPUHDb_11proc_macro25IdentEB2_, symObjAddr: 0x0, symBinAddr: 0xBE0, symSize: 0xA0 }
  - { offset: 0x8779, size: 0x8, addend: 0x0, symName: __RINvCs68Moq3B2G3C_32wasmtime_versioned_export_macros17versioned_lit_strRNtCsaKzlTDPUHDb_11proc_macro25IdentEB2_, symObjAddr: 0xA0, symBinAddr: 0xC80, symSize: 0xB0 }
  - { offset: 0x87AE, size: 0x8, addend: 0x0, symName: __RINvCs68Moq3B2G3C_32wasmtime_versioned_export_macros17versioned_lit_strReEB2_, symObjAddr: 0x150, symBinAddr: 0xD30, symSize: 0xB0 }
  - { offset: 0x87E3, size: 0x8, addend: 0x0, symName: __RINvCs68Moq3B2G3C_32wasmtime_versioned_export_macros7versionNtCsaKzlTDPUHDb_11proc_macro25IdentEB2_, symObjAddr: 0x200, symBinAddr: 0xDE0, symSize: 0x160 }
  - { offset: 0x886A, size: 0x8, addend: 0x0, symName: __RINvCs68Moq3B2G3C_32wasmtime_versioned_export_macros7versionRNtCsaKzlTDPUHDb_11proc_macro25IdentEB2_, symObjAddr: 0x360, symBinAddr: 0xF40, symSize: 0x150 }
  - { offset: 0x88F1, size: 0x8, addend: 0x0, symName: __RINvCs68Moq3B2G3C_32wasmtime_versioned_export_macros7versionReEB2_, symObjAddr: 0x4B0, symBinAddr: 0x1090, symSize: 0x150 }
  - { offset: 0x8978, size: 0x8, addend: 0x0, symName: __RNvCs68Moq3B2G3C_32wasmtime_versioned_export_macros14versioned_link, symObjAddr: 0x1D10, symBinAddr: 0x28B0, symSize: 0x370 }
  - { offset: 0x8A3F, size: 0x8, addend: 0x0, symName: __RNvCs68Moq3B2G3C_32wasmtime_versioned_export_macros16versioned_export, symObjAddr: 0x2080, symBinAddr: 0x2C20, symSize: 0x370 }
  - { offset: 0x8B06, size: 0x8, addend: 0x0, symName: __RNvCs68Moq3B2G3C_32wasmtime_versioned_export_macros16versioned_suffix, symObjAddr: 0x23F0, symBinAddr: 0x2F90, symSize: 0x180 }
  - { offset: 0x8B33, size: 0x8, addend: 0x0, symName: __RNvCs68Moq3B2G3C_32wasmtime_versioned_export_macros25versioned_stringify_ident, symObjAddr: 0x2570, symBinAddr: 0x3110, symSize: 0x200 }
  - { offset: 0x8DAE, size: 0x8, addend: 0x0, symName: __RINvNtNtNtCscKtU6MdFI5n_10proc_macro6bridge6client5state3setINtNtCsieiGu2EXtoJ_4core6option6OptionNtB4_11TokenStreamENCNCINvB4_10run_clientB1y_BW_NCNCINvMs6_B4_INtB4_6ClientNtB8_11TokenStreamB2L_E7expand1NvCs68Moq3B2G3C_32wasmtime_versioned_export_macros16versioned_suffixE00E00EB3i_, symObjAddr: 0x1040, symBinAddr: 0x1BE0, symSize: 0xC0 }
  - { offset: 0x8E84, size: 0x8, addend: 0x0, symName: __RINvNtNtNtCscKtU6MdFI5n_10proc_macro6bridge6client5state3setINtNtCsieiGu2EXtoJ_4core6option6OptionNtB4_11TokenStreamENCNCINvB4_10run_clientB1y_BW_NCNCINvMs6_B4_INtB4_6ClientNtB8_11TokenStreamB2L_E7expand1NvCs68Moq3B2G3C_32wasmtime_versioned_export_macros25versioned_stringify_identE00E00EB3i_, symObjAddr: 0x1100, symBinAddr: 0x1CA0, symSize: 0xC0 }
  - { offset: 0x8F5A, size: 0x8, addend: 0x0, symName: __RINvNtNtNtCscKtU6MdFI5n_10proc_macro6bridge6client5state3setINtNtCsieiGu2EXtoJ_4core6option6OptionNtB4_11TokenStreamENCNCINvB4_10run_clientTB1y_B1y_EBW_NCNCINvMs7_B4_INtB4_6ClientTNtB8_11TokenStreamB2S_EB2S_E7expand2NvCs68Moq3B2G3C_32wasmtime_versioned_export_macros14versioned_linkE00E00EB3u_, symObjAddr: 0x11C0, symBinAddr: 0x1D60, symSize: 0xD0 }
  - { offset: 0x9031, size: 0x8, addend: 0x0, symName: __RINvNtNtNtCscKtU6MdFI5n_10proc_macro6bridge6client5state3setINtNtCsieiGu2EXtoJ_4core6option6OptionNtB4_11TokenStreamENCNCINvB4_10run_clientTB1y_B1y_EBW_NCNCINvMs7_B4_INtB4_6ClientTNtB8_11TokenStreamB2S_EB2S_E7expand2NvCs68Moq3B2G3C_32wasmtime_versioned_export_macros16versioned_exportE00E00EB3u_, symObjAddr: 0x1290, symBinAddr: 0x1E30, symSize: 0xD0 }
  - { offset: 0x9112, size: 0x8, addend: 0x0, symName: __RNCNkNvNtNtNtCscKtU6MdFI5n_10proc_macro6bridge6client5state12BRIDGE_STATE0s_0Cs68Moq3B2G3C_32wasmtime_versioned_export_macros, symObjAddr: 0x1BD0, symBinAddr: 0x2770, symSize: 0x20 }
  - { offset: 0x94B8, size: 0x8, addend: 0x0, symName: __RINvNvNtNtCscKtU6MdFI5n_10proc_macro6bridge14selfless_reify31reify_to_extern_c_fn_hrt_bridge7wrapperNtNtB6_6buffer6BufferNCINvMs6_NtB6_6clientINtB24_6ClientNtB8_11TokenStreamB2u_E7expand1NvCs68Moq3B2G3C_32wasmtime_versioned_export_macros16versioned_suffixE0EB31_, symObjAddr: 0x15E0, symBinAddr: 0x2180, symSize: 0xA0 }
  - { offset: 0x9550, size: 0x8, addend: 0x0, symName: __RINvNvNtNtCscKtU6MdFI5n_10proc_macro6bridge14selfless_reify31reify_to_extern_c_fn_hrt_bridge7wrapperNtNtB6_6buffer6BufferNCINvMs6_NtB6_6clientINtB24_6ClientNtB8_11TokenStreamB2u_E7expand1NvCs68Moq3B2G3C_32wasmtime_versioned_export_macros25versioned_stringify_identE0EB31_, symObjAddr: 0x1680, symBinAddr: 0x2220, symSize: 0xA0 }
  - { offset: 0x95E8, size: 0x8, addend: 0x0, symName: __RINvNvNtNtCscKtU6MdFI5n_10proc_macro6bridge14selfless_reify31reify_to_extern_c_fn_hrt_bridge7wrapperNtNtB6_6buffer6BufferNCINvMs7_NtB6_6clientINtB24_6ClientTNtB8_11TokenStreamB2v_EB2v_E7expand2NvCs68Moq3B2G3C_32wasmtime_versioned_export_macros14versioned_linkE0EB37_, symObjAddr: 0x1720, symBinAddr: 0x22C0, symSize: 0xA0 }
  - { offset: 0x9680, size: 0x8, addend: 0x0, symName: __RINvNvNtNtCscKtU6MdFI5n_10proc_macro6bridge14selfless_reify31reify_to_extern_c_fn_hrt_bridge7wrapperNtNtB6_6buffer6BufferNCINvMs7_NtB6_6clientINtB24_6ClientTNtB8_11TokenStreamB2v_EB2v_E7expand2NvCs68Moq3B2G3C_32wasmtime_versioned_export_macros16versioned_exportE0EB37_, symObjAddr: 0x17C0, symBinAddr: 0x2360, symSize: 0xA0 }
  - { offset: 0x9724, size: 0x8, addend: 0x0, symName: __RNvXNtNtCscKtU6MdFI5n_10proc_macro6bridge3rpcuINtB2_6EncodeuE6encodeCs68Moq3B2G3C_32wasmtime_versioned_export_macros, symObjAddr: 0x39A0, symBinAddr: 0x4530, symSize: 0x10 }
  - { offset: 0x976B, size: 0x8, addend: 0x0, symName: __RNvXs7_NtNtCscKtU6MdFI5n_10proc_macro6bridge3rpcINtNtNtCsieiGu2EXtoJ_4core3num7nonzero7NonZeromEINtB5_9DecodeMutuE6decodeCs68Moq3B2G3C_32wasmtime_versioned_export_macros, symObjAddr: 0x3DE0, symBinAddr: 0x4970, symSize: 0x50 }
  - { offset: 0x97E6, size: 0x8, addend: 0x0, symName: __RNvXs9_NtNtCscKtU6MdFI5n_10proc_macro6bridge3rpcTINtB7_11ExpnGlobalsNtNtB7_6client4SpanENtB16_11TokenStreamEINtB5_9DecodeMutuE6decodeCs68Moq3B2G3C_32wasmtime_versioned_export_macros, symObjAddr: 0x3E30, symBinAddr: 0x49C0, symSize: 0x80 }
  - { offset: 0x983B, size: 0x8, addend: 0x0, symName: __RNvXs9_NtNtCscKtU6MdFI5n_10proc_macro6bridge3rpcTINtB7_11ExpnGlobalsNtNtB7_6client4SpanETNtB16_11TokenStreamB1p_EEINtB5_9DecodeMutuE6decodeCs68Moq3B2G3C_32wasmtime_versioned_export_macros, symObjAddr: 0x3EB0, symBinAddr: 0x4A40, symSize: 0x80 }
  - { offset: 0x9982, size: 0x8, addend: 0x0, symName: __RNvXsa_NtNtCscKtU6MdFI5n_10proc_macro6bridge3rpcRShINtB5_6EncodeuE6encodeCs68Moq3B2G3C_32wasmtime_versioned_export_macros, symObjAddr: 0x49B0, symBinAddr: 0x5540, symSize: 0xD0 }
  - { offset: 0x9A8A, size: 0x8, addend: 0x0, symName: __RNvXsc_NtNtCscKtU6MdFI5n_10proc_macro6bridge3rpcReINtB5_6EncodeuE6encodeCs68Moq3B2G3C_32wasmtime_versioned_export_macros, symObjAddr: 0x4A80, symBinAddr: 0x5610, symSize: 0x30 }
  - { offset: 0x9B72, size: 0x8, addend: 0x0, symName: __RNvXsl_NtNtCscKtU6MdFI5n_10proc_macro6bridge3rpcNtB5_12PanicMessageINtB5_6EncodeuE6encodeCs68Moq3B2G3C_32wasmtime_versioned_export_macros, symObjAddr: 0x5AA0, symBinAddr: 0x6630, symSize: 0x130 }
  - { offset: 0x9D42, size: 0x8, addend: 0x0, symName: __RNvXso_NtNtCscKtU6MdFI5n_10proc_macro6bridge3rpcmINtB5_9DecodeMutuE6decodeCs68Moq3B2G3C_32wasmtime_versioned_export_macros, symObjAddr: 0x5C90, symBinAddr: 0x6820, symSize: 0x140 }
  - { offset: 0x9EB0, size: 0x8, addend: 0x0, symName: __RNvXs1J_NtCscKtU6MdFI5n_10proc_macro6bridgeINtB6_11ExpnGlobalsNtNtB6_6client4SpanEINtNtB6_3rpc9DecodeMutuE6decodeCs68Moq3B2G3C_32wasmtime_versioned_export_macros, symObjAddr: 0x3A30, symBinAddr: 0x45C0, symSize: 0xA0 }
  - { offset: 0x9F02, size: 0x8, addend: 0x0, symName: __RNvXsR_NtCscKtU6MdFI5n_10proc_macro6bridgeINtNtCsieiGu2EXtoJ_4core6option6OptionNtNtB5_6client11TokenStreamEINtNtB5_3rpc6EncodeuE6encodeCs68Moq3B2G3C_32wasmtime_versioned_export_macros, symObjAddr: 0x3F30, symBinAddr: 0x4AC0, symSize: 0xB0 }
  - { offset: 0x9FA8, size: 0x8, addend: 0x0, symName: __RNvXsR_NtCscKtU6MdFI5n_10proc_macro6bridgeINtNtCsieiGu2EXtoJ_4core6option6OptionReEINtNtB5_3rpc6EncodeuE6encodeCs68Moq3B2G3C_32wasmtime_versioned_export_macros, symObjAddr: 0x3FE0, symBinAddr: 0x4B70, symSize: 0xC0 }
  - { offset: 0xA055, size: 0x8, addend: 0x0, symName: __RNvXsV_NtCscKtU6MdFI5n_10proc_macro6bridgeINtNtCsieiGu2EXtoJ_4core6result6ResultINtNtBJ_6option6OptionNtNtB5_6client11TokenStreamEuEINtNtB5_3rpc6EncodeuE6encodeCs68Moq3B2G3C_32wasmtime_versioned_export_macros, symObjAddr: 0x40A0, symBinAddr: 0x4C30, symSize: 0xE0 }
  - { offset: 0xA119, size: 0x8, addend: 0x0, symName: __RNvXsV_NtCscKtU6MdFI5n_10proc_macro6bridgeINtNtCsieiGu2EXtoJ_4core6result6ResultuNtNtB5_3rpc12PanicMessageEINtB1j_6EncodeuE6encodeCs68Moq3B2G3C_32wasmtime_versioned_export_macros, symObjAddr: 0x4180, symBinAddr: 0x4D10, symSize: 0x120 }
  - { offset: 0xAE59, size: 0x8, addend: 0x0, symName: __RNCINvMsi_NtCslJiobkLta79_5alloc3vecINtB8_3VechE14extend_trustedINtNtNtNtCsieiGu2EXtoJ_4core4iter8adapters3map3MapINtNtNtB19_5slice4iter4IterhENCNvNtBa_3str13replace_ascii0EE0Cs68Moq3B2G3C_32wasmtime_versioned_export_macros, symObjAddr: 0x1B30, symBinAddr: 0x26D0, symSize: 0x30 }
  - { offset: 0xAF08, size: 0x8, addend: 0x0, symName: __RINvXsd_NtCslJiobkLta79_5alloc3vecINtB6_3VechEINtNtNtNtCsieiGu2EXtoJ_4core4iter6traits7collect12FromIteratorhE9from_iterINtNtNtBP_8adapters3map3MapINtNtNtBR_5slice4iter4IterhENCNvNtB8_3str13replace_ascii0EECs68Moq3B2G3C_32wasmtime_versioned_export_macros, symObjAddr: 0x1A50, symBinAddr: 0x25F0, symSize: 0x40 }
  - { offset: 0xAF54, size: 0x8, addend: 0x0, symName: __RNvXNtNtCslJiobkLta79_5alloc3vec14spec_from_iterINtB4_3VechEINtB2_12SpecFromIterhINtNtNtNtCsieiGu2EXtoJ_4core4iter8adapters3map3MapINtNtNtB1q_5slice4iter4IterhENCNvNtB6_3str13replace_ascii0EE9from_iterCs68Moq3B2G3C_32wasmtime_versioned_export_macros, symObjAddr: 0x39B0, symBinAddr: 0x4540, symSize: 0x20 }
  - { offset: 0xAF9F, size: 0x8, addend: 0x0, symName: __RNvXs_NtNtCslJiobkLta79_5alloc3vec11spec_extendINtB6_3VechEINtB4_10SpecExtendhINtNtNtNtCsieiGu2EXtoJ_4core4iter8adapters3map3MapINtNtNtB1n_5slice4iter4IterhENCNvNtB8_3str13replace_ascii0EE11spec_extendCs68Moq3B2G3C_32wasmtime_versioned_export_macros, symObjAddr: 0x47D0, symBinAddr: 0x5360, symSize: 0x20 }
  - { offset: 0xAFFD, size: 0x8, addend: 0x0, symName: __RNvXs_NtNtCslJiobkLta79_5alloc3vec21spec_from_iter_nestedINtB6_3VechEINtB4_18SpecFromIterNestedhINtNtNtNtCsieiGu2EXtoJ_4core4iter8adapters3map3MapINtNtNtB1F_5slice4iter4IterhENCNvNtB8_3str13replace_ascii0EE9from_iterCs68Moq3B2G3C_32wasmtime_versioned_export_macros, symObjAddr: 0x47F0, symBinAddr: 0x5380, symSize: 0x1C0 }
  - { offset: 0xB66E, size: 0x8, addend: 0x0, symName: __RNvXs_NtCslJiobkLta79_5alloc5allocNtB4_6GlobalNtNtCsieiGu2EXtoJ_4core5alloc9Allocator10deallocateCs68Moq3B2G3C_32wasmtime_versioned_export_macros, symObjAddr: 0x42A0, symBinAddr: 0x4E30, symSize: 0x70 }
  - { offset: 0xBFED, size: 0x8, addend: 0x0, symName: __RNvXs6_NtCslJiobkLta79_5alloc5boxedINtB5_3BoxDNtNtCsieiGu2EXtoJ_4core5error5ErrorNtNtBM_6marker4SyncNtB1j_4SendEL_ENtNtNtBM_3ops4drop4Drop4dropCs68Moq3B2G3C_32wasmtime_versioned_export_macros, symObjAddr: 0x3C70, symBinAddr: 0x4800, symSize: 0xC0 }
  - { offset: 0xC12A, size: 0x8, addend: 0x0, symName: __RNvXs6_NtCslJiobkLta79_5alloc5boxedINtB5_3BoxNtNtNtCsHUR1vrdMJt_3std2io5error6CustomENtNtNtCsieiGu2EXtoJ_4core3ops4drop4Drop4dropCs68Moq3B2G3C_32wasmtime_versioned_export_macros, symObjAddr: 0x3D30, symBinAddr: 0x48C0, symSize: 0xB0 }
  - { offset: 0xC26C, size: 0x8, addend: 0x0, symName: __RNvNtCslJiobkLta79_5alloc3fmt6formatCs68Moq3B2G3C_32wasmtime_versioned_export_macros, symObjAddr: 0x2880, symBinAddr: 0x3410, symSize: 0xC0 }
  - { offset: 0xC319, size: 0x8, addend: 0x0, symName: __RINvMs2_NtNtCsHUR1vrdMJt_3std6thread5localINtB6_8LocalKeyINtNtCsieiGu2EXtoJ_4core4cell4CellPuEE4withNCNvMs3_B6_BE_7replace0B1r_ECs68Moq3B2G3C_32wasmtime_versioned_export_macros, symObjAddr: 0x600, symBinAddr: 0x11E0, symSize: 0x50 }
  - { offset: 0xC3D2, size: 0x8, addend: 0x0, symName: __RINvMs2_NtNtCsHUR1vrdMJt_3std6thread5localINtB6_8LocalKeyINtNtCsieiGu2EXtoJ_4core4cell4CellPuEE8try_withNCNvMs3_B6_BE_7replace0B1r_ECs68Moq3B2G3C_32wasmtime_versioned_export_macros, symObjAddr: 0x650, symBinAddr: 0x1230, symSize: 0xF0 }
  - { offset: 0xC74C, size: 0x8, addend: 0x0, symName: __RINvMsi_NtCslJiobkLta79_5alloc3vecINtB6_3VechE14extend_trustedINtNtNtNtCsieiGu2EXtoJ_4core4iter8adapters3map3MapINtNtNtB17_5slice4iter4IterhENCNvNtB8_3str13replace_ascii0EECs68Moq3B2G3C_32wasmtime_versioned_export_macros, symObjAddr: 0x740, symBinAddr: 0x1320, symSize: 0x1C0 }
  - { offset: 0xC94A, size: 0x8, addend: 0x0, symName: __RINvNtCsdGrGZaRBwMb_3syn11parse_quote5parseNtNtB4_4attr9AttributeECs68Moq3B2G3C_32wasmtime_versioned_export_macros, symObjAddr: 0x900, symBinAddr: 0x14E0, symSize: 0xE0 }
  - { offset: 0xCA42, size: 0x8, addend: 0x0, symName: __RNvXsh_NtCsdGrGZaRBwMb_3syn5parseNvYNtCsaKzlTDPUHDb_11proc_macro25IdentNtB5_5Parse5parseNtB5_6Parser6parse2Cs68Moq3B2G3C_32wasmtime_versioned_export_macros, symObjAddr: 0x4AB0, symBinAddr: 0x5640, symSize: 0x3F0 }
  - { offset: 0xCB53, size: 0x8, addend: 0x0, symName: __RNvXsh_NtCsdGrGZaRBwMb_3syn5parseNvYNtNtB7_4attr9AttributeNtNtB7_11parse_quote10ParseQuote5parseNtB5_6Parser6parse2Cs68Moq3B2G3C_32wasmtime_versioned_export_macros, symObjAddr: 0x4EA0, symBinAddr: 0x5A30, symSize: 0x400 }
  - { offset: 0xCC64, size: 0x8, addend: 0x0, symName: __RNvXsh_NtCsdGrGZaRBwMb_3syn5parseNvYNtNtB7_4item13ForeignItemFnNtB5_5Parse5parseNtB5_6Parser6parse2Cs68Moq3B2G3C_32wasmtime_versioned_export_macros, symObjAddr: 0x52A0, symBinAddr: 0x5E30, symSize: 0x400 }
  - { offset: 0xCD75, size: 0x8, addend: 0x0, symName: __RNvXsh_NtCsdGrGZaRBwMb_3syn5parseNvYNtNtB7_4item6ItemFnNtB5_5Parse5parseNtB5_6Parser6parse2Cs68Moq3B2G3C_32wasmtime_versioned_export_macros, symObjAddr: 0x56A0, symBinAddr: 0x6230, symSize: 0x400 }
  - { offset: 0xCE8C, size: 0x8, addend: 0x0, symName: __RNvYNvYNtCsaKzlTDPUHDb_11proc_macro25IdentNtNtCsdGrGZaRBwMb_3syn5parse5Parse5parseNtBG_6Parser5parseCs68Moq3B2G3C_32wasmtime_versioned_export_macros, symObjAddr: 0x61C0, symBinAddr: 0x6D50, symSize: 0x70 }
  - { offset: 0xCED2, size: 0x8, addend: 0x0, symName: __RNvYNvYNtNtCsdGrGZaRBwMb_3syn4item13ForeignItemFnNtNtB9_5parse5Parse5parseNtBN_6Parser5parseCs68Moq3B2G3C_32wasmtime_versioned_export_macros, symObjAddr: 0x6290, symBinAddr: 0x6E20, symSize: 0x70 }
  - { offset: 0xCF18, size: 0x8, addend: 0x0, symName: __RNvYNvYNtNtCsdGrGZaRBwMb_3syn4item6ItemFnNtNtB9_5parse5Parse5parseNtBF_6Parser5parseCs68Moq3B2G3C_32wasmtime_versioned_export_macros, symObjAddr: 0x6330, symBinAddr: 0x6EC0, symSize: 0x70 }
  - { offset: 0x122C0, size: 0x8, addend: 0x0, symName: __RNvMNtCslJiobkLta79_5alloc6stringNtB2_6String6as_strCs68Moq3B2G3C_32wasmtime_versioned_export_macros, symObjAddr: 0x2810, symBinAddr: 0x33B0, symSize: 0x60 }
  - { offset: 0x128F8, size: 0x8, addend: 0x0, symName: __RNvYNtNtCsdGrGZaRBwMb_3syn4item13ForeignItemFnNtNtCs9OU1sGv5X54_5quote9to_tokens8ToTokens15to_token_streamCs68Moq3B2G3C_32wasmtime_versioned_export_macros, symObjAddr: 0x5FD0, symBinAddr: 0x6B60, symSize: 0x90 }
  - { offset: 0x12942, size: 0x8, addend: 0x0, symName: __RNvYNtNtCsdGrGZaRBwMb_3syn4item6ItemFnNtNtCs9OU1sGv5X54_5quote9to_tokens8ToTokens15to_token_streamCs68Moq3B2G3C_32wasmtime_versioned_export_macros, symObjAddr: 0x6060, symBinAddr: 0x6BF0, symSize: 0x90 }
  - { offset: 0x132A7, size: 0x8, addend: 0x0, symName: __RINvCsdGrGZaRBwMb_3syn5parseNtCsaKzlTDPUHDb_11proc_macro25IdentECs68Moq3B2G3C_32wasmtime_versioned_export_macros, symObjAddr: 0x0, symBinAddr: 0x6F30, symSize: 0x30 }
  - { offset: 0x13551, size: 0x8, addend: 0x0, symName: __RNvXs5_NtNtCscKtU6MdFI5n_10proc_macro6bridge6bufferNtB5_6BufferNtNtNtCsieiGu2EXtoJ_4core3ops4drop4Drop4dropCs68Moq3B2G3C_32wasmtime_versioned_export_macros, symObjAddr: 0x35B0, symBinAddr: 0xA4E0, symSize: 0xA0 }
  - { offset: 0x13849, size: 0x8, addend: 0x0, symName: __RNCINvNtNtCscKtU6MdFI5n_10proc_macro6bridge6client10run_clientNtB4_11TokenStreamINtNtCsieiGu2EXtoJ_4core6option6OptionBY_ENCNCINvMs6_B4_INtB4_6ClientNtB8_11TokenStreamB2n_E7expand1NvCs68Moq3B2G3C_32wasmtime_versioned_export_macros16versioned_suffixE00E0B2U_, symObjAddr: 0x1990, symBinAddr: 0x88C0, symSize: 0x420 }
  - { offset: 0x13A6A, size: 0x8, addend: 0x0, symName: __RNCINvNtNtCscKtU6MdFI5n_10proc_macro6bridge6client10run_clientNtB4_11TokenStreamINtNtCsieiGu2EXtoJ_4core6option6OptionBY_ENCNCINvMs6_B4_INtB4_6ClientNtB8_11TokenStreamB2n_E7expand1NvCs68Moq3B2G3C_32wasmtime_versioned_export_macros25versioned_stringify_identE00E0B2U_, symObjAddr: 0x1DB0, symBinAddr: 0x8CE0, symSize: 0x420 }
  - { offset: 0x13C8B, size: 0x8, addend: 0x0, symName: __RNCINvNtNtCscKtU6MdFI5n_10proc_macro6bridge6client10run_clientTNtB4_11TokenStreamBZ_EINtNtCsieiGu2EXtoJ_4core6option6OptionBZ_ENCNCINvMs7_B4_INtB4_6ClientTNtB8_11TokenStreamB2t_EB2t_E7expand2NvCs68Moq3B2G3C_32wasmtime_versioned_export_macros14versioned_linkE00E0B35_, symObjAddr: 0x21D0, symBinAddr: 0x9100, symSize: 0x450 }
  - { offset: 0x13EAC, size: 0x8, addend: 0x0, symName: __RNCINvNtNtCscKtU6MdFI5n_10proc_macro6bridge6client10run_clientTNtB4_11TokenStreamBZ_EINtNtCsieiGu2EXtoJ_4core6option6OptionBZ_ENCNCINvMs7_B4_INtB4_6ClientTNtB8_11TokenStreamB2t_EB2t_E7expand2NvCs68Moq3B2G3C_32wasmtime_versioned_export_macros16versioned_exportE00E0B35_, symObjAddr: 0x2620, symBinAddr: 0x9550, symSize: 0x450 }
  - { offset: 0x140D2, size: 0x8, addend: 0x0, symName: __RNCNCINvNtNtCscKtU6MdFI5n_10proc_macro6bridge6client10run_clientNtB6_11TokenStreamINtNtCsieiGu2EXtoJ_4core6option6OptionB10_ENCNCINvMs6_B6_INtB6_6ClientNtBa_11TokenStreamB2q_E7expand1NvCs68Moq3B2G3C_32wasmtime_versioned_export_macros16versioned_suffixE00E00B2X_, symObjAddr: 0x2B30, symBinAddr: 0x9A60, symSize: 0x20 }
  - { offset: 0x1412E, size: 0x8, addend: 0x0, symName: __RNCNCINvNtNtCscKtU6MdFI5n_10proc_macro6bridge6client10run_clientNtB6_11TokenStreamINtNtCsieiGu2EXtoJ_4core6option6OptionB10_ENCNCINvMs6_B6_INtB6_6ClientNtBa_11TokenStreamB2q_E7expand1NvCs68Moq3B2G3C_32wasmtime_versioned_export_macros25versioned_stringify_identE00E00B2X_, symObjAddr: 0x2B50, symBinAddr: 0x9A80, symSize: 0x20 }
  - { offset: 0x1418A, size: 0x8, addend: 0x0, symName: __RNCNCINvNtNtCscKtU6MdFI5n_10proc_macro6bridge6client10run_clientTNtB6_11TokenStreamB11_EINtNtCsieiGu2EXtoJ_4core6option6OptionB11_ENCNCINvMs7_B6_INtB6_6ClientTNtBa_11TokenStreamB2x_EB2x_E7expand2NvCs68Moq3B2G3C_32wasmtime_versioned_export_macros14versioned_linkE00E00B39_, symObjAddr: 0x2B70, symBinAddr: 0x9AA0, symSize: 0x20 }
  - { offset: 0x141E6, size: 0x8, addend: 0x0, symName: __RNCNCINvNtNtCscKtU6MdFI5n_10proc_macro6bridge6client10run_clientTNtB6_11TokenStreamB11_EINtNtCsieiGu2EXtoJ_4core6option6OptionB11_ENCNCINvMs7_B6_INtB6_6ClientTNtBa_11TokenStreamB2x_EB2x_E7expand2NvCs68Moq3B2G3C_32wasmtime_versioned_export_macros16versioned_exportE00E00B39_, symObjAddr: 0x2B90, symBinAddr: 0x9AC0, symSize: 0x20 }
  - { offset: 0x14279, size: 0x8, addend: 0x0, symName: __RNCNCINvMs6_NtNtCscKtU6MdFI5n_10proc_macro6bridge6clientINtBa_6ClientNtBe_11TokenStreamB15_E7expand1NvCs68Moq3B2G3C_32wasmtime_versioned_export_macros16versioned_suffixE00B1C_, symObjAddr: 0x2A90, symBinAddr: 0x99C0, symSize: 0x20 }
  - { offset: 0x142C1, size: 0x8, addend: 0x0, symName: __RNCNCINvMs6_NtNtCscKtU6MdFI5n_10proc_macro6bridge6clientINtBa_6ClientNtBe_11TokenStreamB15_E7expand1NvCs68Moq3B2G3C_32wasmtime_versioned_export_macros25versioned_stringify_identE00B1C_, symObjAddr: 0x2AB0, symBinAddr: 0x99E0, symSize: 0x20 }
  - { offset: 0x1430A, size: 0x8, addend: 0x0, symName: __RNCINvMs6_NtNtCscKtU6MdFI5n_10proc_macro6bridge6clientINtB8_6ClientNtBc_11TokenStreamB13_E7expand1NvCs68Moq3B2G3C_32wasmtime_versioned_export_macros16versioned_suffixE0B1A_, symObjAddr: 0x18D0, symBinAddr: 0x8800, symSize: 0x30 }
  - { offset: 0x14353, size: 0x8, addend: 0x0, symName: __RNCINvMs6_NtNtCscKtU6MdFI5n_10proc_macro6bridge6clientINtB8_6ClientNtBc_11TokenStreamB13_E7expand1NvCs68Moq3B2G3C_32wasmtime_versioned_export_macros25versioned_stringify_identE0B1A_, symObjAddr: 0x1900, symBinAddr: 0x8830, symSize: 0x30 }
  - { offset: 0x143BF, size: 0x8, addend: 0x0, symName: __RINvNtNtCscKtU6MdFI5n_10proc_macro6bridge6client10run_clientNtB2_11TokenStreamINtNtCsieiGu2EXtoJ_4core6option6OptionBW_ENCNCINvMs6_B2_INtB2_6ClientNtB6_11TokenStreamB2l_E7expand1NvCs68Moq3B2G3C_32wasmtime_versioned_export_macros16versioned_suffixE00EB2S_, symObjAddr: 0xD50, symBinAddr: 0x7C80, symSize: 0x2E0 }
  - { offset: 0x145A9, size: 0x8, addend: 0x0, symName: __RINvNtNtCscKtU6MdFI5n_10proc_macro6bridge6client10run_clientNtB2_11TokenStreamINtNtCsieiGu2EXtoJ_4core6option6OptionBW_ENCNCINvMs6_B2_INtB2_6ClientNtB6_11TokenStreamB2l_E7expand1NvCs68Moq3B2G3C_32wasmtime_versioned_export_macros25versioned_stringify_identE00EB2S_, symObjAddr: 0x1030, symBinAddr: 0x7F60, symSize: 0x2E0 }
  - { offset: 0x147C8, size: 0x8, addend: 0x0, symName: __RNCNCINvMs7_NtNtCscKtU6MdFI5n_10proc_macro6bridge6clientINtBa_6ClientTNtBe_11TokenStreamB16_EB16_E7expand2NvCs68Moq3B2G3C_32wasmtime_versioned_export_macros14versioned_linkE00B1I_, symObjAddr: 0x2AD0, symBinAddr: 0x9A00, symSize: 0x30 }
  - { offset: 0x1483A, size: 0x8, addend: 0x0, symName: __RNCNCINvMs7_NtNtCscKtU6MdFI5n_10proc_macro6bridge6clientINtBa_6ClientTNtBe_11TokenStreamB16_EB16_E7expand2NvCs68Moq3B2G3C_32wasmtime_versioned_export_macros16versioned_exportE00B1I_, symObjAddr: 0x2B00, symBinAddr: 0x9A30, symSize: 0x30 }
  - { offset: 0x148AD, size: 0x8, addend: 0x0, symName: __RNCINvMs7_NtNtCscKtU6MdFI5n_10proc_macro6bridge6clientINtB8_6ClientTNtBc_11TokenStreamB14_EB14_E7expand2NvCs68Moq3B2G3C_32wasmtime_versioned_export_macros14versioned_linkE0B1G_, symObjAddr: 0x1930, symBinAddr: 0x8860, symSize: 0x30 }
  - { offset: 0x148F6, size: 0x8, addend: 0x0, symName: __RNCINvMs7_NtNtCscKtU6MdFI5n_10proc_macro6bridge6clientINtB8_6ClientTNtBc_11TokenStreamB14_EB14_E7expand2NvCs68Moq3B2G3C_32wasmtime_versioned_export_macros16versioned_exportE0B1G_, symObjAddr: 0x1960, symBinAddr: 0x8890, symSize: 0x30 }
  - { offset: 0x14941, size: 0x8, addend: 0x0, symName: __RINvNtNtCscKtU6MdFI5n_10proc_macro6bridge6client10run_clientTNtB2_11TokenStreamBX_EINtNtCsieiGu2EXtoJ_4core6option6OptionBX_ENCNCINvMs7_B2_INtB2_6ClientTNtB6_11TokenStreamB2r_EB2r_E7expand2NvCs68Moq3B2G3C_32wasmtime_versioned_export_macros14versioned_linkE00EB33_, symObjAddr: 0x1310, symBinAddr: 0x8240, symSize: 0x2E0 }
  - { offset: 0x14B2B, size: 0x8, addend: 0x0, symName: __RINvNtNtCscKtU6MdFI5n_10proc_macro6bridge6client10run_clientTNtB2_11TokenStreamBX_EINtNtCsieiGu2EXtoJ_4core6option6OptionBX_ENCNCINvMs7_B2_INtB2_6ClientTNtB6_11TokenStreamB2r_EB2r_E7expand2NvCs68Moq3B2G3C_32wasmtime_versioned_export_macros16versioned_exportE00EB33_, symObjAddr: 0x15F0, symBinAddr: 0x8520, symSize: 0x2E0 }
  - { offset: 0x14D68, size: 0x8, addend: 0x0, symName: __RNvXsf_NtNtCscKtU6MdFI5n_10proc_macro6bridge6clientNtB5_11TokenStreamINtNtB7_3rpc6EncodeuE6encodeCs68Moq3B2G3C_32wasmtime_versioned_export_macros, symObjAddr: 0x36C0, symBinAddr: 0xA5F0, symSize: 0x40 }
  - { offset: 0x14E79, size: 0x8, addend: 0x0, symName: __RNvXsi_NtNtCscKtU6MdFI5n_10proc_macro6bridge6clientNtB5_11TokenStreamINtNtB7_3rpc9DecodeMutuE6decodeCs68Moq3B2G3C_32wasmtime_versioned_export_macros, symObjAddr: 0x3700, symBinAddr: 0xA630, symSize: 0x20 }
  - { offset: 0x14EC2, size: 0x8, addend: 0x0, symName: __RNvXsk_NtNtCscKtU6MdFI5n_10proc_macro6bridge6clientNtB5_4SpanINtNtB7_3rpc9DecodeMutuE6decodeCs68Moq3B2G3C_32wasmtime_versioned_export_macros, symObjAddr: 0x3720, symBinAddr: 0xA650, symSize: 0x20 }
  - { offset: 0x14FDD, size: 0x8, addend: 0x0, symName: __RNvXs9_NtNtCscKtU6MdFI5n_10proc_macro6bridge3rpcTNtNtB7_6client11TokenStreamBL_EINtB5_9DecodeMutuE6decodeCs68Moq3B2G3C_32wasmtime_versioned_export_macros, symObjAddr: 0x3650, symBinAddr: 0xA580, symSize: 0x70 }
  - { offset: 0x18451, size: 0x8, addend: 0x0, symName: __RNvNvNtNtCsieiGu2EXtoJ_4core5slice3raw14from_raw_parts18precondition_checkCs68Moq3B2G3C_32wasmtime_versioned_export_macros, symObjAddr: 0x30F0, symBinAddr: 0xA020, symSize: 0x260 }
  - { offset: 0x1861F, size: 0x8, addend: 0x0, symName: __RNvNvNtNtCsieiGu2EXtoJ_4core5slice3raw18from_raw_parts_mut18precondition_checkCs68Moq3B2G3C_32wasmtime_versioned_export_macros, symObjAddr: 0x3350, symBinAddr: 0xA280, symSize: 0x260 }
  - { offset: 0x18823, size: 0x8, addend: 0x0, symName: __RNvNtNtCsieiGu2EXtoJ_4core5slice6memchr6memchrCs68Moq3B2G3C_32wasmtime_versioned_export_macros, symObjAddr: 0x2F70, symBinAddr: 0x9EA0, symSize: 0xE0 }
  - { offset: 0x18C0D, size: 0x8, addend: 0x0, symName: __RNvNvMs9_NtCsieiGu2EXtoJ_4core3numj13unchecked_add18precondition_checkCs68Moq3B2G3C_32wasmtime_versioned_export_macros, symObjAddr: 0x3050, symBinAddr: 0x9F80, symSize: 0xA0 }
  - { offset: 0x18E15, size: 0x8, addend: 0x0, symName: __RNCINvNvNtNtNtNtCsieiGu2EXtoJ_4core4iter6traits8iterator8Iterator8for_each4callhNCINvMsi_NtCslJiobkLta79_5alloc3vecINtB1p_3VechE14extend_trustedINtNtNtBc_8adapters3map3MapINtNtNtBe_5slice4iter4IterhENCNvNtB1r_3str13replace_ascii0EE0E0Cs68Moq3B2G3C_32wasmtime_versioned_export_macros, symObjAddr: 0x2A70, symBinAddr: 0x99A0, symSize: 0x20 }
  - { offset: 0x19CC6, size: 0x8, addend: 0x0, symName: __RINvCsdGrGZaRBwMb_3syn5parseNtCsaKzlTDPUHDb_11proc_macro25IdentECs68Moq3B2G3C_32wasmtime_versioned_export_macros, symObjAddr: 0x0, symBinAddr: 0x6F30, symSize: 0x30 }
  - { offset: 0x19CFD, size: 0x8, addend: 0x0, symName: __RINvCsdGrGZaRBwMb_3syn5parseNtNtB2_4item13ForeignItemFnECs68Moq3B2G3C_32wasmtime_versioned_export_macros, symObjAddr: 0x30, symBinAddr: 0x6F60, symSize: 0x30 }
  - { offset: 0x19D34, size: 0x8, addend: 0x0, symName: __RINvCsdGrGZaRBwMb_3syn5parseNtNtB2_4item6ItemFnECs68Moq3B2G3C_32wasmtime_versioned_export_macros, symObjAddr: 0x60, symBinAddr: 0x6F90, symSize: 0x30 }
  - { offset: 0x1EA49, size: 0x8, addend: 0x0, symName: __RINvMs3_NtCslJiobkLta79_5alloc3stre7replacecECs68Moq3B2G3C_32wasmtime_versioned_export_macros, symObjAddr: 0x90, symBinAddr: 0x6FC0, symSize: 0x900 }
  - { offset: 0x1F575, size: 0x8, addend: 0x0, symName: __RNCNvNtCslJiobkLta79_5alloc3str13replace_ascii0Cs68Moq3B2G3C_32wasmtime_versioned_export_macros, symObjAddr: 0x2BB0, symBinAddr: 0x9AE0, symSize: 0x40 }
  - { offset: 0x20875, size: 0x8, addend: 0x0, symName: __RINvMs3_NtNtCscKtU6MdFI5n_10proc_macro6bridge6bufferNtB6_6Buffer17extend_from_arrayKj4_ECs68Moq3B2G3C_32wasmtime_versioned_export_macros, symObjAddr: 0x990, symBinAddr: 0x78C0, symSize: 0x1E0 }
  - { offset: 0x209FD, size: 0x8, addend: 0x0, symName: __RINvMs3_NtNtCscKtU6MdFI5n_10proc_macro6bridge6bufferNtB6_6Buffer17extend_from_arrayKj8_ECs68Moq3B2G3C_32wasmtime_versioned_export_macros, symObjAddr: 0xB70, symBinAddr: 0x7AA0, symSize: 0x1E0 }
  - { offset: 0x214AE, size: 0x8, addend: 0x0, symName: __RNvMs3_NtNtCscKtU6MdFI5n_10proc_macro6bridge6bufferNtB5_6Buffer17extend_from_sliceCs68Moq3B2G3C_32wasmtime_versioned_export_macros, symObjAddr: 0x2BF0, symBinAddr: 0x9B20, symSize: 0x1E0 }
  - { offset: 0x2162B, size: 0x8, addend: 0x0, symName: __RNvMs3_NtNtCscKtU6MdFI5n_10proc_macro6bridge6bufferNtB5_6Buffer4pushCs68Moq3B2G3C_32wasmtime_versioned_export_macros, symObjAddr: 0x2DD0, symBinAddr: 0x9D00, symSize: 0x1A0 }
  - { offset: 0x218D9, size: 0x8, addend: 0x0, symName: __RNvYNtNtCsdGrGZaRBwMb_3syn3lit6LitStrNtNtCs9OU1sGv5X54_5quote9to_tokens8ToTokens15to_token_streamCs68Moq3B2G3C_32wasmtime_versioned_export_macros, symObjAddr: 0x3740, symBinAddr: 0xA670, symSize: 0x90 }
  - { offset: 0x27AF2, size: 0x8, addend: 0x0, symName: __RNcNtNtNtCsdGrGZaRBwMb_3syn4item11ForeignItem5Macro0B7_, symObjAddr: 0x1B60, symBinAddr: 0xA7B0, symSize: 0x40 }
  - { offset: 0x27B29, size: 0x8, addend: 0x0, symName: __RNcNtNtNtCsdGrGZaRBwMb_3syn4item16StaticMutability3Mut0B7_, symObjAddr: 0x1BA0, symBinAddr: 0xA7F0, symSize: 0x10 }
  - { offset: 0x27B5F, size: 0x8, addend: 0x0, symName: __RNcNtNtNtCsdGrGZaRBwMb_3syn4item4Item10ForeignMod0B7_, symObjAddr: 0x1BB0, symBinAddr: 0xA800, symSize: 0x40 }
  - { offset: 0x27B8E, size: 0x8, addend: 0x0, symName: __RNcNtNtNtCsdGrGZaRBwMb_3syn4item4Item10TraitAlias0B7_, symObjAddr: 0x1BF0, symBinAddr: 0xA840, symSize: 0x40 }
  - { offset: 0x27BBD, size: 0x8, addend: 0x0, symName: __RNcNtNtNtCsdGrGZaRBwMb_3syn4item4Item11ExternCrate0B7_, symObjAddr: 0x1C30, symBinAddr: 0xA880, symSize: 0x40 }
  - { offset: 0x27BEC, size: 0x8, addend: 0x0, symName: __RNcNtNtNtCsdGrGZaRBwMb_3syn4item4Item2Fn0B7_, symObjAddr: 0x1C70, symBinAddr: 0xA8C0, symSize: 0x30 }
  - { offset: 0x27C1B, size: 0x8, addend: 0x0, symName: __RNcNtNtNtCsdGrGZaRBwMb_3syn4item4Item3Mod0B7_, symObjAddr: 0x1CA0, symBinAddr: 0xA8F0, symSize: 0x40 }
  - { offset: 0x27C4A, size: 0x8, addend: 0x0, symName: __RNcNtNtNtCsdGrGZaRBwMb_3syn4item4Item4Enum0B7_, symObjAddr: 0x1CE0, symBinAddr: 0xA930, symSize: 0x40 }
  - { offset: 0x27C79, size: 0x8, addend: 0x0, symName: __RNcNtNtNtCsdGrGZaRBwMb_3syn4item4Item5Macro0B7_, symObjAddr: 0x1D20, symBinAddr: 0xA970, symSize: 0x40 }
  - { offset: 0x27CA8, size: 0x8, addend: 0x0, symName: __RNcNtNtNtCsdGrGZaRBwMb_3syn4item4Item5Trait0B7_, symObjAddr: 0x1D60, symBinAddr: 0xA9B0, symSize: 0x40 }
  - { offset: 0x27CD7, size: 0x8, addend: 0x0, symName: __RNcNtNtNtCsdGrGZaRBwMb_3syn4item4Item5Union0B7_, symObjAddr: 0x1DA0, symBinAddr: 0xA9F0, symSize: 0x40 }
  - { offset: 0x27D06, size: 0x8, addend: 0x0, symName: __RNcNtNtNtCsdGrGZaRBwMb_3syn4item4Item6Struct0B7_, symObjAddr: 0x1DE0, symBinAddr: 0xAA30, symSize: 0x40 }
  - { offset: 0x27D3B, size: 0x8, addend: 0x0, symName: __RNcNtNtNtCsdGrGZaRBwMb_3syn4item8ImplItem5Macro0B7_, symObjAddr: 0x1E20, symBinAddr: 0xAA70, symSize: 0x40 }
  - { offset: 0x27D72, size: 0x8, addend: 0x0, symName: __RNcNtNtNtCsdGrGZaRBwMb_3syn4item9TraitItem2Fn0B7_, symObjAddr: 0x1E60, symBinAddr: 0xAAB0, symSize: 0x40 }
  - { offset: 0x27DA3, size: 0x8, addend: 0x0, symName: __RNcNtNtNtCsdGrGZaRBwMb_3syn4item9TraitItem5Macro0B7_, symObjAddr: 0x1EA0, symBinAddr: 0xAAF0, symSize: 0x40 }
  - { offset: 0x27DDA, size: 0x8, addend: 0x0, symName: __RNvXNtNtCsdGrGZaRBwMb_3syn4item7parsingNtB4_4ItemNtNtB6_5parse5Parse5parse, symObjAddr: 0x45C0, symBinAddr: 0xAF30, symSize: 0x220 }
  - { offset: 0x27E82, size: 0x8, addend: 0x0, symName: __RNvXs0_NtNtCsdGrGZaRBwMb_3syn4item7parsingNtB7_9ItemMacroNtNtB9_5parse5Parse5parse, symObjAddr: 0x4970, symBinAddr: 0xB250, symSize: 0x900 }
  - { offset: 0x28050, size: 0x8, addend: 0x0, symName: __RNvXs1_NtNtCsdGrGZaRBwMb_3syn4item7parsingNtB7_15ItemExternCrateNtNtB9_5parse5Parse5parse, symObjAddr: 0x61D0, symBinAddr: 0xBC30, symSize: 0xC80 }
  - { offset: 0x2825A, size: 0x8, addend: 0x0, symName: __RNvXs3_NtNtCsdGrGZaRBwMb_3syn4item7parsingNtB7_7UseTreeNtNtB9_5parse5Parse5parse, symObjAddr: 0xF1E0, symBinAddr: 0xCA70, symSize: 0x50 }
  - { offset: 0x282AC, size: 0x8, addend: 0x0, symName: __RNvXs6_NtNtCsdGrGZaRBwMb_3syn4item7parsingNtB7_9SignatureNtNtB9_5parse5Parse5parse, symObjAddr: 0x127D0, symBinAddr: 0xCD30, symSize: 0x60 }
  - { offset: 0x282FE, size: 0x8, addend: 0x0, symName: __RNvXs7_NtNtCsdGrGZaRBwMb_3syn4item7parsingNtB7_6ItemFnNtNtB9_5parse5Parse5parse, symObjAddr: 0x12930, symBinAddr: 0xCE50, symSize: 0x490 }
  - { offset: 0x28431, size: 0x8, addend: 0x0, symName: __RNvXsa_NtNtCsdGrGZaRBwMb_3syn4item7parsingNtB7_7ItemModNtNtB9_5parse5Parse5parse, symObjAddr: 0x14920, symBinAddr: 0xD920, symSize: 0x10F0 }
  - { offset: 0x28694, size: 0x8, addend: 0x0, symName: __RNvXsb_NtNtCsdGrGZaRBwMb_3syn4item7parsingNtB7_14ItemForeignModNtNtB9_5parse5Parse5parse, symObjAddr: 0x15B30, symBinAddr: 0xEAF0, symSize: 0x7D0 }
  - { offset: 0x28846, size: 0x8, addend: 0x0, symName: __RNvXsc_NtNtCsdGrGZaRBwMb_3syn4item7parsingNtB7_11ForeignItemNtNtB9_5parse5Parse5parse, symObjAddr: 0x164A0, symBinAddr: 0xF420, symSize: 0x22C0 }
  - { offset: 0x28EC0, size: 0x8, addend: 0x0, symName: __RNvXsd_NtNtCsdGrGZaRBwMb_3syn4item7parsingNtB7_13ForeignItemFnNtNtB9_5parse5Parse5parse, symObjAddr: 0x188D0, symBinAddr: 0x11810, symSize: 0x550 }
  - { offset: 0x29021, size: 0x8, addend: 0x0, symName: __RNvXsg_NtNtCsdGrGZaRBwMb_3syn4item7parsingNtB7_16ForeignItemMacroNtNtB9_5parse5Parse5parse, symObjAddr: 0x1A410, symBinAddr: 0x11E30, symSize: 0x410 }
  - { offset: 0x29135, size: 0x8, addend: 0x0, symName: __RNvXsi_NtNtCsdGrGZaRBwMb_3syn4item7parsingNtB7_10ItemStructNtNtB9_5parse5Parse5parse, symObjAddr: 0x1B5E0, symBinAddr: 0x122A0, symSize: 0x960 }
  - { offset: 0x29332, size: 0x8, addend: 0x0, symName: __RNvXsj_NtNtCsdGrGZaRBwMb_3syn4item7parsingNtB7_8ItemEnumNtNtB9_5parse5Parse5parse, symObjAddr: 0x1C090, symBinAddr: 0x12D10, symSize: 0x940 }
  - { offset: 0x2952F, size: 0x8, addend: 0x0, symName: __RNvXsk_NtNtCsdGrGZaRBwMb_3syn4item7parsingNtB7_9ItemUnionNtNtB9_5parse5Parse5parse, symObjAddr: 0x1CD40, symBinAddr: 0x139C0, symSize: 0x940 }
  - { offset: 0x2971B, size: 0x8, addend: 0x0, symName: __RNvXsl_NtNtCsdGrGZaRBwMb_3syn4item7parsingNtB7_9ItemTraitNtNtB9_5parse5Parse5parse, symObjAddr: 0x1D820, symBinAddr: 0x14460, symSize: 0x860 }
  - { offset: 0x29922, size: 0x8, addend: 0x0, symName: __RNvXsn_NtNtCsdGrGZaRBwMb_3syn4item7parsingNtB7_9TraitItemNtNtB9_5parse5Parse5parse, symObjAddr: 0x1E5A0, symBinAddr: 0x14E30, symSize: 0x19C0 }
  - { offset: 0x29DA2, size: 0x8, addend: 0x0, symName: __RNvXsp_NtNtCsdGrGZaRBwMb_3syn4item7parsingNtB7_11TraitItemFnNtNtB9_5parse5Parse5parse, symObjAddr: 0x20C80, symBinAddr: 0x16990, symSize: 0xAF0 }
  - { offset: 0x29FAE, size: 0x8, addend: 0x0, symName: __RNvXsr_NtNtCsdGrGZaRBwMb_3syn4item7parsingNtB7_14TraitItemMacroNtNtB9_5parse5Parse5parse, symObjAddr: 0x225F0, symBinAddr: 0x17640, symSize: 0x410 }
  - { offset: 0x2A0C2, size: 0x8, addend: 0x0, symName: __RNvXst_NtNtCsdGrGZaRBwMb_3syn4item7parsingNtB7_8ImplItemNtNtB9_5parse5Parse5parse, symObjAddr: 0x22C60, symBinAddr: 0x17BD0, symSize: 0x1CB0 }
  - { offset: 0x2A5C9, size: 0x8, addend: 0x0, symName: __RNvXsx_NtNtCsdGrGZaRBwMb_3syn4item7parsingNtB7_13ImplItemMacroNtNtB9_5parse5Parse5parse, symObjAddr: 0x26A90, symBinAddr: 0x19FD0, symSize: 0x410 }
  - { offset: 0x2A6DD, size: 0x8, addend: 0x0, symName: __RNvXsz_NtNtCsdGrGZaRBwMb_3syn4item7parsingNtB7_16StaticMutabilityNtNtB9_5parse5Parse5parse, symObjAddr: 0x26F70, symBinAddr: 0x1A430, symSize: 0xD0 }
  - { offset: 0x2A753, size: 0x8, addend: 0x0, symName: __RNvXNtNtCsdGrGZaRBwMb_3syn4item8printingNtB4_15ItemExternCrateNtNtCs9OU1sGv5X54_5quote9to_tokens8ToTokens9to_tokens, symObjAddr: 0x47E0, symBinAddr: 0xB150, symSize: 0x100 }
  - { offset: 0x2A7C0, size: 0x8, addend: 0x0, symName: __RNvXs0_NtNtCsdGrGZaRBwMb_3syn4item8printingNtB7_10ItemStaticNtNtCs9OU1sGv5X54_5quote9to_tokens8ToTokens9to_tokens, symObjAddr: 0x5270, symBinAddr: 0xBB50, symSize: 0xE0 }
  - { offset: 0x2A7FF, size: 0x8, addend: 0x0, symName: __RNvXs1_NtNtCsdGrGZaRBwMb_3syn4item8printingNtB7_9ItemConstNtNtCs9OU1sGv5X54_5quote9to_tokens8ToTokens9to_tokens, symObjAddr: 0x6E50, symBinAddr: 0xC8B0, symSize: 0xF0 }
  - { offset: 0x2A83E, size: 0x8, addend: 0x0, symName: __RNvXs2_NtNtCsdGrGZaRBwMb_3syn4item8printingNtB7_6ItemFnNtNtCs9OU1sGv5X54_5quote9to_tokens8ToTokens9to_tokens, symObjAddr: 0xC060, symBinAddr: 0xC9A0, symSize: 0xD0 }
  - { offset: 0x2A87D, size: 0x8, addend: 0x0, symName: __RNvXs3_NtNtCsdGrGZaRBwMb_3syn4item8printingNtB7_7ItemModNtNtCs9OU1sGv5X54_5quote9to_tokens8ToTokens9to_tokens, symObjAddr: 0xF230, symBinAddr: 0xCAC0, symSize: 0x110 }
  - { offset: 0x2A8EA, size: 0x8, addend: 0x0, symName: __RNvXs4_NtNtCsdGrGZaRBwMb_3syn4item8printingNtB7_14ItemForeignModNtNtCs9OU1sGv5X54_5quote9to_tokens8ToTokens9to_tokens, symObjAddr: 0x10B10, symBinAddr: 0xCBD0, symSize: 0x80 }
  - { offset: 0x2A929, size: 0x8, addend: 0x0, symName: __RNvXs5_NtNtCsdGrGZaRBwMb_3syn4item8printingNtB7_8ItemTypeNtNtCs9OU1sGv5X54_5quote9to_tokens8ToTokens9to_tokens, symObjAddr: 0x12300, symBinAddr: 0xCC50, symSize: 0xE0 }
  - { offset: 0x2A968, size: 0x8, addend: 0x0, symName: __RNvXs6_NtNtCsdGrGZaRBwMb_3syn4item8printingNtB7_8ItemEnumNtNtCs9OU1sGv5X54_5quote9to_tokens8ToTokens9to_tokens, symObjAddr: 0x12830, symBinAddr: 0xCD90, symSize: 0xC0 }
  - { offset: 0x2A9A7, size: 0x8, addend: 0x0, symName: __RNvXs7_NtNtCsdGrGZaRBwMb_3syn4item8printingNtB7_10ItemStructNtNtCs9OU1sGv5X54_5quote9to_tokens8ToTokens9to_tokens, symObjAddr: 0x12DC0, symBinAddr: 0xD2E0, symSize: 0x180 }
  - { offset: 0x2AA22, size: 0x8, addend: 0x0, symName: __RNvXs8_NtNtCsdGrGZaRBwMb_3syn4item8printingNtB7_9ItemUnionNtNtCs9OU1sGv5X54_5quote9to_tokens8ToTokens9to_tokens, symObjAddr: 0x139D0, symBinAddr: 0xD460, symSize: 0xC0 }
  - { offset: 0x2AA61, size: 0x8, addend: 0x0, symName: __RNvXs9_NtNtCsdGrGZaRBwMb_3syn4item8printingNtB7_9ItemTraitNtNtCs9OU1sGv5X54_5quote9to_tokens8ToTokens9to_tokens, symObjAddr: 0x13CD0, symBinAddr: 0xD520, symSize: 0x130 }
  - { offset: 0x2AAA0, size: 0x8, addend: 0x0, symName: __RNvXs_NtNtCsdGrGZaRBwMb_3syn4item8printingNtB6_7ItemUseNtNtCs9OU1sGv5X54_5quote9to_tokens8ToTokens9to_tokens, symObjAddr: 0x14840, symBinAddr: 0xD880, symSize: 0xA0 }
  - { offset: 0x2AADF, size: 0x8, addend: 0x0, symName: __RNvXsa_NtNtCsdGrGZaRBwMb_3syn4item8printingNtB7_14ItemTraitAliasNtNtCs9OU1sGv5X54_5quote9to_tokens8ToTokens9to_tokens, symObjAddr: 0x15A10, symBinAddr: 0xEA10, symSize: 0xE0 }
  - { offset: 0x2AB1E, size: 0x8, addend: 0x0, symName: __RNvXsb_NtNtCsdGrGZaRBwMb_3syn4item8printingNtB7_8ItemImplNtNtCs9OU1sGv5X54_5quote9to_tokens8ToTokens9to_tokens, symObjAddr: 0x16300, symBinAddr: 0xF2C0, symSize: 0x160 }
  - { offset: 0x2AB9B, size: 0x8, addend: 0x0, symName: __RNvXsc_NtNtCsdGrGZaRBwMb_3syn4item8printingNtB7_9ItemMacroNtNtCs9OU1sGv5X54_5quote9to_tokens8ToTokens9to_tokens, symObjAddr: 0x18760, symBinAddr: 0x116E0, symSize: 0x130 }
  - { offset: 0x2AC2C, size: 0x8, addend: 0x0, symName: __RNvXsd_NtNtCsdGrGZaRBwMb_3syn4item8printingNtB7_7UsePathNtNtCs9OU1sGv5X54_5quote9to_tokens8ToTokens9to_tokens, symObjAddr: 0x18E20, symBinAddr: 0x11D60, symSize: 0x50 }
  - { offset: 0x2AC6B, size: 0x8, addend: 0x0, symName: __RNvXse_NtNtCsdGrGZaRBwMb_3syn4item8printingNtB7_7UseNameNtNtCs9OU1sGv5X54_5quote9to_tokens8ToTokens9to_tokens, symObjAddr: 0x19960, symBinAddr: 0x11DB0, symSize: 0x30 }
  - { offset: 0x2ACAA, size: 0x8, addend: 0x0, symName: __RNvXsf_NtNtCsdGrGZaRBwMb_3syn4item8printingNtB7_9UseRenameNtNtCs9OU1sGv5X54_5quote9to_tokens8ToTokens9to_tokens, symObjAddr: 0x1A380, symBinAddr: 0x11DE0, symSize: 0x50 }
  - { offset: 0x2ACE9, size: 0x8, addend: 0x0, symName: __RNvXsg_NtNtCsdGrGZaRBwMb_3syn4item8printingNtB7_7UseGlobNtNtCs9OU1sGv5X54_5quote9to_tokens8ToTokens9to_tokens, symObjAddr: 0x1A820, symBinAddr: 0x12240, symSize: 0x30 }
  - { offset: 0x2AD28, size: 0x8, addend: 0x0, symName: __RNvXsh_NtNtCsdGrGZaRBwMb_3syn4item8printingNtB7_8UseGroupNtNtCs9OU1sGv5X54_5quote9to_tokens8ToTokens9to_tokens, symObjAddr: 0x1B570, symBinAddr: 0x12270, symSize: 0x30 }
  - { offset: 0x2AD67, size: 0x8, addend: 0x0, symName: __RNvXsi_NtNtCsdGrGZaRBwMb_3syn4item8printingNtB7_14TraitItemConstNtNtCs9OU1sGv5X54_5quote9to_tokens8ToTokens9to_tokens, symObjAddr: 0x1BF40, symBinAddr: 0x12C00, symSize: 0x110 }
  - { offset: 0x2ADD4, size: 0x8, addend: 0x0, symName: __RNvXsj_NtNtCsdGrGZaRBwMb_3syn4item8printingNtB7_11TraitItemFnNtNtCs9OU1sGv5X54_5quote9to_tokens8ToTokens9to_tokens, symObjAddr: 0x1C9D0, symBinAddr: 0x13650, symSize: 0xD0 }
  - { offset: 0x2AE31, size: 0x8, addend: 0x0, symName: __RNvXsk_NtNtCsdGrGZaRBwMb_3syn4item8printingNtB7_13TraitItemTypeNtNtCs9OU1sGv5X54_5quote9to_tokens8ToTokens9to_tokens, symObjAddr: 0x1D680, symBinAddr: 0x14300, symSize: 0x160 }
  - { offset: 0x2AE9E, size: 0x8, addend: 0x0, symName: __RNvXsl_NtNtCsdGrGZaRBwMb_3syn4item8printingNtB7_14TraitItemMacroNtNtCs9OU1sGv5X54_5quote9to_tokens8ToTokens9to_tokens, symObjAddr: 0x1E080, symBinAddr: 0x14CC0, symSize: 0x70 }
  - { offset: 0x2AEDD, size: 0x8, addend: 0x0, symName: __RNvXsm_NtNtCsdGrGZaRBwMb_3syn4item8printingNtB7_13ImplItemConstNtNtCs9OU1sGv5X54_5quote9to_tokens8ToTokens9to_tokens, symObjAddr: 0x1E460, symBinAddr: 0x14D30, symSize: 0x100 }
  - { offset: 0x2AF1C, size: 0x8, addend: 0x0, symName: __RNvXsn_NtNtCsdGrGZaRBwMb_3syn4item8printingNtB7_10ImplItemFnNtNtCs9OU1sGv5X54_5quote9to_tokens8ToTokens9to_tokens, symObjAddr: 0x1FF60, symBinAddr: 0x167F0, symSize: 0xA0 }
  - { offset: 0x2AF5B, size: 0x8, addend: 0x0, symName: __RNvXso_NtNtCsdGrGZaRBwMb_3syn4item8printingNtB7_12ImplItemTypeNtNtCs9OU1sGv5X54_5quote9to_tokens8ToTokens9to_tokens, symObjAddr: 0x20B40, symBinAddr: 0x16890, symSize: 0x100 }
  - { offset: 0x2AF9A, size: 0x8, addend: 0x0, symName: __RNvXsp_NtNtCsdGrGZaRBwMb_3syn4item8printingNtB7_13ImplItemMacroNtNtCs9OU1sGv5X54_5quote9to_tokens8ToTokens9to_tokens, symObjAddr: 0x21770, symBinAddr: 0x17480, symSize: 0x70 }
  - { offset: 0x2AFD9, size: 0x8, addend: 0x0, symName: __RNvXsq_NtNtCsdGrGZaRBwMb_3syn4item8printingNtB7_13ForeignItemFnNtNtCs9OU1sGv5X54_5quote9to_tokens8ToTokens9to_tokens, symObjAddr: 0x22540, symBinAddr: 0x175C0, symSize: 0x80 }
  - { offset: 0x2B018, size: 0x8, addend: 0x0, symName: __RNvXsr_NtNtCsdGrGZaRBwMb_3syn4item8printingNtB7_17ForeignItemStaticNtNtCs9OU1sGv5X54_5quote9to_tokens8ToTokens9to_tokens, symObjAddr: 0x22A00, symBinAddr: 0x17A50, symSize: 0xC0 }
  - { offset: 0x2B057, size: 0x8, addend: 0x0, symName: __RNvXss_NtNtCsdGrGZaRBwMb_3syn4item8printingNtB7_15ForeignItemTypeNtNtCs9OU1sGv5X54_5quote9to_tokens8ToTokens9to_tokens, symObjAddr: 0x22B60, symBinAddr: 0x17B10, symSize: 0xC0 }
  - { offset: 0x2B096, size: 0x8, addend: 0x0, symName: __RNvXst_NtNtCsdGrGZaRBwMb_3syn4item8printingNtB7_16ForeignItemMacroNtNtCs9OU1sGv5X54_5quote9to_tokens8ToTokens9to_tokens, symObjAddr: 0x24910, symBinAddr: 0x19880, symSize: 0x70 }
  - { offset: 0x2B0D5, size: 0x8, addend: 0x0, symName: __RNvXsu_NtNtCsdGrGZaRBwMb_3syn4item8printingNtB7_9SignatureNtNtCs9OU1sGv5X54_5quote9to_tokens8ToTokens9to_tokens, symObjAddr: 0x25730, symBinAddr: 0x198F0, symSize: 0xE0 }
  - { offset: 0x2B114, size: 0x8, addend: 0x0, symName: __RNvXsv_NtNtCsdGrGZaRBwMb_3syn4item8printingNtB7_8ReceiverNtNtCs9OU1sGv5X54_5quote9to_tokens8ToTokens9to_tokens, symObjAddr: 0x25950, symBinAddr: 0x19AB0, symSize: 0x450 }
  - { offset: 0x2B20A, size: 0x8, addend: 0x0, symName: __RNvXsw_NtNtCsdGrGZaRBwMb_3syn4item8printingNtB7_8VariadicNtNtCs9OU1sGv5X54_5quote9to_tokens8ToTokens9to_tokens, symObjAddr: 0x26980, symBinAddr: 0x19F00, symSize: 0xD0 }
  - { offset: 0x2B277, size: 0x8, addend: 0x0, symName: __RNvXsx_NtNtCsdGrGZaRBwMb_3syn4item8printingNtB7_16StaticMutabilityNtNtCs9OU1sGv5X54_5quote9to_tokens8ToTokens9to_tokens, symObjAddr: 0x26EA0, symBinAddr: 0x1A3E0, symSize: 0x50 }
  - { offset: 0x2B2D5, size: 0x8, addend: 0x0, symName: __RNvXsA_NtCsdGrGZaRBwMb_3syn4itemNtB5_9TraitItemNtNtCs9OU1sGv5X54_5quote9to_tokens8ToTokens9to_tokens, symObjAddr: 0x13E00, symBinAddr: 0xD650, symSize: 0xE0 }
  - { offset: 0x2B3A2, size: 0x8, addend: 0x0, symName: __RNvXsF_NtCsdGrGZaRBwMb_3syn4itemNtB5_8ImplItemNtNtCs9OU1sGv5X54_5quote9to_tokens8ToTokens9to_tokens, symObjAddr: 0x13FD0, symBinAddr: 0xD730, symSize: 0xE0 }
  - { offset: 0x2B46F, size: 0x8, addend: 0x0, symName: __RNvXsI_NtCsdGrGZaRBwMb_3syn4itemNtB5_5FnArgNtNtCs9OU1sGv5X54_5quote9to_tokens8ToTokens9to_tokens, symObjAddr: 0x14130, symBinAddr: 0xD810, symSize: 0x70 }
  - { offset: 0x2B4E5, size: 0x8, addend: 0x0, symName: __RNvXsk_NtCsdGrGZaRBwMb_3syn4itemNtB5_4ItemNtNtCs9OU1sGv5X54_5quote9to_tokens8ToTokens9to_tokens, symObjAddr: 0x1CAA0, symBinAddr: 0x13720, symSize: 0x2A0 }
  - { offset: 0x2B6FB, size: 0x8, addend: 0x0, symName: __RNvXsq_NtCsdGrGZaRBwMb_3syn4itemNtB5_7UseTreeNtNtCs9OU1sGv5X54_5quote9to_tokens8ToTokens9to_tokens, symObjAddr: 0x217E0, symBinAddr: 0x174F0, symSize: 0xD0 }
  - { offset: 0x2B7C8, size: 0x8, addend: 0x0, symName: __RNvXsv_NtCsdGrGZaRBwMb_3syn4itemNtB5_11ForeignItemNtNtCs9OU1sGv5X54_5quote9to_tokens8ToTokens9to_tokens, symObjAddr: 0x25810, symBinAddr: 0x199D0, symSize: 0xE0 }
  - { offset: 0x2F8E4, size: 0x8, addend: 0x0, symName: __RNvMNtCsieiGu2EXtoJ_4core5sliceSTNtNtCsdGrGZaRBwMb_3syn4item5FnArgNtNtBz_5token5CommaE4iterBz_, symObjAddr: 0x2180, symBinAddr: 0xADD0, symSize: 0x20 }
  - { offset: 0x2F91B, size: 0x8, addend: 0x0, symName: __RNvMNtCsieiGu2EXtoJ_4core5sliceSTNtNtCsdGrGZaRBwMb_3syn4item7UseTreeNtNtBz_5token5CommaE4iterBz_, symObjAddr: 0x21A0, symBinAddr: 0xADF0, symSize: 0x20 }
  - { offset: 0x30EBE, size: 0x8, addend: 0x0, symName: __RNvMNtCsdGrGZaRBwMb_3syn4itemNtB2_4Item13replace_attrs, symObjAddr: 0x1EE0, symBinAddr: 0xAB30, symSize: 0x2A0 }
  - { offset: 0x310F8, size: 0x8, addend: 0x0, symName: __RNvXNtCs9OU1sGv5X54_5quote9to_tokensRNtNtCsdGrGZaRBwMb_3syn4item11ForeignItemNtB2_8ToTokens9to_tokensBD_, symObjAddr: 0x44A0, symBinAddr: 0xAE10, symSize: 0x30 }
  - { offset: 0x31137, size: 0x8, addend: 0x0, symName: __RNvXNtCs9OU1sGv5X54_5quote9to_tokensRNtNtCsdGrGZaRBwMb_3syn4item4ItemNtB2_8ToTokens9to_tokensBD_, symObjAddr: 0x44D0, symBinAddr: 0xAE40, symSize: 0x30 }
  - { offset: 0x31176, size: 0x8, addend: 0x0, symName: __RNvXNtCs9OU1sGv5X54_5quote9to_tokensRNtNtCsdGrGZaRBwMb_3syn4item5FnArgNtB2_8ToTokens9to_tokensBD_, symObjAddr: 0x4500, symBinAddr: 0xAE70, symSize: 0x30 }
  - { offset: 0x311B5, size: 0x8, addend: 0x0, symName: __RNvXNtCs9OU1sGv5X54_5quote9to_tokensRNtNtCsdGrGZaRBwMb_3syn4item7UseTreeNtB2_8ToTokens9to_tokensBD_, symObjAddr: 0x4530, symBinAddr: 0xAEA0, symSize: 0x30 }
  - { offset: 0x311F4, size: 0x8, addend: 0x0, symName: __RNvXNtCs9OU1sGv5X54_5quote9to_tokensRNtNtCsdGrGZaRBwMb_3syn4item8ImplItemNtB2_8ToTokens9to_tokensBD_, symObjAddr: 0x4560, symBinAddr: 0xAED0, symSize: 0x30 }
  - { offset: 0x31233, size: 0x8, addend: 0x0, symName: __RNvXNtCs9OU1sGv5X54_5quote9to_tokensRNtNtCsdGrGZaRBwMb_3syn4item9TraitItemNtB2_8ToTokens9to_tokensBD_, symObjAddr: 0x4590, symBinAddr: 0xAF00, symSize: 0x30 }
  - { offset: 0x315F6, size: 0x8, addend: 0x0, symName: __RINvMs_NtCslJiobkLta79_5alloc3vecINtB5_3VecReE10retain_mutNCNvMNtCsdGrGZaRBwMb_3syn9lookaheadNtBZ_10Lookahead15error0EB11_, symObjAddr: 0x0, symBinAddr: 0x1A500, symSize: 0x160 }
  - { offset: 0x3867C, size: 0x8, addend: 0x0, symName: __RNvXs1_NtCsieiGu2EXtoJ_4core7convertINtNtCslJiobkLta79_5alloc3vec3VechEINtB5_4IntoBy_E4intoCsdGrGZaRBwMb_3syn, symObjAddr: 0x7580, symBinAddr: 0x1F3A0, symSize: 0x20 }
  - { offset: 0x38913, size: 0x8, addend: 0x0, symName: __RINvNvMs_NtCslJiobkLta79_5alloc3vecINtB7_3VecppE10retain_mut12process_loopNCNvMNtCsdGrGZaRBwMb_3syn9lookaheadNtB1f_10Lookahead15error0ReNtNtB9_5alloc6GlobalKb0_EB1h_, symObjAddr: 0x160, symBinAddr: 0x1A660, symSize: 0xB0 }
  - { offset: 0x38A67, size: 0x8, addend: 0x0, symName: __RINvNvMs_NtCslJiobkLta79_5alloc3vecINtB7_3VecppE10retain_mut12process_loopNCNvMNtCsdGrGZaRBwMb_3syn9lookaheadNtB1f_10Lookahead15error0ReNtNtB9_5alloc6GlobalKb1_EB1h_, symObjAddr: 0x210, symBinAddr: 0x1A710, symSize: 0x130 }
  - { offset: 0x38C5D, size: 0x8, addend: 0x0, symName: __RNvXNvMs_NtCslJiobkLta79_5alloc3vecINtB7_3VecppE10retain_mutINtB2_15BackshiftOnDropReNtNtB9_5alloc6GlobalENtNtNtCsieiGu2EXtoJ_4core3ops4drop4Drop4dropCsdGrGZaRBwMb_3syn, symObjAddr: 0x6EE0, symBinAddr: 0x1EF80, symSize: 0x190 }
  - { offset: 0x38EA3, size: 0x8, addend: 0x0, symName: __RNvNvMs_NtCslJiobkLta79_5alloc3vecINtB6_3VecppE17from_raw_parts_in18precondition_checkCsdGrGZaRBwMb_3syn, symObjAddr: 0x5950, symBinAddr: 0x1EE40, symSize: 0xA0 }
  - { offset: 0x38F11, size: 0x8, addend: 0x0, symName: __RNvNvMs_NtCslJiobkLta79_5alloc3vecINtB6_3VecppE7set_len18precondition_checkCsdGrGZaRBwMb_3syn, symObjAddr: 0x59F0, symBinAddr: 0x1EEE0, symSize: 0xA0 }
  - { offset: 0x39318, size: 0x8, addend: 0x0, symName: __RINvXsh_NtCslJiobkLta79_5alloc3vecINtB6_3VecNtNtCsdGrGZaRBwMb_3syn4attr9AttributeEINtNtNtNtCsieiGu2EXtoJ_4core4iter6traits7collect6ExtendBG_E6extendBw_EBK_, symObjAddr: 0x340, symBinAddr: 0x1A840, symSize: 0x40 }
  - { offset: 0x3C648, size: 0x8, addend: 0x0, symName: __RNvXs6_NtCslJiobkLta79_5alloc3vecINtB5_3VecNtNtCsdGrGZaRBwMb_3syn4attr9AttributeENtNtNtCsieiGu2EXtoJ_4core3ops5deref5Deref5derefBJ_, symObjAddr: 0x7600, symBinAddr: 0x1F3C0, symSize: 0x20 }
  - { offset: 0x3C688, size: 0x8, addend: 0x0, symName: __RNvXs6_NtCslJiobkLta79_5alloc3vecINtB5_3VecNtNtCsdGrGZaRBwMb_3syn4expr3ArmENtNtNtCsieiGu2EXtoJ_4core3ops5deref5Deref5derefBJ_, symObjAddr: 0x7620, symBinAddr: 0x1F3E0, symSize: 0x20 }
  - { offset: 0x3C6C8, size: 0x8, addend: 0x0, symName: __RNvXs6_NtCslJiobkLta79_5alloc3vecINtB5_3VecReENtNtNtCsieiGu2EXtoJ_4core3ops5deref5Deref5derefCsdGrGZaRBwMb_3syn, symObjAddr: 0x7660, symBinAddr: 0x1F400, symSize: 0x20 }
  - { offset: 0x3C708, size: 0x8, addend: 0x0, symName: __RNvXs6_NtCslJiobkLta79_5alloc3vecINtB5_3VecTNtNtCsdGrGZaRBwMb_3syn2ty4TypeNtNtBK_5token5CommaEENtNtNtCsieiGu2EXtoJ_4core3ops5deref5Deref5derefBK_, symObjAddr: 0x7680, symBinAddr: 0x1F420, symSize: 0x20 }
  - { offset: 0x3C748, size: 0x8, addend: 0x0, symName: __RNvXs6_NtCslJiobkLta79_5alloc3vecINtB5_3VecTNtNtCsdGrGZaRBwMb_3syn2ty9BareFnArgNtNtBK_5token5CommaEENtNtNtCsieiGu2EXtoJ_4core3ops5deref5Deref5derefBK_, symObjAddr: 0x76A0, symBinAddr: 0x1F440, symSize: 0x20 }
  - { offset: 0x3C788, size: 0x8, addend: 0x0, symName: __RNvXs6_NtCslJiobkLta79_5alloc3vecINtB5_3VecTNtNtCsdGrGZaRBwMb_3syn3pat3PatNtNtBK_5token2OrEENtNtNtCsieiGu2EXtoJ_4core3ops5deref5Deref5derefBK_, symObjAddr: 0x76C0, symBinAddr: 0x1F460, symSize: 0x20 }
  - { offset: 0x3C7C8, size: 0x8, addend: 0x0, symName: __RNvXs6_NtCslJiobkLta79_5alloc3vecINtB5_3VecTNtNtCsdGrGZaRBwMb_3syn3pat3PatNtNtBK_5token5CommaEENtNtNtCsieiGu2EXtoJ_4core3ops5deref5Deref5derefBK_, symObjAddr: 0x76E0, symBinAddr: 0x1F480, symSize: 0x20 }
  - { offset: 0x3C808, size: 0x8, addend: 0x0, symName: __RNvXs6_NtCslJiobkLta79_5alloc3vecINtB5_3VecTNtNtCsdGrGZaRBwMb_3syn3pat8FieldPatNtNtBK_5token5CommaEENtNtNtCsieiGu2EXtoJ_4core3ops5deref5Deref5derefBK_, symObjAddr: 0x7700, symBinAddr: 0x1F4A0, symSize: 0x20 }
  - { offset: 0x3C848, size: 0x8, addend: 0x0, symName: __RNvXs6_NtCslJiobkLta79_5alloc3vecINtB5_3VecTNtNtCsdGrGZaRBwMb_3syn4data5FieldNtNtBK_5token5CommaEENtNtNtCsieiGu2EXtoJ_4core3ops5deref5Deref5derefBK_, symObjAddr: 0x7720, symBinAddr: 0x1F4C0, symSize: 0x20 }
  - { offset: 0x3C888, size: 0x8, addend: 0x0, symName: __RNvXs6_NtCslJiobkLta79_5alloc3vecINtB5_3VecTNtNtCsdGrGZaRBwMb_3syn4data7VariantNtNtBK_5token5CommaEENtNtNtCsieiGu2EXtoJ_4core3ops5deref5Deref5derefBK_, symObjAddr: 0x7740, symBinAddr: 0x1F4E0, symSize: 0x20 }
  - { offset: 0x3C8C8, size: 0x8, addend: 0x0, symName: __RNvXs6_NtCslJiobkLta79_5alloc3vecINtB5_3VecTNtNtCsdGrGZaRBwMb_3syn4expr10FieldValueNtNtBK_5token5CommaEENtNtNtCsieiGu2EXtoJ_4core3ops5deref5Deref5derefBK_, symObjAddr: 0x7760, symBinAddr: 0x1F500, symSize: 0x20 }
  - { offset: 0x3C908, size: 0x8, addend: 0x0, symName: __RNvXs6_NtCslJiobkLta79_5alloc3vecINtB5_3VecTNtNtCsdGrGZaRBwMb_3syn4expr4ExprNtNtBK_5token5CommaEENtNtNtCsieiGu2EXtoJ_4core3ops5deref5Deref5derefBK_, symObjAddr: 0x7780, symBinAddr: 0x1F520, symSize: 0x20 }
  - { offset: 0x3C948, size: 0x8, addend: 0x0, symName: __RNvXs6_NtCslJiobkLta79_5alloc3vecINtB5_3VecTNtNtCsdGrGZaRBwMb_3syn4item5FnArgNtNtBK_5token5CommaEENtNtNtCsieiGu2EXtoJ_4core3ops5deref5Deref5derefBK_, symObjAddr: 0x77A0, symBinAddr: 0x1F540, symSize: 0x20 }
  - { offset: 0x3C988, size: 0x8, addend: 0x0, symName: __RNvXs6_NtCslJiobkLta79_5alloc3vecINtB5_3VecTNtNtCsdGrGZaRBwMb_3syn4item7UseTreeNtNtBK_5token5CommaEENtNtNtCsieiGu2EXtoJ_4core3ops5deref5Deref5derefBK_, symObjAddr: 0x77C0, symBinAddr: 0x1F560, symSize: 0x20 }
  - { offset: 0x3C9C8, size: 0x8, addend: 0x0, symName: __RNvXs6_NtCslJiobkLta79_5alloc3vecINtB5_3VecTNtNtCsdGrGZaRBwMb_3syn4path11PathSegmentNtNtBK_5token7PathSepEENtNtNtCsieiGu2EXtoJ_4core3ops5deref5Deref5derefBK_, symObjAddr: 0x77E0, symBinAddr: 0x1F580, symSize: 0x20 }
  - { offset: 0x3CA08, size: 0x8, addend: 0x0, symName: __RNvXs6_NtCslJiobkLta79_5alloc3vecINtB5_3VecTNtNtCsdGrGZaRBwMb_3syn4path15GenericArgumentNtNtBK_5token5CommaEENtNtNtCsieiGu2EXtoJ_4core3ops5deref5Deref5derefBK_, symObjAddr: 0x7800, symBinAddr: 0x1F5A0, symSize: 0x20 }
  - { offset: 0x3CA48, size: 0x8, addend: 0x0, symName: __RNvXs6_NtCslJiobkLta79_5alloc3vecINtB5_3VecTNtNtCsdGrGZaRBwMb_3syn8generics12GenericParamNtNtBK_5token5CommaEENtNtNtCsieiGu2EXtoJ_4core3ops5deref5Deref5derefBK_, symObjAddr: 0x7820, symBinAddr: 0x1F5C0, symSize: 0x20 }
  - { offset: 0x3CA88, size: 0x8, addend: 0x0, symName: __RNvXs6_NtCslJiobkLta79_5alloc3vecINtB5_3VecTNtNtCsdGrGZaRBwMb_3syn8generics13CapturedParamNtNtBK_5token5CommaEENtNtNtCsieiGu2EXtoJ_4core3ops5deref5Deref5derefBK_, symObjAddr: 0x7840, symBinAddr: 0x1F5E0, symSize: 0x20 }
  - { offset: 0x3CAC8, size: 0x8, addend: 0x0, symName: __RNvXs6_NtCslJiobkLta79_5alloc3vecINtB5_3VecTNtNtCsdGrGZaRBwMb_3syn8generics14TypeParamBoundNtNtBK_5token4PlusEENtNtNtCsieiGu2EXtoJ_4core3ops5deref5Deref5derefBK_, symObjAddr: 0x7860, symBinAddr: 0x1F600, symSize: 0x20 }
  - { offset: 0x3CB08, size: 0x8, addend: 0x0, symName: __RNvXs6_NtCslJiobkLta79_5alloc3vecINtB5_3VecTNtNtCsdGrGZaRBwMb_3syn8generics14WherePredicateNtNtBK_5token5CommaEENtNtNtCsieiGu2EXtoJ_4core3ops5deref5Deref5derefBK_, symObjAddr: 0x7880, symBinAddr: 0x1F620, symSize: 0x20 }
  - { offset: 0x3CB48, size: 0x8, addend: 0x0, symName: __RNvXs6_NtCslJiobkLta79_5alloc3vecINtB5_3VecTNtNtCsdGrGZaRBwMb_3syn8lifetime8LifetimeNtNtBK_5token4PlusEENtNtNtCsieiGu2EXtoJ_4core3ops5deref5Deref5derefBK_, symObjAddr: 0x78A0, symBinAddr: 0x1F640, symSize: 0x20 }
  - { offset: 0x3CB88, size: 0x8, addend: 0x0, symName: __RNvXs6_NtCslJiobkLta79_5alloc3vecINtB5_3VechENtNtNtCsieiGu2EXtoJ_4core3ops5deref5Deref5derefCsdGrGZaRBwMb_3syn, symObjAddr: 0x78C0, symBinAddr: 0x1F660, symSize: 0x20 }
  - { offset: 0x3CE9E, size: 0x8, addend: 0x0, symName: __RNvXsb_NtCslJiobkLta79_5alloc3vecINtB5_3VecNtNtCsdGrGZaRBwMb_3syn5error12ErrorMessageEINtNtNtCsieiGu2EXtoJ_4core3ops5index5IndexjE5indexBJ_, symObjAddr: 0x8800, symBinAddr: 0x1F6C0, symSize: 0x80 }
  - { offset: 0x3D020, size: 0x8, addend: 0x0, symName: __RNvXsb_NtCslJiobkLta79_5alloc3vecINtB5_3VecReEINtNtNtCsieiGu2EXtoJ_4core3ops5index5IndexjE5indexCsdGrGZaRBwMb_3syn, symObjAddr: 0x8880, symBinAddr: 0x1F740, symSize: 0x80 }
  - { offset: 0x3D1A2, size: 0x8, addend: 0x0, symName: __RNvXsb_NtCslJiobkLta79_5alloc3vecINtB5_3VecTNtNtCsdGrGZaRBwMb_3syn3pat3PatNtNtBK_5token5CommaEEINtNtNtCsieiGu2EXtoJ_4core3ops5index5IndexjE5indexBK_, symObjAddr: 0x8900, symBinAddr: 0x1F7C0, symSize: 0x80 }
  - { offset: 0x3D324, size: 0x8, addend: 0x0, symName: __RNvXsb_NtCslJiobkLta79_5alloc3vecINtB5_3VecTNtNtCsdGrGZaRBwMb_3syn4path11PathSegmentNtNtBK_5token7PathSepEEINtNtNtCsieiGu2EXtoJ_4core3ops5index5IndexjE5indexBK_, symObjAddr: 0x8980, symBinAddr: 0x1F840, symSize: 0x80 }
  - { offset: 0x3D4A6, size: 0x8, addend: 0x0, symName: __RNvXsb_NtCslJiobkLta79_5alloc3vecINtB5_3VechEINtNtNtCsieiGu2EXtoJ_4core3ops5index5IndexINtNtBM_5range9RangeFromjEE5indexCsdGrGZaRBwMb_3syn, symObjAddr: 0x8A00, symBinAddr: 0x1F8C0, symSize: 0x70 }
  - { offset: 0x3D628, size: 0x8, addend: 0x0, symName: __RNvXsb_NtCslJiobkLta79_5alloc3vecINtB5_3VechEINtNtNtCsieiGu2EXtoJ_4core3ops5index5IndexjE5indexCsdGrGZaRBwMb_3syn, symObjAddr: 0x8A70, symBinAddr: 0x1F930, symSize: 0x70 }
  - { offset: 0x3D96A, size: 0x8, addend: 0x0, symName: __RNvXs0_NtNtCslJiobkLta79_5alloc3vec11spec_extendINtB7_3VecNtNtCsdGrGZaRBwMb_3syn4attr9AttributeEINtB5_10SpecExtendBU_INtNtB7_9into_iter8IntoIterBU_EE11spec_extendBY_, symObjAddr: 0x7440, symBinAddr: 0x1F310, symSize: 0x90 }
  - { offset: 0x3D9D7, size: 0x8, addend: 0x0, symName: __RNvXs7_NtCslJiobkLta79_5alloc3vecINtB5_3VecTNtNtCsdGrGZaRBwMb_3syn4path11PathSegmentNtNtBK_5token7PathSepEENtNtNtCsieiGu2EXtoJ_4core3ops5deref8DerefMut9deref_mutBK_, symObjAddr: 0x7900, symBinAddr: 0x1F680, symSize: 0x20 }
  - { offset: 0x3DAAD, size: 0x8, addend: 0x0, symName: __RNvXsc_NtCslJiobkLta79_5alloc3vecINtB5_3VecNtNtCsdGrGZaRBwMb_3syn6buffer5EntryEINtNtNtCsieiGu2EXtoJ_4core3ops5index8IndexMutjE9index_mutBJ_, symObjAddr: 0x8AE0, symBinAddr: 0x1F9A0, symSize: 0x80 }
  - { offset: 0x3DC01, size: 0x8, addend: 0x0, symName: __RNvXsc_NtCslJiobkLta79_5alloc3vecINtB5_3VechEINtNtNtCsieiGu2EXtoJ_4core3ops5index8IndexMutjE9index_mutCsdGrGZaRBwMb_3syn, symObjAddr: 0x8B60, symBinAddr: 0x1FA20, symSize: 0x70 }
  - { offset: 0x3DD5B, size: 0x8, addend: 0x0, symName: __RNvXse_NtCslJiobkLta79_5alloc3vecINtB5_3VecNtNtCsdGrGZaRBwMb_3syn4attr9AttributeENtNtNtNtCsieiGu2EXtoJ_4core4iter6traits7collect12IntoIterator9into_iterBJ_, symObjAddr: 0x8BD0, symBinAddr: 0x1FA90, symSize: 0x140 }
  - { offset: 0x3DFEB, size: 0x8, addend: 0x0, symName: __RNvXse_NtCslJiobkLta79_5alloc3vecINtB5_3VecNtNtCsdGrGZaRBwMb_3syn8generics14TypeParamBoundENtNtNtNtCsieiGu2EXtoJ_4core4iter6traits7collect12IntoIterator9into_iterBJ_, symObjAddr: 0x8F90, symBinAddr: 0x1FBD0, symSize: 0x140 }
  - { offset: 0x3E27B, size: 0x8, addend: 0x0, symName: __RNvXse_NtCslJiobkLta79_5alloc3vecINtB5_3VecTNtNtCsdGrGZaRBwMb_3syn4path11PathSegmentNtNtBK_5token7PathSepEENtNtNtNtCsieiGu2EXtoJ_4core4iter6traits7collect12IntoIterator9into_iterBK_, symObjAddr: 0x9350, symBinAddr: 0x1FD10, symSize: 0x140 }
  - { offset: 0x3E50B, size: 0x8, addend: 0x0, symName: __RNvXse_NtCslJiobkLta79_5alloc3vecINtB5_3VecTNtNtCsdGrGZaRBwMb_3syn8generics14TypeParamBoundNtNtBK_5token4PlusEENtNtNtNtCsieiGu2EXtoJ_4core4iter6traits7collect12IntoIterator9into_iterBK_, symObjAddr: 0x9490, symBinAddr: 0x1FE50, symSize: 0x140 }
  - { offset: 0x3E7A1, size: 0x8, addend: 0x0, symName: __RNvXsf_NtCslJiobkLta79_5alloc3vecRINtB5_3VecNtNtCsdGrGZaRBwMb_3syn4attr9AttributeENtNtNtNtCsieiGu2EXtoJ_4core4iter6traits7collect12IntoIterator9into_iterBK_, symObjAddr: 0x95D0, symBinAddr: 0x1FF90, symSize: 0x80 }
  - { offset: 0x3E9CE, size: 0x8, addend: 0x0, symName: __RNvXsf_NtCslJiobkLta79_5alloc3vecRINtB5_3VecNtNtCsdGrGZaRBwMb_3syn4item11ForeignItemENtNtNtNtCsieiGu2EXtoJ_4core4iter6traits7collect12IntoIterator9into_iterBK_, symObjAddr: 0x9650, symBinAddr: 0x20010, symSize: 0x80 }
  - { offset: 0x3EBFB, size: 0x8, addend: 0x0, symName: __RNvXsf_NtCslJiobkLta79_5alloc3vecRINtB5_3VecNtNtCsdGrGZaRBwMb_3syn4item4ItemENtNtNtNtCsieiGu2EXtoJ_4core4iter6traits7collect12IntoIterator9into_iterBK_, symObjAddr: 0x96D0, symBinAddr: 0x20090, symSize: 0x80 }
  - { offset: 0x3EE28, size: 0x8, addend: 0x0, symName: __RNvXsf_NtCslJiobkLta79_5alloc3vecRINtB5_3VecNtNtCsdGrGZaRBwMb_3syn4item8ImplItemENtNtNtNtCsieiGu2EXtoJ_4core4iter6traits7collect12IntoIterator9into_iterBK_, symObjAddr: 0x9750, symBinAddr: 0x20110, symSize: 0x80 }
  - { offset: 0x3F055, size: 0x8, addend: 0x0, symName: __RNvXsf_NtCslJiobkLta79_5alloc3vecRINtB5_3VecNtNtCsdGrGZaRBwMb_3syn4item9TraitItemENtNtNtNtCsieiGu2EXtoJ_4core4iter6traits7collect12IntoIterator9into_iterBK_, symObjAddr: 0x97D0, symBinAddr: 0x20190, symSize: 0x80 }
  - { offset: 0x3F282, size: 0x8, addend: 0x0, symName: __RNvXsf_NtCslJiobkLta79_5alloc3vecRINtB5_3VecNtNtCsdGrGZaRBwMb_3syn4stmt4StmtENtNtNtNtCsieiGu2EXtoJ_4core4iter6traits7collect12IntoIterator9into_iterBK_, symObjAddr: 0x9850, symBinAddr: 0x20210, symSize: 0x80 }
  - { offset: 0x3F4AF, size: 0x8, addend: 0x0, symName: __RNvXsf_NtCslJiobkLta79_5alloc3vecRINtB5_3VecNtNtCsdGrGZaRBwMb_3syn5error12ErrorMessageENtNtNtNtCsieiGu2EXtoJ_4core4iter6traits7collect12IntoIterator9into_iterBK_, symObjAddr: 0x98D0, symBinAddr: 0x20290, symSize: 0x80 }
  - { offset: 0x3F6E2, size: 0x8, addend: 0x0, symName: __RNvXsg_NtCslJiobkLta79_5alloc3vecQINtB5_3VechENtNtNtNtCsieiGu2EXtoJ_4core4iter6traits7collect12IntoIterator9into_iterCsdGrGZaRBwMb_3syn, symObjAddr: 0xA250, symBinAddr: 0x20310, symSize: 0x80 }
  - { offset: 0x3F909, size: 0x8, addend: 0x0, symName: __RNvXsn_NtCslJiobkLta79_5alloc3vecINtB5_3VecNtNtCsdGrGZaRBwMb_3syn4attr9AttributeENtNtNtCsieiGu2EXtoJ_4core3ops4drop4Drop4dropBJ_, symObjAddr: 0xA2D0, symBinAddr: 0x20390, symSize: 0x30 }
  - { offset: 0x3F9B9, size: 0x8, addend: 0x0, symName: __RNvXsn_NtCslJiobkLta79_5alloc3vecINtB5_3VecNtNtCsdGrGZaRBwMb_3syn4expr3ArmENtNtNtCsieiGu2EXtoJ_4core3ops4drop4Drop4dropBJ_, symObjAddr: 0xA330, symBinAddr: 0x203C0, symSize: 0x30 }
  - { offset: 0x3FA69, size: 0x8, addend: 0x0, symName: __RNvXsn_NtCslJiobkLta79_5alloc3vecINtB5_3VecNtNtCsdGrGZaRBwMb_3syn4expr6ExprIfENtNtNtCsieiGu2EXtoJ_4core3ops4drop4Drop4dropBJ_, symObjAddr: 0xA360, symBinAddr: 0x203F0, symSize: 0x30 }
  - { offset: 0x3FB19, size: 0x8, addend: 0x0, symName: __RNvXsn_NtCslJiobkLta79_5alloc3vecINtB5_3VecNtNtCsdGrGZaRBwMb_3syn4item11ForeignItemENtNtNtCsieiGu2EXtoJ_4core3ops4drop4Drop4dropBJ_, symObjAddr: 0xA390, symBinAddr: 0x20420, symSize: 0x30 }
  - { offset: 0x3FBC9, size: 0x8, addend: 0x0, symName: __RNvXsn_NtCslJiobkLta79_5alloc3vecINtB5_3VecNtNtCsdGrGZaRBwMb_3syn4item4ItemENtNtNtCsieiGu2EXtoJ_4core3ops4drop4Drop4dropBJ_, symObjAddr: 0xA3C0, symBinAddr: 0x20450, symSize: 0x30 }
  - { offset: 0x3FC79, size: 0x8, addend: 0x0, symName: __RNvXsn_NtCslJiobkLta79_5alloc3vecINtB5_3VecNtNtCsdGrGZaRBwMb_3syn4item8ImplItemENtNtNtCsieiGu2EXtoJ_4core3ops4drop4Drop4dropBJ_, symObjAddr: 0xA3F0, symBinAddr: 0x20480, symSize: 0x30 }
  - { offset: 0x3FD29, size: 0x8, addend: 0x0, symName: __RNvXsn_NtCslJiobkLta79_5alloc3vecINtB5_3VecNtNtCsdGrGZaRBwMb_3syn4item9TraitItemENtNtNtCsieiGu2EXtoJ_4core3ops4drop4Drop4dropBJ_, symObjAddr: 0xA420, symBinAddr: 0x204B0, symSize: 0x30 }
  - { offset: 0x3FDD9, size: 0x8, addend: 0x0, symName: __RNvXsn_NtCslJiobkLta79_5alloc3vecINtB5_3VecNtNtCsdGrGZaRBwMb_3syn4stmt4StmtENtNtNtCsieiGu2EXtoJ_4core3ops4drop4Drop4dropBJ_, symObjAddr: 0xA450, symBinAddr: 0x204E0, symSize: 0x30 }
  - { offset: 0x3FE89, size: 0x8, addend: 0x0, symName: __RNvXsn_NtCslJiobkLta79_5alloc3vecINtB5_3VecNtNtCsdGrGZaRBwMb_3syn5error12ErrorMessageENtNtNtCsieiGu2EXtoJ_4core3ops4drop4Drop4dropBJ_, symObjAddr: 0xA480, symBinAddr: 0x20510, symSize: 0x30 }
  - { offset: 0x3FF39, size: 0x8, addend: 0x0, symName: __RNvXsn_NtCslJiobkLta79_5alloc3vecINtB5_3VecNtNtCsdGrGZaRBwMb_3syn6buffer5EntryENtNtNtCsieiGu2EXtoJ_4core3ops4drop4Drop4dropBJ_, symObjAddr: 0xA4B0, symBinAddr: 0x20540, symSize: 0x30 }
  - { offset: 0x3FFE9, size: 0x8, addend: 0x0, symName: __RNvXsn_NtCslJiobkLta79_5alloc3vecINtB5_3VecNtNtCsdGrGZaRBwMb_3syn8generics14TypeParamBoundENtNtNtCsieiGu2EXtoJ_4core3ops4drop4Drop4dropBJ_, symObjAddr: 0xA4E0, symBinAddr: 0x20570, symSize: 0x30 }
  - { offset: 0x40099, size: 0x8, addend: 0x0, symName: __RNvXsn_NtCslJiobkLta79_5alloc3vecINtB5_3VecReENtNtNtCsieiGu2EXtoJ_4core3ops4drop4Drop4dropCsdGrGZaRBwMb_3syn, symObjAddr: 0xA510, symBinAddr: 0x205A0, symSize: 0x20 }
  - { offset: 0x40149, size: 0x8, addend: 0x0, symName: __RNvXsn_NtCslJiobkLta79_5alloc3vecINtB5_3VecTNtNtCsdGrGZaRBwMb_3syn2ty4TypeNtNtBK_5token5CommaEENtNtNtCsieiGu2EXtoJ_4core3ops4drop4Drop4dropBK_, symObjAddr: 0xA530, symBinAddr: 0x205C0, symSize: 0x30 }
  - { offset: 0x401F9, size: 0x8, addend: 0x0, symName: __RNvXsn_NtCslJiobkLta79_5alloc3vecINtB5_3VecTNtNtCsdGrGZaRBwMb_3syn2ty9BareFnArgNtNtBK_5token5CommaEENtNtNtCsieiGu2EXtoJ_4core3ops4drop4Drop4dropBK_, symObjAddr: 0xA560, symBinAddr: 0x205F0, symSize: 0x30 }
  - { offset: 0x402A9, size: 0x8, addend: 0x0, symName: __RNvXsn_NtCslJiobkLta79_5alloc3vecINtB5_3VecTNtNtCsdGrGZaRBwMb_3syn3pat3PatNtNtBK_5token2OrEENtNtNtCsieiGu2EXtoJ_4core3ops4drop4Drop4dropBK_, symObjAddr: 0xA590, symBinAddr: 0x20620, symSize: 0x30 }
  - { offset: 0x40359, size: 0x8, addend: 0x0, symName: __RNvXsn_NtCslJiobkLta79_5alloc3vecINtB5_3VecTNtNtCsdGrGZaRBwMb_3syn3pat3PatNtNtBK_5token5CommaEENtNtNtCsieiGu2EXtoJ_4core3ops4drop4Drop4dropBK_, symObjAddr: 0xA5C0, symBinAddr: 0x20650, symSize: 0x30 }
  - { offset: 0x40409, size: 0x8, addend: 0x0, symName: __RNvXsn_NtCslJiobkLta79_5alloc3vecINtB5_3VecTNtNtCsdGrGZaRBwMb_3syn3pat8FieldPatNtNtBK_5token5CommaEENtNtNtCsieiGu2EXtoJ_4core3ops4drop4Drop4dropBK_, symObjAddr: 0xA5F0, symBinAddr: 0x20680, symSize: 0x30 }
  - { offset: 0x404B9, size: 0x8, addend: 0x0, symName: __RNvXsn_NtCslJiobkLta79_5alloc3vecINtB5_3VecTNtNtCsdGrGZaRBwMb_3syn4data5FieldNtNtBK_5token5CommaEENtNtNtCsieiGu2EXtoJ_4core3ops4drop4Drop4dropBK_, symObjAddr: 0xA620, symBinAddr: 0x206B0, symSize: 0x30 }
  - { offset: 0x40569, size: 0x8, addend: 0x0, symName: __RNvXsn_NtCslJiobkLta79_5alloc3vecINtB5_3VecTNtNtCsdGrGZaRBwMb_3syn4data7VariantNtNtBK_5token5CommaEENtNtNtCsieiGu2EXtoJ_4core3ops4drop4Drop4dropBK_, symObjAddr: 0xA680, symBinAddr: 0x206E0, symSize: 0x30 }
  - { offset: 0x40619, size: 0x8, addend: 0x0, symName: __RNvXsn_NtCslJiobkLta79_5alloc3vecINtB5_3VecTNtNtCsdGrGZaRBwMb_3syn4expr10FieldValueNtNtBK_5token5CommaEENtNtNtCsieiGu2EXtoJ_4core3ops4drop4Drop4dropBK_, symObjAddr: 0xA6B0, symBinAddr: 0x20710, symSize: 0x30 }
  - { offset: 0x406C9, size: 0x8, addend: 0x0, symName: __RNvXsn_NtCslJiobkLta79_5alloc3vecINtB5_3VecTNtNtCsdGrGZaRBwMb_3syn4expr4ExprNtNtBK_5token5CommaEENtNtNtCsieiGu2EXtoJ_4core3ops4drop4Drop4dropBK_, symObjAddr: 0xA6E0, symBinAddr: 0x20740, symSize: 0x30 }
  - { offset: 0x40779, size: 0x8, addend: 0x0, symName: __RNvXsn_NtCslJiobkLta79_5alloc3vecINtB5_3VecTNtNtCsdGrGZaRBwMb_3syn4item5FnArgNtNtBK_5token5CommaEENtNtNtCsieiGu2EXtoJ_4core3ops4drop4Drop4dropBK_, symObjAddr: 0xA710, symBinAddr: 0x20770, symSize: 0x30 }
  - { offset: 0x40829, size: 0x8, addend: 0x0, symName: __RNvXsn_NtCslJiobkLta79_5alloc3vecINtB5_3VecTNtNtCsdGrGZaRBwMb_3syn4item7UseTreeNtNtBK_5token5CommaEENtNtNtCsieiGu2EXtoJ_4core3ops4drop4Drop4dropBK_, symObjAddr: 0xA740, symBinAddr: 0x207A0, symSize: 0x30 }
  - { offset: 0x408D9, size: 0x8, addend: 0x0, symName: __RNvXsn_NtCslJiobkLta79_5alloc3vecINtB5_3VecTNtNtCsdGrGZaRBwMb_3syn4path11PathSegmentNtNtBK_5token7PathSepEENtNtNtCsieiGu2EXtoJ_4core3ops4drop4Drop4dropBK_, symObjAddr: 0xA770, symBinAddr: 0x207D0, symSize: 0x30 }
  - { offset: 0x40989, size: 0x8, addend: 0x0, symName: __RNvXsn_NtCslJiobkLta79_5alloc3vecINtB5_3VecTNtNtCsdGrGZaRBwMb_3syn4path15GenericArgumentNtNtBK_5token5CommaEENtNtNtCsieiGu2EXtoJ_4core3ops4drop4Drop4dropBK_, symObjAddr: 0xA7A0, symBinAddr: 0x20800, symSize: 0x30 }
  - { offset: 0x40A39, size: 0x8, addend: 0x0, symName: __RNvXsn_NtCslJiobkLta79_5alloc3vecINtB5_3VecTNtNtCsdGrGZaRBwMb_3syn8generics12GenericParamNtNtBK_5token5CommaEENtNtNtCsieiGu2EXtoJ_4core3ops4drop4Drop4dropBK_, symObjAddr: 0xA7D0, symBinAddr: 0x20830, symSize: 0x30 }
  - { offset: 0x40AE9, size: 0x8, addend: 0x0, symName: __RNvXsn_NtCslJiobkLta79_5alloc3vecINtB5_3VecTNtNtCsdGrGZaRBwMb_3syn8generics13CapturedParamNtNtBK_5token5CommaEENtNtNtCsieiGu2EXtoJ_4core3ops4drop4Drop4dropBK_, symObjAddr: 0xA800, symBinAddr: 0x20860, symSize: 0x30 }
  - { offset: 0x40B99, size: 0x8, addend: 0x0, symName: __RNvXsn_NtCslJiobkLta79_5alloc3vecINtB5_3VecTNtNtCsdGrGZaRBwMb_3syn8generics14TypeParamBoundNtNtBK_5token4PlusEENtNtNtCsieiGu2EXtoJ_4core3ops4drop4Drop4dropBK_, symObjAddr: 0xA830, symBinAddr: 0x20890, symSize: 0x30 }
  - { offset: 0x40C49, size: 0x8, addend: 0x0, symName: __RNvXsn_NtCslJiobkLta79_5alloc3vecINtB5_3VecTNtNtCsdGrGZaRBwMb_3syn8generics14WherePredicateNtNtBK_5token5CommaEENtNtNtCsieiGu2EXtoJ_4core3ops4drop4Drop4dropBK_, symObjAddr: 0xA860, symBinAddr: 0x208C0, symSize: 0x30 }
  - { offset: 0x40CF9, size: 0x8, addend: 0x0, symName: __RNvXsn_NtCslJiobkLta79_5alloc3vecINtB5_3VecTNtNtCsdGrGZaRBwMb_3syn8lifetime8LifetimeNtNtBK_5token4PlusEENtNtNtCsieiGu2EXtoJ_4core3ops4drop4Drop4dropBK_, symObjAddr: 0xA890, symBinAddr: 0x208F0, symSize: 0x30 }
  - { offset: 0x40DAF, size: 0x8, addend: 0x0, symName: __RNvXsp_NtCslJiobkLta79_5alloc3vecINtB5_3VecNtNtCsdGrGZaRBwMb_3syn5error12ErrorMessageENtNtCsieiGu2EXtoJ_4core3fmt5Debug3fmtBJ_, symObjAddr: 0xABD0, symBinAddr: 0x20920, symSize: 0x70 }
  - { offset: 0x40EBF, size: 0x8, addend: 0x0, symName: __RNvXsp_NtCslJiobkLta79_5alloc3vecINtB5_3VechENtNtCsieiGu2EXtoJ_4core3fmt5Debug3fmtCsdGrGZaRBwMb_3syn, symObjAddr: 0xAC40, symBinAddr: 0x20990, symSize: 0x70 }
  - { offset: 0x43352, size: 0x8, addend: 0x0, symName: __RNvXsR_NtCslJiobkLta79_5alloc6stringINtNtB7_3vec3VechEINtNtCsieiGu2EXtoJ_4core7convert4FromNtB5_6StringE4fromCsdGrGZaRBwMb_3syn, symObjAddr: 0x87E0, symBinAddr: 0x1F6A0, symSize: 0x20 }
  - { offset: 0x43594, size: 0x8, addend: 0x0, symName: __RNvXNvMs_NtNtCslJiobkLta79_5alloc3ffi5c_strNtB7_7CString3newINtNtBb_3vec3VechENtB2_11SpecNewImpl13spec_new_implCsdGrGZaRBwMb_3syn, symObjAddr: 0x7070, symBinAddr: 0x1F110, symSize: 0x200 }
  - { offset: 0x486A2, size: 0x8, addend: 0x0, symName: __RINvMs_NtCslJiobkLta79_5alloc3vecINtB5_3VecReE10retain_mutNCNvMNtCsdGrGZaRBwMb_3syn9lookaheadNtBZ_10Lookahead15error0EB11_, symObjAddr: 0x0, symBinAddr: 0x1A500, symSize: 0x160 }
  - { offset: 0x48E01, size: 0x8, addend: 0x0, symName: __RNvMNtCslJiobkLta79_5alloc3vecINtB2_3VecNtNtCsdGrGZaRBwMb_3syn4attr9AttributeE3newBG_, symObjAddr: 0x3C0, symBinAddr: 0x1A880, symSize: 0x30 }
  - { offset: 0x48E49, size: 0x8, addend: 0x0, symName: __RNvMNtCslJiobkLta79_5alloc3vecINtB2_3VecNtNtCsdGrGZaRBwMb_3syn4expr3ArmE3newBG_, symObjAddr: 0x450, symBinAddr: 0x1A8B0, symSize: 0x30 }
  - { offset: 0x48E66, size: 0x8, addend: 0x0, symName: __RNvMNtCslJiobkLta79_5alloc3vecINtB2_3VecNtNtCsdGrGZaRBwMb_3syn4expr6ExprIfE3newBG_, symObjAddr: 0x480, symBinAddr: 0x1A8E0, symSize: 0x30 }
  - { offset: 0x48E83, size: 0x8, addend: 0x0, symName: __RNvMNtCslJiobkLta79_5alloc3vecINtB2_3VecNtNtCsdGrGZaRBwMb_3syn4item11ForeignItemE3newBG_, symObjAddr: 0x4B0, symBinAddr: 0x1A910, symSize: 0x30 }
  - { offset: 0x48EA0, size: 0x8, addend: 0x0, symName: __RNvMNtCslJiobkLta79_5alloc3vecINtB2_3VecNtNtCsdGrGZaRBwMb_3syn4item4ItemE3newBG_, symObjAddr: 0x4E0, symBinAddr: 0x1A940, symSize: 0x30 }
  - { offset: 0x48EBD, size: 0x8, addend: 0x0, symName: __RNvMNtCslJiobkLta79_5alloc3vecINtB2_3VecNtNtCsdGrGZaRBwMb_3syn4item8ImplItemE3newBG_, symObjAddr: 0x510, symBinAddr: 0x1A970, symSize: 0x30 }
  - { offset: 0x48EDA, size: 0x8, addend: 0x0, symName: __RNvMNtCslJiobkLta79_5alloc3vecINtB2_3VecNtNtCsdGrGZaRBwMb_3syn4item9TraitItemE3newBG_, symObjAddr: 0x540, symBinAddr: 0x1A9A0, symSize: 0x30 }
  - { offset: 0x48EF7, size: 0x8, addend: 0x0, symName: __RNvMNtCslJiobkLta79_5alloc3vecINtB2_3VecNtNtCsdGrGZaRBwMb_3syn4stmt4StmtE3newBG_, symObjAddr: 0x570, symBinAddr: 0x1A9D0, symSize: 0x30 }
  - { offset: 0x48F14, size: 0x8, addend: 0x0, symName: __RNvMNtCslJiobkLta79_5alloc3vecINtB2_3VecNtNtCsdGrGZaRBwMb_3syn6buffer5EntryE3newBG_, symObjAddr: 0x5A0, symBinAddr: 0x1AA00, symSize: 0x30 }
  - { offset: 0x48F93, size: 0x8, addend: 0x0, symName: __RNvMNtCslJiobkLta79_5alloc3vecINtB2_3VecNtNtCsdGrGZaRBwMb_3syn8generics14TypeParamBoundE13with_capacityBG_, symObjAddr: 0x5D0, symBinAddr: 0x1AA30, symSize: 0x60 }
  - { offset: 0x4900B, size: 0x8, addend: 0x0, symName: __RNvMNtCslJiobkLta79_5alloc3vecINtB2_3VecReE3newCsdGrGZaRBwMb_3syn, symObjAddr: 0x630, symBinAddr: 0x1AA90, symSize: 0x30 }
  - { offset: 0x49028, size: 0x8, addend: 0x0, symName: __RNvMNtCslJiobkLta79_5alloc3vecINtB2_3VecTNtNtCsdGrGZaRBwMb_3syn2ty4TypeNtNtBH_5token5CommaEE3newBH_, symObjAddr: 0x660, symBinAddr: 0x1AAC0, symSize: 0x30 }
  - { offset: 0x49045, size: 0x8, addend: 0x0, symName: __RNvMNtCslJiobkLta79_5alloc3vecINtB2_3VecTNtNtCsdGrGZaRBwMb_3syn2ty9BareFnArgNtNtBH_5token5CommaEE3newBH_, symObjAddr: 0x690, symBinAddr: 0x1AAF0, symSize: 0x30 }
  - { offset: 0x49062, size: 0x8, addend: 0x0, symName: __RNvMNtCslJiobkLta79_5alloc3vecINtB2_3VecTNtNtCsdGrGZaRBwMb_3syn3pat3PatNtNtBH_5token2OrEE3newBH_, symObjAddr: 0x6C0, symBinAddr: 0x1AB20, symSize: 0x30 }
  - { offset: 0x4907F, size: 0x8, addend: 0x0, symName: __RNvMNtCslJiobkLta79_5alloc3vecINtB2_3VecTNtNtCsdGrGZaRBwMb_3syn3pat3PatNtNtBH_5token5CommaEE3newBH_, symObjAddr: 0x6F0, symBinAddr: 0x1AB50, symSize: 0x30 }
  - { offset: 0x4909C, size: 0x8, addend: 0x0, symName: __RNvMNtCslJiobkLta79_5alloc3vecINtB2_3VecTNtNtCsdGrGZaRBwMb_3syn3pat8FieldPatNtNtBH_5token5CommaEE3newBH_, symObjAddr: 0x720, symBinAddr: 0x1AB80, symSize: 0x30 }
  - { offset: 0x490B9, size: 0x8, addend: 0x0, symName: __RNvMNtCslJiobkLta79_5alloc3vecINtB2_3VecTNtNtCsdGrGZaRBwMb_3syn4data5FieldNtNtBH_5token5CommaEE3newBH_, symObjAddr: 0x750, symBinAddr: 0x1ABB0, symSize: 0x30 }
  - { offset: 0x490F6, size: 0x8, addend: 0x0, symName: __RNvMNtCslJiobkLta79_5alloc3vecINtB2_3VecTNtNtCsdGrGZaRBwMb_3syn4data7VariantNtNtBH_5token5CommaEE3newBH_, symObjAddr: 0x7B0, symBinAddr: 0x1ABE0, symSize: 0x30 }
  - { offset: 0x49113, size: 0x8, addend: 0x0, symName: __RNvMNtCslJiobkLta79_5alloc3vecINtB2_3VecTNtNtCsdGrGZaRBwMb_3syn4expr10FieldValueNtNtBH_5token5CommaEE3newBH_, symObjAddr: 0x7E0, symBinAddr: 0x1AC10, symSize: 0x30 }
  - { offset: 0x49130, size: 0x8, addend: 0x0, symName: __RNvMNtCslJiobkLta79_5alloc3vecINtB2_3VecTNtNtCsdGrGZaRBwMb_3syn4expr4ExprNtNtBH_5token5CommaEE3newBH_, symObjAddr: 0x810, symBinAddr: 0x1AC40, symSize: 0x30 }
  - { offset: 0x4914D, size: 0x8, addend: 0x0, symName: __RNvMNtCslJiobkLta79_5alloc3vecINtB2_3VecTNtNtCsdGrGZaRBwMb_3syn4item5FnArgNtNtBH_5token5CommaEE3newBH_, symObjAddr: 0x840, symBinAddr: 0x1AC70, symSize: 0x30 }
  - { offset: 0x4916A, size: 0x8, addend: 0x0, symName: __RNvMNtCslJiobkLta79_5alloc3vecINtB2_3VecTNtNtCsdGrGZaRBwMb_3syn4item7UseTreeNtNtBH_5token5CommaEE3newBH_, symObjAddr: 0x870, symBinAddr: 0x1ACA0, symSize: 0x30 }
  - { offset: 0x49187, size: 0x8, addend: 0x0, symName: __RNvMNtCslJiobkLta79_5alloc3vecINtB2_3VecTNtNtCsdGrGZaRBwMb_3syn4path11PathSegmentNtNtBH_5token7PathSepEE3newBH_, symObjAddr: 0x8A0, symBinAddr: 0x1ACD0, symSize: 0x30 }
  - { offset: 0x491A4, size: 0x8, addend: 0x0, symName: __RNvMNtCslJiobkLta79_5alloc3vecINtB2_3VecTNtNtCsdGrGZaRBwMb_3syn4path15GenericArgumentNtNtBH_5token5CommaEE3newBH_, symObjAddr: 0x8D0, symBinAddr: 0x1AD00, symSize: 0x30 }
  - { offset: 0x491C1, size: 0x8, addend: 0x0, symName: __RNvMNtCslJiobkLta79_5alloc3vecINtB2_3VecTNtNtCsdGrGZaRBwMb_3syn8generics12GenericParamNtNtBH_5token5CommaEE3newBH_, symObjAddr: 0x900, symBinAddr: 0x1AD30, symSize: 0x30 }
  - { offset: 0x491DE, size: 0x8, addend: 0x0, symName: __RNvMNtCslJiobkLta79_5alloc3vecINtB2_3VecTNtNtCsdGrGZaRBwMb_3syn8generics13CapturedParamNtNtBH_5token5CommaEE3newBH_, symObjAddr: 0x930, symBinAddr: 0x1AD60, symSize: 0x30 }
  - { offset: 0x491FB, size: 0x8, addend: 0x0, symName: __RNvMNtCslJiobkLta79_5alloc3vecINtB2_3VecTNtNtCsdGrGZaRBwMb_3syn8generics14TypeParamBoundNtNtBH_5token4PlusEE3newBH_, symObjAddr: 0x960, symBinAddr: 0x1AD90, symSize: 0x30 }
  - { offset: 0x49218, size: 0x8, addend: 0x0, symName: __RNvMNtCslJiobkLta79_5alloc3vecINtB2_3VecTNtNtCsdGrGZaRBwMb_3syn8generics14WherePredicateNtNtBH_5token5CommaEE3newBH_, symObjAddr: 0x990, symBinAddr: 0x1ADC0, symSize: 0x30 }
  - { offset: 0x49235, size: 0x8, addend: 0x0, symName: __RNvMNtCslJiobkLta79_5alloc3vecINtB2_3VecTNtNtCsdGrGZaRBwMb_3syn8lifetime8LifetimeNtNtBH_5token4PlusEE3newBH_, symObjAddr: 0x9C0, symBinAddr: 0x1ADF0, symSize: 0x30 }
  - { offset: 0x49252, size: 0x8, addend: 0x0, symName: __RNvMNtCslJiobkLta79_5alloc3vecINtB2_3VechE3newCsdGrGZaRBwMb_3syn, symObjAddr: 0x9F0, symBinAddr: 0x1AE20, symSize: 0x30 }
  - { offset: 0x49375, size: 0x8, addend: 0x0, symName: __RNvMs0_NtCslJiobkLta79_5alloc3vecINtB5_3VechE17extend_from_sliceCsdGrGZaRBwMb_3syn, symObjAddr: 0xA20, symBinAddr: 0x1AE50, symSize: 0x70 }
  - { offset: 0x495EC, size: 0x8, addend: 0x0, symName: __RNvMs0_NtCslJiobkLta79_5alloc3vecINtB5_3VechE6resizeCsdGrGZaRBwMb_3syn, symObjAddr: 0xA90, symBinAddr: 0x1AEC0, symSize: 0xE0 }
  - { offset: 0x498B3, size: 0x8, addend: 0x0, symName: __RNvMs2_NtCslJiobkLta79_5alloc3vecINtB5_3VechE11extend_withCsdGrGZaRBwMb_3syn, symObjAddr: 0xB70, symBinAddr: 0x1AFA0, symSize: 0x280 }
  - { offset: 0x49CA4, size: 0x8, addend: 0x0, symName: __RNvMs_NtCslJiobkLta79_5alloc3vecINtB4_3VecNtNtCsdGrGZaRBwMb_3syn4attr9AttributeE15append_elementsBI_, symObjAddr: 0xDF0, symBinAddr: 0x1B220, symSize: 0xC0 }
  - { offset: 0x49E46, size: 0x8, addend: 0x0, symName: __RNvMs_NtCslJiobkLta79_5alloc3vecINtB4_3VecNtNtCsdGrGZaRBwMb_3syn4attr9AttributeE4pushBI_, symObjAddr: 0xEB0, symBinAddr: 0x1B2E0, symSize: 0x20 }
  - { offset: 0x49FF4, size: 0x8, addend: 0x0, symName: __RNvMs_NtCslJiobkLta79_5alloc3vecINtB4_3VecNtNtCsdGrGZaRBwMb_3syn4attr9AttributeE6appendBI_, symObjAddr: 0xED0, symBinAddr: 0x1B300, symSize: 0xC0 }
  - { offset: 0x4A2BF, size: 0x8, addend: 0x0, symName: __RNvMs_NtCslJiobkLta79_5alloc3vecINtB4_3VecNtNtCsdGrGZaRBwMb_3syn4attr9AttributeE7reserveBI_, symObjAddr: 0xF90, symBinAddr: 0x1B3C0, symSize: 0xB0 }
  - { offset: 0x4A49C, size: 0x8, addend: 0x0, symName: __RNvMs_NtCslJiobkLta79_5alloc3vecINtB4_3VecNtNtCsdGrGZaRBwMb_3syn4attr9AttributeE8as_sliceBI_, symObjAddr: 0x10B0, symBinAddr: 0x1B470, symSize: 0x50 }
  - { offset: 0x4A57B, size: 0x8, addend: 0x0, symName: __RNvMs_NtCslJiobkLta79_5alloc3vecINtB4_3VecNtNtCsdGrGZaRBwMb_3syn4attr9AttributeE8is_emptyBI_, symObjAddr: 0x1100, symBinAddr: 0x1B4C0, symSize: 0x20 }
  - { offset: 0x4A6BA, size: 0x8, addend: 0x0, symName: __RNvMs_NtCslJiobkLta79_5alloc3vecINtB4_3VecNtNtCsdGrGZaRBwMb_3syn4attr9AttributeE8push_mutBI_, symObjAddr: 0x1120, symBinAddr: 0x1B4E0, symSize: 0x130 }
  - { offset: 0x4A896, size: 0x8, addend: 0x0, symName: __RNvMs_NtCslJiobkLta79_5alloc3vecINtB4_3VecNtNtCsdGrGZaRBwMb_3syn4expr3ArmE3lenBI_, symObjAddr: 0x13B0, symBinAddr: 0x1B610, symSize: 0x10 }
  - { offset: 0x4A8D8, size: 0x8, addend: 0x0, symName: __RNvMs_NtCslJiobkLta79_5alloc3vecINtB4_3VecNtNtCsdGrGZaRBwMb_3syn4expr3ArmE4pushBI_, symObjAddr: 0x13C0, symBinAddr: 0x1B620, symSize: 0x20 }
  - { offset: 0x4A9DB, size: 0x8, addend: 0x0, symName: __RNvMs_NtCslJiobkLta79_5alloc3vecINtB4_3VecNtNtCsdGrGZaRBwMb_3syn4expr3ArmE8as_sliceBI_, symObjAddr: 0x1450, symBinAddr: 0x1B640, symSize: 0x50 }
  - { offset: 0x4AB81, size: 0x8, addend: 0x0, symName: __RNvMs_NtCslJiobkLta79_5alloc3vecINtB4_3VecNtNtCsdGrGZaRBwMb_3syn4expr3ArmE8push_mutBI_, symObjAddr: 0x14A0, symBinAddr: 0x1B690, symSize: 0x140 }
  - { offset: 0x4AE90, size: 0x8, addend: 0x0, symName: __RNvMs_NtCslJiobkLta79_5alloc3vecINtB4_3VecNtNtCsdGrGZaRBwMb_3syn4expr6ExprIfE3popBI_, symObjAddr: 0x15E0, symBinAddr: 0x1B7D0, symSize: 0x120 }
  - { offset: 0x4B025, size: 0x8, addend: 0x0, symName: __RNvMs_NtCslJiobkLta79_5alloc3vecINtB4_3VecNtNtCsdGrGZaRBwMb_3syn4expr6ExprIfE4pushBI_, symObjAddr: 0x1700, symBinAddr: 0x1B8F0, symSize: 0x20 }
  - { offset: 0x4B156, size: 0x8, addend: 0x0, symName: __RNvMs_NtCslJiobkLta79_5alloc3vecINtB4_3VecNtNtCsdGrGZaRBwMb_3syn4expr6ExprIfE8push_mutBI_, symObjAddr: 0x1720, symBinAddr: 0x1B910, symSize: 0x130 }
  - { offset: 0x4B318, size: 0x8, addend: 0x0, symName: __RNvMs_NtCslJiobkLta79_5alloc3vecINtB4_3VecNtNtCsdGrGZaRBwMb_3syn4item11ForeignItemE4pushBI_, symObjAddr: 0x1850, symBinAddr: 0x1BA40, symSize: 0x20 }
  - { offset: 0x4B47D, size: 0x8, addend: 0x0, symName: __RNvMs_NtCslJiobkLta79_5alloc3vecINtB4_3VecNtNtCsdGrGZaRBwMb_3syn4item11ForeignItemE8push_mutBI_, symObjAddr: 0x18E0, symBinAddr: 0x1BA60, symSize: 0x140 }
  - { offset: 0x4B63F, size: 0x8, addend: 0x0, symName: __RNvMs_NtCslJiobkLta79_5alloc3vecINtB4_3VecNtNtCsdGrGZaRBwMb_3syn4item4ItemE4pushBI_, symObjAddr: 0x1A20, symBinAddr: 0x1BBA0, symSize: 0x20 }
  - { offset: 0x4B7A4, size: 0x8, addend: 0x0, symName: __RNvMs_NtCslJiobkLta79_5alloc3vecINtB4_3VecNtNtCsdGrGZaRBwMb_3syn4item4ItemE8push_mutBI_, symObjAddr: 0x1AB0, symBinAddr: 0x1BBC0, symSize: 0x140 }
  - { offset: 0x4B966, size: 0x8, addend: 0x0, symName: __RNvMs_NtCslJiobkLta79_5alloc3vecINtB4_3VecNtNtCsdGrGZaRBwMb_3syn4item8ImplItemE4pushBI_, symObjAddr: 0x1BF0, symBinAddr: 0x1BD00, symSize: 0x20 }
  - { offset: 0x4BACB, size: 0x8, addend: 0x0, symName: __RNvMs_NtCslJiobkLta79_5alloc3vecINtB4_3VecNtNtCsdGrGZaRBwMb_3syn4item8ImplItemE8push_mutBI_, symObjAddr: 0x1C80, symBinAddr: 0x1BD20, symSize: 0x140 }
  - { offset: 0x4BC8D, size: 0x8, addend: 0x0, symName: __RNvMs_NtCslJiobkLta79_5alloc3vecINtB4_3VecNtNtCsdGrGZaRBwMb_3syn4item9TraitItemE4pushBI_, symObjAddr: 0x1DC0, symBinAddr: 0x1BE60, symSize: 0x20 }
  - { offset: 0x4BDF2, size: 0x8, addend: 0x0, symName: __RNvMs_NtCslJiobkLta79_5alloc3vecINtB4_3VecNtNtCsdGrGZaRBwMb_3syn4item9TraitItemE8push_mutBI_, symObjAddr: 0x1E50, symBinAddr: 0x1BE80, symSize: 0x140 }
  - { offset: 0x4BFB4, size: 0x8, addend: 0x0, symName: __RNvMs_NtCslJiobkLta79_5alloc3vecINtB4_3VecNtNtCsdGrGZaRBwMb_3syn4stmt4StmtE4pushBI_, symObjAddr: 0x1F90, symBinAddr: 0x1BFC0, symSize: 0x20 }
  - { offset: 0x4C119, size: 0x8, addend: 0x0, symName: __RNvMs_NtCslJiobkLta79_5alloc3vecINtB4_3VecNtNtCsdGrGZaRBwMb_3syn4stmt4StmtE8push_mutBI_, symObjAddr: 0x2020, symBinAddr: 0x1BFE0, symSize: 0x140 }
  - { offset: 0x4C42B, size: 0x8, addend: 0x0, symName: __RNvMs_NtCslJiobkLta79_5alloc3vecINtB4_3VecNtNtCsdGrGZaRBwMb_3syn5error12ErrorMessageE17from_raw_parts_inBI_, symObjAddr: 0x2220, symBinAddr: 0x1C120, symSize: 0xA0 }
  - { offset: 0x4C5B2, size: 0x8, addend: 0x0, symName: __RNvMs_NtCslJiobkLta79_5alloc3vecINtB4_3VecNtNtCsdGrGZaRBwMb_3syn5error12ErrorMessageE3lenBI_, symObjAddr: 0x22C0, symBinAddr: 0x1C1C0, symSize: 0x10 }
  - { offset: 0x4C73F, size: 0x8, addend: 0x0, symName: __RNvMs_NtCslJiobkLta79_5alloc3vecINtB4_3VecNtNtCsdGrGZaRBwMb_3syn6buffer5EntryE13shrink_to_fitBI_, symObjAddr: 0x2440, symBinAddr: 0x1C1D0, symSize: 0xE0 }
  - { offset: 0x4C9B9, size: 0x8, addend: 0x0, symName: __RNvMs_NtCslJiobkLta79_5alloc3vecINtB4_3VecNtNtCsdGrGZaRBwMb_3syn6buffer5EntryE16into_boxed_sliceBI_, symObjAddr: 0x2520, symBinAddr: 0x1C2B0, symSize: 0x160 }
  - { offset: 0x4CB89, size: 0x8, addend: 0x0, symName: __RNvMs_NtCslJiobkLta79_5alloc3vecINtB4_3VecNtNtCsdGrGZaRBwMb_3syn6buffer5EntryE3lenBI_, symObjAddr: 0x2680, symBinAddr: 0x1C410, symSize: 0x10 }
  - { offset: 0x4CBBE, size: 0x8, addend: 0x0, symName: __RNvMs_NtCslJiobkLta79_5alloc3vecINtB4_3VecNtNtCsdGrGZaRBwMb_3syn6buffer5EntryE4pushBI_, symObjAddr: 0x2690, symBinAddr: 0x1C420, symSize: 0x20 }
  - { offset: 0x4CCFC, size: 0x8, addend: 0x0, symName: __RNvMs_NtCslJiobkLta79_5alloc3vecINtB4_3VecNtNtCsdGrGZaRBwMb_3syn6buffer5EntryE8push_mutBI_, symObjAddr: 0x26B0, symBinAddr: 0x1C440, symSize: 0x120 }
  - { offset: 0x4CEBE, size: 0x8, addend: 0x0, symName: __RNvMs_NtCslJiobkLta79_5alloc3vecINtB4_3VecNtNtCsdGrGZaRBwMb_3syn8generics14TypeParamBoundE4pushBI_, symObjAddr: 0x27D0, symBinAddr: 0x1C560, symSize: 0x20 }
  - { offset: 0x4D016, size: 0x8, addend: 0x0, symName: __RNvMs_NtCslJiobkLta79_5alloc3vecINtB4_3VecNtNtCsdGrGZaRBwMb_3syn8generics14TypeParamBoundE8push_mutBI_, symObjAddr: 0x27F0, symBinAddr: 0x1C580, symSize: 0x130 }
  - { offset: 0x4D1CB, size: 0x8, addend: 0x0, symName: __RNvMs_NtCslJiobkLta79_5alloc3vecINtB4_3VecReE3lenCsdGrGZaRBwMb_3syn, symObjAddr: 0x2920, symBinAddr: 0x1C6B0, symSize: 0x10 }
  - { offset: 0x4D200, size: 0x8, addend: 0x0, symName: __RNvMs_NtCslJiobkLta79_5alloc3vecINtB4_3VecReE4pushCsdGrGZaRBwMb_3syn, symObjAddr: 0x2930, symBinAddr: 0x1C6C0, symSize: 0x20 }
  - { offset: 0x4D2DB, size: 0x8, addend: 0x0, symName: __RNvMs_NtCslJiobkLta79_5alloc3vecINtB4_3VecReE8as_sliceCsdGrGZaRBwMb_3syn, symObjAddr: 0x2950, symBinAddr: 0x1C6E0, symSize: 0x50 }
  - { offset: 0x4D474, size: 0x8, addend: 0x0, symName: __RNvMs_NtCslJiobkLta79_5alloc3vecINtB4_3VecReE8push_mutCsdGrGZaRBwMb_3syn, symObjAddr: 0x29A0, symBinAddr: 0x1C730, symSize: 0xF0 }
  - { offset: 0x4D637, size: 0x8, addend: 0x0, symName: __RNvMs_NtCslJiobkLta79_5alloc3vecINtB4_3VecTNtNtCsdGrGZaRBwMb_3syn2ty4TypeNtNtBJ_5token5CommaEE3lenBJ_, symObjAddr: 0x2A90, symBinAddr: 0x1C820, symSize: 0x10 }
  - { offset: 0x4D679, size: 0x8, addend: 0x0, symName: __RNvMs_NtCslJiobkLta79_5alloc3vecINtB4_3VecTNtNtCsdGrGZaRBwMb_3syn2ty4TypeNtNtBJ_5token5CommaEE4pushBJ_, symObjAddr: 0x2AA0, symBinAddr: 0x1C830, symSize: 0x20 }
  - { offset: 0x4D77C, size: 0x8, addend: 0x0, symName: __RNvMs_NtCslJiobkLta79_5alloc3vecINtB4_3VecTNtNtCsdGrGZaRBwMb_3syn2ty4TypeNtNtBJ_5token5CommaEE8as_sliceBJ_, symObjAddr: 0x2B30, symBinAddr: 0x1C850, symSize: 0x50 }
  - { offset: 0x4D922, size: 0x8, addend: 0x0, symName: __RNvMs_NtCslJiobkLta79_5alloc3vecINtB4_3VecTNtNtCsdGrGZaRBwMb_3syn2ty4TypeNtNtBJ_5token5CommaEE8push_mutBJ_, symObjAddr: 0x2B80, symBinAddr: 0x1C8A0, symSize: 0x140 }
  - { offset: 0x4DAE4, size: 0x8, addend: 0x0, symName: __RNvMs_NtCslJiobkLta79_5alloc3vecINtB4_3VecTNtNtCsdGrGZaRBwMb_3syn2ty9BareFnArgNtNtBJ_5token5CommaEE3lenBJ_, symObjAddr: 0x2CC0, symBinAddr: 0x1C9E0, symSize: 0x10 }
  - { offset: 0x4DB26, size: 0x8, addend: 0x0, symName: __RNvMs_NtCslJiobkLta79_5alloc3vecINtB4_3VecTNtNtCsdGrGZaRBwMb_3syn2ty9BareFnArgNtNtBJ_5token5CommaEE4pushBJ_, symObjAddr: 0x2CD0, symBinAddr: 0x1C9F0, symSize: 0x20 }
  - { offset: 0x4DC29, size: 0x8, addend: 0x0, symName: __RNvMs_NtCslJiobkLta79_5alloc3vecINtB4_3VecTNtNtCsdGrGZaRBwMb_3syn2ty9BareFnArgNtNtBJ_5token5CommaEE8as_sliceBJ_, symObjAddr: 0x2D60, symBinAddr: 0x1CA10, symSize: 0x50 }
  - { offset: 0x4DDCF, size: 0x8, addend: 0x0, symName: __RNvMs_NtCslJiobkLta79_5alloc3vecINtB4_3VecTNtNtCsdGrGZaRBwMb_3syn2ty9BareFnArgNtNtBJ_5token5CommaEE8push_mutBJ_, symObjAddr: 0x2DB0, symBinAddr: 0x1CA60, symSize: 0x140 }
  - { offset: 0x4DF91, size: 0x8, addend: 0x0, symName: __RNvMs_NtCslJiobkLta79_5alloc3vecINtB4_3VecTNtNtCsdGrGZaRBwMb_3syn3pat3PatNtNtBJ_5token2OrEE4pushBJ_, symObjAddr: 0x2EF0, symBinAddr: 0x1CBA0, symSize: 0x20 }
  - { offset: 0x4E0A1, size: 0x8, addend: 0x0, symName: __RNvMs_NtCslJiobkLta79_5alloc3vecINtB4_3VecTNtNtCsdGrGZaRBwMb_3syn3pat3PatNtNtBJ_5token2OrEE8as_sliceBJ_, symObjAddr: 0x2F80, symBinAddr: 0x1CBC0, symSize: 0x50 }
  - { offset: 0x4E247, size: 0x8, addend: 0x0, symName: __RNvMs_NtCslJiobkLta79_5alloc3vecINtB4_3VecTNtNtCsdGrGZaRBwMb_3syn3pat3PatNtNtBJ_5token2OrEE8push_mutBJ_, symObjAddr: 0x2FD0, symBinAddr: 0x1CC10, symSize: 0x140 }
  - { offset: 0x4E409, size: 0x8, addend: 0x0, symName: __RNvMs_NtCslJiobkLta79_5alloc3vecINtB4_3VecTNtNtCsdGrGZaRBwMb_3syn3pat3PatNtNtBJ_5token5CommaEE3lenBJ_, symObjAddr: 0x3110, symBinAddr: 0x1CD50, symSize: 0x10 }
  - { offset: 0x4E44B, size: 0x8, addend: 0x0, symName: __RNvMs_NtCslJiobkLta79_5alloc3vecINtB4_3VecTNtNtCsdGrGZaRBwMb_3syn3pat3PatNtNtBJ_5token5CommaEE4pushBJ_, symObjAddr: 0x3120, symBinAddr: 0x1CD60, symSize: 0x20 }
  - { offset: 0x4E54E, size: 0x8, addend: 0x0, symName: __RNvMs_NtCslJiobkLta79_5alloc3vecINtB4_3VecTNtNtCsdGrGZaRBwMb_3syn3pat3PatNtNtBJ_5token5CommaEE8as_sliceBJ_, symObjAddr: 0x31B0, symBinAddr: 0x1CD80, symSize: 0x50 }
  - { offset: 0x4E6F4, size: 0x8, addend: 0x0, symName: __RNvMs_NtCslJiobkLta79_5alloc3vecINtB4_3VecTNtNtCsdGrGZaRBwMb_3syn3pat3PatNtNtBJ_5token5CommaEE8push_mutBJ_, symObjAddr: 0x3200, symBinAddr: 0x1CDD0, symSize: 0x140 }
  - { offset: 0x4E8B6, size: 0x8, addend: 0x0, symName: __RNvMs_NtCslJiobkLta79_5alloc3vecINtB4_3VecTNtNtCsdGrGZaRBwMb_3syn3pat8FieldPatNtNtBJ_5token5CommaEE4pushBJ_, symObjAddr: 0x3340, symBinAddr: 0x1CF10, symSize: 0x20 }
  - { offset: 0x4E9C6, size: 0x8, addend: 0x0, symName: __RNvMs_NtCslJiobkLta79_5alloc3vecINtB4_3VecTNtNtCsdGrGZaRBwMb_3syn3pat8FieldPatNtNtBJ_5token5CommaEE8as_sliceBJ_, symObjAddr: 0x33D0, symBinAddr: 0x1CF30, symSize: 0x50 }
  - { offset: 0x4EB6C, size: 0x8, addend: 0x0, symName: __RNvMs_NtCslJiobkLta79_5alloc3vecINtB4_3VecTNtNtCsdGrGZaRBwMb_3syn3pat8FieldPatNtNtBJ_5token5CommaEE8push_mutBJ_, symObjAddr: 0x3420, symBinAddr: 0x1CF80, symSize: 0x130 }
  - { offset: 0x4ED89, size: 0x8, addend: 0x0, symName: __RNvMs_NtCslJiobkLta79_5alloc3vecINtB4_3VecTNtNtCsdGrGZaRBwMb_3syn4data5FieldNtNtBJ_5token5CommaEE4pushBJ_, symObjAddr: 0x35B0, symBinAddr: 0x1D0B0, symSize: 0x20 }
  - { offset: 0x4EE5C, size: 0x8, addend: 0x0, symName: __RNvMs_NtCslJiobkLta79_5alloc3vecINtB4_3VecTNtNtCsdGrGZaRBwMb_3syn4data5FieldNtNtBJ_5token5CommaEE8as_sliceBJ_, symObjAddr: 0x3640, symBinAddr: 0x1D0D0, symSize: 0x50 }
  - { offset: 0x4F002, size: 0x8, addend: 0x0, symName: __RNvMs_NtCslJiobkLta79_5alloc3vecINtB4_3VecTNtNtCsdGrGZaRBwMb_3syn4data5FieldNtNtBJ_5token5CommaEE8push_mutBJ_, symObjAddr: 0x3690, symBinAddr: 0x1D120, symSize: 0x140 }
  - { offset: 0x4F1C4, size: 0x8, addend: 0x0, symName: __RNvMs_NtCslJiobkLta79_5alloc3vecINtB4_3VecTNtNtCsdGrGZaRBwMb_3syn4data7VariantNtNtBJ_5token5CommaEE4pushBJ_, symObjAddr: 0x37E0, symBinAddr: 0x1D260, symSize: 0x20 }
  - { offset: 0x4F2D4, size: 0x8, addend: 0x0, symName: __RNvMs_NtCslJiobkLta79_5alloc3vecINtB4_3VecTNtNtCsdGrGZaRBwMb_3syn4data7VariantNtNtBJ_5token5CommaEE8as_sliceBJ_, symObjAddr: 0x3870, symBinAddr: 0x1D280, symSize: 0x50 }
  - { offset: 0x4F47A, size: 0x8, addend: 0x0, symName: __RNvMs_NtCslJiobkLta79_5alloc3vecINtB4_3VecTNtNtCsdGrGZaRBwMb_3syn4data7VariantNtNtBJ_5token5CommaEE8push_mutBJ_, symObjAddr: 0x38C0, symBinAddr: 0x1D2D0, symSize: 0x140 }
  - { offset: 0x4F63C, size: 0x8, addend: 0x0, symName: __RNvMs_NtCslJiobkLta79_5alloc3vecINtB4_3VecTNtNtCsdGrGZaRBwMb_3syn4expr10FieldValueNtNtBJ_5token5CommaEE4pushBJ_, symObjAddr: 0x3A00, symBinAddr: 0x1D410, symSize: 0x20 }
  - { offset: 0x4F74C, size: 0x8, addend: 0x0, symName: __RNvMs_NtCslJiobkLta79_5alloc3vecINtB4_3VecTNtNtCsdGrGZaRBwMb_3syn4expr10FieldValueNtNtBJ_5token5CommaEE8as_sliceBJ_, symObjAddr: 0x3A90, symBinAddr: 0x1D430, symSize: 0x50 }
  - { offset: 0x4F8F2, size: 0x8, addend: 0x0, symName: __RNvMs_NtCslJiobkLta79_5alloc3vecINtB4_3VecTNtNtCsdGrGZaRBwMb_3syn4expr10FieldValueNtNtBJ_5token5CommaEE8push_mutBJ_, symObjAddr: 0x3AE0, symBinAddr: 0x1D480, symSize: 0x140 }
  - { offset: 0x4FAB4, size: 0x8, addend: 0x0, symName: __RNvMs_NtCslJiobkLta79_5alloc3vecINtB4_3VecTNtNtCsdGrGZaRBwMb_3syn4expr4ExprNtNtBJ_5token5CommaEE3lenBJ_, symObjAddr: 0x3C20, symBinAddr: 0x1D5C0, symSize: 0x10 }
  - { offset: 0x4FAF6, size: 0x8, addend: 0x0, symName: __RNvMs_NtCslJiobkLta79_5alloc3vecINtB4_3VecTNtNtCsdGrGZaRBwMb_3syn4expr4ExprNtNtBJ_5token5CommaEE4pushBJ_, symObjAddr: 0x3C30, symBinAddr: 0x1D5D0, symSize: 0x20 }
  - { offset: 0x4FBF9, size: 0x8, addend: 0x0, symName: __RNvMs_NtCslJiobkLta79_5alloc3vecINtB4_3VecTNtNtCsdGrGZaRBwMb_3syn4expr4ExprNtNtBJ_5token5CommaEE8as_sliceBJ_, symObjAddr: 0x3CC0, symBinAddr: 0x1D5F0, symSize: 0x50 }
  - { offset: 0x4FD9F, size: 0x8, addend: 0x0, symName: __RNvMs_NtCslJiobkLta79_5alloc3vecINtB4_3VecTNtNtCsdGrGZaRBwMb_3syn4expr4ExprNtNtBJ_5token5CommaEE8push_mutBJ_, symObjAddr: 0x3D10, symBinAddr: 0x1D640, symSize: 0x140 }
  - { offset: 0x4FF61, size: 0x8, addend: 0x0, symName: __RNvMs_NtCslJiobkLta79_5alloc3vecINtB4_3VecTNtNtCsdGrGZaRBwMb_3syn4item5FnArgNtNtBJ_5token5CommaEE3lenBJ_, symObjAddr: 0x3E50, symBinAddr: 0x1D780, symSize: 0x10 }
  - { offset: 0x4FFA3, size: 0x8, addend: 0x0, symName: __RNvMs_NtCslJiobkLta79_5alloc3vecINtB4_3VecTNtNtCsdGrGZaRBwMb_3syn4item5FnArgNtNtBJ_5token5CommaEE4pushBJ_, symObjAddr: 0x3E60, symBinAddr: 0x1D790, symSize: 0x20 }
  - { offset: 0x500A6, size: 0x8, addend: 0x0, symName: __RNvMs_NtCslJiobkLta79_5alloc3vecINtB4_3VecTNtNtCsdGrGZaRBwMb_3syn4item5FnArgNtNtBJ_5token5CommaEE8as_sliceBJ_, symObjAddr: 0x3EF0, symBinAddr: 0x1D7B0, symSize: 0x50 }
  - { offset: 0x5024C, size: 0x8, addend: 0x0, symName: __RNvMs_NtCslJiobkLta79_5alloc3vecINtB4_3VecTNtNtCsdGrGZaRBwMb_3syn4item5FnArgNtNtBJ_5token5CommaEE8push_mutBJ_, symObjAddr: 0x3F40, symBinAddr: 0x1D800, symSize: 0x130 }
  - { offset: 0x5040E, size: 0x8, addend: 0x0, symName: __RNvMs_NtCslJiobkLta79_5alloc3vecINtB4_3VecTNtNtCsdGrGZaRBwMb_3syn4item7UseTreeNtNtBJ_5token5CommaEE4pushBJ_, symObjAddr: 0x4070, symBinAddr: 0x1D930, symSize: 0x20 }
  - { offset: 0x5051E, size: 0x8, addend: 0x0, symName: __RNvMs_NtCslJiobkLta79_5alloc3vecINtB4_3VecTNtNtCsdGrGZaRBwMb_3syn4item7UseTreeNtNtBJ_5token5CommaEE8as_sliceBJ_, symObjAddr: 0x4100, symBinAddr: 0x1D950, symSize: 0x50 }
  - { offset: 0x506C4, size: 0x8, addend: 0x0, symName: __RNvMs_NtCslJiobkLta79_5alloc3vecINtB4_3VecTNtNtCsdGrGZaRBwMb_3syn4item7UseTreeNtNtBJ_5token5CommaEE8push_mutBJ_, symObjAddr: 0x4150, symBinAddr: 0x1D9A0, symSize: 0x130 }
  - { offset: 0x50954, size: 0x8, addend: 0x0, symName: __RNvMs_NtCslJiobkLta79_5alloc3vecINtB4_3VecTNtNtCsdGrGZaRBwMb_3syn4path11PathSegmentNtNtBJ_5token7PathSepEE12as_mut_sliceBJ_, symObjAddr: 0x4280, symBinAddr: 0x1DAD0, symSize: 0x50 }
  - { offset: 0x50A30, size: 0x8, addend: 0x0, symName: __RNvMs_NtCslJiobkLta79_5alloc3vecINtB4_3VecTNtNtCsdGrGZaRBwMb_3syn4path11PathSegmentNtNtBJ_5token7PathSepEE3lenBJ_, symObjAddr: 0x42D0, symBinAddr: 0x1DB20, symSize: 0x10 }
  - { offset: 0x50B7E, size: 0x8, addend: 0x0, symName: __RNvMs_NtCslJiobkLta79_5alloc3vecINtB4_3VecTNtNtCsdGrGZaRBwMb_3syn4path11PathSegmentNtNtBJ_5token7PathSepEE3popBJ_, symObjAddr: 0x42E0, symBinAddr: 0x1DB30, symSize: 0x120 }
  - { offset: 0x50D13, size: 0x8, addend: 0x0, symName: __RNvMs_NtCslJiobkLta79_5alloc3vecINtB4_3VecTNtNtCsdGrGZaRBwMb_3syn4path11PathSegmentNtNtBJ_5token7PathSepEE4pushBJ_, symObjAddr: 0x4400, symBinAddr: 0x1DC50, symSize: 0x20 }
  - { offset: 0x50DE6, size: 0x8, addend: 0x0, symName: __RNvMs_NtCslJiobkLta79_5alloc3vecINtB4_3VecTNtNtCsdGrGZaRBwMb_3syn4path11PathSegmentNtNtBJ_5token7PathSepEE8as_sliceBJ_, symObjAddr: 0x4490, symBinAddr: 0x1DC70, symSize: 0x50 }
  - { offset: 0x50F8C, size: 0x8, addend: 0x0, symName: __RNvMs_NtCslJiobkLta79_5alloc3vecINtB4_3VecTNtNtCsdGrGZaRBwMb_3syn4path11PathSegmentNtNtBJ_5token7PathSepEE8push_mutBJ_, symObjAddr: 0x44E0, symBinAddr: 0x1DCC0, symSize: 0x130 }
  - { offset: 0x5114E, size: 0x8, addend: 0x0, symName: __RNvMs_NtCslJiobkLta79_5alloc3vecINtB4_3VecTNtNtCsdGrGZaRBwMb_3syn4path15GenericArgumentNtNtBJ_5token5CommaEE3lenBJ_, symObjAddr: 0x4610, symBinAddr: 0x1DDF0, symSize: 0x10 }
  - { offset: 0x51190, size: 0x8, addend: 0x0, symName: __RNvMs_NtCslJiobkLta79_5alloc3vecINtB4_3VecTNtNtCsdGrGZaRBwMb_3syn4path15GenericArgumentNtNtBJ_5token5CommaEE4pushBJ_, symObjAddr: 0x4620, symBinAddr: 0x1DE00, symSize: 0x20 }
  - { offset: 0x51293, size: 0x8, addend: 0x0, symName: __RNvMs_NtCslJiobkLta79_5alloc3vecINtB4_3VecTNtNtCsdGrGZaRBwMb_3syn4path15GenericArgumentNtNtBJ_5token5CommaEE8as_sliceBJ_, symObjAddr: 0x46B0, symBinAddr: 0x1DE20, symSize: 0x50 }
  - { offset: 0x51439, size: 0x8, addend: 0x0, symName: __RNvMs_NtCslJiobkLta79_5alloc3vecINtB4_3VecTNtNtCsdGrGZaRBwMb_3syn4path15GenericArgumentNtNtBJ_5token5CommaEE8push_mutBJ_, symObjAddr: 0x4700, symBinAddr: 0x1DE70, symSize: 0x140 }
  - { offset: 0x51656, size: 0x8, addend: 0x0, symName: __RNvMs_NtCslJiobkLta79_5alloc3vecINtB4_3VecTNtNtCsdGrGZaRBwMb_3syn8generics12GenericParamNtNtBJ_5token5CommaEE3lenBJ_, symObjAddr: 0x4890, symBinAddr: 0x1DFB0, symSize: 0x10 }
  - { offset: 0x5168B, size: 0x8, addend: 0x0, symName: __RNvMs_NtCslJiobkLta79_5alloc3vecINtB4_3VecTNtNtCsdGrGZaRBwMb_3syn8generics12GenericParamNtNtBJ_5token5CommaEE4pushBJ_, symObjAddr: 0x48A0, symBinAddr: 0x1DFC0, symSize: 0x20 }
  - { offset: 0x5175E, size: 0x8, addend: 0x0, symName: __RNvMs_NtCslJiobkLta79_5alloc3vecINtB4_3VecTNtNtCsdGrGZaRBwMb_3syn8generics12GenericParamNtNtBJ_5token5CommaEE8as_sliceBJ_, symObjAddr: 0x4930, symBinAddr: 0x1DFE0, symSize: 0x50 }
  - { offset: 0x51904, size: 0x8, addend: 0x0, symName: __RNvMs_NtCslJiobkLta79_5alloc3vecINtB4_3VecTNtNtCsdGrGZaRBwMb_3syn8generics12GenericParamNtNtBJ_5token5CommaEE8push_mutBJ_, symObjAddr: 0x4980, symBinAddr: 0x1E030, symSize: 0x140 }
  - { offset: 0x51AC6, size: 0x8, addend: 0x0, symName: __RNvMs_NtCslJiobkLta79_5alloc3vecINtB4_3VecTNtNtCsdGrGZaRBwMb_3syn8generics13CapturedParamNtNtBJ_5token5CommaEE4pushBJ_, symObjAddr: 0x4AC0, symBinAddr: 0x1E170, symSize: 0x20 }
  - { offset: 0x51BD6, size: 0x8, addend: 0x0, symName: __RNvMs_NtCslJiobkLta79_5alloc3vecINtB4_3VecTNtNtCsdGrGZaRBwMb_3syn8generics13CapturedParamNtNtBJ_5token5CommaEE8as_sliceBJ_, symObjAddr: 0x4B50, symBinAddr: 0x1E190, symSize: 0x50 }
  - { offset: 0x51D7C, size: 0x8, addend: 0x0, symName: __RNvMs_NtCslJiobkLta79_5alloc3vecINtB4_3VecTNtNtCsdGrGZaRBwMb_3syn8generics13CapturedParamNtNtBJ_5token5CommaEE8push_mutBJ_, symObjAddr: 0x4BA0, symBinAddr: 0x1E1E0, symSize: 0x130 }
  - { offset: 0x51F3E, size: 0x8, addend: 0x0, symName: __RNvMs_NtCslJiobkLta79_5alloc3vecINtB4_3VecTNtNtCsdGrGZaRBwMb_3syn8generics14TypeParamBoundNtNtBJ_5token4PlusEE3lenBJ_, symObjAddr: 0x4CD0, symBinAddr: 0x1E310, symSize: 0x10 }
  - { offset: 0x51F80, size: 0x8, addend: 0x0, symName: __RNvMs_NtCslJiobkLta79_5alloc3vecINtB4_3VecTNtNtCsdGrGZaRBwMb_3syn8generics14TypeParamBoundNtNtBJ_5token4PlusEE4pushBJ_, symObjAddr: 0x4CE0, symBinAddr: 0x1E320, symSize: 0x20 }
  - { offset: 0x52083, size: 0x8, addend: 0x0, symName: __RNvMs_NtCslJiobkLta79_5alloc3vecINtB4_3VecTNtNtCsdGrGZaRBwMb_3syn8generics14TypeParamBoundNtNtBJ_5token4PlusEE8as_sliceBJ_, symObjAddr: 0x4D70, symBinAddr: 0x1E340, symSize: 0x50 }
  - { offset: 0x52229, size: 0x8, addend: 0x0, symName: __RNvMs_NtCslJiobkLta79_5alloc3vecINtB4_3VecTNtNtCsdGrGZaRBwMb_3syn8generics14TypeParamBoundNtNtBJ_5token4PlusEE8push_mutBJ_, symObjAddr: 0x4DC0, symBinAddr: 0x1E390, symSize: 0x130 }
  - { offset: 0x523EB, size: 0x8, addend: 0x0, symName: __RNvMs_NtCslJiobkLta79_5alloc3vecINtB4_3VecTNtNtCsdGrGZaRBwMb_3syn8generics14WherePredicateNtNtBJ_5token5CommaEE3lenBJ_, symObjAddr: 0x4EF0, symBinAddr: 0x1E4C0, symSize: 0x10 }
  - { offset: 0x5242D, size: 0x8, addend: 0x0, symName: __RNvMs_NtCslJiobkLta79_5alloc3vecINtB4_3VecTNtNtCsdGrGZaRBwMb_3syn8generics14WherePredicateNtNtBJ_5token5CommaEE4pushBJ_, symObjAddr: 0x4F00, symBinAddr: 0x1E4D0, symSize: 0x20 }
  - { offset: 0x52530, size: 0x8, addend: 0x0, symName: __RNvMs_NtCslJiobkLta79_5alloc3vecINtB4_3VecTNtNtCsdGrGZaRBwMb_3syn8generics14WherePredicateNtNtBJ_5token5CommaEE8as_sliceBJ_, symObjAddr: 0x4F90, symBinAddr: 0x1E4F0, symSize: 0x50 }
  - { offset: 0x526D6, size: 0x8, addend: 0x0, symName: __RNvMs_NtCslJiobkLta79_5alloc3vecINtB4_3VecTNtNtCsdGrGZaRBwMb_3syn8generics14WherePredicateNtNtBJ_5token5CommaEE8push_mutBJ_, symObjAddr: 0x4FE0, symBinAddr: 0x1E540, symSize: 0x140 }
  - { offset: 0x52898, size: 0x8, addend: 0x0, symName: __RNvMs_NtCslJiobkLta79_5alloc3vecINtB4_3VecTNtNtCsdGrGZaRBwMb_3syn8lifetime8LifetimeNtNtBJ_5token4PlusEE3lenBJ_, symObjAddr: 0x5120, symBinAddr: 0x1E680, symSize: 0x10 }
  - { offset: 0x528DA, size: 0x8, addend: 0x0, symName: __RNvMs_NtCslJiobkLta79_5alloc3vecINtB4_3VecTNtNtCsdGrGZaRBwMb_3syn8lifetime8LifetimeNtNtBJ_5token4PlusEE4pushBJ_, symObjAddr: 0x5130, symBinAddr: 0x1E690, symSize: 0x20 }
  - { offset: 0x529DD, size: 0x8, addend: 0x0, symName: __RNvMs_NtCslJiobkLta79_5alloc3vecINtB4_3VecTNtNtCsdGrGZaRBwMb_3syn8lifetime8LifetimeNtNtBJ_5token4PlusEE8as_sliceBJ_, symObjAddr: 0x51C0, symBinAddr: 0x1E6B0, symSize: 0x50 }
  - { offset: 0x52B83, size: 0x8, addend: 0x0, symName: __RNvMs_NtCslJiobkLta79_5alloc3vecINtB4_3VecTNtNtCsdGrGZaRBwMb_3syn8lifetime8LifetimeNtNtBJ_5token4PlusEE8push_mutBJ_, symObjAddr: 0x5210, symBinAddr: 0x1E700, symSize: 0x130 }
  - { offset: 0x52E3E, size: 0x8, addend: 0x0, symName: __RNvMs_NtCslJiobkLta79_5alloc3vecINtB4_3VechE13shrink_to_fitCsdGrGZaRBwMb_3syn, symObjAddr: 0x5340, symBinAddr: 0x1E830, symSize: 0xE0 }
  - { offset: 0x53073, size: 0x8, addend: 0x0, symName: __RNvMs_NtCslJiobkLta79_5alloc3vecINtB4_3VechE16into_boxed_sliceCsdGrGZaRBwMb_3syn, symObjAddr: 0x5420, symBinAddr: 0x1E910, symSize: 0x160 }
  - { offset: 0x53243, size: 0x8, addend: 0x0, symName: __RNvMs_NtCslJiobkLta79_5alloc3vecINtB4_3VechE3lenCsdGrGZaRBwMb_3syn, symObjAddr: 0x5580, symBinAddr: 0x1EA70, symSize: 0x10 }
  - { offset: 0x53278, size: 0x8, addend: 0x0, symName: __RNvMs_NtCslJiobkLta79_5alloc3vecINtB4_3VechE4pushCsdGrGZaRBwMb_3syn, symObjAddr: 0x5590, symBinAddr: 0x1EA80, symSize: 0x20 }
  - { offset: 0x5332C, size: 0x8, addend: 0x0, symName: __RNvMs_NtCslJiobkLta79_5alloc3vecINtB4_3VechE8as_sliceCsdGrGZaRBwMb_3syn, symObjAddr: 0x55B0, symBinAddr: 0x1EAA0, symSize: 0x50 }
  - { offset: 0x534D2, size: 0x8, addend: 0x0, symName: __RNvMs_NtCslJiobkLta79_5alloc3vecINtB4_3VechE8push_mutCsdGrGZaRBwMb_3syn, symObjAddr: 0x5600, symBinAddr: 0x1EAF0, symSize: 0xC0 }
  - { offset: 0x538C1, size: 0x8, addend: 0x0, symName: __RNvMs_NtCslJiobkLta79_5alloc3vecINtB4_3VechE9split_offCsdGrGZaRBwMb_3syn, symObjAddr: 0x56C0, symBinAddr: 0x1EBB0, symSize: 0x290 }
  - { offset: 0x5A3EB, size: 0x8, addend: 0x0, symName: __RNcNtNtNtCsdGrGZaRBwMb_3syn4expr11RangeLimits6Closed0B7_, symObjAddr: 0xDB0, symBinAddr: 0x20A00, symSize: 0x20 }
  - { offset: 0x5A41B, size: 0x8, addend: 0x0, symName: __RNcNtNtNtCsdGrGZaRBwMb_3syn4expr11RangeLimits8HalfOpen0B7_, symObjAddr: 0xDD0, symBinAddr: 0x20A20, symSize: 0x30 }
  - { offset: 0x5A451, size: 0x8, addend: 0x0, symName: __RNcNtNtNtCsdGrGZaRBwMb_3syn4expr4Expr2If0B7_, symObjAddr: 0xE00, symBinAddr: 0x20A50, symSize: 0x40 }
  - { offset: 0x5A480, size: 0x8, addend: 0x0, symName: __RNcNtNtNtCsdGrGZaRBwMb_3syn4expr4Expr3Let0B7_, symObjAddr: 0xE40, symBinAddr: 0x20A90, symSize: 0x40 }
  - { offset: 0x5A4AF, size: 0x8, addend: 0x0, symName: __RNcNtNtNtCsdGrGZaRBwMb_3syn4expr4Expr3Lit0B7_, symObjAddr: 0xE80, symBinAddr: 0x20AD0, symSize: 0x40 }
  - { offset: 0x5A4DE, size: 0x8, addend: 0x0, symName: __RNcNtNtNtCsdGrGZaRBwMb_3syn4expr4Expr4Loop0B7_, symObjAddr: 0xEC0, symBinAddr: 0x20B10, symSize: 0x40 }
  - { offset: 0x5A50D, size: 0x8, addend: 0x0, symName: __RNcNtNtNtCsdGrGZaRBwMb_3syn4expr4Expr5Async0B7_, symObjAddr: 0xF00, symBinAddr: 0x20B50, symSize: 0x40 }
  - { offset: 0x5A53C, size: 0x8, addend: 0x0, symName: __RNcNtNtNtCsdGrGZaRBwMb_3syn4expr4Expr5Block0B7_, symObjAddr: 0xF40, symBinAddr: 0x20B90, symSize: 0x40 }
  - { offset: 0x5A56B, size: 0x8, addend: 0x0, symName: __RNcNtNtNtCsdGrGZaRBwMb_3syn4expr4Expr5Break0B7_, symObjAddr: 0xF80, symBinAddr: 0x20BD0, symSize: 0x40 }
  - { offset: 0x5A59A, size: 0x8, addend: 0x0, symName: __RNcNtNtNtCsdGrGZaRBwMb_3syn4expr4Expr5Const0B7_, symObjAddr: 0xFC0, symBinAddr: 0x20C10, symSize: 0x40 }
  - { offset: 0x5A5C9, size: 0x8, addend: 0x0, symName: __RNcNtNtNtCsdGrGZaRBwMb_3syn4expr4Expr5Infer0B7_, symObjAddr: 0x1000, symBinAddr: 0x20C50, symSize: 0x30 }
  - { offset: 0x5A5F7, size: 0x8, addend: 0x0, symName: __RNcNtNtNtCsdGrGZaRBwMb_3syn4expr4Expr5Match0B7_, symObjAddr: 0x1030, symBinAddr: 0x20C80, symSize: 0x40 }
  - { offset: 0x5A626, size: 0x8, addend: 0x0, symName: __RNcNtNtNtCsdGrGZaRBwMb_3syn4expr4Expr5Range0B7_, symObjAddr: 0x1070, symBinAddr: 0x20CC0, symSize: 0x40 }
  - { offset: 0x5A655, size: 0x8, addend: 0x0, symName: __RNcNtNtNtCsdGrGZaRBwMb_3syn4expr4Expr5Unary0B7_, symObjAddr: 0x10B0, symBinAddr: 0x20D00, symSize: 0x40 }
  - { offset: 0x5A684, size: 0x8, addend: 0x0, symName: __RNcNtNtNtCsdGrGZaRBwMb_3syn4expr4Expr5While0B7_, symObjAddr: 0x10F0, symBinAddr: 0x20D40, symSize: 0x40 }
  - { offset: 0x5A6B3, size: 0x8, addend: 0x0, symName: __RNcNtNtNtCsdGrGZaRBwMb_3syn4expr4Expr5Yield0B7_, symObjAddr: 0x1130, symBinAddr: 0x20D80, symSize: 0x40 }
  - { offset: 0x5A6E2, size: 0x8, addend: 0x0, symName: __RNcNtNtNtCsdGrGZaRBwMb_3syn4expr4Expr6Return0B7_, symObjAddr: 0x1170, symBinAddr: 0x20DC0, symSize: 0x40 }
  - { offset: 0x5A711, size: 0x8, addend: 0x0, symName: __RNcNtNtNtCsdGrGZaRBwMb_3syn4expr4Expr6Struct0B7_, symObjAddr: 0x11B0, symBinAddr: 0x20E00, symSize: 0x40 }
  - { offset: 0x5A740, size: 0x8, addend: 0x0, symName: __RNcNtNtNtCsdGrGZaRBwMb_3syn4expr4Expr6Unsafe0B7_, symObjAddr: 0x11F0, symBinAddr: 0x20E40, symSize: 0x40 }
  - { offset: 0x5A76F, size: 0x8, addend: 0x0, symName: __RNcNtNtNtCsdGrGZaRBwMb_3syn4expr4Expr7Closure0B7_, symObjAddr: 0x1230, symBinAddr: 0x20E80, symSize: 0x40 }
  - { offset: 0x5A79E, size: 0x8, addend: 0x0, symName: __RNcNtNtNtCsdGrGZaRBwMb_3syn4expr4Expr7ForLoop0B7_, symObjAddr: 0x1270, symBinAddr: 0x20EC0, symSize: 0x40 }
  - { offset: 0x5A7CD, size: 0x8, addend: 0x0, symName: __RNcNtNtNtCsdGrGZaRBwMb_3syn4expr4Expr8Continue0B7_, symObjAddr: 0x12B0, symBinAddr: 0x20F00, symSize: 0x40 }
  - { offset: 0x5A7FC, size: 0x8, addend: 0x0, symName: __RNcNtNtNtCsdGrGZaRBwMb_3syn4expr4Expr8TryBlock0B7_, symObjAddr: 0x12F0, symBinAddr: 0x20F40, symSize: 0x40 }
  - { offset: 0x5A831, size: 0x8, addend: 0x0, symName: __RNcNtNtNtCsdGrGZaRBwMb_3syn4expr6Member5Named0B7_, symObjAddr: 0x1330, symBinAddr: 0x20F80, symSize: 0x20 }
  - { offset: 0x5A861, size: 0x8, addend: 0x0, symName: __RNcNtNtNtCsdGrGZaRBwMb_3syn4expr6Member7Unnamed0B7_, symObjAddr: 0x1350, symBinAddr: 0x20FA0, symSize: 0x20 }
  - { offset: 0x5A897, size: 0x8, addend: 0x0, symName: __RNvXNtNtCsdGrGZaRBwMb_3syn4expr7parsingNtB4_4ExprNtNtB6_5parse5Parse5parse, symObjAddr: 0x42A0, symBinAddr: 0x21EA0, symSize: 0x30 }
  - { offset: 0x5A8CB, size: 0x8, addend: 0x0, symName: __RNvXs4_NtNtCsdGrGZaRBwMb_3syn4expr7parsingNtB7_7ExprLitNtNtB9_5parse5Parse5parse, symObjAddr: 0x78B0, symBinAddr: 0x22080, symSize: 0x190 }
  - { offset: 0x5A91E, size: 0x8, addend: 0x0, symName: __RNvXs7_NtNtCsdGrGZaRBwMb_3syn4expr7parsingNtB7_6ExprIfNtNtB9_5parse5Parse5parse, symObjAddr: 0x8100, symBinAddr: 0x222D0, symSize: 0x1460 }
  - { offset: 0x5AB94, size: 0x8, addend: 0x0, symName: __RNvXs8_NtNtCsdGrGZaRBwMb_3syn4expr7parsingNtB7_9ExprInferNtNtB9_5parse5Parse5parse, symObjAddr: 0x9E10, symBinAddr: 0x23770, symSize: 0x250 }
  - { offset: 0x5AC24, size: 0x8, addend: 0x0, symName: __RNvXs9_NtNtCsdGrGZaRBwMb_3syn4expr7parsingNtB7_11ExprForLoopNtNtB9_5parse5Parse5parse, symObjAddr: 0xA0F0, symBinAddr: 0x23A30, symSize: 0xD40 }
  - { offset: 0x5AEF3, size: 0x8, addend: 0x0, symName: __RNvXsA_NtNtCsdGrGZaRBwMb_3syn4expr7parsingNtB7_5IndexNtNtB9_5parse5Parse5parse, symObjAddr: 0xB030, symBinAddr: 0x247D0, symSize: 0x300 }
  - { offset: 0x5AF9A, size: 0x8, addend: 0x0, symName: __RNvXsa_NtNtCsdGrGZaRBwMb_3syn4expr7parsingNtB7_8ExprLoopNtNtB9_5parse5Parse5parse, symObjAddr: 0x12730, symBinAddr: 0x255C0, symSize: 0x810 }
  - { offset: 0x5B14D, size: 0x8, addend: 0x0, symName: __RNvXsb_NtNtCsdGrGZaRBwMb_3syn4expr7parsingNtB7_9ExprMatchNtNtB9_5parse5Parse5parse, symObjAddr: 0x12FD0, symBinAddr: 0x25E10, symSize: 0x850 }
  - { offset: 0x5B33E, size: 0x8, addend: 0x0, symName: __RNvXsh_NtNtCsdGrGZaRBwMb_3syn4expr7parsingNtB7_10ExprReturnNtNtB9_5parse5Parse5parse, symObjAddr: 0x147D0, symBinAddr: 0x26A90, symSize: 0x270 }
  - { offset: 0x5B39F, size: 0x8, addend: 0x0, symName: __RNvXsi_NtNtCsdGrGZaRBwMb_3syn4expr7parsingNtB7_12ExprTryBlockNtNtB9_5parse5Parse5parse, symObjAddr: 0x14AD0, symBinAddr: 0x26D50, symSize: 0x290 }
  - { offset: 0x5B411, size: 0x8, addend: 0x0, symName: __RNvXsj_NtNtCsdGrGZaRBwMb_3syn4expr7parsingNtB7_9ExprYieldNtNtB9_5parse5Parse5parse, symObjAddr: 0x14E20, symBinAddr: 0x27060, symSize: 0x270 }
  - { offset: 0x5B472, size: 0x8, addend: 0x0, symName: __RNvXsk_NtNtCsdGrGZaRBwMb_3syn4expr7parsingNtB7_9ExprAsyncNtNtB9_5parse5Parse5parse, symObjAddr: 0x15F50, symBinAddr: 0x27320, symSize: 0x390 }
  - { offset: 0x5B503, size: 0x8, addend: 0x0, symName: __RNvXsl_NtNtCsdGrGZaRBwMb_3syn4expr7parsingNtB7_9ExprWhileNtNtB9_5parse5Parse5parse, symObjAddr: 0x164D0, symBinAddr: 0x27780, symSize: 0xA80 }
  - { offset: 0x5B739, size: 0x8, addend: 0x0, symName: __RNvXsm_NtNtCsdGrGZaRBwMb_3syn4expr7parsingNtB7_9ExprConstNtNtB9_5parse5Parse5parse, symObjAddr: 0x17C00, symBinAddr: 0x28240, symSize: 0x540 }
  - { offset: 0x5B890, size: 0x8, addend: 0x0, symName: __RNvXsn_NtNtCsdGrGZaRBwMb_3syn4expr7parsingNtB7_5LabelNtNtB9_5parse5Parse5parse, symObjAddr: 0x18310, symBinAddr: 0x287D0, symSize: 0x260 }
  - { offset: 0x5B920, size: 0x8, addend: 0x0, symName: __RNvXsp_NtNtCsdGrGZaRBwMb_3syn4expr7parsingNtB7_12ExprContinueNtNtB9_5parse5Parse5parse, symObjAddr: 0x188D0, symBinAddr: 0x28AD0, symSize: 0x2A0 }
  - { offset: 0x5B992, size: 0x8, addend: 0x0, symName: __RNvXsq_NtNtCsdGrGZaRBwMb_3syn4expr7parsingNtB7_10FieldValueNtNtB9_5parse5Parse5parse, symObjAddr: 0x18D90, symBinAddr: 0x28DB0, symSize: 0x6D0 }
  - { offset: 0x5BB31, size: 0x8, addend: 0x0, symName: __RNvXss_NtNtCsdGrGZaRBwMb_3syn4expr7parsingNtB7_10ExprUnsafeNtNtB9_5parse5Parse5parse, symObjAddr: 0x19A50, symBinAddr: 0x29510, symSize: 0x540 }
  - { offset: 0x5BC88, size: 0x8, addend: 0x0, symName: __RNvXst_NtNtCsdGrGZaRBwMb_3syn4expr7parsingNtB7_9ExprBlockNtNtB9_5parse5Parse5parse, symObjAddr: 0x1A140, symBinAddr: 0x29A90, symSize: 0x740 }
  - { offset: 0x5BE0E, size: 0x8, addend: 0x0, symName: __RNvXsu_NtNtCsdGrGZaRBwMb_3syn4expr7parsingNtB7_11RangeLimitsNtNtB9_5parse5Parse5parse, symObjAddr: 0x1AC90, symBinAddr: 0x2A240, symSize: 0x260 }
  - { offset: 0x5BE9D, size: 0x8, addend: 0x0, symName: __RNvXsw_NtNtCsdGrGZaRBwMb_3syn4expr7parsingNtB7_8ExprPathNtNtB9_5parse5Parse5parse, symObjAddr: 0x1B1E0, symBinAddr: 0x2A540, symSize: 0x310 }
  - { offset: 0x5BF8B, size: 0x8, addend: 0x0, symName: __RNvXsx_NtNtCsdGrGZaRBwMb_3syn4expr7parsingNtB7_6MemberNtNtB9_5parse5Parse5parse, symObjAddr: 0x1B6E0, symBinAddr: 0x2A8A0, symSize: 0xD0 }
  - { offset: 0x5BFBF, size: 0x8, addend: 0x0, symName: __RNvXsz_NtNtCsdGrGZaRBwMb_3syn4expr7parsingNtB7_3ArmNtNtB9_5parse5Parse5parse, symObjAddr: 0x1BBB0, symBinAddr: 0x2AA20, symSize: 0xB00 }
  - { offset: 0x5C1FC, size: 0x8, addend: 0x0, symName: __RNvXNtNtCsdGrGZaRBwMb_3syn4expr8printingNtB4_9ExprArrayNtNtCs9OU1sGv5X54_5quote9to_tokens8ToTokens9to_tokens, symObjAddr: 0x42D0, symBinAddr: 0x21ED0, symSize: 0x50 }
  - { offset: 0x5C23B, size: 0x8, addend: 0x0, symName: __RNvXs0_NtNtCsdGrGZaRBwMb_3syn4expr8printingNtB7_9ExprAsyncNtNtCs9OU1sGv5X54_5quote9to_tokens8ToTokens9to_tokens, symObjAddr: 0x4600, symBinAddr: 0x21F20, symSize: 0x70 }
  - { offset: 0x5C27A, size: 0x8, addend: 0x0, symName: __RNvXs1_NtNtCsdGrGZaRBwMb_3syn4expr8printingNtB7_9ExprAwaitNtNtCs9OU1sGv5X54_5quote9to_tokens8ToTokens9to_tokens, symObjAddr: 0x5710, symBinAddr: 0x21F90, symSize: 0x40 }
  - { offset: 0x5C2B9, size: 0x8, addend: 0x0, symName: __RNvXs2_NtNtCsdGrGZaRBwMb_3syn4expr8printingNtB7_10ExprBinaryNtNtCs9OU1sGv5X54_5quote9to_tokens8ToTokens9to_tokens, symObjAddr: 0x69F0, symBinAddr: 0x21FD0, symSize: 0x40 }
  - { offset: 0x5C2F8, size: 0x8, addend: 0x0, symName: __RNvXs3_NtNtCsdGrGZaRBwMb_3syn4expr8printingNtB7_9ExprBlockNtNtCs9OU1sGv5X54_5quote9to_tokens8ToTokens9to_tokens, symObjAddr: 0x7590, symBinAddr: 0x22010, symSize: 0x70 }
  - { offset: 0x5C337, size: 0x8, addend: 0x0, symName: __RNvXs4_NtNtCsdGrGZaRBwMb_3syn4expr8printingNtB7_9ExprBreakNtNtCs9OU1sGv5X54_5quote9to_tokens8ToTokens9to_tokens, symObjAddr: 0x7A40, symBinAddr: 0x22210, symSize: 0x40 }
  - { offset: 0x5C376, size: 0x8, addend: 0x0, symName: __RNvXs5_NtNtCsdGrGZaRBwMb_3syn4expr8printingNtB7_8ExprCallNtNtCs9OU1sGv5X54_5quote9to_tokens8ToTokens9to_tokens, symObjAddr: 0x7FE0, symBinAddr: 0x22250, symSize: 0x40 }
  - { offset: 0x5C3B5, size: 0x8, addend: 0x0, symName: __RNvXs6_NtNtCsdGrGZaRBwMb_3syn4expr8printingNtB7_8ExprCastNtNtCs9OU1sGv5X54_5quote9to_tokens8ToTokens9to_tokens, symObjAddr: 0x8060, symBinAddr: 0x22290, symSize: 0x40 }
  - { offset: 0x5C3F4, size: 0x8, addend: 0x0, symName: __RNvXs7_NtNtCsdGrGZaRBwMb_3syn4expr8printingNtB7_11ExprClosureNtNtCs9OU1sGv5X54_5quote9to_tokens8ToTokens9to_tokens, symObjAddr: 0x9560, symBinAddr: 0x23730, symSize: 0x40 }
  - { offset: 0x5C433, size: 0x8, addend: 0x0, symName: __RNvXs8_NtNtCsdGrGZaRBwMb_3syn4expr8printingNtB7_9ExprConstNtNtCs9OU1sGv5X54_5quote9to_tokens8ToTokens9to_tokens, symObjAddr: 0xA060, symBinAddr: 0x239C0, symSize: 0x70 }
  - { offset: 0x5C472, size: 0x8, addend: 0x0, symName: __RNvXs9_NtNtCsdGrGZaRBwMb_3syn4expr8printingNtB7_12ExprContinueNtNtCs9OU1sGv5X54_5quote9to_tokens8ToTokens9to_tokens, symObjAddr: 0xAE30, symBinAddr: 0x24770, symSize: 0x60 }
  - { offset: 0x5C4B1, size: 0x8, addend: 0x0, symName: __RNvXsA_NtNtCsdGrGZaRBwMb_3syn4expr8printingNtB7_9ExprYieldNtNtCs9OU1sGv5X54_5quote9to_tokens8ToTokens9to_tokens, symObjAddr: 0xB330, symBinAddr: 0x24AD0, symSize: 0x40 }
  - { offset: 0x5C4F0, size: 0x8, addend: 0x0, symName: __RNvXsB_NtNtCsdGrGZaRBwMb_3syn4expr8printingNtB7_3ArmNtNtCs9OU1sGv5X54_5quote9to_tokens8ToTokens9to_tokens, symObjAddr: 0xB830, symBinAddr: 0x24B10, symSize: 0x140 }
  - { offset: 0x5C55D, size: 0x8, addend: 0x0, symName: __RNvXsC_NtNtCsdGrGZaRBwMb_3syn4expr8printingNtB7_10FieldValueNtNtCs9OU1sGv5X54_5quote9to_tokens8ToTokens9to_tokens, symObjAddr: 0xBEB0, symBinAddr: 0x24C50, symSize: 0xA0 }
  - { offset: 0x5C5BA, size: 0x8, addend: 0x0, symName: __RNvXsD_NtNtCsdGrGZaRBwMb_3syn4expr8printingNtB7_5IndexNtNtCs9OU1sGv5X54_5quote9to_tokens8ToTokens9to_tokens, symObjAddr: 0xD560, symBinAddr: 0x24CF0, symSize: 0xC0 }
  - { offset: 0x5C610, size: 0x8, addend: 0x0, symName: __RNvXsE_NtNtCsdGrGZaRBwMb_3syn4expr8printingNtB7_5LabelNtNtCs9OU1sGv5X54_5quote9to_tokens8ToTokens9to_tokens, symObjAddr: 0xDB70, symBinAddr: 0x24DB0, symSize: 0x40 }
  - { offset: 0x5C64F, size: 0x8, addend: 0x0, symName: __RNvXsF_NtNtCsdGrGZaRBwMb_3syn4expr8printingNtB7_6MemberNtNtCs9OU1sGv5X54_5quote9to_tokens8ToTokens9to_tokens, symObjAddr: 0xE220, symBinAddr: 0x24DF0, symSize: 0x70 }
  - { offset: 0x5C6C2, size: 0x8, addend: 0x0, symName: __RNvXsG_NtNtCsdGrGZaRBwMb_3syn4expr8printingNtB7_11RangeLimitsNtNtCs9OU1sGv5X54_5quote9to_tokens8ToTokens9to_tokens, symObjAddr: 0xE800, symBinAddr: 0x24E60, symSize: 0x70 }
  - { offset: 0x5C735, size: 0x8, addend: 0x0, symName: __RNvXsH_NtNtCsdGrGZaRBwMb_3syn4expr8printingNtB7_17PointerMutabilityNtNtCs9OU1sGv5X54_5quote9to_tokens8ToTokens9to_tokens, symObjAddr: 0xEF00, symBinAddr: 0x24ED0, symSize: 0x70 }
  - { offset: 0x5C7A8, size: 0x8, addend: 0x0, symName: __RNvXs_NtNtCsdGrGZaRBwMb_3syn4expr8printingNtB6_10ExprAssignNtNtCs9OU1sGv5X54_5quote9to_tokens8ToTokens9to_tokens, symObjAddr: 0x126F0, symBinAddr: 0x25580, symSize: 0x40 }
  - { offset: 0x5C7E7, size: 0x8, addend: 0x0, symName: __RNvXsa_NtNtCsdGrGZaRBwMb_3syn4expr8printingNtB7_9ExprFieldNtNtCs9OU1sGv5X54_5quote9to_tokens8ToTokens9to_tokens, symObjAddr: 0x12F40, symBinAddr: 0x25DD0, symSize: 0x40 }
  - { offset: 0x5C826, size: 0x8, addend: 0x0, symName: __RNvXsb_NtNtCsdGrGZaRBwMb_3syn4expr8printingNtB7_11ExprForLoopNtNtCs9OU1sGv5X54_5quote9to_tokens8ToTokens9to_tokens, symObjAddr: 0x13820, symBinAddr: 0x26660, symSize: 0x100 }
  - { offset: 0x5C865, size: 0x8, addend: 0x0, symName: __RNvXsc_NtNtCsdGrGZaRBwMb_3syn4expr8printingNtB7_9ExprGroupNtNtCs9OU1sGv5X54_5quote9to_tokens8ToTokens9to_tokens, symObjAddr: 0x139B0, symBinAddr: 0x26760, symSize: 0x50 }
  - { offset: 0x5C8A4, size: 0x8, addend: 0x0, symName: __RNvXsd_NtNtCsdGrGZaRBwMb_3syn4expr8printingNtB7_6ExprIfNtNtCs9OU1sGv5X54_5quote9to_tokens8ToTokens9to_tokens, symObjAddr: 0x13A80, symBinAddr: 0x267B0, symSize: 0x210 }
  - { offset: 0x5C97A, size: 0x8, addend: 0x0, symName: __RNvXse_NtNtCsdGrGZaRBwMb_3syn4expr8printingNtB7_9ExprIndexNtNtCs9OU1sGv5X54_5quote9to_tokens8ToTokens9to_tokens, symObjAddr: 0x141E0, symBinAddr: 0x269C0, symSize: 0x40 }
  - { offset: 0x5C9B9, size: 0x8, addend: 0x0, symName: __RNvXsf_NtNtCsdGrGZaRBwMb_3syn4expr8printingNtB7_9ExprInferNtNtCs9OU1sGv5X54_5quote9to_tokens8ToTokens9to_tokens, symObjAddr: 0x14680, symBinAddr: 0x26A00, symSize: 0x50 }
  - { offset: 0x5C9F8, size: 0x8, addend: 0x0, symName: __RNvXsg_NtNtCsdGrGZaRBwMb_3syn4expr8printingNtB7_7ExprLetNtNtCs9OU1sGv5X54_5quote9to_tokens8ToTokens9to_tokens, symObjAddr: 0x14750, symBinAddr: 0x26A50, symSize: 0x40 }
  - { offset: 0x5CA37, size: 0x8, addend: 0x0, symName: __RNvXsh_NtNtCsdGrGZaRBwMb_3syn4expr8printingNtB7_7ExprLitNtNtCs9OU1sGv5X54_5quote9to_tokens8ToTokens9to_tokens, symObjAddr: 0x14A40, symBinAddr: 0x26D00, symSize: 0x50 }
  - { offset: 0x5CA76, size: 0x8, addend: 0x0, symName: __RNvXsi_NtNtCsdGrGZaRBwMb_3syn4expr8printingNtB7_8ExprLoopNtNtCs9OU1sGv5X54_5quote9to_tokens8ToTokens9to_tokens, symObjAddr: 0x14D60, symBinAddr: 0x26FE0, symSize: 0x80 }
  - { offset: 0x5CAB5, size: 0x8, addend: 0x0, symName: __RNvXsj_NtNtCsdGrGZaRBwMb_3syn4expr8printingNtB7_9ExprMacroNtNtCs9OU1sGv5X54_5quote9to_tokens8ToTokens9to_tokens, symObjAddr: 0x15090, symBinAddr: 0x272D0, symSize: 0x50 }
  - { offset: 0x5CAF4, size: 0x8, addend: 0x0, symName: __RNvXsk_NtNtCsdGrGZaRBwMb_3syn4expr8printingNtB7_9ExprMatchNtNtCs9OU1sGv5X54_5quote9to_tokens8ToTokens9to_tokens, symObjAddr: 0x162E0, symBinAddr: 0x276B0, symSize: 0xD0 }
  - { offset: 0x5CB33, size: 0x8, addend: 0x0, symName: __RNvXsl_NtNtCsdGrGZaRBwMb_3syn4expr8printingNtB7_14ExprMethodCallNtNtCs9OU1sGv5X54_5quote9to_tokens8ToTokens9to_tokens, symObjAddr: 0x16F50, symBinAddr: 0x28200, symSize: 0x40 }
  - { offset: 0x5CB72, size: 0x8, addend: 0x0, symName: __RNvXsm_NtNtCsdGrGZaRBwMb_3syn4expr8printingNtB7_9ExprParenNtNtCs9OU1sGv5X54_5quote9to_tokens8ToTokens9to_tokens, symObjAddr: 0x18140, symBinAddr: 0x28780, symSize: 0x50 }
  - { offset: 0x5CBB1, size: 0x8, addend: 0x0, symName: __RNvXsn_NtNtCsdGrGZaRBwMb_3syn4expr8printingNtB7_8ExprPathNtNtCs9OU1sGv5X54_5quote9to_tokens8ToTokens9to_tokens, symObjAddr: 0x18570, symBinAddr: 0x28A30, symSize: 0x60 }
  - { offset: 0x5CBF0, size: 0x8, addend: 0x0, symName: __RNvXso_NtNtCsdGrGZaRBwMb_3syn4expr8printingNtB7_9ExprRangeNtNtCs9OU1sGv5X54_5quote9to_tokens8ToTokens9to_tokens, symObjAddr: 0x18710, symBinAddr: 0x28A90, symSize: 0x40 }
  - { offset: 0x5CC2F, size: 0x8, addend: 0x0, symName: __RNvXsp_NtNtCsdGrGZaRBwMb_3syn4expr8printingNtB7_11ExprRawAddrNtNtCs9OU1sGv5X54_5quote9to_tokens8ToTokens9to_tokens, symObjAddr: 0x18B70, symBinAddr: 0x28D70, symSize: 0x40 }
  - { offset: 0x5CC6E, size: 0x8, addend: 0x0, symName: __RNvXsq_NtNtCsdGrGZaRBwMb_3syn4expr8printingNtB7_13ExprReferenceNtNtCs9OU1sGv5X54_5quote9to_tokens8ToTokens9to_tokens, symObjAddr: 0x19460, symBinAddr: 0x29480, symSize: 0x40 }
  - { offset: 0x5CCAD, size: 0x8, addend: 0x0, symName: __RNvXsr_NtNtCsdGrGZaRBwMb_3syn4expr8printingNtB7_10ExprRepeatNtNtCs9OU1sGv5X54_5quote9to_tokens8ToTokens9to_tokens, symObjAddr: 0x198A0, symBinAddr: 0x294C0, symSize: 0x50 }
  - { offset: 0x5CCEC, size: 0x8, addend: 0x0, symName: __RNvXss_NtNtCsdGrGZaRBwMb_3syn4expr8printingNtB7_10ExprReturnNtNtCs9OU1sGv5X54_5quote9to_tokens8ToTokens9to_tokens, symObjAddr: 0x19F90, symBinAddr: 0x29A50, symSize: 0x40 }
  - { offset: 0x5CD2B, size: 0x8, addend: 0x0, symName: __RNvXst_NtNtCsdGrGZaRBwMb_3syn4expr8printingNtB7_10ExprStructNtNtCs9OU1sGv5X54_5quote9to_tokens8ToTokens9to_tokens, symObjAddr: 0x1A880, symBinAddr: 0x2A1D0, symSize: 0x70 }
  - { offset: 0x5CD6A, size: 0x8, addend: 0x0, symName: __RNvXsu_NtNtCsdGrGZaRBwMb_3syn4expr8printingNtB7_7ExprTryNtNtCs9OU1sGv5X54_5quote9to_tokens8ToTokens9to_tokens, symObjAddr: 0x1AEF0, symBinAddr: 0x2A4A0, symSize: 0x40 }
  - { offset: 0x5CDA9, size: 0x8, addend: 0x0, symName: __RNvXsv_NtNtCsdGrGZaRBwMb_3syn4expr8printingNtB7_12ExprTryBlockNtNtCs9OU1sGv5X54_5quote9to_tokens8ToTokens9to_tokens, symObjAddr: 0x1B070, symBinAddr: 0x2A4E0, symSize: 0x60 }
  - { offset: 0x5CDE8, size: 0x8, addend: 0x0, symName: __RNvXsw_NtNtCsdGrGZaRBwMb_3syn4expr8printingNtB7_9ExprTupleNtNtCs9OU1sGv5X54_5quote9to_tokens8ToTokens9to_tokens, symObjAddr: 0x1B4F0, symBinAddr: 0x2A850, symSize: 0x50 }
  - { offset: 0x5CE27, size: 0x8, addend: 0x0, symName: __RNvXsx_NtNtCsdGrGZaRBwMb_3syn4expr8printingNtB7_9ExprUnaryNtNtCs9OU1sGv5X54_5quote9to_tokens8ToTokens9to_tokens, symObjAddr: 0x1B7B0, symBinAddr: 0x2A970, symSize: 0x40 }
  - { offset: 0x5CE66, size: 0x8, addend: 0x0, symName: __RNvXsy_NtNtCsdGrGZaRBwMb_3syn4expr8printingNtB7_10ExprUnsafeNtNtCs9OU1sGv5X54_5quote9to_tokens8ToTokens9to_tokens, symObjAddr: 0x1BA10, symBinAddr: 0x2A9B0, symSize: 0x70 }
  - { offset: 0x5CEA5, size: 0x8, addend: 0x0, symName: __RNvXsz_NtNtCsdGrGZaRBwMb_3syn4expr8printingNtB7_9ExprWhileNtNtCs9OU1sGv5X54_5quote9to_tokens8ToTokens9to_tokens, symObjAddr: 0x1C6B0, symBinAddr: 0x2B520, symSize: 0xE0 }
  - { offset: 0x5CEE5, size: 0x8, addend: 0x0, symName: __RNvXsP_NtCsdGrGZaRBwMb_3syn4exprNtB5_4ExprNtNtCs9OU1sGv5X54_5quote9to_tokens8ToTokens9to_tokens, symObjAddr: 0x111C0, symBinAddr: 0x24F40, symSize: 0x640 }
  - { offset: 0x62C8A, size: 0x8, addend: 0x0, symName: __RNvMNtCsieiGu2EXtoJ_4core5sliceSNtNtCsdGrGZaRBwMb_3syn4expr3Arm4iterBy_, symObjAddr: 0x1BB0, symBinAddr: 0x21800, symSize: 0x20 }
  - { offset: 0x62CC1, size: 0x8, addend: 0x0, symName: __RNvMNtCsieiGu2EXtoJ_4core5sliceSTNtNtCsdGrGZaRBwMb_3syn4expr10FieldValueNtNtBz_5token5CommaE4iterBz_, symObjAddr: 0x1BD0, symBinAddr: 0x21820, symSize: 0x20 }
  - { offset: 0x62CF8, size: 0x8, addend: 0x0, symName: __RNvMNtCsieiGu2EXtoJ_4core5sliceSTNtNtCsdGrGZaRBwMb_3syn4expr4ExprNtNtBz_5token5CommaE4iterBz_, symObjAddr: 0x1BF0, symBinAddr: 0x21840, symSize: 0x20 }
  - { offset: 0x642BF, size: 0x8, addend: 0x0, symName: __RNvMNtCsdGrGZaRBwMb_3syn4exprNtB2_4Expr13replace_attrs, symObjAddr: 0x1370, symBinAddr: 0x20FC0, symSize: 0x540 }
  - { offset: 0x64364, size: 0x8, addend: 0x0, symName: __RNvMNtCsdGrGZaRBwMb_3syn4exprNtB2_4Expr25parse_without_eager_brace, symObjAddr: 0x18B0, symBinAddr: 0x21500, symSize: 0x30 }
  - { offset: 0x64387, size: 0x8, addend: 0x0, symName: __RNvMNtCsdGrGZaRBwMb_3syn4exprNtB2_4Expr32parse_with_earlier_boundary_rule, symObjAddr: 0x18E0, symBinAddr: 0x21530, symSize: 0x30 }
  - { offset: 0x643AA, size: 0x8, addend: 0x0, symName: __RNvMNtCsdGrGZaRBwMb_3syn4exprNtB2_4Expr4peek, symObjAddr: 0x1910, symBinAddr: 0x21560, symSize: 0x2A0 }
  - { offset: 0x6453A, size: 0x8, addend: 0x0, symName: __RNvMs6_NtCsdGrGZaRBwMb_3syn4exprNtB5_6Member8is_named, symObjAddr: 0x2C10, symBinAddr: 0x21860, symSize: 0x40 }
  - { offset: 0x6463A, size: 0x8, addend: 0x0, symName: __RNvMsv_NtNtCsdGrGZaRBwMb_3syn4expr7parsingNtB7_11RangeLimits14parse_obsolete, symObjAddr: 0x3B20, symBinAddr: 0x218A0, symSize: 0x3C0 }
  - { offset: 0x64710, size: 0x8, addend: 0x0, symName: __RNvMsy_NtNtCsdGrGZaRBwMb_3syn4expr7parsingNtB7_3Arm14parse_multiple, symObjAddr: 0x4060, symBinAddr: 0x21C60, symSize: 0x1E0 }
  - { offset: 0x64778, size: 0x8, addend: 0x0, symName: __RNvXNtCs9OU1sGv5X54_5quote9to_tokensRNtNtCsdGrGZaRBwMb_3syn4expr10FieldValueNtB2_8ToTokens9to_tokensBD_, symObjAddr: 0x4240, symBinAddr: 0x21E40, symSize: 0x30 }
  - { offset: 0x647B7, size: 0x8, addend: 0x0, symName: __RNvXNtCs9OU1sGv5X54_5quote9to_tokensRNtNtCsdGrGZaRBwMb_3syn4expr4ExprNtB2_8ToTokens9to_tokensBD_, symObjAddr: 0x4270, symBinAddr: 0x21E70, symSize: 0x30 }
  - { offset: 0x65584, size: 0x8, addend: 0x0, symName: __RNvNvMsd_NtNtCsieiGu2EXtoJ_4core3num7nonzeroINtB7_7NonZeropE13new_unchecked18precondition_checkCsdGrGZaRBwMb_3syn, symObjAddr: 0x17360, symBinAddr: 0x40040, symSize: 0x80 }
  - { offset: 0x65E90, size: 0x8, addend: 0x0, symName: __RNvNvMNtNtCsieiGu2EXtoJ_4core3ptr9const_ptrPp20offset_from_unsigned18precondition_checkCsdGrGZaRBwMb_3syn, symObjAddr: 0x171B0, symBinAddr: 0x3FE90, symSize: 0xA0 }
  - { offset: 0x65FC9, size: 0x8, addend: 0x0, symName: __RNvNvMNtNtCsieiGu2EXtoJ_4core3ptr9const_ptrPp6offset18precondition_checkCsdGrGZaRBwMb_3syn, symObjAddr: 0x17250, symBinAddr: 0x3FF30, symSize: 0x110 }
  - { offset: 0x66677, size: 0x8, addend: 0x0, symName: __RNvXs0_NtCsieiGu2EXtoJ_4core4cellINtB5_4CellNtNtCsdGrGZaRBwMb_3syn6buffer6CursorENtNtB7_5clone5Clone5cloneBK_, symObjAddr: 0x17B50, symBinAddr: 0x407E0, symSize: 0x20 }
  - { offset: 0x666D2, size: 0x8, addend: 0x0, symName: __RNvXsD_NtCsieiGu2EXtoJ_4core4cellNtB5_12BorrowRefMutNtNtNtB7_3ops4drop4Drop4dropCsdGrGZaRBwMb_3syn, symObjAddr: 0x191B0, symBinAddr: 0x40AC0, symSize: 0x20 }
  - { offset: 0x66742, size: 0x8, addend: 0x0, symName: __RNvXsG_NtCsieiGu2EXtoJ_4core4cellINtB5_6RefMutINtNtCslJiobkLta79_5alloc3vec3VecReEENtNtNtB7_3ops5deref8DerefMut9deref_mutCsdGrGZaRBwMb_3syn, symObjAddr: 0x191D0, symBinAddr: 0x40AE0, symSize: 0x10 }
  - { offset: 0x68952, size: 0x8, addend: 0x0, symName: __RNvXs19_NtCsieiGu2EXtoJ_4core3fmtRNtNtCsdGrGZaRBwMb_3syn5error12ErrorMessageNtB6_5Debug3fmtBA_, symObjAddr: 0x17E20, symBinAddr: 0x40870, symSize: 0x20 }
  - { offset: 0x6899E, size: 0x8, addend: 0x0, symName: __RNvXsq_NtCsieiGu2EXtoJ_4core3fmtSNtNtCsdGrGZaRBwMb_3syn5error12ErrorMessageNtB5_5Debug3fmtBz_, symObjAddr: 0x19CE0, symBinAddr: 0x40E60, symSize: 0x80 }
  - { offset: 0x699FC, size: 0x8, addend: 0x0, symName: __RINvNtCsieiGu2EXtoJ_4core3mem7replaceINtNtCslJiobkLta79_5alloc3vec3VecNtNtCsdGrGZaRBwMb_3syn4attr9AttributeEEB1a_, symObjAddr: 0x1450, symBinAddr: 0x2C910, symSize: 0x40 }
  - { offset: 0x69A42, size: 0x8, addend: 0x0, symName: __RINvNtCsieiGu2EXtoJ_4core3mem7replaceNtNtCsdGrGZaRBwMb_3syn4expr4ExprEBD_, symObjAddr: 0x1490, symBinAddr: 0x2C950, symSize: 0x50 }
  - { offset: 0x69EB5, size: 0x8, addend: 0x0, symName: __RNvXs_NtNtCsieiGu2EXtoJ_4core5slice4iterRSNtNtCsdGrGZaRBwMb_3syn4attr9AttributeNtNtNtNtB8_4iter6traits7collect12IntoIterator9into_iterBI_, symObjAddr: 0x196F0, symBinAddr: 0x40D70, symSize: 0x50 }
  - { offset: 0x6A098, size: 0x8, addend: 0x0, symName: __RNvMNtCsieiGu2EXtoJ_4core5sliceSNtNtCsdGrGZaRBwMb_3syn4attr9Attribute4iterBy_, symObjAddr: 0x4080, symBinAddr: 0x2E100, symSize: 0x20 }
  - { offset: 0x6A0CF, size: 0x8, addend: 0x0, symName: __RNvMNtCsieiGu2EXtoJ_4core5sliceSTNtNtCsdGrGZaRBwMb_3syn8lifetime8LifetimeNtNtBz_5token4PlusE4iterBz_, symObjAddr: 0x40C0, symBinAddr: 0x2E120, symSize: 0x20 }
  - { offset: 0x6B715, size: 0x8, addend: 0x0, symName: __RNvXsB_NtCslJiobkLta79_5alloc6stringNtNtCsieiGu2EXtoJ_4core3fmt9ArgumentsNtB5_12SpecToString14spec_to_stringCsdGrGZaRBwMb_3syn, symObjAddr: 0x19170, symBinAddr: 0x40A80, symSize: 0x40 }
  - { offset: 0x6B749, size: 0x8, addend: 0x0, symName: __RNvXsw_NtCslJiobkLta79_5alloc6stringNtNtCsdGrGZaRBwMb_3syn5error5ErrorNtB5_8ToString9to_stringBC_, symObjAddr: 0x19D60, symBinAddr: 0x40EE0, symSize: 0x30 }
  - { offset: 0x6B780, size: 0x8, addend: 0x0, symName: __RNvXsw_NtCslJiobkLta79_5alloc6stringNtNtCsieiGu2EXtoJ_4core3fmt9ArgumentsNtB5_8ToString9to_stringCsdGrGZaRBwMb_3syn, symObjAddr: 0x19D90, symBinAddr: 0x40F10, symSize: 0x30 }
  - { offset: 0x6B7BD, size: 0x8, addend: 0x0, symName: __RNvXsx_NtCslJiobkLta79_5alloc6stringNtNtCsdGrGZaRBwMb_3syn5error5ErrorNtB5_12SpecToString14spec_to_stringBC_, symObjAddr: 0x19DC0, symBinAddr: 0x40F40, symSize: 0x120 }
  - { offset: 0x6B94D, size: 0x8, addend: 0x0, symName: __RINvMNtCslJiobkLta79_5alloc5sliceSNtNtCsdGrGZaRBwMb_3syn5error12ErrorMessage8into_vecNtNtB5_5alloc6GlobalEBA_, symObjAddr: 0xD50, symBinAddr: 0x2C2A0, symSize: 0x40 }
  - { offset: 0x6C4D2, size: 0x8, addend: 0x0, symName: __RINvNtNtCsdGrGZaRBwMb_3syn5token7parsing5punctKj1_EB6_, symObjAddr: 0x14E0, symBinAddr: 0x2C9A0, symSize: 0x150 }
  - { offset: 0x6C54C, size: 0x8, addend: 0x0, symName: __RINvNtNtCsdGrGZaRBwMb_3syn5token7parsing5punctKj2_EB6_, symObjAddr: 0x1630, symBinAddr: 0x2CAF0, symSize: 0x150 }
  - { offset: 0x6C5C6, size: 0x8, addend: 0x0, symName: __RINvNtNtCsdGrGZaRBwMb_3syn5token7parsing5punctKj3_EB6_, symObjAddr: 0x1780, symBinAddr: 0x2CC40, symSize: 0x170 }
  - { offset: 0x6C646, size: 0x8, addend: 0x0, symName: __RNCNvNtNtCsdGrGZaRBwMb_3syn5token7parsing12punct_helper0B7_, symObjAddr: 0x27E0, symBinAddr: 0x2CEF0, symSize: 0x4B0 }
  - { offset: 0x6C7A9, size: 0x8, addend: 0x0, symName: __RNCNvNtNtCsdGrGZaRBwMb_3syn5token7parsing7keyword0B7_, symObjAddr: 0x2C90, symBinAddr: 0x2D3A0, symSize: 0x2E0 }
  - { offset: 0x6C850, size: 0x8, addend: 0x0, symName: __RNvNtNtCsdGrGZaRBwMb_3syn5token7parsing10peek_punct, symObjAddr: 0x16550, symBinAddr: 0x3F230, symSize: 0x250 }
  - { offset: 0x6C8F1, size: 0x8, addend: 0x0, symName: __RNvNtNtCsdGrGZaRBwMb_3syn5token7parsing12peek_keyword, symObjAddr: 0x167A0, symBinAddr: 0x3F480, symSize: 0x100 }
  - { offset: 0x6C956, size: 0x8, addend: 0x0, symName: __RNvNtNtCsdGrGZaRBwMb_3syn5token7parsing12punct_helper, symObjAddr: 0x168A0, symBinAddr: 0x3F580, symSize: 0x50 }
  - { offset: 0x6C9A2, size: 0x8, addend: 0x0, symName: __RNvNtNtCsdGrGZaRBwMb_3syn5token7parsing7keyword, symObjAddr: 0x168F0, symBinAddr: 0x3F5D0, symSize: 0x40 }
  - { offset: 0x6C9E5, size: 0x8, addend: 0x0, symName: __RNvNtNtCsdGrGZaRBwMb_3syn5token8printing5delim, symObjAddr: 0x16930, symBinAddr: 0x3F610, symSize: 0xC0 }
  - { offset: 0x6CA55, size: 0x8, addend: 0x0, symName: __RNvNtNtCsdGrGZaRBwMb_3syn5token8printing5punct, symObjAddr: 0x169F0, symBinAddr: 0x3F6D0, symSize: 0x2A0 }
  - { offset: 0x6CBF0, size: 0x8, addend: 0x0, symName: __RNvNtNtCsdGrGZaRBwMb_3syn5token8printing7keyword, symObjAddr: 0x16C90, symBinAddr: 0x3F970, symSize: 0x60 }
  - { offset: 0x6CC3E, size: 0x8, addend: 0x0, symName: __RNvXsq_NtCsdGrGZaRBwMb_3syn5tokenNtNtB7_8lifetime8LifetimeNtB5_5Token4peek, symObjAddr: 0x19BC0, symBinAddr: 0x40DC0, symSize: 0x80 }
  - { offset: 0x6CC6A, size: 0x8, addend: 0x0, symName: __RNvXsq_NtCsdGrGZaRBwMb_3syn5tokenNtNtB7_8lifetime8LifetimeNtB5_5Token7display, symObjAddr: 0x19C40, symBinAddr: 0x40E40, symSize: 0x20 }
  - { offset: 0x6D0BA, size: 0x8, addend: 0x0, symName: __RNvXNtNtCsdGrGZaRBwMb_3syn8lifetime7parsingNtB4_8LifetimeNtNtB6_5parse5Parse5parse, symObjAddr: 0x17940, symBinAddr: 0x40620, symSize: 0x30 }
  - { offset: 0x6D0F2, size: 0x8, addend: 0x0, symName: __RNvXNtNtCsdGrGZaRBwMb_3syn8lifetime8printingNtB4_8LifetimeNtNtCs9OU1sGv5X54_5quote9to_tokens8ToTokens9to_tokens, symObjAddr: 0x17970, symBinAddr: 0x40650, symSize: 0x60 }
  - { offset: 0x6D12F, size: 0x8, addend: 0x0, symName: __RNvXs0_NtCsdGrGZaRBwMb_3syn8lifetimeNtB5_8LifetimeNtNtCsieiGu2EXtoJ_4core5clone5Clone5clone, symObjAddr: 0x17AF0, symBinAddr: 0x40780, symSize: 0x60 }
  - { offset: 0x6E6E4, size: 0x8, addend: 0x0, symName: __RNCNvNtNtCsdGrGZaRBwMb_3syn4expr7parsing11multi_index0B7_, symObjAddr: 0x27B0, symBinAddr: 0x2CEC0, symSize: 0x30 }
  - { offset: 0x6E72F, size: 0x8, addend: 0x0, symName: __RNCNvXsA_NtNtCsdGrGZaRBwMb_3syn4expr7parsingNtB9_5IndexNtNtBb_5parse5Parse5parse0Bb_, symObjAddr: 0x3030, symBinAddr: 0x2D740, symSize: 0x50 }
  - { offset: 0x6E770, size: 0x8, addend: 0x0, symName: __RNvNtNtCsdGrGZaRBwMb_3syn4expr7parsing10check_cast, symObjAddr: 0x5E90, symBinAddr: 0x2EB70, symSize: 0x300 }
  - { offset: 0x6E819, size: 0x8, addend: 0x0, symName: __RNvNtNtCsdGrGZaRBwMb_3syn4expr7parsing10expr_attrs, symObjAddr: 0x6190, symBinAddr: 0x2EE70, symSize: 0x200 }
  - { offset: 0x6E87D, size: 0x8, addend: 0x0, symName: __RNvNtNtCsdGrGZaRBwMb_3syn4expr7parsing10expr_break, symObjAddr: 0x6390, symBinAddr: 0x2F070, symSize: 0x760 }
  - { offset: 0x6EA12, size: 0x8, addend: 0x0, symName: __RNvNtNtCsdGrGZaRBwMb_3syn4expr7parsing10expr_group, symObjAddr: 0x6AF0, symBinAddr: 0x2F7D0, symSize: 0x9C0 }
  - { offset: 0x6EBE1, size: 0x8, addend: 0x0, symName: __RNvNtNtCsdGrGZaRBwMb_3syn4expr7parsing10expr_range, symObjAddr: 0x74B0, symBinAddr: 0x30190, symSize: 0x260 }
  - { offset: 0x6ECCF, size: 0x8, addend: 0x0, symName: __RNvNtNtCsdGrGZaRBwMb_3syn4expr7parsing10expr_unary, symObjAddr: 0x7710, symBinAddr: 0x303F0, symSize: 0x340 }
  - { offset: 0x6ED79, size: 0x8, addend: 0x0, symName: __RNvNtNtCsdGrGZaRBwMb_3syn4expr7parsing10parse_expr, symObjAddr: 0x7A50, symBinAddr: 0x30730, symSize: 0x12D0 }
  - { offset: 0x6F0F9, size: 0x8, addend: 0x0, symName: __RNvNtNtCsdGrGZaRBwMb_3syn4expr7parsing10unary_expr, symObjAddr: 0x8D20, symBinAddr: 0x31A00, symSize: 0xC50 }
  - { offset: 0x6F319, size: 0x8, addend: 0x0, symName: __RNvNtNtCsdGrGZaRBwMb_3syn4expr7parsing11closure_arg, symObjAddr: 0x9970, symBinAddr: 0x32650, symSize: 0x1330 }
  - { offset: 0x6F59B, size: 0x8, addend: 0x0, symName: __RNvNtNtCsdGrGZaRBwMb_3syn4expr7parsing11expr_become, symObjAddr: 0xACA0, symBinAddr: 0x33980, symSize: 0x290 }
  - { offset: 0x6F62D, size: 0x8, addend: 0x0, symName: __RNvNtNtCsdGrGZaRBwMb_3syn4expr7parsing11multi_index, symObjAddr: 0xAF30, symBinAddr: 0x33C10, symSize: 0x8E0 }
  - { offset: 0x6F7D5, size: 0x8, addend: 0x0, symName: __RNvNtNtCsdGrGZaRBwMb_3syn4expr7parsing12atom_labeled, symObjAddr: 0xB810, symBinAddr: 0x344F0, symSize: 0x8D0 }
  - { offset: 0x6F8EA, size: 0x8, addend: 0x0, symName: __RNvNtNtCsdGrGZaRBwMb_3syn4expr7parsing12expr_builtin, symObjAddr: 0xC0E0, symBinAddr: 0x34DC0, symSize: 0x620 }
  - { offset: 0x6FA15, size: 0x8, addend: 0x0, symName: __RNvNtNtCsdGrGZaRBwMb_3syn4expr7parsing12expr_closure, symObjAddr: 0xC700, symBinAddr: 0x353E0, symSize: 0x12F0 }
  - { offset: 0x6FDF7, size: 0x8, addend: 0x0, symName: __RNvNtNtCsdGrGZaRBwMb_3syn4expr7parsing12trailer_expr, symObjAddr: 0xD9F0, symBinAddr: 0x366D0, symSize: 0x740 }
  - { offset: 0x6FFAC, size: 0x8, addend: 0x0, symName: __RNvNtNtCsdGrGZaRBwMb_3syn4expr7parsing14ambiguous_expr, symObjAddr: 0xE130, symBinAddr: 0x36E10, symSize: 0x1C0 }
  - { offset: 0x70046, size: 0x8, addend: 0x0, symName: __RNvNtNtCsdGrGZaRBwMb_3syn4expr7parsing14paren_or_tuple, symObjAddr: 0xE2F0, symBinAddr: 0x36FD0, symSize: 0x9A0 }
  - { offset: 0x701E5, size: 0x8, addend: 0x0, symName: __RNvNtNtCsdGrGZaRBwMb_3syn4expr7parsing14trailer_helper, symObjAddr: 0xEC90, symBinAddr: 0x37970, symSize: 0x22E0 }
  - { offset: 0x705DC, size: 0x8, addend: 0x0, symName: __RNvNtNtCsdGrGZaRBwMb_3syn4expr7parsing15array_or_repeat, symObjAddr: 0x10F70, symBinAddr: 0x39C50, symSize: 0xD60 }
  - { offset: 0x7081F, size: 0x8, addend: 0x0, symName: __RNvNtNtCsdGrGZaRBwMb_3syn4expr7parsing15parse_binop_rhs, symObjAddr: 0x11CD0, symBinAddr: 0x3A9B0, symSize: 0x4B0 }
  - { offset: 0x70925, size: 0x8, addend: 0x0, symName: __RNvNtNtCsdGrGZaRBwMb_3syn4expr7parsing15parse_range_end, symObjAddr: 0x12180, symBinAddr: 0x3AE60, symSize: 0x3F0 }
  - { offset: 0x709AD, size: 0x8, addend: 0x0, symName: __RNvNtNtCsdGrGZaRBwMb_3syn4expr7parsing15peek_precedence, symObjAddr: 0x12570, symBinAddr: 0x3B250, symSize: 0x190 }
  - { offset: 0x709F1, size: 0x8, addend: 0x0, symName: __RNvNtNtCsdGrGZaRBwMb_3syn4expr7parsing18expr_struct_helper, symObjAddr: 0x12700, symBinAddr: 0x3B3E0, symSize: 0xC50 }
  - { offset: 0x70B53, size: 0x8, addend: 0x0, symName: __RNvNtNtCsdGrGZaRBwMb_3syn4expr7parsing22continue_parsing_early, symObjAddr: 0x13350, symBinAddr: 0x3C030, symSize: 0x140 }
  - { offset: 0x70B97, size: 0x8, addend: 0x0, symName: __RNvNtNtCsdGrGZaRBwMb_3syn4expr7parsing23path_or_macro_or_struct, symObjAddr: 0x13490, symBinAddr: 0x3C170, symSize: 0x290 }
  - { offset: 0x70C39, size: 0x8, addend: 0x0, symName: __RNvNtNtCsdGrGZaRBwMb_3syn4expr7parsing31rest_of_path_or_macro_or_struct, symObjAddr: 0x13720, symBinAddr: 0x3C400, symSize: 0x720 }
  - { offset: 0x70D04, size: 0x8, addend: 0x0, symName: __RNvNtNtCsdGrGZaRBwMb_3syn4expr7parsing32parse_with_earlier_boundary_rule, symObjAddr: 0x13E40, symBinAddr: 0x3CB20, symSize: 0x1540 }
  - { offset: 0x70FDB, size: 0x8, addend: 0x0, symName: __RNvNtNtCsdGrGZaRBwMb_3syn4expr7parsing8expr_let, symObjAddr: 0x15380, symBinAddr: 0x3E060, symSize: 0x780 }
  - { offset: 0x71120, size: 0x8, addend: 0x0, symName: __RNvNtNtCsdGrGZaRBwMb_3syn4expr7parsing9atom_expr, symObjAddr: 0x15B00, symBinAddr: 0x3E7E0, symSize: 0xA50 }
  - { offset: 0x713BD, size: 0x8, addend: 0x0, symName: __RNcNtNtNtCsdGrGZaRBwMb_3syn4attr4Meta4List0B7_, symObjAddr: 0x3330, symBinAddr: 0x2D790, symSize: 0x40 }
  - { offset: 0x713EE, size: 0x8, addend: 0x0, symName: __RNcNtNtNtCsdGrGZaRBwMb_3syn4attr4Meta9NameValue0B7_, symObjAddr: 0x3370, symBinAddr: 0x2D7D0, symSize: 0x30 }
  - { offset: 0x71425, size: 0x8, addend: 0x0, symName: __RNvNvXs1_NtCsdGrGZaRBwMb_3syn4attrRSNtB7_9AttributeNtB7_11FilterAttrs5inner8is_inner, symObjAddr: 0x175D0, symBinAddr: 0x402B0, symSize: 0x40 }
  - { offset: 0x71459, size: 0x8, addend: 0x0, symName: __RNvNvXs1_NtCsdGrGZaRBwMb_3syn4attrRSNtB7_9AttributeNtB7_11FilterAttrs5outer8is_outer, symObjAddr: 0x17610, symBinAddr: 0x402F0, symSize: 0x40 }
  - { offset: 0x71488, size: 0x8, addend: 0x0, symName: __RNvXs1_NtCsdGrGZaRBwMb_3syn4attrRSNtB5_9AttributeNtB5_11FilterAttrs5inner, symObjAddr: 0x181A0, symBinAddr: 0x40890, symSize: 0x60 }
  - { offset: 0x714B6, size: 0x8, addend: 0x0, symName: __RNvXs1_NtCsdGrGZaRBwMb_3syn4attrRSNtB5_9AttributeNtB5_11FilterAttrs5outer, symObjAddr: 0x18200, symBinAddr: 0x408F0, symSize: 0x60 }
  - { offset: 0x714EF, size: 0x8, addend: 0x0, symName: __RNvXNtNtCsdGrGZaRBwMb_3syn4attr7parsingNtB4_4MetaNtNtB6_5parse5Parse5parse, symObjAddr: 0x176B0, symBinAddr: 0x40390, symSize: 0x200 }
  - { offset: 0x71586, size: 0x8, addend: 0x0, symName: __RNvXNtNtCsdGrGZaRBwMb_3syn4attr8printingNtB4_9AttributeNtNtCs9OU1sGv5X54_5quote9to_tokens8ToTokens9to_tokens, symObjAddr: 0x178B0, symBinAddr: 0x40590, symSize: 0x90 }
  - { offset: 0x715E3, size: 0x8, addend: 0x0, symName: __RNvXs0_NtNtCsdGrGZaRBwMb_3syn4attr8printingNtB7_8MetaListNtNtCs9OU1sGv5X54_5quote9to_tokens8ToTokens9to_tokens, symObjAddr: 0x17D70, symBinAddr: 0x40800, symSize: 0x70 }
  - { offset: 0x71622, size: 0x8, addend: 0x0, symName: __RNvXs1_NtNtCsdGrGZaRBwMb_3syn4attr8printingNtB7_13MetaNameValueNtNtCs9OU1sGv5X54_5quote9to_tokens8ToTokens9to_tokens, symObjAddr: 0x182E0, symBinAddr: 0x40980, symSize: 0x70 }
  - { offset: 0x71661, size: 0x8, addend: 0x0, symName: __RNvXs_NtNtCsdGrGZaRBwMb_3syn4attr8printingNtB6_4MetaNtNtCs9OU1sGv5X54_5quote9to_tokens8ToTokens9to_tokens, symObjAddr: 0x19640, symBinAddr: 0x40CC0, symSize: 0xB0 }
  - { offset: 0x74006, size: 0x8, addend: 0x0, symName: __RINvNtCsdGrGZaRBwMb_3syn5error4new2ReEB4_, symObjAddr: 0xE60, symBinAddr: 0x2C320, symSize: 0x80 }
  - { offset: 0x7405B, size: 0x8, addend: 0x0, symName: __RINvNtCsdGrGZaRBwMb_3syn5error6new_atNtNtCsieiGu2EXtoJ_4core3fmt9ArgumentsEB4_, symObjAddr: 0xEE0, symBinAddr: 0x2C3A0, symSize: 0x1E0 }
  - { offset: 0x7410D, size: 0x8, addend: 0x0, symName: __RINvNtCsdGrGZaRBwMb_3syn5error6new_atNtNtCslJiobkLta79_5alloc6string6StringEB4_, symObjAddr: 0x10C0, symBinAddr: 0x2C580, symSize: 0x1E0 }
  - { offset: 0x741BF, size: 0x8, addend: 0x0, symName: __RINvNtCsdGrGZaRBwMb_3syn5error6new_atReEB4_, symObjAddr: 0x12A0, symBinAddr: 0x2C760, symSize: 0x1B0 }
  - { offset: 0x74280, size: 0x8, addend: 0x0, symName: __RNCNvNvMNtCsdGrGZaRBwMb_3syn5errorNtB6_5Error11new_spanned11new_spanned0B8_, symObjAddr: 0x2F70, symBinAddr: 0x2D680, symSize: 0x60 }
  - { offset: 0x742B7, size: 0x8, addend: 0x0, symName: __RNCNvNvMNtCsdGrGZaRBwMb_3syn5errorNtB6_5Error11new_spanned11new_spanneds_0B8_, symObjAddr: 0x2FD0, symBinAddr: 0x2D6E0, symSize: 0x60 }
  - { offset: 0x742FD, size: 0x8, addend: 0x0, symName: __RNvNvMNtCsdGrGZaRBwMb_3syn5errorNtB4_5Error11new_spanned11new_spanned, symObjAddr: 0x16CF0, symBinAddr: 0x3F9D0, symSize: 0x2E0 }
  - { offset: 0x7437F, size: 0x8, addend: 0x0, symName: __RNvNvMNtCsdGrGZaRBwMb_3syn5errorNtB4_5Error3new3new, symObjAddr: 0x16FD0, symBinAddr: 0x3FCB0, symSize: 0x1E0 }
  - { offset: 0x743C1, size: 0x8, addend: 0x0, symName: __RNvNvNtCsdGrGZaRBwMb_3syn5error4new24new2, symObjAddr: 0x173E0, symBinAddr: 0x400C0, symSize: 0x1F0 }
  - { offset: 0x74414, size: 0x8, addend: 0x0, symName: __RNvXs0_NtCsdGrGZaRBwMb_3syn5errorNtB5_5ErrorNtNtCsieiGu2EXtoJ_4core3fmt5Debug3fmt, symObjAddr: 0x17A20, symBinAddr: 0x406B0, symSize: 0xD0 }
  - { offset: 0x74457, size: 0x8, addend: 0x0, symName: __RNvXs1_NtCsdGrGZaRBwMb_3syn5errorNtB5_12ErrorMessageNtNtCsieiGu2EXtoJ_4core3fmt5Debug3fmt, symObjAddr: 0x18260, symBinAddr: 0x40950, symSize: 0x30 }
  - { offset: 0x7449A, size: 0x8, addend: 0x0, symName: __RNvXs2_NtCsdGrGZaRBwMb_3syn5errorNtB5_5ErrorNtNtCsieiGu2EXtoJ_4core3fmt7Display3fmt, symObjAddr: 0x18590, symBinAddr: 0x409F0, symSize: 0x50 }
  - { offset: 0x744DD, size: 0x8, addend: 0x0, symName: __RNvXs8_NtCsdGrGZaRBwMb_3syn5errorNtB5_5ErrorINtNtCsieiGu2EXtoJ_4core7convert4FromNtCsaKzlTDPUHDb_11proc_macro28LexErrorE4from, symObjAddr: 0x19000, symBinAddr: 0x40A40, symSize: 0x40 }
  - { offset: 0x74CBD, size: 0x8, addend: 0x0, symName: __RNCNvMNtCsdGrGZaRBwMb_3syn9lookaheadNtB4_10Lookahead15error0B6_, symObjAddr: 0x26A0, symBinAddr: 0x2CDB0, symSize: 0x110 }
  - { offset: 0x74CFC, size: 0x8, addend: 0x0, symName: __RNvNtCsdGrGZaRBwMb_3syn9lookahead3new, symObjAddr: 0x5D20, symBinAddr: 0x2EA00, symSize: 0x90 }
  - { offset: 0x74D36, size: 0x8, addend: 0x0, symName: __RNvNtCsdGrGZaRBwMb_3syn9lookahead9peek_impl, symObjAddr: 0x5DB0, symBinAddr: 0x2EA90, symSize: 0xE0 }
  - { offset: 0x74D83, size: 0x8, addend: 0x0, symName: __RNvXs_NtCsdGrGZaRBwMb_3syn9lookaheadNtB4_14CommaSeparatedNtNtCsieiGu2EXtoJ_4core3fmt7Display3fmt, symObjAddr: 0x192F0, symBinAddr: 0x40B70, symSize: 0x150 }
  - { offset: 0x7504C, size: 0x8, addend: 0x0, symName: __RNvNtCsdGrGZaRBwMb_3syn5ident6xid_ok, symObjAddr: 0x5C00, symBinAddr: 0x2E8F0, symSize: 0x110 }
  - { offset: 0x750F5, size: 0x8, addend: 0x0, symName: __RNvXs_NtCsdGrGZaRBwMb_3syn11parse_quoteNtNtB6_4attr9AttributeNtB4_10ParseQuote5parse, symObjAddr: 0x191E0, symBinAddr: 0x40AF0, symSize: 0x80 }
  - { offset: 0x756F2, size: 0x8, addend: 0x0, symName: __RINvMNtCsdGrGZaRBwMb_3syn5errorNtB3_5Error11new_spannedRNtNtB5_2ty4TypeReEB5_, symObjAddr: 0xB0, symBinAddr: 0x2B600, symSize: 0xB0 }
  - { offset: 0x75735, size: 0x8, addend: 0x0, symName: __RINvMNtCsdGrGZaRBwMb_3syn5errorNtB3_5Error3newBt_EB5_, symObjAddr: 0x160, symBinAddr: 0x2B6B0, symSize: 0x80 }
  - { offset: 0x75770, size: 0x8, addend: 0x0, symName: __RINvMNtCsdGrGZaRBwMb_3syn5errorNtB3_5Error3newNtCsaKzlTDPUHDb_11proc_macro28LexErrorEB5_, symObjAddr: 0x1E0, symBinAddr: 0x2B730, symSize: 0x70 }
  - { offset: 0x758A4, size: 0x8, addend: 0x0, symName: __RINvMNtCsdGrGZaRBwMb_3syn5errorNtB3_5Error3newNtNtCsieiGu2EXtoJ_4core3fmt9ArgumentsEB5_, symObjAddr: 0x250, symBinAddr: 0x2B7A0, symSize: 0x70 }
  - { offset: 0x758DF, size: 0x8, addend: 0x0, symName: __RINvMNtCsdGrGZaRBwMb_3syn5errorNtB3_5Error3newNtNtCslJiobkLta79_5alloc6string6StringEB5_, symObjAddr: 0x2C0, symBinAddr: 0x2B810, symSize: 0x80 }
  - { offset: 0x7591A, size: 0x8, addend: 0x0, symName: __RINvMNtCsdGrGZaRBwMb_3syn5errorNtB3_5Error3newNtNtNtCsieiGu2EXtoJ_4core3num5error13ParseIntErrorEB5_, symObjAddr: 0x340, symBinAddr: 0x2B890, symSize: 0x70 }
  - { offset: 0x75953, size: 0x8, addend: 0x0, symName: __RINvMNtCsdGrGZaRBwMb_3syn5errorNtB3_5Error3newReEB5_, symObjAddr: 0x3B0, symBinAddr: 0x2B900, symSize: 0x70 }
  - { offset: 0x759D2, size: 0x8, addend: 0x0, symName: __RINvMNtCsdGrGZaRBwMb_3syn9lookaheadNtB3_10Lookahead14peekINvNtB5_5token10UnderscoreNtB3_11TokenMarkerEEB5_, symObjAddr: 0x420, symBinAddr: 0x2B970, symSize: 0x30 }
  - { offset: 0x75A23, size: 0x8, addend: 0x0, symName: __RINvMNtCsdGrGZaRBwMb_3syn9lookaheadNtB3_10Lookahead14peekINvNtB5_5token2EqNtB3_11TokenMarkerEEB5_, symObjAddr: 0x450, symBinAddr: 0x2B9A0, symSize: 0x30 }
  - { offset: 0x75A74, size: 0x8, addend: 0x0, symName: __RINvMNtCsdGrGZaRBwMb_3syn9lookaheadNtB3_10Lookahead14peekINvNtB5_5token2FnNtB3_11TokenMarkerEEB5_, symObjAddr: 0x480, symBinAddr: 0x2B9D0, symSize: 0x30 }
  - { offset: 0x75AC5, size: 0x8, addend: 0x0, symName: __RINvMNtCsdGrGZaRBwMb_3syn9lookaheadNtB3_10Lookahead14peekINvNtB5_5token2GtNtB3_11TokenMarkerEEB5_, symObjAddr: 0x4B0, symBinAddr: 0x2BA00, symSize: 0x30 }
  - { offset: 0x75B16, size: 0x8, addend: 0x0, symName: __RINvMNtCsdGrGZaRBwMb_3syn9lookaheadNtB3_10Lookahead14peekINvNtB5_5token2IfNtB3_11TokenMarkerEEB5_, symObjAddr: 0x4E0, symBinAddr: 0x2BA30, symSize: 0x30 }
  - { offset: 0x75B67, size: 0x8, addend: 0x0, symName: __RINvMNtCsdGrGZaRBwMb_3syn9lookaheadNtB3_10Lookahead14peekINvNtB5_5token2LtNtB3_11TokenMarkerEEB5_, symObjAddr: 0x510, symBinAddr: 0x2BA60, symSize: 0x30 }
  - { offset: 0x75BB8, size: 0x8, addend: 0x0, symName: __RINvMNtCsdGrGZaRBwMb_3syn9lookaheadNtB3_10Lookahead14peekINvNtB5_5token3AndNtB3_11TokenMarkerEEB5_, symObjAddr: 0x540, symBinAddr: 0x2BA90, symSize: 0x30 }
  - { offset: 0x75C09, size: 0x8, addend: 0x0, symName: __RINvMNtCsdGrGZaRBwMb_3syn9lookaheadNtB3_10Lookahead14peekINvNtB5_5token3DynNtB3_11TokenMarkerEEB5_, symObjAddr: 0x570, symBinAddr: 0x2BAC0, symSize: 0x30 }
  - { offset: 0x75C5A, size: 0x8, addend: 0x0, symName: __RINvMNtCsdGrGZaRBwMb_3syn9lookaheadNtB3_10Lookahead14peekINvNtB5_5token3ForNtB3_11TokenMarkerEEB5_, symObjAddr: 0x5A0, symBinAddr: 0x2BAF0, symSize: 0x30 }
  - { offset: 0x75CAB, size: 0x8, addend: 0x0, symName: __RINvMNtCsdGrGZaRBwMb_3syn9lookaheadNtB3_10Lookahead14peekINvNtB5_5token3ModNtB3_11TokenMarkerEEB5_, symObjAddr: 0x5D0, symBinAddr: 0x2BB20, symSize: 0x30 }
  - { offset: 0x75CFC, size: 0x8, addend: 0x0, symName: __RINvMNtCsdGrGZaRBwMb_3syn9lookaheadNtB3_10Lookahead14peekINvNtB5_5token3MutNtB3_11TokenMarkerEEB5_, symObjAddr: 0x600, symBinAddr: 0x2BB50, symSize: 0x30 }
  - { offset: 0x75D4D, size: 0x8, addend: 0x0, symName: __RINvMNtCsdGrGZaRBwMb_3syn9lookaheadNtB3_10Lookahead14peekINvNtB5_5token3NotNtB3_11TokenMarkerEEB5_, symObjAddr: 0x630, symBinAddr: 0x2BB80, symSize: 0x30 }
  - { offset: 0x75D9E, size: 0x8, addend: 0x0, symName: __RINvMNtCsdGrGZaRBwMb_3syn9lookaheadNtB3_10Lookahead14peekINvNtB5_5token3RefNtB3_11TokenMarkerEEB5_, symObjAddr: 0x660, symBinAddr: 0x2BBB0, symSize: 0x30 }
  - { offset: 0x75DEF, size: 0x8, addend: 0x0, symName: __RINvMNtCsdGrGZaRBwMb_3syn9lookaheadNtB3_10Lookahead14peekINvNtB5_5token3TryNtB3_11TokenMarkerEEB5_, symObjAddr: 0x690, symBinAddr: 0x2BBE0, symSize: 0x30 }
  - { offset: 0x75E40, size: 0x8, addend: 0x0, symName: __RINvMNtCsdGrGZaRBwMb_3syn9lookaheadNtB3_10Lookahead14peekINvNtB5_5token3UseNtB3_11TokenMarkerEEB5_, symObjAddr: 0x6C0, symBinAddr: 0x2BC10, symSize: 0x30 }
  - { offset: 0x75E91, size: 0x8, addend: 0x0, symName: __RINvMNtCsdGrGZaRBwMb_3syn9lookaheadNtB3_10Lookahead14peekINvNtB5_5token4AutoNtB3_11TokenMarkerEEB5_, symObjAddr: 0x6F0, symBinAddr: 0x2BC40, symSize: 0x30 }
  - { offset: 0x75EE2, size: 0x8, addend: 0x0, symName: __RINvMNtCsdGrGZaRBwMb_3syn9lookaheadNtB3_10Lookahead14peekINvNtB5_5token4EnumNtB3_11TokenMarkerEEB5_, symObjAddr: 0x720, symBinAddr: 0x2BC70, symSize: 0x30 }
  - { offset: 0x75F33, size: 0x8, addend: 0x0, symName: __RINvMNtCsdGrGZaRBwMb_3syn9lookaheadNtB3_10Lookahead14peekINvNtB5_5token4ImplNtB3_11TokenMarkerEEB5_, symObjAddr: 0x750, symBinAddr: 0x2BCA0, symSize: 0x30 }
  - { offset: 0x75F84, size: 0x8, addend: 0x0, symName: __RINvMNtCsdGrGZaRBwMb_3syn9lookaheadNtB3_10Lookahead14peekINvNtB5_5token4SemiNtB3_11TokenMarkerEEB5_, symObjAddr: 0x780, symBinAddr: 0x2BCD0, symSize: 0x30 }
  - { offset: 0x75FD5, size: 0x8, addend: 0x0, symName: __RINvMNtCsdGrGZaRBwMb_3syn9lookaheadNtB3_10Lookahead14peekINvNtB5_5token4StarNtB3_11TokenMarkerEEB5_, symObjAddr: 0x7B0, symBinAddr: 0x2BD00, symSize: 0x30 }
  - { offset: 0x76026, size: 0x8, addend: 0x0, symName: __RINvMNtCsdGrGZaRBwMb_3syn9lookaheadNtB3_10Lookahead14peekINvNtB5_5token4TypeNtB3_11TokenMarkerEEB5_, symObjAddr: 0x7E0, symBinAddr: 0x2BD30, symSize: 0x30 }
  - { offset: 0x76077, size: 0x8, addend: 0x0, symName: __RINvMNtCsdGrGZaRBwMb_3syn9lookaheadNtB3_10Lookahead14peekINvNtB5_5token5AsyncNtB3_11TokenMarkerEEB5_, symObjAddr: 0x810, symBinAddr: 0x2BD60, symSize: 0x30 }
  - { offset: 0x760C8, size: 0x8, addend: 0x0, symName: __RINvMNtCsdGrGZaRBwMb_3syn9lookaheadNtB3_10Lookahead14peekINvNtB5_5token5BraceNtB3_11TokenMarkerEEB5_, symObjAddr: 0x840, symBinAddr: 0x2BD90, symSize: 0x30 }
  - { offset: 0x76119, size: 0x8, addend: 0x0, symName: __RINvMNtCsdGrGZaRBwMb_3syn9lookaheadNtB3_10Lookahead14peekINvNtB5_5token5ColonNtB3_11TokenMarkerEEB5_, symObjAddr: 0x870, symBinAddr: 0x2BDC0, symSize: 0x30 }
  - { offset: 0x7616A, size: 0x8, addend: 0x0, symName: __RINvMNtCsdGrGZaRBwMb_3syn9lookaheadNtB3_10Lookahead14peekINvNtB5_5token5CommaNtB3_11TokenMarkerEEB5_, symObjAddr: 0x8A0, symBinAddr: 0x2BDF0, symSize: 0x30 }
  - { offset: 0x761BB, size: 0x8, addend: 0x0, symName: __RINvMNtCsdGrGZaRBwMb_3syn9lookaheadNtB3_10Lookahead14peekINvNtB5_5token5ConstNtB3_11TokenMarkerEEB5_, symObjAddr: 0x8D0, symBinAddr: 0x2BE20, symSize: 0x30 }
  - { offset: 0x7620C, size: 0x8, addend: 0x0, symName: __RINvMNtCsdGrGZaRBwMb_3syn9lookaheadNtB3_10Lookahead14peekINvNtB5_5token5CrateNtB3_11TokenMarkerEEB5_, symObjAddr: 0x900, symBinAddr: 0x2BE50, symSize: 0x30 }
  - { offset: 0x7625D, size: 0x8, addend: 0x0, symName: __RINvMNtCsdGrGZaRBwMb_3syn9lookaheadNtB3_10Lookahead14peekINvNtB5_5token5MacroNtB3_11TokenMarkerEEB5_, symObjAddr: 0x930, symBinAddr: 0x2BE80, symSize: 0x30 }
  - { offset: 0x762AE, size: 0x8, addend: 0x0, symName: __RINvMNtCsdGrGZaRBwMb_3syn9lookaheadNtB3_10Lookahead14peekINvNtB5_5token5MinusNtB3_11TokenMarkerEEB5_, symObjAddr: 0x960, symBinAddr: 0x2BEB0, symSize: 0x30 }
  - { offset: 0x762FF, size: 0x8, addend: 0x0, symName: __RINvMNtCsdGrGZaRBwMb_3syn9lookaheadNtB3_10Lookahead14peekINvNtB5_5token5ParenNtB3_11TokenMarkerEEB5_, symObjAddr: 0x990, symBinAddr: 0x2BEE0, symSize: 0x30 }
  - { offset: 0x76350, size: 0x8, addend: 0x0, symName: __RINvMNtCsdGrGZaRBwMb_3syn9lookaheadNtB3_10Lookahead14peekINvNtB5_5token5SuperNtB3_11TokenMarkerEEB5_, symObjAddr: 0x9C0, symBinAddr: 0x2BF10, symSize: 0x30 }
  - { offset: 0x763A1, size: 0x8, addend: 0x0, symName: __RINvMNtCsdGrGZaRBwMb_3syn9lookaheadNtB3_10Lookahead14peekINvNtB5_5token5TraitNtB3_11TokenMarkerEEB5_, symObjAddr: 0x9F0, symBinAddr: 0x2BF40, symSize: 0x30 }
  - { offset: 0x763F2, size: 0x8, addend: 0x0, symName: __RINvMNtCsdGrGZaRBwMb_3syn9lookaheadNtB3_10Lookahead14peekINvNtB5_5token5UnionNtB3_11TokenMarkerEEB5_, symObjAddr: 0xA20, symBinAddr: 0x2BF70, symSize: 0x30 }
  - { offset: 0x76443, size: 0x8, addend: 0x0, symName: __RINvMNtCsdGrGZaRBwMb_3syn9lookaheadNtB3_10Lookahead14peekINvNtB5_5token5WhereNtB3_11TokenMarkerEEB5_, symObjAddr: 0xA50, symBinAddr: 0x2BFA0, symSize: 0x30 }
  - { offset: 0x76494, size: 0x8, addend: 0x0, symName: __RINvMNtCsdGrGZaRBwMb_3syn9lookaheadNtB3_10Lookahead14peekINvNtB5_5token6DotDotNtB3_11TokenMarkerEEB5_, symObjAddr: 0xA80, symBinAddr: 0x2BFD0, symSize: 0x30 }
  - { offset: 0x764E5, size: 0x8, addend: 0x0, symName: __RINvMNtCsdGrGZaRBwMb_3syn9lookaheadNtB3_10Lookahead14peekINvNtB5_5token6ExternNtB3_11TokenMarkerEEB5_, symObjAddr: 0xAB0, symBinAddr: 0x2C000, symSize: 0x30 }
  - { offset: 0x76536, size: 0x8, addend: 0x0, symName: __RINvMNtCsdGrGZaRBwMb_3syn9lookaheadNtB3_10Lookahead14peekINvNtB5_5token6StaticNtB3_11TokenMarkerEEB5_, symObjAddr: 0xAE0, symBinAddr: 0x2C030, symSize: 0x30 }
  - { offset: 0x76587, size: 0x8, addend: 0x0, symName: __RINvMNtCsdGrGZaRBwMb_3syn9lookaheadNtB3_10Lookahead14peekINvNtB5_5token6StructNtB3_11TokenMarkerEEB5_, symObjAddr: 0xB10, symBinAddr: 0x2C060, symSize: 0x30 }
  - { offset: 0x765D8, size: 0x8, addend: 0x0, symName: __RINvMNtCsdGrGZaRBwMb_3syn9lookaheadNtB3_10Lookahead14peekINvNtB5_5token6UnsafeNtB3_11TokenMarkerEEB5_, symObjAddr: 0xB40, symBinAddr: 0x2C090, symSize: 0x30 }
  - { offset: 0x76629, size: 0x8, addend: 0x0, symName: __RINvMNtCsdGrGZaRBwMb_3syn9lookaheadNtB3_10Lookahead14peekINvNtB5_5token7BracketNtB3_11TokenMarkerEEB5_, symObjAddr: 0xB70, symBinAddr: 0x2C0C0, symSize: 0x30 }
  - { offset: 0x7667A, size: 0x8, addend: 0x0, symName: __RINvMNtCsdGrGZaRBwMb_3syn9lookaheadNtB3_10Lookahead14peekINvNtB5_5token7DefaultNtB3_11TokenMarkerEEB5_, symObjAddr: 0xBA0, symBinAddr: 0x2C0F0, symSize: 0x30 }
  - { offset: 0x766CB, size: 0x8, addend: 0x0, symName: __RINvMNtCsdGrGZaRBwMb_3syn9lookaheadNtB3_10Lookahead14peekINvNtB5_5token7PathSepNtB3_11TokenMarkerEEB5_, symObjAddr: 0xBD0, symBinAddr: 0x2C120, symSize: 0x30 }
  - { offset: 0x7671C, size: 0x8, addend: 0x0, symName: __RINvMNtCsdGrGZaRBwMb_3syn9lookaheadNtB3_10Lookahead14peekINvNtB5_5token8DotDotEqNtB3_11TokenMarkerEEB5_, symObjAddr: 0xC00, symBinAddr: 0x2C150, symSize: 0x30 }
  - { offset: 0x7676D, size: 0x8, addend: 0x0, symName: __RINvMNtCsdGrGZaRBwMb_3syn9lookaheadNtB3_10Lookahead14peekINvNtB5_5token8SelfTypeNtB3_11TokenMarkerEEB5_, symObjAddr: 0xC30, symBinAddr: 0x2C180, symSize: 0x30 }
  - { offset: 0x767BE, size: 0x8, addend: 0x0, symName: __RINvMNtCsdGrGZaRBwMb_3syn9lookaheadNtB3_10Lookahead14peekINvNtB5_5token9SelfValueNtB3_11TokenMarkerEEB5_, symObjAddr: 0xC60, symBinAddr: 0x2C1B0, symSize: 0x30 }
  - { offset: 0x7680F, size: 0x8, addend: 0x0, symName: __RINvMNtCsdGrGZaRBwMb_3syn9lookaheadNtB3_10Lookahead14peekNvNtB5_3lit3LitEB5_, symObjAddr: 0xC90, symBinAddr: 0x2C1E0, symSize: 0x30 }
  - { offset: 0x76860, size: 0x8, addend: 0x0, symName: __RINvMNtCsdGrGZaRBwMb_3syn9lookaheadNtB3_10Lookahead14peekNvNtB5_3lit6LitStrEB5_, symObjAddr: 0xCC0, symBinAddr: 0x2C210, symSize: 0x30 }
  - { offset: 0x768B1, size: 0x8, addend: 0x0, symName: __RINvMNtCsdGrGZaRBwMb_3syn9lookaheadNtB3_10Lookahead14peekNvNtB5_5ident5IdentEB5_, symObjAddr: 0xCF0, symBinAddr: 0x2C240, symSize: 0x30 }
  - { offset: 0x76902, size: 0x8, addend: 0x0, symName: __RINvMNtCsdGrGZaRBwMb_3syn9lookaheadNtB3_10Lookahead14peekNvNtB5_8lifetime8LifetimeEB5_, symObjAddr: 0xD20, symBinAddr: 0x2C270, symSize: 0x30 }
  - { offset: 0x769D2, size: 0x8, addend: 0x0, symName: __RINvMs_NtNtCsieiGu2EXtoJ_4core3fmt2rtNtB7_9Arguments6new_v1Kj2_KBW_ECsdGrGZaRBwMb_3syn, symObjAddr: 0xD90, symBinAddr: 0x2C2E0, symSize: 0x40 }
  - { offset: 0x76CA9, size: 0x8, addend: 0x0, symName: __RNvMNtCsdGrGZaRBwMb_3syn4attrNtB2_9Attribute11parse_inner, symObjAddr: 0x33A0, symBinAddr: 0x2D800, symSize: 0x160 }
  - { offset: 0x76D02, size: 0x8, addend: 0x0, symName: __RNvMNtCsdGrGZaRBwMb_3syn4attrNtB2_9Attribute11parse_outer, symObjAddr: 0x3500, symBinAddr: 0x2D960, symSize: 0x1E0 }
  - { offset: 0x76D75, size: 0x8, addend: 0x0, symName: __RNvMNtCsdGrGZaRBwMb_3syn5errorNtB2_5Error16to_compile_error, symObjAddr: 0x3700, symBinAddr: 0x2DB40, symSize: 0x110 }
  - { offset: 0x76DFE, size: 0x8, addend: 0x0, symName: __RNvMNtCsdGrGZaRBwMb_3syn9lookaheadNtB2_10Lookahead15error, symObjAddr: 0x3BD0, symBinAddr: 0x2DC50, symSize: 0x4B0 }
  - { offset: 0x76F7D, size: 0x8, addend: 0x0, symName: __RNvMs7_NtCsieiGu2EXtoJ_4core4cellINtB5_4CellINtNtB7_6option6OptionINtNtCslJiobkLta79_5alloc2rc2RcIBw_NtNtCsdGrGZaRBwMb_3syn5parse10UnexpectedEEEE3newB1F_, symObjAddr: 0x42D0, symBinAddr: 0x2E140, symSize: 0x10 }
  - { offset: 0x76FDE, size: 0x8, addend: 0x0, symName: __RNvMs7_NtCsieiGu2EXtoJ_4core4cellINtB5_4CellINtNtB7_6option6OptionINtNtCslJiobkLta79_5alloc2rc2RcIBw_NtNtCsdGrGZaRBwMb_3syn5parse10UnexpectedEEEE3setB1F_, symObjAddr: 0x42E0, symBinAddr: 0x2E150, symSize: 0x30 }
  - { offset: 0x77064, size: 0x8, addend: 0x0, symName: __RNvMs7_NtCsieiGu2EXtoJ_4core4cellINtB5_4CellNtNtCsdGrGZaRBwMb_3syn5parse10UnexpectedE3newBK_, symObjAddr: 0x4310, symBinAddr: 0x2E180, symSize: 0x30 }
  - { offset: 0x770DA, size: 0x8, addend: 0x0, symName: __RNvMs7_NtCsieiGu2EXtoJ_4core4cellINtB5_4CellNtNtCsdGrGZaRBwMb_3syn5parse10UnexpectedE3setBK_, symObjAddr: 0x4340, symBinAddr: 0x2E1B0, symSize: 0x40 }
  - { offset: 0x77151, size: 0x8, addend: 0x0, symName: __RNvMs7_NtCsieiGu2EXtoJ_4core4cellINtB5_4CellNtNtCsdGrGZaRBwMb_3syn6buffer6CursorE3newBK_, symObjAddr: 0x4380, symBinAddr: 0x2E1F0, symSize: 0x20 }
  - { offset: 0x771B2, size: 0x8, addend: 0x0, symName: __RNvMs7_NtCsieiGu2EXtoJ_4core4cellINtB5_4CellNtNtCsdGrGZaRBwMb_3syn6buffer6CursorE3setBK_, symObjAddr: 0x43A0, symBinAddr: 0x2E210, symSize: 0x20 }
  - { offset: 0x77228, size: 0x8, addend: 0x0, symName: __RNvMs8_NtCsieiGu2EXtoJ_4core4cellINtB5_4CellNtNtCsdGrGZaRBwMb_3syn6buffer6CursorE3getBK_, symObjAddr: 0x43C0, symBinAddr: 0x2E230, symSize: 0x20 }
  - { offset: 0x77288, size: 0x8, addend: 0x0, symName: __RNvMs_NtCsdGrGZaRBwMb_3syn5errorNtB4_12ErrorMessage16to_compile_error, symObjAddr: 0x4C20, symBinAddr: 0x2E250, symSize: 0x4C0 }
  - { offset: 0x7735C, size: 0x8, addend: 0x0, symName: __RNvMsa_NtCsieiGu2EXtoJ_4core4cellINtB5_4CellINtNtB7_6option6OptionINtNtCslJiobkLta79_5alloc2rc2RcIBw_NtNtCsdGrGZaRBwMb_3syn5parse10UnexpectedEEEE4takeB1F_, symObjAddr: 0x50E0, symBinAddr: 0x2E710, symSize: 0x30 }
  - { offset: 0x773EB, size: 0x8, addend: 0x0, symName: __RNvMsa_NtCsieiGu2EXtoJ_4core4cellINtB5_4CellNtNtCsdGrGZaRBwMb_3syn5parse10UnexpectedE4takeBK_, symObjAddr: 0x5110, symBinAddr: 0x2E740, symSize: 0x50 }
  - { offset: 0x77452, size: 0x8, addend: 0x0, symName: __RNvMsh_NtCsieiGu2EXtoJ_4core4cellINtB5_7RefCellINtNtCslJiobkLta79_5alloc3vec3VecReEE10into_innerCsdGrGZaRBwMb_3syn, symObjAddr: 0x5160, symBinAddr: 0x2E790, symSize: 0x20 }
  - { offset: 0x7748E, size: 0x8, addend: 0x0, symName: __RNvMsh_NtCsieiGu2EXtoJ_4core4cellINtB5_7RefCellINtNtCslJiobkLta79_5alloc3vec3VecReEE3newCsdGrGZaRBwMb_3syn, symObjAddr: 0x5180, symBinAddr: 0x2E7B0, symSize: 0x40 }
  - { offset: 0x77503, size: 0x8, addend: 0x0, symName: __RNvMsi_NtCsieiGu2EXtoJ_4core4cellINtB5_7RefCellINtNtCslJiobkLta79_5alloc3vec3VecReEE10borrow_mutCsdGrGZaRBwMb_3syn, symObjAddr: 0x51C0, symBinAddr: 0x2E7F0, symSize: 0x60 }
  - { offset: 0x775DA, size: 0x8, addend: 0x0, symName: __RNvMsi_NtCsieiGu2EXtoJ_4core4cellINtB5_7RefCellINtNtCslJiobkLta79_5alloc3vec3VecReEE14try_borrow_mutCsdGrGZaRBwMb_3syn, symObjAddr: 0x5220, symBinAddr: 0x2E850, symSize: 0xA0 }
  - { offset: 0x7780B, size: 0x8, addend: 0x0, symName: __RNvXNtCs9OU1sGv5X54_5quote9to_tokensRNtNtCsdGrGZaRBwMb_3syn4attr9AttributeNtB2_8ToTokens9to_tokensBD_, symObjAddr: 0x17650, symBinAddr: 0x40330, symSize: 0x30 }
  - { offset: 0x7784A, size: 0x8, addend: 0x0, symName: __RNvXNtCs9OU1sGv5X54_5quote9to_tokensRNtNtCsdGrGZaRBwMb_3syn8lifetime8LifetimeNtB2_8ToTokens9to_tokensBD_, symObjAddr: 0x17680, symBinAddr: 0x40360, symSize: 0x30 }
  - { offset: 0x77DA6, size: 0x8, addend: 0x0, symName: __RINvMNtCsieiGu2EXtoJ_4core3stre3getINtNtNtB5_3ops5range5RangejEECsdGrGZaRBwMb_3syn, symObjAddr: 0x0, symBinAddr: 0x41060, symSize: 0x40 }
  - { offset: 0x7BEEF, size: 0x8, addend: 0x0, symName: __RNCNvNtNtCsdGrGZaRBwMb_3syn4item7parsing22parse_rest_of_receiver0B7_, symObjAddr: 0x2A0, symBinAddr: 0x41300, symSize: 0x30 }
  - { offset: 0x7BF3A, size: 0x8, addend: 0x0, symName: __RNCNvXsp_NtNtCsdGrGZaRBwMb_3syn4item7parsingNtB9_11TraitItemFnNtNtBb_5parse5Parse5parse0Bb_, symObjAddr: 0x3A0, symBinAddr: 0x413D0, symSize: 0x50 }
  - { offset: 0x7C043, size: 0x8, addend: 0x0, symName: __RNvNtNtCsdGrGZaRBwMb_3syn4item7parsing10parse_impl, symObjAddr: 0x31D0, symBinAddr: 0x440D0, symSize: 0x1EA0 }
  - { offset: 0x7C4AD, size: 0x8, addend: 0x0, symName: __RNvNtNtCsdGrGZaRBwMb_3syn4item7parsing12parse_macro2, symObjAddr: 0x5070, symBinAddr: 0x45F70, symSize: 0xAA0 }
  - { offset: 0x7C662, size: 0x8, addend: 0x0, symName: __RNvNtNtCsdGrGZaRBwMb_3syn4item7parsing13parse_fn_args, symObjAddr: 0x5B10, symBinAddr: 0x46A10, symSize: 0xE20 }
  - { offset: 0x7C88C, size: 0x8, addend: 0x0, symName: __RNvNtNtCsdGrGZaRBwMb_3syn4item7parsing14parse_item_use, symObjAddr: 0x6930, symBinAddr: 0x47830, symSize: 0x8A0 }
  - { offset: 0x7CA7F, size: 0x8, addend: 0x0, symName: __RNvNtNtCsdGrGZaRBwMb_3syn4item7parsing14parse_use_tree, symObjAddr: 0x71D0, symBinAddr: 0x480D0, symSize: 0x15B0 }
  - { offset: 0x7CD72, size: 0x8, addend: 0x0, symName: __RNvNtNtCsdGrGZaRBwMb_3syn4item7parsing14peek_signature, symObjAddr: 0x8780, symBinAddr: 0x49680, symSize: 0x370 }
  - { offset: 0x7CDC6, size: 0x8, addend: 0x0, symName: __RNvNtNtCsdGrGZaRBwMb_3syn4item7parsing15parse_item_type, symObjAddr: 0x8AF0, symBinAddr: 0x499F0, symSize: 0x780 }
  - { offset: 0x7CEFD, size: 0x8, addend: 0x0, symName: __RNvNtNtCsdGrGZaRBwMb_3syn4item7parsing15parse_signature, symObjAddr: 0x9270, symBinAddr: 0x4A170, symSize: 0x1180 }
  - { offset: 0x7D258, size: 0x8, addend: 0x0, symName: __RNvNtNtCsdGrGZaRBwMb_3syn4item7parsing16parse_rest_of_fn, symObjAddr: 0xA3F0, symBinAddr: 0x4B2F0, symSize: 0x6B0 }
  - { offset: 0x7D3A4, size: 0x8, addend: 0x0, symName: __RNvNtNtCsdGrGZaRBwMb_3syn4item7parsing18parse_impl_item_fn, symObjAddr: 0xAAA0, symBinAddr: 0x4B9A0, symSize: 0xB30 }
  - { offset: 0x7D5E3, size: 0x8, addend: 0x0, symName: __RNvNtNtCsdGrGZaRBwMb_3syn4item7parsing18parse_rest_of_item, symObjAddr: 0xB5D0, symBinAddr: 0x4C4D0, symSize: 0x42E0 }
  - { offset: 0x7DEC8, size: 0x8, addend: 0x0, symName: __RNvNtNtCsdGrGZaRBwMb_3syn4item7parsing19parse_rest_of_trait, symObjAddr: 0xF8B0, symBinAddr: 0x507B0, symSize: 0xD30 }
  - { offset: 0x7E0E8, size: 0x8, addend: 0x0, symName: __RNvNtNtCsdGrGZaRBwMb_3syn4item7parsing20parse_impl_item_type, symObjAddr: 0x105E0, symBinAddr: 0x514E0, symSize: 0x6F0 }
  - { offset: 0x7E210, size: 0x8, addend: 0x0, symName: __RNvNtNtCsdGrGZaRBwMb_3syn4item7parsing20parse_receiver_begin, symObjAddr: 0x10CD0, symBinAddr: 0x51BD0, symSize: 0x4C0 }
  - { offset: 0x7E32B, size: 0x8, addend: 0x0, symName: __RNvNtNtCsdGrGZaRBwMb_3syn4item7parsing21parse_trait_item_type, symObjAddr: 0x11190, symBinAddr: 0x52090, symSize: 0x610 }
  - { offset: 0x7E415, size: 0x8, addend: 0x0, symName: __RNvNtNtCsdGrGZaRBwMb_3syn4item7parsing22parse_rest_of_receiver, symObjAddr: 0x117A0, symBinAddr: 0x526A0, symSize: 0x880 }
  - { offset: 0x7E592, size: 0x8, addend: 0x0, symName: __RNvNtNtCsdGrGZaRBwMb_3syn4item7parsing23parse_foreign_item_type, symObjAddr: 0x12020, symBinAddr: 0x52F20, symSize: 0x5C0 }
  - { offset: 0x7E68A, size: 0x8, addend: 0x0, symName: __RNvNtNtCsdGrGZaRBwMb_3syn4item7parsing24parse_fn_arg_or_variadic, symObjAddr: 0x125E0, symBinAddr: 0x534E0, symSize: 0x1000 }
  - { offset: 0x7E892, size: 0x8, addend: 0x0, symName: __RNvNtNtCsdGrGZaRBwMb_3syn4item7parsing25parse_rest_of_trait_alias, symObjAddr: 0x135E0, symBinAddr: 0x544E0, symSize: 0x860 }
  - { offset: 0x7E9FB, size: 0x8, addend: 0x0, symName: __RNvNtNtCsdGrGZaRBwMb_3syn4item7parsing26parse_start_of_trait_alias, symObjAddr: 0x13E40, symBinAddr: 0x54D40, symSize: 0x620 }
  - { offset: 0x7EB83, size: 0x8, addend: 0x0, symName: __RNvNtNtCsdGrGZaRBwMb_3syn4item7parsing26parse_trait_or_trait_alias, symObjAddr: 0x14460, symBinAddr: 0x55360, symSize: 0x6C0 }
  - { offset: 0x7EE1A, size: 0x8, addend: 0x0, symName: __RNvXNtNtCsdGrGZaRBwMb_3syn11restriction7parsingNtB4_10VisibilityNtNtB6_5parse5Parse5parse, symObjAddr: 0x150E0, symBinAddr: 0x55B60, symSize: 0x2D0 }
  - { offset: 0x7EEB2, size: 0x8, addend: 0x0, symName: __RNvXNtNtCsdGrGZaRBwMb_3syn11restriction8printingNtB4_10VisibilityNtNtCs9OU1sGv5X54_5quote9to_tokens8ToTokens9to_tokens, symObjAddr: 0x153B0, symBinAddr: 0x55E30, symSize: 0x90 }
  - { offset: 0x7EF28, size: 0x8, addend: 0x0, symName: __RNvXs_NtNtCsdGrGZaRBwMb_3syn11restriction8printingNtB6_13VisRestrictedNtNtCs9OU1sGv5X54_5quote9to_tokens8ToTokens9to_tokens, symObjAddr: 0x17020, symBinAddr: 0x56B00, symSize: 0x50 }
  - { offset: 0x7F410, size: 0x8, addend: 0x0, symName: __RNCNvNtNtCsdGrGZaRBwMb_3syn8generics8printing20print_const_argument0B7_, symObjAddr: 0x2D0, symBinAddr: 0x41330, symSize: 0x40 }
  - { offset: 0x7F456, size: 0x8, addend: 0x0, symName: __RNCNvXs5_NtNtCsdGrGZaRBwMb_3syn8generics8printingNtB9_10TraitBoundNtNtCs9OU1sGv5X54_5quote9to_tokens8ToTokens9to_tokens0Bb_, symObjAddr: 0x340, symBinAddr: 0x41370, symSize: 0x60 }
  - { offset: 0x7F494, size: 0x8, addend: 0x0, symName: __RNvNtNtCsdGrGZaRBwMb_3syn8generics8printing20print_const_argument, symObjAddr: 0x14B20, symBinAddr: 0x55A20, symSize: 0x140 }
  - { offset: 0x83C0A, size: 0x8, addend: 0x0, symName: __RINvMNtCsieiGu2EXtoJ_4core3stre3getINtNtNtB5_3ops5range5RangejEECsdGrGZaRBwMb_3syn, symObjAddr: 0x0, symBinAddr: 0x41060, symSize: 0x40 }
  - { offset: 0x83C50, size: 0x8, addend: 0x0, symName: __RINvMNtCsieiGu2EXtoJ_4core3stre3getINtNtNtB5_3ops5range9RangeFromjEECsdGrGZaRBwMb_3syn, symObjAddr: 0x40, symBinAddr: 0x410A0, symSize: 0x30 }
  - { offset: 0x83C96, size: 0x8, addend: 0x0, symName: __RINvMNtCsieiGu2EXtoJ_4core3stre5parseNtCsaKzlTDPUHDb_11proc_macro27LiteralECsdGrGZaRBwMb_3syn, symObjAddr: 0x70, symBinAddr: 0x410D0, symSize: 0x30 }
  - { offset: 0x83CCD, size: 0x8, addend: 0x0, symName: __RINvMNtCsieiGu2EXtoJ_4core3stre5parsemECsdGrGZaRBwMb_3syn, symObjAddr: 0xA0, symBinAddr: 0x41100, symSize: 0x30 }
  - { offset: 0x83D11, size: 0x8, addend: 0x0, symName: __RINvMNtCsieiGu2EXtoJ_4core3stre5rfindcECsdGrGZaRBwMb_3syn, symObjAddr: 0xD0, symBinAddr: 0x41130, symSize: 0xD0 }
  - { offset: 0x83D9E, size: 0x8, addend: 0x0, symName: __RINvMNtCsieiGu2EXtoJ_4core3stre5splitcECsdGrGZaRBwMb_3syn, symObjAddr: 0x1A0, symBinAddr: 0x41200, symSize: 0xB0 }
  - { offset: 0x83DE4, size: 0x8, addend: 0x0, symName: __RINvMNtCsieiGu2EXtoJ_4core3stre9ends_withcECsdGrGZaRBwMb_3syn, symObjAddr: 0x250, symBinAddr: 0x412B0, symSize: 0x30 }
  - { offset: 0x83E2A, size: 0x8, addend: 0x0, symName: __RNvMNtCsieiGu2EXtoJ_4core3stre3lenCsdGrGZaRBwMb_3syn, symObjAddr: 0x3F0, symBinAddr: 0x41420, symSize: 0x20 }
  - { offset: 0x83E56, size: 0x8, addend: 0x0, symName: __RNvMNtCsieiGu2EXtoJ_4core3stre5bytesCsdGrGZaRBwMb_3syn, symObjAddr: 0x410, symBinAddr: 0x41440, symSize: 0x20 }
  - { offset: 0x83EC4, size: 0x8, addend: 0x0, symName: __RNvMNtCsieiGu2EXtoJ_4core3stre5charsCsdGrGZaRBwMb_3syn, symObjAddr: 0x430, symBinAddr: 0x41460, symSize: 0x20 }
  - { offset: 0x83F32, size: 0x8, addend: 0x0, symName: __RNvMNtCsieiGu2EXtoJ_4core3stre8is_emptyCsdGrGZaRBwMb_3syn, symObjAddr: 0x450, symBinAddr: 0x41480, symSize: 0x20 }
  - { offset: 0x8411F, size: 0x8, addend: 0x0, symName: __RNvXs_NtCsieiGu2EXtoJ_4core3streINtNtB6_7convert5AsRefShE6as_refCsdGrGZaRBwMb_3syn, symObjAddr: 0x17000, symBinAddr: 0x56AE0, symSize: 0x20 }
  - { offset: 0x84265, size: 0x8, addend: 0x0, symName: __RINvNtCsieiGu2EXtoJ_4core3cmp3minjECsdGrGZaRBwMb_3syn, symObjAddr: 0x280, symBinAddr: 0x412E0, symSize: 0x20 }
  - { offset: 0x843A6, size: 0x8, addend: 0x0, symName: __RNvXsa_NtCsieiGu2EXtoJ_4core3cmpNtB5_8OrderingNtB5_9PartialEq2eqCsdGrGZaRBwMb_3syn, symObjAddr: 0x17070, symBinAddr: 0x56B50, symSize: 0x20 }
  - { offset: 0x8569B, size: 0x8, addend: 0x0, symName: __RNvXsZ_NtNtCsieiGu2EXtoJ_4core3fmt3numjNtB7_5Debug3fmtCsdGrGZaRBwMb_3syn, symObjAddr: 0x16F80, symBinAddr: 0x56A60, symSize: 0x80 }
  - { offset: 0x8576D, size: 0x8, addend: 0x0, symName: __RNvXs1_NtCsieiGu2EXtoJ_4core7convertNtNtCslJiobkLta79_5alloc6string6StringINtB5_4IntoINtNtBC_3vec3VechEE4intoCsdGrGZaRBwMb_3syn, symObjAddr: 0x15F30, symBinAddr: 0x56390, symSize: 0x20 }
  - { offset: 0x858C4, size: 0x8, addend: 0x0, symName: __RNvYINtNtNtCslJiobkLta79_5alloc3vec9into_iter8IntoIterNtNtCsdGrGZaRBwMb_3syn4attr9AttributeENtNtNtNtCsieiGu2EXtoJ_4core4iter6traits10exact_size17ExactSizeIterator3lenBU_, symObjAddr: 0x17570, symBinAddr: 0x56EA0, symSize: 0xE0 }
  - { offset: 0x859C4, size: 0x8, addend: 0x0, symName: __RNvYINtNtNtCslJiobkLta79_5alloc3vec9into_iter8IntoIterNtNtCsdGrGZaRBwMb_3syn8generics14TypeParamBoundENtNtNtNtCsieiGu2EXtoJ_4core4iter6traits10exact_size17ExactSizeIterator3lenBU_, symObjAddr: 0x17730, symBinAddr: 0x56F80, symSize: 0xE0 }
  - { offset: 0x85AC4, size: 0x8, addend: 0x0, symName: __RNvYINtNtNtCslJiobkLta79_5alloc3vec9into_iter8IntoIterTNtNtCsdGrGZaRBwMb_3syn4path11PathSegmentNtNtBV_5token7PathSepEENtNtNtNtCsieiGu2EXtoJ_4core4iter6traits10exact_size17ExactSizeIterator3lenBV_, symObjAddr: 0x179D0, symBinAddr: 0x57060, symSize: 0xE0 }
  - { offset: 0x85BC4, size: 0x8, addend: 0x0, symName: __RNvYINtNtNtCslJiobkLta79_5alloc3vec9into_iter8IntoIterTNtNtCsdGrGZaRBwMb_3syn8generics14TypeParamBoundNtNtBV_5token4PlusEENtNtNtNtCsieiGu2EXtoJ_4core4iter6traits10exact_size17ExactSizeIterator3lenBV_, symObjAddr: 0x17AB0, symBinAddr: 0x57140, symSize: 0xE0 }
  - { offset: 0x86727, size: 0x8, addend: 0x0, symName: __RNvXNvXsd_NtNtCslJiobkLta79_5alloc3vec9into_iterINtB8_8IntoIterppENtNtNtCsieiGu2EXtoJ_4core3ops4drop4Drop4dropINtB2_9DropGuardNtNtCsdGrGZaRBwMb_3syn4attr9AttributeNtNtBc_5alloc6GlobalEB12_4dropB24_, symObjAddr: 0x15640, symBinAddr: 0x560C0, symSize: 0x70 }
  - { offset: 0x8683C, size: 0x8, addend: 0x0, symName: __RNvXNvXsd_NtNtCslJiobkLta79_5alloc3vec9into_iterINtB8_8IntoIterppENtNtNtCsieiGu2EXtoJ_4core3ops4drop4Drop4dropINtB2_9DropGuardNtNtCsdGrGZaRBwMb_3syn8generics14TypeParamBoundNtNtBc_5alloc6GlobalEB12_4dropB24_, symObjAddr: 0x15720, symBinAddr: 0x56130, symSize: 0x70 }
  - { offset: 0x86951, size: 0x8, addend: 0x0, symName: __RNvXNvXsd_NtNtCslJiobkLta79_5alloc3vec9into_iterINtB8_8IntoIterppENtNtNtCsieiGu2EXtoJ_4core3ops4drop4Drop4dropINtB2_9DropGuardTNtNtCsdGrGZaRBwMb_3syn4path11PathSegmentNtNtB25_5token7PathSepENtNtBc_5alloc6GlobalEB12_4dropB25_, symObjAddr: 0x15870, symBinAddr: 0x561A0, symSize: 0x70 }
  - { offset: 0x86A66, size: 0x8, addend: 0x0, symName: __RNvXNvXsd_NtNtCslJiobkLta79_5alloc3vec9into_iterINtB8_8IntoIterppENtNtNtCsieiGu2EXtoJ_4core3ops4drop4Drop4dropINtB2_9DropGuardTNtNtCsdGrGZaRBwMb_3syn8generics14TypeParamBoundNtNtB25_5token4PlusENtNtBc_5alloc6GlobalEB12_4dropB25_, symObjAddr: 0x158E0, symBinAddr: 0x56210, symSize: 0x70 }
  - { offset: 0x86C19, size: 0x8, addend: 0x0, symName: __RNvXsd_NtNtCslJiobkLta79_5alloc3vec9into_iterINtB5_8IntoIterNtNtCsdGrGZaRBwMb_3syn4attr9AttributeENtNtNtCsieiGu2EXtoJ_4core3ops4drop4Drop4dropB10_, symObjAddr: 0x17090, symBinAddr: 0x56B70, symSize: 0x90 }
  - { offset: 0x86CB4, size: 0x8, addend: 0x0, symName: __RNvXsd_NtNtCslJiobkLta79_5alloc3vec9into_iterINtB5_8IntoIterNtNtCsdGrGZaRBwMb_3syn8generics14TypeParamBoundENtNtNtCsieiGu2EXtoJ_4core3ops4drop4Drop4dropB10_, symObjAddr: 0x171B0, symBinAddr: 0x56C00, symSize: 0x90 }
  - { offset: 0x86D4F, size: 0x8, addend: 0x0, symName: __RNvXsd_NtNtCslJiobkLta79_5alloc3vec9into_iterINtB5_8IntoIterTNtNtCsdGrGZaRBwMb_3syn4path11PathSegmentNtNtB11_5token7PathSepEENtNtNtCsieiGu2EXtoJ_4core3ops4drop4Drop4dropB11_, symObjAddr: 0x17360, symBinAddr: 0x56C90, symSize: 0x90 }
  - { offset: 0x86DEA, size: 0x8, addend: 0x0, symName: __RNvXsd_NtNtCslJiobkLta79_5alloc3vec9into_iterINtB5_8IntoIterTNtNtCsdGrGZaRBwMb_3syn8generics14TypeParamBoundNtNtB11_5token4PlusEENtNtNtCsieiGu2EXtoJ_4core3ops4drop4Drop4dropB11_, symObjAddr: 0x173F0, symBinAddr: 0x56D20, symSize: 0x90 }
  - { offset: 0x86E8B, size: 0x8, addend: 0x0, symName: __RNvXs3_NtNtCslJiobkLta79_5alloc3vec9into_iterINtB5_8IntoIterNtNtCsdGrGZaRBwMb_3syn4attr9AttributeENtNtNtNtCsieiGu2EXtoJ_4core4iter6traits8iterator8Iterator9size_hintB10_, symObjAddr: 0x162A0, symBinAddr: 0x56570, symSize: 0x60 }
  - { offset: 0x86EE6, size: 0x8, addend: 0x0, symName: __RNvXs3_NtNtCslJiobkLta79_5alloc3vec9into_iterINtB5_8IntoIterNtNtCsdGrGZaRBwMb_3syn8generics14TypeParamBoundENtNtNtNtCsieiGu2EXtoJ_4core4iter6traits8iterator8Iterator4nextB10_, symObjAddr: 0x16460, symBinAddr: 0x565D0, symSize: 0x100 }
  - { offset: 0x87044, size: 0x8, addend: 0x0, symName: __RNvXs3_NtNtCslJiobkLta79_5alloc3vec9into_iterINtB5_8IntoIterNtNtCsdGrGZaRBwMb_3syn8generics14TypeParamBoundENtNtNtNtCsieiGu2EXtoJ_4core4iter6traits8iterator8Iterator9size_hintB10_, symObjAddr: 0x16560, symBinAddr: 0x566D0, symSize: 0x60 }
  - { offset: 0x8709F, size: 0x8, addend: 0x0, symName: __RNvXs3_NtNtCslJiobkLta79_5alloc3vec9into_iterINtB5_8IntoIterTNtNtCsdGrGZaRBwMb_3syn4path11PathSegmentNtNtB11_5token7PathSepEENtNtNtNtCsieiGu2EXtoJ_4core4iter6traits8iterator8Iterator4nextB11_, symObjAddr: 0x16880, symBinAddr: 0x56730, symSize: 0x100 }
  - { offset: 0x871FD, size: 0x8, addend: 0x0, symName: __RNvXs3_NtNtCslJiobkLta79_5alloc3vec9into_iterINtB5_8IntoIterTNtNtCsdGrGZaRBwMb_3syn4path11PathSegmentNtNtB11_5token7PathSepEENtNtNtNtCsieiGu2EXtoJ_4core4iter6traits8iterator8Iterator9size_hintB11_, symObjAddr: 0x16980, symBinAddr: 0x56830, symSize: 0x60 }
  - { offset: 0x87258, size: 0x8, addend: 0x0, symName: __RNvXs3_NtNtCslJiobkLta79_5alloc3vec9into_iterINtB5_8IntoIterTNtNtCsdGrGZaRBwMb_3syn8generics14TypeParamBoundNtNtB11_5token4PlusEENtNtNtNtCsieiGu2EXtoJ_4core4iter6traits8iterator8Iterator4nextB11_, symObjAddr: 0x169E0, symBinAddr: 0x56890, symSize: 0x110 }
  - { offset: 0x873B6, size: 0x8, addend: 0x0, symName: __RNvXs3_NtNtCslJiobkLta79_5alloc3vec9into_iterINtB5_8IntoIterTNtNtCsdGrGZaRBwMb_3syn8generics14TypeParamBoundNtNtB11_5token4PlusEENtNtNtNtCsieiGu2EXtoJ_4core4iter6traits8iterator8Iterator9size_hintB11_, symObjAddr: 0x16AF0, symBinAddr: 0x569A0, symSize: 0x60 }
  - { offset: 0x8812E, size: 0x8, addend: 0x0, symName: __RNvXss_NtCslJiobkLta79_5alloc6stringNtB5_6StringNtNtNtCsieiGu2EXtoJ_4core3ops5deref5Deref5derefCsdGrGZaRBwMb_3syn, symObjAddr: 0x174F0, symBinAddr: 0x56E20, symSize: 0x20 }
  - { offset: 0x881C5, size: 0x8, addend: 0x0, symName: __RNvXs1I_NtCslJiobkLta79_5alloc6stringNtB6_6StringNtB6_12SpecToString14spec_to_stringCsdGrGZaRBwMb_3syn, symObjAddr: 0x15E00, symBinAddr: 0x56280, symSize: 0xB0 }
  - { offset: 0x88435, size: 0x8, addend: 0x0, symName: __RNvXs1U_NtCslJiobkLta79_5alloc6stringReNtB6_12SpecToString14spec_to_stringCsdGrGZaRBwMb_3syn, symObjAddr: 0x15EB0, symBinAddr: 0x56330, symSize: 0x60 }
  - { offset: 0x8855F, size: 0x8, addend: 0x0, symName: __RNvXs1g_NtCslJiobkLta79_5alloc6stringNtB6_13FromUtf8ErrorNtNtCsieiGu2EXtoJ_4core3fmt5Debug3fmtCsdGrGZaRBwMb_3syn, symObjAddr: 0x15F70, symBinAddr: 0x563B0, symSize: 0x90 }
  - { offset: 0x885DC, size: 0x8, addend: 0x0, symName: __RNvXs1n_NtCslJiobkLta79_5alloc6stringNtB6_6StringINtNtCsieiGu2EXtoJ_4core3cmp9PartialEqReE2eqCsdGrGZaRBwMb_3syn, symObjAddr: 0x16000, symBinAddr: 0x56440, symSize: 0x130 }
  - { offset: 0x888BE, size: 0x8, addend: 0x0, symName: __RNvXsT_NtCslJiobkLta79_5alloc6stringNtB5_6StringNtNtCsieiGu2EXtoJ_4core3fmt5Write10write_charCsdGrGZaRBwMb_3syn, symObjAddr: 0x16E80, symBinAddr: 0x56A00, symSize: 0x30 }
  - { offset: 0x888FB, size: 0x8, addend: 0x0, symName: __RNvXsT_NtCslJiobkLta79_5alloc6stringNtB5_6StringNtNtCsieiGu2EXtoJ_4core3fmt5Write9write_strCsdGrGZaRBwMb_3syn, symObjAddr: 0x16EB0, symBinAddr: 0x56A30, symSize: 0x30 }
  - { offset: 0x8893E, size: 0x8, addend: 0x0, symName: __RNvXsm_NtCslJiobkLta79_5alloc6stringNtB5_6StringNtNtCsieiGu2EXtoJ_4core3fmt5Debug3fmtCsdGrGZaRBwMb_3syn, symObjAddr: 0x17480, symBinAddr: 0x56DB0, symSize: 0x70 }
  - { offset: 0x88AA3, size: 0x8, addend: 0x0, symName: __RNvXsw_NtCslJiobkLta79_5alloc6stringNtB5_6StringNtB5_8ToString9to_stringCsdGrGZaRBwMb_3syn, symObjAddr: 0x17510, symBinAddr: 0x56E40, symSize: 0x30 }
  - { offset: 0x88ADA, size: 0x8, addend: 0x0, symName: __RNvXsw_NtCslJiobkLta79_5alloc6stringReNtB5_8ToString9to_stringCsdGrGZaRBwMb_3syn, symObjAddr: 0x17540, symBinAddr: 0x56E70, symSize: 0x30 }
  - { offset: 0x88CF5, size: 0x8, addend: 0x0, symName: __RNvXNvMs_NtNtCslJiobkLta79_5alloc3ffi5c_strNtB7_7CString3newNtNtBb_6string6StringNtB2_11SpecNewImpl13spec_new_implCsdGrGZaRBwMb_3syn, symObjAddr: 0x15440, symBinAddr: 0x55EC0, symSize: 0x200 }
  - { offset: 0x89581, size: 0x8, addend: 0x0, symName: __RNvMNtCslJiobkLta79_5alloc6stringNtB2_6String10into_bytesCsdGrGZaRBwMb_3syn, symObjAddr: 0x470, symBinAddr: 0x414A0, symSize: 0x20 }
  - { offset: 0x8966B, size: 0x8, addend: 0x0, symName: __RNvMNtCslJiobkLta79_5alloc6stringNtB2_6String13with_capacityCsdGrGZaRBwMb_3syn, symObjAddr: 0x490, symBinAddr: 0x414C0, symSize: 0x70 }
  - { offset: 0x8976A, size: 0x8, addend: 0x0, symName: __RNvMNtCslJiobkLta79_5alloc6stringNtB2_6String14into_boxed_strCsdGrGZaRBwMb_3syn, symObjAddr: 0x500, symBinAddr: 0x41530, symSize: 0x70 }
  - { offset: 0x8987C, size: 0x8, addend: 0x0, symName: __RNvMNtCslJiobkLta79_5alloc6stringNtB2_6String3lenCsdGrGZaRBwMb_3syn, symObjAddr: 0x570, symBinAddr: 0x415A0, symSize: 0x10 }
  - { offset: 0x898C4, size: 0x8, addend: 0x0, symName: __RNvMNtCslJiobkLta79_5alloc6stringNtB2_6String3newCsdGrGZaRBwMb_3syn, symObjAddr: 0x580, symBinAddr: 0x415B0, symSize: 0x40 }
  - { offset: 0x89A90, size: 0x8, addend: 0x0, symName: __RNvMNtCslJiobkLta79_5alloc6stringNtB2_6String4pushCsdGrGZaRBwMb_3syn, symObjAddr: 0x5C0, symBinAddr: 0x415F0, symSize: 0x130 }
  - { offset: 0x89D77, size: 0x8, addend: 0x0, symName: __RNvMNtCslJiobkLta79_5alloc6stringNtB2_6String6as_strCsdGrGZaRBwMb_3syn, symObjAddr: 0x6F0, symBinAddr: 0x41720, symSize: 0x60 }
  - { offset: 0x8A04C, size: 0x8, addend: 0x0, symName: __RNvMNtCslJiobkLta79_5alloc6stringNtB2_6String6insertCsdGrGZaRBwMb_3syn, symObjAddr: 0x750, symBinAddr: 0x41780, symSize: 0x370 }
  - { offset: 0x8A560, size: 0x8, addend: 0x0, symName: __RNvMNtCslJiobkLta79_5alloc6stringNtB2_6String8is_emptyCsdGrGZaRBwMb_3syn, symObjAddr: 0xAC0, symBinAddr: 0x41AF0, symSize: 0x20 }
  - { offset: 0x8A66E, size: 0x8, addend: 0x0, symName: __RNvMNtCslJiobkLta79_5alloc6stringNtB2_6String8push_strCsdGrGZaRBwMb_3syn, symObjAddr: 0xAE0, symBinAddr: 0x41B10, symSize: 0x50 }
  - { offset: 0x8A92C, size: 0x8, addend: 0x0, symName: __RNvMNtCslJiobkLta79_5alloc6stringNtB2_6String8truncateCsdGrGZaRBwMb_3syn, symObjAddr: 0xB30, symBinAddr: 0x41B60, symSize: 0x1C0 }
  - { offset: 0x8ACBD, size: 0x8, addend: 0x0, symName: __RNvMNtCslJiobkLta79_5alloc6stringNtB2_6String9from_utf8CsdGrGZaRBwMb_3syn, symObjAddr: 0xCF0, symBinAddr: 0x41D20, symSize: 0x1C0 }
  - { offset: 0x8AE7C, size: 0x8, addend: 0x0, symName: __RNvMNtCslJiobkLta79_5alloc6stringNtB2_6String9split_offCsdGrGZaRBwMb_3syn, symObjAddr: 0xEB0, symBinAddr: 0x41EE0, symSize: 0x180 }
  - { offset: 0x8B0E3, size: 0x8, addend: 0x0, symName: __RNvMs_NtNtCsdGrGZaRBwMb_3syn11restriction7parsingNtB6_10Visibility7is_some, symObjAddr: 0x1100, symBinAddr: 0x42060, symSize: 0x50 }
  - { offset: 0x8B161, size: 0x8, addend: 0x0, symName: __RNvMs_NtNtCsdGrGZaRBwMb_3syn11restriction7parsingNtB6_10Visibility9parse_pub, symObjAddr: 0x1150, symBinAddr: 0x420B0, symSize: 0xAF0 }
  - { offset: 0x8B346, size: 0x8, addend: 0x0, symName: __RNvMs_NtNtCsdGrGZaRBwMb_3syn4item7parsingNtB4_16FlexibleItemType21parse_optional_bounds, symObjAddr: 0x1C40, symBinAddr: 0x42BA0, symSize: 0x4A0 }
  - { offset: 0x8B42F, size: 0x8, addend: 0x0, symName: __RNvMs_NtNtCsdGrGZaRBwMb_3syn4item7parsingNtB4_16FlexibleItemType25parse_optional_definition, symObjAddr: 0x20E0, symBinAddr: 0x43040, symSize: 0x230 }
  - { offset: 0x8B4E5, size: 0x8, addend: 0x0, symName: __RNvMs_NtNtCsdGrGZaRBwMb_3syn4item7parsingNtB4_16FlexibleItemType5parse, symObjAddr: 0x2310, symBinAddr: 0x43270, symSize: 0xDB0 }
  - { offset: 0x8B7BF, size: 0x8, addend: 0x0, symName: __RNvMs_NtNtCslJiobkLta79_5alloc3vec9into_iterINtB4_8IntoIterNtNtCsdGrGZaRBwMb_3syn4attr9AttributeE8as_sliceBZ_, symObjAddr: 0x30C0, symBinAddr: 0x44020, symSize: 0x60 }
  - { offset: 0x8B825, size: 0x8, addend: 0x0, symName: __RNvMsy_NtNtCsdGrGZaRBwMb_3syn4item7parsingNtNtB9_11restriction10Visibility12is_inherited, symObjAddr: 0x3180, symBinAddr: 0x44080, symSize: 0x50 }
  - { offset: 0x8C331, size: 0x8, addend: 0x0, symName: __RINvNtNtCsdGrGZaRBwMb_3syn3lit5value11backslash_uShEB6_, symObjAddr: 0x0, symBinAddr: 0x57220, symSize: 0x500 }
  - { offset: 0x8CBE9, size: 0x8, addend: 0x0, symName: __RNvXs_NtNtCslJiobkLta79_5alloc3vec15set_len_on_dropNtB4_12SetLenOnDropNtNtNtCsieiGu2EXtoJ_4core3ops4drop4Drop4dropCsdGrGZaRBwMb_3syn, symObjAddr: 0x18670, symBinAddr: 0x672A0, symSize: 0x20 }
  - { offset: 0x8E08C, size: 0x8, addend: 0x0, symName: __RNvXs5_NtNtCsieiGu2EXtoJ_4core3str6traitsINtNtNtB9_3ops5range5RangejEINtNtNtB9_5slice5index10SliceIndexeE3getCsdGrGZaRBwMb_3syn, symObjAddr: 0x17590, symBinAddr: 0x66C00, symSize: 0x1F0 }
  - { offset: 0x8E257, size: 0x8, addend: 0x0, symName: __RNvXs9_NtNtCsieiGu2EXtoJ_4core3str6traitsINtNtNtB9_3ops5range9RangeFromjEINtNtNtB9_5slice5index10SliceIndexeE3getCsdGrGZaRBwMb_3syn, symObjAddr: 0x17ED0, symBinAddr: 0x67080, symSize: 0x130 }
  - { offset: 0x9085E, size: 0x8, addend: 0x0, symName: __RNvXs5_NtNtCsieiGu2EXtoJ_4core5slice5indexINtNtNtB9_3ops5range9RangeFromjEINtB5_10SliceIndexShE3getCsdGrGZaRBwMb_3syn, symObjAddr: 0x17780, symBinAddr: 0x66DF0, symSize: 0x80 }
  - { offset: 0x90A6B, size: 0x8, addend: 0x0, symName: __RNvMNtCsieiGu2EXtoJ_4core5sliceSTNtNtCsdGrGZaRBwMb_3syn3pat3PatNtNtBz_5token2OrE4iterBz_, symObjAddr: 0x29E0, symBinAddr: 0x58DB0, symSize: 0x20 }
  - { offset: 0x90AA2, size: 0x8, addend: 0x0, symName: __RNvMNtCsieiGu2EXtoJ_4core5sliceSTNtNtCsdGrGZaRBwMb_3syn3pat3PatNtNtBz_5token5CommaE4iterBz_, symObjAddr: 0x2A00, symBinAddr: 0x58DD0, symSize: 0x20 }
  - { offset: 0x90AD9, size: 0x8, addend: 0x0, symName: __RNvMNtCsieiGu2EXtoJ_4core5sliceSTNtNtCsdGrGZaRBwMb_3syn3pat8FieldPatNtNtBz_5token5CommaE4iterBz_, symObjAddr: 0x2A20, symBinAddr: 0x58DF0, symSize: 0x20 }
  - { offset: 0x90E73, size: 0x8, addend: 0x0, symName: __RINvYNtNtCsaKzlTDPUHDb_11proc_macro212token_stream8IntoIterNtNtNtNtCsieiGu2EXtoJ_4core4iter6traits8iterator8Iterator4foldINtNtB13_6option6OptionNtB7_9TokenTreeEINvNvBV_4last4someB2i_EECsdGrGZaRBwMb_3syn, symObjAddr: 0x1EC0, symBinAddr: 0x58310, symSize: 0x230 }
  - { offset: 0x90F0B, size: 0x8, addend: 0x0, symName: __RNvYNtNtCsaKzlTDPUHDb_11proc_macro212token_stream8IntoIterNtNtNtNtCsieiGu2EXtoJ_4core4iter6traits8iterator8Iterator4lastCsdGrGZaRBwMb_3syn, symObjAddr: 0x194C0, symBinAddr: 0x67590, symSize: 0x30 }
  - { offset: 0x91849, size: 0x8, addend: 0x0, symName: __RNvNvNtCsieiGu2EXtoJ_4core9ub_checks23maybe_is_nonoverlapping7runtimeCsdGrGZaRBwMb_3syn, symObjAddr: 0x10A60, symBinAddr: 0x66370, symSize: 0xC0 }
  - { offset: 0x9409B, size: 0x8, addend: 0x0, symName: __RNCNvXNtNtCsdGrGZaRBwMb_3syn4stmt8printingNtB6_5BlockNtNtCs9OU1sGv5X54_5quote9to_tokens8ToTokens9to_tokens0B8_, symObjAddr: 0x26F0, symBinAddr: 0x58B40, symSize: 0x30 }
  - { offset: 0x940E2, size: 0x8, addend: 0x0, symName: __RNCNvXs0_NtNtCsdGrGZaRBwMb_3syn4stmt8printingNtB9_5LocalNtNtCs9OU1sGv5X54_5quote9to_tokens8ToTokens9to_tokens0Bb_, symObjAddr: 0x2720, symBinAddr: 0x58B70, symSize: 0x40 }
  - { offset: 0x94826, size: 0x8, addend: 0x0, symName: __RNcNtNtNtCsdGrGZaRBwMb_3syn3pat3Pat11TupleStruct0B7_, symObjAddr: 0x2760, symBinAddr: 0x58BB0, symSize: 0x40 }
  - { offset: 0x94855, size: 0x8, addend: 0x0, symName: __RNcNtNtNtCsdGrGZaRBwMb_3syn3pat3Pat4Wild0B7_, symObjAddr: 0x27A0, symBinAddr: 0x58BF0, symSize: 0x40 }
  - { offset: 0x94883, size: 0x8, addend: 0x0, symName: __RNcNtNtNtCsdGrGZaRBwMb_3syn3pat3Pat5Ident0B7_, symObjAddr: 0x27E0, symBinAddr: 0x58C30, symSize: 0x40 }
  - { offset: 0x948B2, size: 0x8, addend: 0x0, symName: __RNcNtNtNtCsdGrGZaRBwMb_3syn3pat3Pat5Slice0B7_, symObjAddr: 0x2820, symBinAddr: 0x58C70, symSize: 0x40 }
  - { offset: 0x948E1, size: 0x8, addend: 0x0, symName: __RNcNtNtNtCsdGrGZaRBwMb_3syn3pat3Pat6Struct0B7_, symObjAddr: 0x2860, symBinAddr: 0x58CB0, symSize: 0x30 }
  - { offset: 0x94910, size: 0x8, addend: 0x0, symName: __RNcNtNtNtCsdGrGZaRBwMb_3syn3pat3Pat8Verbatim0B7_, symObjAddr: 0x2890, symBinAddr: 0x58CE0, symSize: 0x40 }
  - { offset: 0x9493E, size: 0x8, addend: 0x0, symName: __RNcNtNtNtCsdGrGZaRBwMb_3syn3pat3Pat9Reference0B7_, symObjAddr: 0x28D0, symBinAddr: 0x58D20, symSize: 0x40 }
  - { offset: 0x94A26, size: 0x8, addend: 0x0, symName: __RNvNtNtCsdGrGZaRBwMb_3syn3pat7parsing10pat_struct, symObjAddr: 0x99A0, symBinAddr: 0x5F2B0, symSize: 0xD40 }
  - { offset: 0x94BF4, size: 0x8, addend: 0x0, symName: __RNvNtNtCsdGrGZaRBwMb_3syn3pat7parsing13pat_reference, symObjAddr: 0xA6E0, symBinAddr: 0x5FFF0, symSize: 0x420 }
  - { offset: 0x94C9E, size: 0x8, addend: 0x0, symName: __RNvNtNtCsdGrGZaRBwMb_3syn3pat7parsing14multi_pat_impl, symObjAddr: 0xAB00, symBinAddr: 0x60410, symSize: 0x680 }
  - { offset: 0x94DD3, size: 0x8, addend: 0x0, symName: __RNvNtNtCsdGrGZaRBwMb_3syn3pat7parsing15pat_range_bound, symObjAddr: 0xB180, symBinAddr: 0x60A90, symSize: 0x730 }
  - { offset: 0x94E7C, size: 0x8, addend: 0x0, symName: __RNvNtNtCsdGrGZaRBwMb_3syn3pat7parsing16pat_lit_or_range, symObjAddr: 0xB8B0, symBinAddr: 0x611C0, symSize: 0x610 }
  - { offset: 0x94F99, size: 0x8, addend: 0x0, symName: __RNvNtNtCsdGrGZaRBwMb_3syn3pat7parsing16pat_tuple_struct, symObjAddr: 0xBEC0, symBinAddr: 0x617D0, symSize: 0x710 }
  - { offset: 0x950E4, size: 0x8, addend: 0x0, symName: __RNvNtNtCsdGrGZaRBwMb_3syn3pat7parsing18pat_paren_or_tuple, symObjAddr: 0xC5D0, symBinAddr: 0x61EE0, symSize: 0x7E0 }
  - { offset: 0x9522E, size: 0x8, addend: 0x0, symName: __RNvNtNtCsdGrGZaRBwMb_3syn3pat7parsing19pat_range_half_open, symObjAddr: 0xCDB0, symBinAddr: 0x626C0, symSize: 0x490 }
  - { offset: 0x95306, size: 0x8, addend: 0x0, symName: __RNvNtNtCsdGrGZaRBwMb_3syn3pat7parsing36pat_path_or_macro_or_struct_or_range, symObjAddr: 0xD240, symBinAddr: 0x62B50, symSize: 0xA40 }
  - { offset: 0x953FE, size: 0x8, addend: 0x0, symName: __RNvNtNtCsdGrGZaRBwMb_3syn3pat7parsing7pat_box, symObjAddr: 0xDC80, symBinAddr: 0x63590, symSize: 0x2A0 }
  - { offset: 0x95489, size: 0x8, addend: 0x0, symName: __RNvNtNtCsdGrGZaRBwMb_3syn3pat7parsing8pat_wild, symObjAddr: 0xDF20, symBinAddr: 0x63830, symSize: 0x180 }
  - { offset: 0x954D5, size: 0x8, addend: 0x0, symName: __RNvNtNtCsdGrGZaRBwMb_3syn3pat7parsing9field_pat, symObjAddr: 0xE0A0, symBinAddr: 0x639B0, symSize: 0xDE0 }
  - { offset: 0x95715, size: 0x8, addend: 0x0, symName: __RNvNtNtCsdGrGZaRBwMb_3syn3pat7parsing9pat_const, symObjAddr: 0xEE80, symBinAddr: 0x64790, symSize: 0x500 }
  - { offset: 0x95829, size: 0x8, addend: 0x0, symName: __RNvNtNtCsdGrGZaRBwMb_3syn3pat7parsing9pat_ident, symObjAddr: 0xF380, symBinAddr: 0x64C90, symSize: 0x810 }
  - { offset: 0x9599B, size: 0x8, addend: 0x0, symName: __RNvNtNtCsdGrGZaRBwMb_3syn3pat7parsing9pat_range, symObjAddr: 0xFB90, symBinAddr: 0x654A0, symSize: 0x690 }
  - { offset: 0x95AA2, size: 0x8, addend: 0x0, symName: __RNvNtNtCsdGrGZaRBwMb_3syn3pat7parsing9pat_slice, symObjAddr: 0x10220, symBinAddr: 0x65B30, symSize: 0x840 }
  - { offset: 0x95C73, size: 0x8, addend: 0x0, symName: __RNvXNtNtCsdGrGZaRBwMb_3syn3pat8printingNtB4_8PatIdentNtNtCs9OU1sGv5X54_5quote9to_tokens8ToTokens9to_tokens, symObjAddr: 0x10FE0, symBinAddr: 0x668A0, symSize: 0xE0 }
  - { offset: 0x95CE0, size: 0x8, addend: 0x0, symName: __RNvXs0_NtNtCsdGrGZaRBwMb_3syn3pat8printingNtB7_8PatParenNtNtCs9OU1sGv5X54_5quote9to_tokens8ToTokens9to_tokens, symObjAddr: 0x13550, symBinAddr: 0x66980, symSize: 0x60 }
  - { offset: 0x95D1F, size: 0x8, addend: 0x0, symName: __RNvXs1_NtNtCsdGrGZaRBwMb_3syn3pat8printingNtB7_12PatReferenceNtNtCs9OU1sGv5X54_5quote9to_tokens8ToTokens9to_tokens, symObjAddr: 0x150B0, symBinAddr: 0x669E0, symSize: 0x80 }
  - { offset: 0x95D5E, size: 0x8, addend: 0x0, symName: __RNvXs2_NtNtCsdGrGZaRBwMb_3syn3pat8printingNtB7_7PatRestNtNtCs9OU1sGv5X54_5quote9to_tokens8ToTokens9to_tokens, symObjAddr: 0x15D10, symBinAddr: 0x66A60, symSize: 0x60 }
  - { offset: 0x95D9D, size: 0x8, addend: 0x0, symName: __RNvXs3_NtNtCsdGrGZaRBwMb_3syn3pat8printingNtB7_8PatSliceNtNtCs9OU1sGv5X54_5quote9to_tokens8ToTokens9to_tokens, symObjAddr: 0x17070, symBinAddr: 0x66AC0, symSize: 0x60 }
  - { offset: 0x95DDC, size: 0x8, addend: 0x0, symName: __RNvXs4_NtNtCsdGrGZaRBwMb_3syn3pat8printingNtB7_9PatStructNtNtCs9OU1sGv5X54_5quote9to_tokens8ToTokens9to_tokens, symObjAddr: 0x17460, symBinAddr: 0x66B20, symSize: 0x80 }
  - { offset: 0x95E1B, size: 0x8, addend: 0x0, symName: __RNvXs5_NtNtCsdGrGZaRBwMb_3syn3pat8printingNtB7_8PatTupleNtNtCs9OU1sGv5X54_5quote9to_tokens8ToTokens9to_tokens, symObjAddr: 0x17530, symBinAddr: 0x66BA0, symSize: 0x60 }
  - { offset: 0x95E5A, size: 0x8, addend: 0x0, symName: __RNvXs6_NtNtCsdGrGZaRBwMb_3syn3pat8printingNtB7_14PatTupleStructNtNtCs9OU1sGv5X54_5quote9to_tokens8ToTokens9to_tokens, symObjAddr: 0x17850, symBinAddr: 0x66E70, symSize: 0x80 }
  - { offset: 0x95E99, size: 0x8, addend: 0x0, symName: __RNvXs7_NtNtCsdGrGZaRBwMb_3syn3pat8printingNtB7_7PatTypeNtNtCs9OU1sGv5X54_5quote9to_tokens8ToTokens9to_tokens, symObjAddr: 0x17910, symBinAddr: 0x66EF0, symSize: 0x80 }
  - { offset: 0x95ED8, size: 0x8, addend: 0x0, symName: __RNvXs8_NtNtCsdGrGZaRBwMb_3syn3pat8printingNtB7_7PatWildNtNtCs9OU1sGv5X54_5quote9to_tokens8ToTokens9to_tokens, symObjAddr: 0x17D90, symBinAddr: 0x66F70, symSize: 0x60 }
  - { offset: 0x95F17, size: 0x8, addend: 0x0, symName: __RNvXs9_NtNtCsdGrGZaRBwMb_3syn3pat8printingNtB7_8FieldPatNtNtCs9OU1sGv5X54_5quote9to_tokens8ToTokens9to_tokens, symObjAddr: 0x17E20, symBinAddr: 0x66FD0, symSize: 0xB0 }
  - { offset: 0x95F74, size: 0x8, addend: 0x0, symName: __RNvXs_NtNtCsdGrGZaRBwMb_3syn3pat8printingNtB6_5PatOrNtNtCs9OU1sGv5X54_5quote9to_tokens8ToTokens9to_tokens, symObjAddr: 0x18600, symBinAddr: 0x67230, symSize: 0x70 }
  - { offset: 0x95FB4, size: 0x8, addend: 0x0, symName: __RNvXse_NtCsdGrGZaRBwMb_3syn3patNtB5_3PatNtNtCs9OU1sGv5X54_5quote9to_tokens8ToTokens9to_tokens, symObjAddr: 0x187C0, symBinAddr: 0x672C0, symSize: 0x2D0 }
  - { offset: 0x964A5, size: 0x8, addend: 0x0, symName: __RINvNtNtCsdGrGZaRBwMb_3syn3lit5value11backslash_uShEB6_, symObjAddr: 0x0, symBinAddr: 0x57220, symSize: 0x500 }
  - { offset: 0x96630, size: 0x8, addend: 0x0, symName: __RINvNtNtCsdGrGZaRBwMb_3syn3lit5value11backslash_ueEB6_, symObjAddr: 0x500, symBinAddr: 0x57720, symSize: 0x3C0 }
  - { offset: 0x9671A, size: 0x8, addend: 0x0, symName: __RINvNtNtCsdGrGZaRBwMb_3syn3lit5value11backslash_xShEB6_, symObjAddr: 0x8C0, symBinAddr: 0x57AE0, symSize: 0x390 }
  - { offset: 0x967BA, size: 0x8, addend: 0x0, symName: __RINvNtNtCsdGrGZaRBwMb_3syn3lit5value11backslash_xeEB6_, symObjAddr: 0xC50, symBinAddr: 0x57E70, symSize: 0x380 }
  - { offset: 0x96833, size: 0x8, addend: 0x0, symName: __RINvNtNtCsdGrGZaRBwMb_3syn3lit5value4byteShEB6_, symObjAddr: 0xFD0, symBinAddr: 0x581F0, symSize: 0x90 }
  - { offset: 0x9688F, size: 0x8, addend: 0x0, symName: __RINvNtNtCsdGrGZaRBwMb_3syn3lit5value4byteeEB6_, symObjAddr: 0x1060, symBinAddr: 0x58280, symSize: 0x90 }
  - { offset: 0x968F0, size: 0x8, addend: 0x0, symName: __RNCNvNtNtCsdGrGZaRBwMb_3syn3lit5value15parse_lit_float0B7_, symObjAddr: 0x26C0, symBinAddr: 0x58B10, symSize: 0x30 }
  - { offset: 0x96931, size: 0x8, addend: 0x0, symName: __RNvNtNtCsdGrGZaRBwMb_3syn3lit5value13parse_lit_int, symObjAddr: 0x4350, symBinAddr: 0x59C60, symSize: 0xAF0 }
  - { offset: 0x96A80, size: 0x8, addend: 0x0, symName: __RNvNtNtCsdGrGZaRBwMb_3syn3lit5value13parse_lit_str, symObjAddr: 0x4E40, symBinAddr: 0x5A750, symSize: 0xB0 }
  - { offset: 0x96AAE, size: 0x8, addend: 0x0, symName: __RNvNtNtCsdGrGZaRBwMb_3syn3lit5value14parse_lit_byte, symObjAddr: 0x4EF0, symBinAddr: 0x5A800, symSize: 0x640 }
  - { offset: 0x96CA8, size: 0x8, addend: 0x0, symName: __RNvNtNtCsdGrGZaRBwMb_3syn3lit5value14parse_lit_char, symObjAddr: 0x5530, symBinAddr: 0x5AE40, symSize: 0x780 }
  - { offset: 0x96E5A, size: 0x8, addend: 0x0, symName: __RNvNtNtCsdGrGZaRBwMb_3syn3lit5value15parse_lit_c_str, symObjAddr: 0x5CB0, symBinAddr: 0x5B5C0, symSize: 0x120 }
  - { offset: 0x96ED4, size: 0x8, addend: 0x0, symName: __RNvNtNtCsdGrGZaRBwMb_3syn3lit5value15parse_lit_float, symObjAddr: 0x5DD0, symBinAddr: 0x5B6E0, symSize: 0xD30 }
  - { offset: 0x97050, size: 0x8, addend: 0x0, symName: __RNvNtNtCsdGrGZaRBwMb_3syn3lit5value17parse_lit_str_raw, symObjAddr: 0x6B00, symBinAddr: 0x5C410, symSize: 0x5F0 }
  - { offset: 0x971BA, size: 0x8, addend: 0x0, symName: __RNvNtNtCsdGrGZaRBwMb_3syn3lit5value18parse_lit_byte_str, symObjAddr: 0x70F0, symBinAddr: 0x5CA00, symSize: 0x120 }
  - { offset: 0x97234, size: 0x8, addend: 0x0, symName: __RNvNtNtCsdGrGZaRBwMb_3syn3lit5value19parse_lit_c_str_raw, symObjAddr: 0x7210, symBinAddr: 0x5CB20, symSize: 0x340 }
  - { offset: 0x97331, size: 0x8, addend: 0x0, symName: __RNvNtNtCsdGrGZaRBwMb_3syn3lit5value20parse_lit_str_cooked, symObjAddr: 0x7550, symBinAddr: 0x5CE60, symSize: 0xA60 }
  - { offset: 0x97507, size: 0x8, addend: 0x0, symName: __RNvNtNtCsdGrGZaRBwMb_3syn3lit5value22parse_lit_byte_str_raw, symObjAddr: 0x7FB0, symBinAddr: 0x5D8C0, symSize: 0x280 }
  - { offset: 0x975C7, size: 0x8, addend: 0x0, symName: __RNvNtNtCsdGrGZaRBwMb_3syn3lit5value22parse_lit_c_str_cooked, symObjAddr: 0x8230, symBinAddr: 0x5DB40, symSize: 0xD20 }
  - { offset: 0x978BB, size: 0x8, addend: 0x0, symName: __RNvNtNtCsdGrGZaRBwMb_3syn3lit5value25parse_lit_byte_str_cooked, symObjAddr: 0x8F50, symBinAddr: 0x5E860, symSize: 0xA10 }
  - { offset: 0x97B41, size: 0x8, addend: 0x0, symName: __RNvNtNtCsdGrGZaRBwMb_3syn3lit5value8next_chr, symObjAddr: 0x9960, symBinAddr: 0x5F270, symSize: 0x40 }
  - { offset: 0x97C78, size: 0x8, addend: 0x0, symName: __RNCNvNtCsdGrGZaRBwMb_3syn3mac15parse_delimiter0B5_, symObjAddr: 0x20F0, symBinAddr: 0x58540, symSize: 0x5D0 }
  - { offset: 0x97D0A, size: 0x8, addend: 0x0, symName: __RNvNtCsdGrGZaRBwMb_3syn3mac15parse_delimiter, symObjAddr: 0x4320, symBinAddr: 0x59C30, symSize: 0x30 }
  - { offset: 0x97D40, size: 0x8, addend: 0x0, symName: __RNvXNtNtCsdGrGZaRBwMb_3syn3mac7parsingNtB4_5MacroNtNtB6_5parse5Parse5parse, symObjAddr: 0x10BD0, symBinAddr: 0x66490, symSize: 0x410 }
  - { offset: 0x97DF6, size: 0x8, addend: 0x0, symName: __RNvXs_NtNtCsdGrGZaRBwMb_3syn3mac8printingNtB6_5MacroNtNtCs9OU1sGv5X54_5quote9to_tokens8ToTokens9to_tokens, symObjAddr: 0x18130, symBinAddr: 0x671B0, symSize: 0x80 }
  - { offset: 0x9B123, size: 0x8, addend: 0x0, symName: __RNvMNtCsdGrGZaRBwMb_3syn3macNtB2_14MacroDelimiter8is_brace, symObjAddr: 0x2990, symBinAddr: 0x58D60, symSize: 0x50 }
  - { offset: 0x9B152, size: 0x8, addend: 0x0, symName: __RNvMNtNtCsdGrGZaRBwMb_3syn3mac8printingNtB4_14MacroDelimiter8surround, symObjAddr: 0x2A40, symBinAddr: 0x58E10, symSize: 0x200 }
  - { offset: 0x9B269, size: 0x8, addend: 0x0, symName: __RNvMNtNtCsdGrGZaRBwMb_3syn3pat7parsingNtB4_3Pat12parse_single, symObjAddr: 0x2C80, symBinAddr: 0x59010, symSize: 0x840 }
  - { offset: 0x9B2BA, size: 0x8, addend: 0x0, symName: __RNvMNtNtCsdGrGZaRBwMb_3syn3pat7parsingNtB4_3Pat29parse_multi_with_leading_vert, symObjAddr: 0x34C0, symBinAddr: 0x59850, symSize: 0xD0 }
  - { offset: 0x9B319, size: 0x8, addend: 0x0, symName: __RNvMs0_NtNtCsdGrGZaRBwMb_3syn3pat7parsingNtB5_13PatRangeBound8into_pat, symObjAddr: 0x3590, symBinAddr: 0x59920, symSize: 0x170 }
  - { offset: 0x9B392, size: 0x8, addend: 0x0, symName: __RNvMs0_NtNtCsdGrGZaRBwMb_3syn3pat7parsingNtB5_13PatRangeBound9into_expr, symObjAddr: 0x3700, symBinAddr: 0x59A90, symSize: 0x1A0 }
  - { offset: 0x9B5DB, size: 0x8, addend: 0x0, symName: __RNvXNtCs9OU1sGv5X54_5quote9to_tokensRNtNtCsdGrGZaRBwMb_3syn3pat3PatNtB2_8ToTokens9to_tokensBD_, symObjAddr: 0x10B20, symBinAddr: 0x66430, symSize: 0x30 }
  - { offset: 0x9B61A, size: 0x8, addend: 0x0, symName: __RNvXNtCs9OU1sGv5X54_5quote9to_tokensRNtNtCsdGrGZaRBwMb_3syn3pat8FieldPatNtB2_8ToTokens9to_tokensBD_, symObjAddr: 0x10B50, symBinAddr: 0x66460, symSize: 0x30 }
  - { offset: 0x9B974, size: 0x8, addend: 0x0, symName: __RINvMs_NtCsdGrGZaRBwMb_3syn4pathNtB5_4Path8is_identeEB7_, symObjAddr: 0x0, symBinAddr: 0x675C0, symSize: 0x80 }
  - { offset: 0xA1F42, size: 0x8, addend: 0x0, symName: __RINvYINtNtNtCsieiGu2EXtoJ_4core5slice4iter4IterNtNtCsdGrGZaRBwMb_3syn4attr9AttributeENtNtNtNtBa_4iter6traits8iterator8Iterator6filterFG0_RL1_RL0_BJ_EbEBN_, symObjAddr: 0xB10, symBinAddr: 0x67780, symSize: 0x20 }
  - { offset: 0xA1FA6, size: 0x8, addend: 0x0, symName: __RNvYINtNtNtCsieiGu2EXtoJ_4core5slice4iter4IterNtNtCsdGrGZaRBwMb_3syn4expr3ArmENtNtNtNtB9_4iter6traits8iterator8Iterator9enumerateBM_, symObjAddr: 0xC3B0, symBinAddr: 0x6FC30, symSize: 0x20 }
  - { offset: 0xA1FF2, size: 0x8, addend: 0x0, symName: __RNvYINtNtNtCsieiGu2EXtoJ_4core5slice4iter4IterhENtNtNtNtB9_4iter6traits8iterator8Iterator3revCsdGrGZaRBwMb_3syn, symObjAddr: 0xC3D0, symBinAddr: 0x6FC50, symSize: 0x20 }
  - { offset: 0xA2035, size: 0x8, addend: 0x0, symName: __RNvXNtNtNtCsieiGu2EXtoJ_4core4iter6traits7collectINtNtNtB8_5slice4iter4IterNtCsaKzlTDPUHDb_11proc_macro24SpanENtB2_12IntoIterator9into_iterCsdGrGZaRBwMb_3syn, symObjAddr: 0x5A60, symBinAddr: 0x6BEE0, symSize: 0x20 }
  - { offset: 0xA206C, size: 0x8, addend: 0x0, symName: __RNvXNtNtNtCsieiGu2EXtoJ_4core4iter6traits7collectINtNtNtB8_5slice4iter4IterNtNtCsdGrGZaRBwMb_3syn4attr9AttributeENtB2_12IntoIterator9into_iterB1f_, symObjAddr: 0x5A80, symBinAddr: 0x6BF00, symSize: 0x20 }
  - { offset: 0xA20A3, size: 0x8, addend: 0x0, symName: __RNvXNtNtNtCsieiGu2EXtoJ_4core4iter6traits7collectINtNtNtB8_5slice4iter4IterNtNtCsdGrGZaRBwMb_3syn4item11ForeignItemENtB2_12IntoIterator9into_iterB1f_, symObjAddr: 0x5AC0, symBinAddr: 0x6BF20, symSize: 0x20 }
  - { offset: 0xA20DA, size: 0x8, addend: 0x0, symName: __RNvXNtNtNtCsieiGu2EXtoJ_4core4iter6traits7collectINtNtNtB8_5slice4iter4IterNtNtCsdGrGZaRBwMb_3syn4item4ItemENtB2_12IntoIterator9into_iterB1f_, symObjAddr: 0x5AE0, symBinAddr: 0x6BF40, symSize: 0x20 }
  - { offset: 0xA2111, size: 0x8, addend: 0x0, symName: __RNvXNtNtNtCsieiGu2EXtoJ_4core4iter6traits7collectINtNtNtB8_5slice4iter4IterNtNtCsdGrGZaRBwMb_3syn4item8ImplItemENtB2_12IntoIterator9into_iterB1f_, symObjAddr: 0x5B00, symBinAddr: 0x6BF60, symSize: 0x20 }
  - { offset: 0xA2148, size: 0x8, addend: 0x0, symName: __RNvXNtNtNtCsieiGu2EXtoJ_4core4iter6traits7collectINtNtNtB8_5slice4iter4IterNtNtCsdGrGZaRBwMb_3syn4item9TraitItemENtB2_12IntoIterator9into_iterB1f_, symObjAddr: 0x5B20, symBinAddr: 0x6BF80, symSize: 0x20 }
  - { offset: 0xA217F, size: 0x8, addend: 0x0, symName: __RNvXNtNtNtCsieiGu2EXtoJ_4core4iter6traits7collectINtNtNtB8_5slice4iter4IterNtNtCsdGrGZaRBwMb_3syn4stmt4StmtENtB2_12IntoIterator9into_iterB1f_, symObjAddr: 0x5B40, symBinAddr: 0x6BFA0, symSize: 0x20 }
  - { offset: 0xA21B6, size: 0x8, addend: 0x0, symName: __RNvXNtNtNtCsieiGu2EXtoJ_4core4iter6traits7collectINtNtNtB8_5slice4iter4IterNtNtCsdGrGZaRBwMb_3syn5error12ErrorMessageENtB2_12IntoIterator9into_iterB1f_, symObjAddr: 0x5B60, symBinAddr: 0x6BFC0, symSize: 0x20 }
  - { offset: 0xA25DB, size: 0x8, addend: 0x0, symName: __RINvXs2E_NtNtCsieiGu2EXtoJ_4core5slice4iterINtB7_4IterNtNtCsdGrGZaRBwMb_3syn4attr9AttributeENtNtNtNtBb_4iter6traits8iterator8Iterator4findQFG0_RL1_RL0_BQ_EbEBU_, symObjAddr: 0x9D0, symBinAddr: 0x67640, symSize: 0xA0 }
  - { offset: 0xA2640, size: 0x8, addend: 0x0, symName: __RINvXs2E_NtNtCsieiGu2EXtoJ_4core5slice4iterINtB7_4IterhENtNtNtNtBb_4iter6traits8iterator8Iterator4findNCNvNtNtCsdGrGZaRBwMb_3syn3lit5value15parse_lit_float0EB1K_, symObjAddr: 0xA70, symBinAddr: 0x676E0, symSize: 0xA0 }
  - { offset: 0xA26A5, size: 0x8, addend: 0x0, symName: __RNvXs2E_NtNtCsieiGu2EXtoJ_4core5slice4iterINtB6_4IterNtCsaKzlTDPUHDb_11proc_macro24SpanENtNtNtNtBa_4iter6traits8iterator8Iterator4nextCsdGrGZaRBwMb_3syn, symObjAddr: 0x7110, symBinAddr: 0x6C860, symSize: 0x90 }
  - { offset: 0xA27C6, size: 0x8, addend: 0x0, symName: __RNvXs2E_NtNtCsieiGu2EXtoJ_4core5slice4iterINtB6_4IterNtNtCsdGrGZaRBwMb_3syn4attr9AttributeENtNtNtNtBa_4iter6traits8iterator8Iterator4nextBT_, symObjAddr: 0x71A0, symBinAddr: 0x6C8F0, symSize: 0x90 }
  - { offset: 0xA28E7, size: 0x8, addend: 0x0, symName: __RNvXs2E_NtNtCsieiGu2EXtoJ_4core5slice4iterINtB6_4IterNtNtCsdGrGZaRBwMb_3syn4expr3ArmENtNtNtNtBa_4iter6traits8iterator8Iterator4nextBT_, symObjAddr: 0x7230, symBinAddr: 0x6C980, symSize: 0x90 }
  - { offset: 0xA2A08, size: 0x8, addend: 0x0, symName: __RNvXs2E_NtNtCsieiGu2EXtoJ_4core5slice4iterINtB6_4IterNtNtCsdGrGZaRBwMb_3syn4item11ForeignItemENtNtNtNtBa_4iter6traits8iterator8Iterator4nextBT_, symObjAddr: 0x72C0, symBinAddr: 0x6CA10, symSize: 0x90 }
  - { offset: 0xA2B29, size: 0x8, addend: 0x0, symName: __RNvXs2E_NtNtCsieiGu2EXtoJ_4core5slice4iterINtB6_4IterNtNtCsdGrGZaRBwMb_3syn4item4ItemENtNtNtNtBa_4iter6traits8iterator8Iterator4nextBT_, symObjAddr: 0x7350, symBinAddr: 0x6CAA0, symSize: 0x90 }
  - { offset: 0xA2C4A, size: 0x8, addend: 0x0, symName: __RNvXs2E_NtNtCsieiGu2EXtoJ_4core5slice4iterINtB6_4IterNtNtCsdGrGZaRBwMb_3syn4item8ImplItemENtNtNtNtBa_4iter6traits8iterator8Iterator4nextBT_, symObjAddr: 0x73E0, symBinAddr: 0x6CB30, symSize: 0x90 }
  - { offset: 0xA2D6B, size: 0x8, addend: 0x0, symName: __RNvXs2E_NtNtCsieiGu2EXtoJ_4core5slice4iterINtB6_4IterNtNtCsdGrGZaRBwMb_3syn4item9TraitItemENtNtNtNtBa_4iter6traits8iterator8Iterator4nextBT_, symObjAddr: 0x7470, symBinAddr: 0x6CBC0, symSize: 0x90 }
  - { offset: 0xA2E8C, size: 0x8, addend: 0x0, symName: __RNvXs2E_NtNtCsieiGu2EXtoJ_4core5slice4iterINtB6_4IterNtNtCsdGrGZaRBwMb_3syn4stmt4StmtENtNtNtNtBa_4iter6traits8iterator8Iterator4nextBT_, symObjAddr: 0x7500, symBinAddr: 0x6CC50, symSize: 0x90 }
  - { offset: 0xA2FAD, size: 0x8, addend: 0x0, symName: __RNvXs2E_NtNtCsieiGu2EXtoJ_4core5slice4iterINtB6_4IterNtNtCsdGrGZaRBwMb_3syn5error12ErrorMessageENtNtNtNtBa_4iter6traits8iterator8Iterator4nextBT_, symObjAddr: 0x7590, symBinAddr: 0x6CCE0, symSize: 0x90 }
  - { offset: 0xA30CE, size: 0x8, addend: 0x0, symName: __RNvXs2E_NtNtCsieiGu2EXtoJ_4core5slice4iterINtB6_4IterTNtNtCsdGrGZaRBwMb_3syn2ty4TypeNtNtBU_5token5CommaEENtNtNtNtBa_4iter6traits8iterator8Iterator4nextBU_, symObjAddr: 0x7620, symBinAddr: 0x6CD70, symSize: 0x90 }
  - { offset: 0xA31EF, size: 0x8, addend: 0x0, symName: __RNvXs2E_NtNtCsieiGu2EXtoJ_4core5slice4iterINtB6_4IterTNtNtCsdGrGZaRBwMb_3syn2ty9BareFnArgNtNtBU_5token5CommaEENtNtNtNtBa_4iter6traits8iterator8Iterator4nextBU_, symObjAddr: 0x76B0, symBinAddr: 0x6CE00, symSize: 0x90 }
  - { offset: 0xA3310, size: 0x8, addend: 0x0, symName: __RNvXs2E_NtNtCsieiGu2EXtoJ_4core5slice4iterINtB6_4IterTNtNtCsdGrGZaRBwMb_3syn3pat3PatNtNtBU_5token2OrEENtNtNtNtBa_4iter6traits8iterator8Iterator4nextBU_, symObjAddr: 0x7740, symBinAddr: 0x6CE90, symSize: 0x90 }
  - { offset: 0xA3431, size: 0x8, addend: 0x0, symName: __RNvXs2E_NtNtCsieiGu2EXtoJ_4core5slice4iterINtB6_4IterTNtNtCsdGrGZaRBwMb_3syn3pat3PatNtNtBU_5token5CommaEENtNtNtNtBa_4iter6traits8iterator8Iterator4nextBU_, symObjAddr: 0x77D0, symBinAddr: 0x6CF20, symSize: 0x90 }
  - { offset: 0xA3552, size: 0x8, addend: 0x0, symName: __RNvXs2E_NtNtCsieiGu2EXtoJ_4core5slice4iterINtB6_4IterTNtNtCsdGrGZaRBwMb_3syn3pat8FieldPatNtNtBU_5token5CommaEENtNtNtNtBa_4iter6traits8iterator8Iterator4nextBU_, symObjAddr: 0x7860, symBinAddr: 0x6CFB0, symSize: 0x90 }
  - { offset: 0xA3673, size: 0x8, addend: 0x0, symName: __RNvXs2E_NtNtCsieiGu2EXtoJ_4core5slice4iterINtB6_4IterTNtNtCsdGrGZaRBwMb_3syn4data5FieldNtNtBU_5token5CommaEENtNtNtNtBa_4iter6traits8iterator8Iterator4nextBU_, symObjAddr: 0x78F0, symBinAddr: 0x6D040, symSize: 0x90 }
  - { offset: 0xA3794, size: 0x8, addend: 0x0, symName: __RNvXs2E_NtNtCsieiGu2EXtoJ_4core5slice4iterINtB6_4IterTNtNtCsdGrGZaRBwMb_3syn4data7VariantNtNtBU_5token5CommaEENtNtNtNtBa_4iter6traits8iterator8Iterator4nextBU_, symObjAddr: 0x7980, symBinAddr: 0x6D0D0, symSize: 0x90 }
  - { offset: 0xA38B5, size: 0x8, addend: 0x0, symName: __RNvXs2E_NtNtCsieiGu2EXtoJ_4core5slice4iterINtB6_4IterTNtNtCsdGrGZaRBwMb_3syn4expr10FieldValueNtNtBU_5token5CommaEENtNtNtNtBa_4iter6traits8iterator8Iterator4nextBU_, symObjAddr: 0x7A10, symBinAddr: 0x6D160, symSize: 0x90 }
  - { offset: 0xA39D6, size: 0x8, addend: 0x0, symName: __RNvXs2E_NtNtCsieiGu2EXtoJ_4core5slice4iterINtB6_4IterTNtNtCsdGrGZaRBwMb_3syn4expr4ExprNtNtBU_5token5CommaEENtNtNtNtBa_4iter6traits8iterator8Iterator4nextBU_, symObjAddr: 0x7AA0, symBinAddr: 0x6D1F0, symSize: 0x90 }
  - { offset: 0xA3AF7, size: 0x8, addend: 0x0, symName: __RNvXs2E_NtNtCsieiGu2EXtoJ_4core5slice4iterINtB6_4IterTNtNtCsdGrGZaRBwMb_3syn4item5FnArgNtNtBU_5token5CommaEENtNtNtNtBa_4iter6traits8iterator8Iterator4nextBU_, symObjAddr: 0x7B30, symBinAddr: 0x6D280, symSize: 0x90 }
  - { offset: 0xA3C18, size: 0x8, addend: 0x0, symName: __RNvXs2E_NtNtCsieiGu2EXtoJ_4core5slice4iterINtB6_4IterTNtNtCsdGrGZaRBwMb_3syn4item7UseTreeNtNtBU_5token5CommaEENtNtNtNtBa_4iter6traits8iterator8Iterator4nextBU_, symObjAddr: 0x7BC0, symBinAddr: 0x6D310, symSize: 0x90 }
  - { offset: 0xA3D39, size: 0x8, addend: 0x0, symName: __RNvXs2E_NtNtCsieiGu2EXtoJ_4core5slice4iterINtB6_4IterTNtNtCsdGrGZaRBwMb_3syn4path11PathSegmentNtNtBU_5token7PathSepEENtNtNtNtBa_4iter6traits8iterator8Iterator4nextBU_, symObjAddr: 0x7C50, symBinAddr: 0x6D3A0, symSize: 0x90 }
  - { offset: 0xA3E5A, size: 0x8, addend: 0x0, symName: __RNvXs2E_NtNtCsieiGu2EXtoJ_4core5slice4iterINtB6_4IterTNtNtCsdGrGZaRBwMb_3syn4path15GenericArgumentNtNtBU_5token5CommaEENtNtNtNtBa_4iter6traits8iterator8Iterator4nextBU_, symObjAddr: 0x7CE0, symBinAddr: 0x6D430, symSize: 0x90 }
  - { offset: 0xA3F7B, size: 0x8, addend: 0x0, symName: __RNvXs2E_NtNtCsieiGu2EXtoJ_4core5slice4iterINtB6_4IterTNtNtCsdGrGZaRBwMb_3syn8generics12GenericParamNtNtBU_5token5CommaEENtNtNtNtBa_4iter6traits8iterator8Iterator4nextBU_, symObjAddr: 0x7D70, symBinAddr: 0x6D4C0, symSize: 0x90 }
  - { offset: 0xA409C, size: 0x8, addend: 0x0, symName: __RNvXs2E_NtNtCsieiGu2EXtoJ_4core5slice4iterINtB6_4IterTNtNtCsdGrGZaRBwMb_3syn8generics13CapturedParamNtNtBU_5token5CommaEENtNtNtNtBa_4iter6traits8iterator8Iterator4nextBU_, symObjAddr: 0x7E00, symBinAddr: 0x6D550, symSize: 0x90 }
  - { offset: 0xA41BD, size: 0x8, addend: 0x0, symName: __RNvXs2E_NtNtCsieiGu2EXtoJ_4core5slice4iterINtB6_4IterTNtNtCsdGrGZaRBwMb_3syn8generics14TypeParamBoundNtNtBU_5token4PlusEENtNtNtNtBa_4iter6traits8iterator8Iterator4nextBU_, symObjAddr: 0x7E90, symBinAddr: 0x6D5E0, symSize: 0x90 }
  - { offset: 0xA42DE, size: 0x8, addend: 0x0, symName: __RNvXs2E_NtNtCsieiGu2EXtoJ_4core5slice4iterINtB6_4IterTNtNtCsdGrGZaRBwMb_3syn8generics14WherePredicateNtNtBU_5token5CommaEENtNtNtNtBa_4iter6traits8iterator8Iterator4nextBU_, symObjAddr: 0x7F20, symBinAddr: 0x6D670, symSize: 0x90 }
  - { offset: 0xA43FF, size: 0x8, addend: 0x0, symName: __RNvXs2E_NtNtCsieiGu2EXtoJ_4core5slice4iterINtB6_4IterTNtNtCsdGrGZaRBwMb_3syn8lifetime8LifetimeNtNtBU_5token4PlusEENtNtNtNtBa_4iter6traits8iterator8Iterator4nextBU_, symObjAddr: 0x7FB0, symBinAddr: 0x6D700, symSize: 0x90 }
  - { offset: 0xA4D90, size: 0x8, addend: 0x0, symName: __RNvXs2F_NtNtCsieiGu2EXtoJ_4core5slice4iterINtB6_4IterNtCsaKzlTDPUHDb_11proc_macro24SpanENtNtNtNtBa_4iter6traits12double_ended19DoubleEndedIterator9next_backCsdGrGZaRBwMb_3syn, symObjAddr: 0x8040, symBinAddr: 0x6D790, symSize: 0x100 }
  - { offset: 0xA4EDF, size: 0x8, addend: 0x0, symName: __RNvXs2F_NtNtCsieiGu2EXtoJ_4core5slice4iterINtB6_4IterTNtNtCsdGrGZaRBwMb_3syn4path11PathSegmentNtNtBU_5token7PathSepEENtNtNtNtBa_4iter6traits12double_ended19DoubleEndedIterator9next_backBU_, symObjAddr: 0x8340, symBinAddr: 0x6D890, symSize: 0x100 }
  - { offset: 0xA502E, size: 0x8, addend: 0x0, symName: __RNvXs2F_NtNtCsieiGu2EXtoJ_4core5slice4iterINtB6_4IterTNtNtCsdGrGZaRBwMb_3syn8generics14TypeParamBoundNtNtBU_5token4PlusEENtNtNtNtBa_4iter6traits12double_ended19DoubleEndedIterator9next_backBU_, symObjAddr: 0x8540, symBinAddr: 0x6D990, symSize: 0x100 }
  - { offset: 0xA517D, size: 0x8, addend: 0x0, symName: __RNvXs2F_NtNtCsieiGu2EXtoJ_4core5slice4iterINtB6_4IterhENtNtNtNtBa_4iter6traits12double_ended19DoubleEndedIterator9next_backCsdGrGZaRBwMb_3syn, symObjAddr: 0x8640, symBinAddr: 0x6DA90, symSize: 0x100 }
  - { offset: 0xA5349, size: 0x8, addend: 0x0, symName: __RNvXs2M_NtNtCsieiGu2EXtoJ_4core5slice4iterINtB6_7IterMutTNtNtCsdGrGZaRBwMb_3syn4path11PathSegmentNtNtBX_5token7PathSepEENtNtNtNtBa_4iter6traits8iterator8Iterator4nextBX_, symObjAddr: 0x87D0, symBinAddr: 0x6DB90, symSize: 0x90 }
  - { offset: 0xA5455, size: 0x8, addend: 0x0, symName: __RNvXs2M_NtNtCsieiGu2EXtoJ_4core5slice4iterINtB6_7IterMuthENtNtNtNtBa_4iter6traits8iterator8Iterator4nextCsdGrGZaRBwMb_3syn, symObjAddr: 0x88F0, symBinAddr: 0x6DC20, symSize: 0x90 }
  - { offset: 0xA5567, size: 0x8, addend: 0x0, symName: __RNvXs2N_NtNtCsieiGu2EXtoJ_4core5slice4iterINtB6_7IterMutTNtNtCsdGrGZaRBwMb_3syn4path11PathSegmentNtNtBX_5token7PathSepEENtNtNtNtBa_4iter6traits12double_ended19DoubleEndedIterator9next_backBX_, symObjAddr: 0x8A80, symBinAddr: 0x6DCB0, symSize: 0x100 }
  - { offset: 0xA56BC, size: 0x8, addend: 0x0, symName: __RNvXs5_NtNtCsieiGu2EXtoJ_4core5slice4iterINtB5_4IterTNtNtCsdGrGZaRBwMb_3syn4path11PathSegmentNtNtBT_5token7PathSepEENtNtB9_5clone5Clone5cloneBT_, symObjAddr: 0xA2D0, symBinAddr: 0x6E420, symSize: 0x20 }
  - { offset: 0xA56F1, size: 0x8, addend: 0x0, symName: __RNvXs5_NtNtCsieiGu2EXtoJ_4core5slice4iterINtB5_4IterTNtNtCsdGrGZaRBwMb_3syn8generics14TypeParamBoundNtNtBT_5token4PlusEENtNtB9_5clone5Clone5cloneBT_, symObjAddr: 0xA310, symBinAddr: 0x6E440, symSize: 0x20 }
  - { offset: 0xA5780, size: 0x8, addend: 0x0, symName: __RNvXs_NtNtCsieiGu2EXtoJ_4core5slice4iterRSReNtNtNtNtB8_4iter6traits7collect12IntoIterator9into_iterCsdGrGZaRBwMb_3syn, symObjAddr: 0xBDD0, symBinAddr: 0x6FAA0, symSize: 0x50 }
  - { offset: 0xA5A05, size: 0x8, addend: 0x0, symName: __RNvMNtCsieiGu2EXtoJ_4core5sliceSTNtNtCsdGrGZaRBwMb_3syn4path11PathSegmentNtNtBz_5token7PathSepE4iterBz_, symObjAddr: 0x1730, symBinAddr: 0x68060, symSize: 0x20 }
  - { offset: 0xA5A3C, size: 0x8, addend: 0x0, symName: __RNvMNtCsieiGu2EXtoJ_4core5sliceSTNtNtCsdGrGZaRBwMb_3syn4path11PathSegmentNtNtBz_5token7PathSepE8iter_mutBz_, symObjAddr: 0x1750, symBinAddr: 0x68080, symSize: 0x20 }
  - { offset: 0xA5A73, size: 0x8, addend: 0x0, symName: __RNvMNtCsieiGu2EXtoJ_4core5sliceSTNtNtCsdGrGZaRBwMb_3syn4path15GenericArgumentNtNtBz_5token5CommaE4iterBz_, symObjAddr: 0x1770, symBinAddr: 0x680A0, symSize: 0x20 }
  - { offset: 0xA5B6F, size: 0x8, addend: 0x0, symName: __RNvNvMNtNtCsieiGu2EXtoJ_4core5alloc6layoutNtB4_6Layout25from_size_align_unchecked18precondition_checkCsdGrGZaRBwMb_3syn, symObjAddr: 0x5710, symBinAddr: 0x6BC60, symSize: 0xB0 }
  - { offset: 0xA76E1, size: 0x8, addend: 0x0, symName: __RNcNtNtNtCsdGrGZaRBwMb_3syn4path15GenericArgument5Const0B7_, symObjAddr: 0x16F0, symBinAddr: 0x68020, symSize: 0x40 }
  - { offset: 0xA7711, size: 0x8, addend: 0x0, symName: __RNvXNtCsdGrGZaRBwMb_3syn4pathNtB2_4PathINtNtCsieiGu2EXtoJ_4core7convert4FromNtCsaKzlTDPUHDb_11proc_macro25IdentE4fromB4_, symObjAddr: 0x57F0, symBinAddr: 0x6BD40, symSize: 0x170 }
  - { offset: 0xA7768, size: 0x8, addend: 0x0, symName: __RNvXNtNtCsdGrGZaRBwMb_3syn4path7parsingNtB4_4PathNtNtB6_5parse5Parse5parse, symObjAddr: 0x5960, symBinAddr: 0x6BEB0, symSize: 0x30 }
  - { offset: 0xA779C, size: 0x8, addend: 0x0, symName: __RNvXs1_NtNtCsdGrGZaRBwMb_3syn4path7parsingNtB7_30AngleBracketedGenericArgumentsNtNtB9_5parse5Parse5parse, symObjAddr: 0x6A20, symBinAddr: 0x6C790, symSize: 0xD0 }
  - { offset: 0xA780C, size: 0x8, addend: 0x0, symName: __RNvXs2_NtNtCsdGrGZaRBwMb_3syn4path7parsingNtB7_29ParenthesizedGenericArgumentsNtNtB9_5parse5Parse5parse, symObjAddr: 0x8F10, symBinAddr: 0x6DDB0, symSize: 0x4A0 }
  - { offset: 0xA78E8, size: 0x8, addend: 0x0, symName: __RNvXs_NtNtCsdGrGZaRBwMb_3syn4path7parsingNtB6_15GenericArgumentNtNtB8_5parse5Parse5parse, symObjAddr: 0xA860, symBinAddr: 0x6E530, symSize: 0x1570 }
  - { offset: 0xA7BBA, size: 0x8, addend: 0x0, symName: __RNvXs0_NtCsdGrGZaRBwMb_3syn4pathNtB5_11PathSegmentINtNtCsieiGu2EXtoJ_4core7convert4FromNtCsaKzlTDPUHDb_11proc_macro25IdentE4fromB7_, symObjAddr: 0x5B80, symBinAddr: 0x6BFE0, symSize: 0x70 }
  - { offset: 0xA7BFB, size: 0x8, addend: 0x0, symName: __RNvXs0_NtNtCsdGrGZaRBwMb_3syn4path8printingNtB7_4PathNtNtCs9OU1sGv5X54_5quote9to_tokens8ToTokens9to_tokens, symObjAddr: 0x5BF0, symBinAddr: 0x6C050, symSize: 0x40 }
  - { offset: 0xA7C3A, size: 0x8, addend: 0x0, symName: __RNvXs3_NtNtCsdGrGZaRBwMb_3syn4path8printingNtB7_15GenericArgumentNtNtCs9OU1sGv5X54_5quote9to_tokens8ToTokens9to_tokens, symObjAddr: 0x9A50, symBinAddr: 0x6E250, symSize: 0x120 }
  - { offset: 0xA7D25, size: 0x8, addend: 0x0, symName: __RNvXs4_NtNtCsdGrGZaRBwMb_3syn4path8printingNtB7_30AngleBracketedGenericArgumentsNtNtCs9OU1sGv5X54_5quote9to_tokens8ToTokens9to_tokens, symObjAddr: 0xA0C0, symBinAddr: 0x6E370, symSize: 0x40 }
  - { offset: 0xA7D64, size: 0x8, addend: 0x0, symName: __RNvXs5_NtNtCsdGrGZaRBwMb_3syn4path8printingNtB7_9AssocTypeNtNtCs9OU1sGv5X54_5quote9to_tokens8ToTokens9to_tokens, symObjAddr: 0xA220, symBinAddr: 0x6E3B0, symSize: 0x70 }
  - { offset: 0xA7DA3, size: 0x8, addend: 0x0, symName: __RNvXs6_NtNtCsdGrGZaRBwMb_3syn4path8printingNtB7_10AssocConstNtNtCs9OU1sGv5X54_5quote9to_tokens8ToTokens9to_tokens, symObjAddr: 0xA330, symBinAddr: 0x6E460, symSize: 0x70 }
  - { offset: 0xA7DE2, size: 0x8, addend: 0x0, symName: __RNvXs7_NtNtCsdGrGZaRBwMb_3syn4path8printingNtB7_10ConstraintNtNtCs9OU1sGv5X54_5quote9to_tokens8ToTokens9to_tokens, symObjAddr: 0xA430, symBinAddr: 0x6E4D0, symSize: 0x60 }
  - { offset: 0xA8397, size: 0x8, addend: 0x0, symName: __RNCNvXNtNtCsdGrGZaRBwMb_3syn2ty8printingNtB6_9TypeSliceNtNtCs9OU1sGv5X54_5quote9to_tokens8ToTokens9to_tokens0B8_, symObjAddr: 0xFF0, symBinAddr: 0x67920, symSize: 0x30 }
  - { offset: 0xA83DE, size: 0x8, addend: 0x0, symName: __RNCNvXs2_NtNtCsdGrGZaRBwMb_3syn2ty8printingNtB9_10TypeBareFnNtNtCs9OU1sGv5X54_5quote9to_tokens8ToTokens9to_tokens0Bb_, symObjAddr: 0x1050, symBinAddr: 0x67980, symSize: 0xC0 }
  - { offset: 0xA8459, size: 0x8, addend: 0x0, symName: __RNCNvXs4_NtNtCsdGrGZaRBwMb_3syn2ty8printingNtB9_9TypeTupleNtNtCs9OU1sGv5X54_5quote9to_tokens8ToTokens9to_tokens0Bb_, symObjAddr: 0x1220, symBinAddr: 0x67B50, symSize: 0x80 }
  - { offset: 0xA84A0, size: 0x8, addend: 0x0, symName: __RNCNvXs8_NtNtCsdGrGZaRBwMb_3syn2ty8printingNtB9_9TypeGroupNtNtCs9OU1sGv5X54_5quote9to_tokens8ToTokens9to_tokens0Bb_, symObjAddr: 0x1330, symBinAddr: 0x67C60, symSize: 0x30 }
  - { offset: 0xA84E7, size: 0x8, addend: 0x0, symName: __RNCNvXs9_NtNtCsdGrGZaRBwMb_3syn2ty8printingNtB9_9TypeParenNtNtCs9OU1sGv5X54_5quote9to_tokens8ToTokens9to_tokens0Bb_, symObjAddr: 0x1360, symBinAddr: 0x67C90, symSize: 0x30 }
  - { offset: 0xA852E, size: 0x8, addend: 0x0, symName: __RNCNvXs_NtNtCsdGrGZaRBwMb_3syn2ty8printingNtB8_9TypeArrayNtNtCs9OU1sGv5X54_5quote9to_tokens8ToTokens9to_tokens0Ba_, symObjAddr: 0x13F0, symBinAddr: 0x67D20, symSize: 0x60 }
  - { offset: 0xA971C, size: 0x8, addend: 0x0, symName: __RNCNvXNtNtCsdGrGZaRBwMb_3syn4attr8printingNtB6_9AttributeNtNtCs9OU1sGv5X54_5quote9to_tokens8ToTokens9to_tokens0B8_, symObjAddr: 0x1020, symBinAddr: 0x67950, symSize: 0x30 }
  - { offset: 0xAB370, size: 0x8, addend: 0x0, symName: __RNCNvXs2_NtNtCsdGrGZaRBwMb_3syn4item8printingNtB9_6ItemFnNtNtCs9OU1sGv5X54_5quote9to_tokens8ToTokens9to_tokens0Bb_, symObjAddr: 0x1110, symBinAddr: 0x67A40, symSize: 0xB0 }
  - { offset: 0xAB3B7, size: 0x8, addend: 0x0, symName: __RNCNvXs3_NtNtCsdGrGZaRBwMb_3syn4item8printingNtB9_7ItemModNtNtCs9OU1sGv5X54_5quote9to_tokens8ToTokens9to_tokens0Bb_, symObjAddr: 0x11C0, symBinAddr: 0x67AF0, symSize: 0x60 }
  - { offset: 0xAB411, size: 0x8, addend: 0x0, symName: __RNCNvXs4_NtNtCsdGrGZaRBwMb_3syn4item8printingNtB9_14ItemForeignModNtNtCs9OU1sGv5X54_5quote9to_tokens8ToTokens9to_tokens0Bb_, symObjAddr: 0x12A0, symBinAddr: 0x67BD0, symSize: 0x60 }
  - { offset: 0xAB458, size: 0x8, addend: 0x0, symName: __RNCNvXs6_NtNtCsdGrGZaRBwMb_3syn4item8printingNtB9_8ItemEnumNtNtCs9OU1sGv5X54_5quote9to_tokens8ToTokens9to_tokens0Bb_, symObjAddr: 0x1300, symBinAddr: 0x67C30, symSize: 0x30 }
  - { offset: 0xAB49F, size: 0x8, addend: 0x0, symName: __RNCNvXs9_NtNtCsdGrGZaRBwMb_3syn4item8printingNtB9_9ItemTraitNtNtCs9OU1sGv5X54_5quote9to_tokens8ToTokens9to_tokens0Bb_, symObjAddr: 0x1390, symBinAddr: 0x67CC0, symSize: 0x60 }
  - { offset: 0xAB4E6, size: 0x8, addend: 0x0, symName: __RNCNvXsb_NtNtCsdGrGZaRBwMb_3syn4item8printingNtB9_8ItemImplNtNtCs9OU1sGv5X54_5quote9to_tokens8ToTokens9to_tokens0Bb_, symObjAddr: 0x1450, symBinAddr: 0x67D80, symSize: 0x60 }
  - { offset: 0xAB52D, size: 0x8, addend: 0x0, symName: __RNCNvXsc_NtNtCsdGrGZaRBwMb_3syn4item8printingNtB9_9ItemMacroNtNtCs9OU1sGv5X54_5quote9to_tokens8ToTokens9to_tokens0Bb_, symObjAddr: 0x14B0, symBinAddr: 0x67DE0, symSize: 0x30 }
  - { offset: 0xAB568, size: 0x8, addend: 0x0, symName: __RNCNvXsc_NtNtCsdGrGZaRBwMb_3syn4item8printingNtB9_9ItemMacroNtNtCs9OU1sGv5X54_5quote9to_tokens8ToTokens9to_tokenss0_0Bb_, symObjAddr: 0x14E0, symBinAddr: 0x67E10, symSize: 0x30 }
  - { offset: 0xAB5A3, size: 0x8, addend: 0x0, symName: __RNCNvXsc_NtNtCsdGrGZaRBwMb_3syn4item8printingNtB9_9ItemMacroNtNtCs9OU1sGv5X54_5quote9to_tokens8ToTokens9to_tokenss_0Bb_, symObjAddr: 0x1510, symBinAddr: 0x67E40, symSize: 0x30 }
  - { offset: 0xAB5EA, size: 0x8, addend: 0x0, symName: __RNCNvXsh_NtNtCsdGrGZaRBwMb_3syn4item8printingNtB9_8UseGroupNtNtCs9OU1sGv5X54_5quote9to_tokens8ToTokens9to_tokens0Bb_, symObjAddr: 0x1540, symBinAddr: 0x67E70, symSize: 0x30 }
  - { offset: 0xAB631, size: 0x8, addend: 0x0, symName: __RNCNvXsj_NtNtCsdGrGZaRBwMb_3syn4item8printingNtB9_11TraitItemFnNtNtCs9OU1sGv5X54_5quote9to_tokens8ToTokens9to_tokens0Bb_, symObjAddr: 0x1570, symBinAddr: 0x67EA0, symSize: 0x60 }
  - { offset: 0xAB68B, size: 0x8, addend: 0x0, symName: __RNCNvXsn_NtNtCsdGrGZaRBwMb_3syn4item8printingNtB9_10ImplItemFnNtNtCs9OU1sGv5X54_5quote9to_tokens8ToTokens9to_tokens0Bb_, symObjAddr: 0x15D0, symBinAddr: 0x67F00, symSize: 0x60 }
  - { offset: 0xAB6D2, size: 0x8, addend: 0x0, symName: __RNCNvXsu_NtNtCsdGrGZaRBwMb_3syn4item8printingNtB9_9SignatureNtNtCs9OU1sGv5X54_5quote9to_tokens8ToTokens9to_tokens0Bb_, symObjAddr: 0x1630, symBinAddr: 0x67F60, symSize: 0xC0 }
  - { offset: 0xAC265, size: 0x8, addend: 0x0, symName: __RNCNvXNtCsdGrGZaRBwMb_3syn3extNtCsaKzlTDPUHDb_11proc_macro25IdentNtB4_8IdentExt9parse_any0B6_, symObjAddr: 0xE70, symBinAddr: 0x677A0, symSize: 0x180 }
  - { offset: 0xAD231, size: 0x8, addend: 0x0, symName: __RNvYINtNtCslJiobkLta79_5alloc2rc7RcInnerINtNtCsieiGu2EXtoJ_4core4cell4CellNtNtCsdGrGZaRBwMb_3syn5parse10UnexpectedEENtB5_10RcInnerPtr10inc_strongB1e_, symObjAddr: 0xC310, symBinAddr: 0x6FB90, symSize: 0x80 }
  - { offset: 0xAD353, size: 0x8, addend: 0x0, symName: __RNvYINtNtCslJiobkLta79_5alloc2rc7RcInnerINtNtCsieiGu2EXtoJ_4core4cell4CellNtNtCsdGrGZaRBwMb_3syn5parse10UnexpectedEENtB5_10RcInnerPtr6strongB1e_, symObjAddr: 0xC390, symBinAddr: 0x6FC10, symSize: 0x20 }
  - { offset: 0xAD3AE, size: 0x8, addend: 0x0, symName: __RNvXs19_NtCslJiobkLta79_5alloc2rcINtB6_4WeakINtNtCsieiGu2EXtoJ_4core4cell4CellNtNtCsdGrGZaRBwMb_3syn5parse10UnexpectedERNtNtB8_5alloc6GlobalENtNtNtBL_3ops4drop4Drop4dropB1i_, symObjAddr: 0x5CB0, symBinAddr: 0x6C090, symSize: 0x160 }
  - { offset: 0xAD634, size: 0x8, addend: 0x0, symName: __RNvXsu_NtCslJiobkLta79_5alloc2rcINtB5_2RcINtNtCsieiGu2EXtoJ_4core4cell4CellNtNtCsdGrGZaRBwMb_3syn5parse10UnexpectedEENtNtNtBI_3ops4drop4Drop4dropB1f_, symObjAddr: 0xC270, symBinAddr: 0x6FAF0, symSize: 0x60 }
  - { offset: 0xAD83E, size: 0x8, addend: 0x0, symName: __RNvXsv_NtCslJiobkLta79_5alloc2rcINtB5_2RcINtNtCsieiGu2EXtoJ_4core4cell4CellNtNtCsdGrGZaRBwMb_3syn5parse10UnexpectedEENtNtBI_5clone5Clone5cloneB1f_, symObjAddr: 0xC2D0, symBinAddr: 0x6FB50, symSize: 0x40 }
  - { offset: 0xAEEC1, size: 0x8, addend: 0x0, symName: __RNvXs1_NtCslJiobkLta79_5alloc7raw_vecINtB5_6RawVecNtNtCsdGrGZaRBwMb_3syn4attr9AttributeENtNtNtCsieiGu2EXtoJ_4core3ops4drop4Drop4dropBQ_, symObjAddr: 0x6250, symBinAddr: 0x6C1F0, symSize: 0x30 }
  - { offset: 0xAEEFD, size: 0x8, addend: 0x0, symName: __RNvXs1_NtCslJiobkLta79_5alloc7raw_vecINtB5_6RawVecNtNtCsdGrGZaRBwMb_3syn4expr3ArmENtNtNtCsieiGu2EXtoJ_4core3ops4drop4Drop4dropBQ_, symObjAddr: 0x62B0, symBinAddr: 0x6C220, symSize: 0x30 }
  - { offset: 0xAEF39, size: 0x8, addend: 0x0, symName: __RNvXs1_NtCslJiobkLta79_5alloc7raw_vecINtB5_6RawVecNtNtCsdGrGZaRBwMb_3syn4expr6ExprIfENtNtNtCsieiGu2EXtoJ_4core3ops4drop4Drop4dropBQ_, symObjAddr: 0x62E0, symBinAddr: 0x6C250, symSize: 0x30 }
  - { offset: 0xAEF75, size: 0x8, addend: 0x0, symName: __RNvXs1_NtCslJiobkLta79_5alloc7raw_vecINtB5_6RawVecNtNtCsdGrGZaRBwMb_3syn4item11ForeignItemENtNtNtCsieiGu2EXtoJ_4core3ops4drop4Drop4dropBQ_, symObjAddr: 0x6310, symBinAddr: 0x6C280, symSize: 0x30 }
  - { offset: 0xAEFB1, size: 0x8, addend: 0x0, symName: __RNvXs1_NtCslJiobkLta79_5alloc7raw_vecINtB5_6RawVecNtNtCsdGrGZaRBwMb_3syn4item4ItemENtNtNtCsieiGu2EXtoJ_4core3ops4drop4Drop4dropBQ_, symObjAddr: 0x6340, symBinAddr: 0x6C2B0, symSize: 0x30 }
  - { offset: 0xAEFED, size: 0x8, addend: 0x0, symName: __RNvXs1_NtCslJiobkLta79_5alloc7raw_vecINtB5_6RawVecNtNtCsdGrGZaRBwMb_3syn4item8ImplItemENtNtNtCsieiGu2EXtoJ_4core3ops4drop4Drop4dropBQ_, symObjAddr: 0x6370, symBinAddr: 0x6C2E0, symSize: 0x30 }
  - { offset: 0xAF029, size: 0x8, addend: 0x0, symName: __RNvXs1_NtCslJiobkLta79_5alloc7raw_vecINtB5_6RawVecNtNtCsdGrGZaRBwMb_3syn4item9TraitItemENtNtNtCsieiGu2EXtoJ_4core3ops4drop4Drop4dropBQ_, symObjAddr: 0x63A0, symBinAddr: 0x6C310, symSize: 0x30 }
  - { offset: 0xAF065, size: 0x8, addend: 0x0, symName: __RNvXs1_NtCslJiobkLta79_5alloc7raw_vecINtB5_6RawVecNtNtCsdGrGZaRBwMb_3syn4stmt4StmtENtNtNtCsieiGu2EXtoJ_4core3ops4drop4Drop4dropBQ_, symObjAddr: 0x63D0, symBinAddr: 0x6C340, symSize: 0x30 }
  - { offset: 0xAF0A1, size: 0x8, addend: 0x0, symName: __RNvXs1_NtCslJiobkLta79_5alloc7raw_vecINtB5_6RawVecNtNtCsdGrGZaRBwMb_3syn5error12ErrorMessageENtNtNtCsieiGu2EXtoJ_4core3ops4drop4Drop4dropBQ_, symObjAddr: 0x6400, symBinAddr: 0x6C370, symSize: 0x30 }
  - { offset: 0xAF0DD, size: 0x8, addend: 0x0, symName: __RNvXs1_NtCslJiobkLta79_5alloc7raw_vecINtB5_6RawVecNtNtCsdGrGZaRBwMb_3syn6buffer5EntryENtNtNtCsieiGu2EXtoJ_4core3ops4drop4Drop4dropBQ_, symObjAddr: 0x6430, symBinAddr: 0x6C3A0, symSize: 0x30 }
  - { offset: 0xAF119, size: 0x8, addend: 0x0, symName: __RNvXs1_NtCslJiobkLta79_5alloc7raw_vecINtB5_6RawVecNtNtCsdGrGZaRBwMb_3syn8generics14TypeParamBoundENtNtNtCsieiGu2EXtoJ_4core3ops4drop4Drop4dropBQ_, symObjAddr: 0x6460, symBinAddr: 0x6C3D0, symSize: 0x30 }
  - { offset: 0xAF155, size: 0x8, addend: 0x0, symName: __RNvXs1_NtCslJiobkLta79_5alloc7raw_vecINtB5_6RawVecReENtNtNtCsieiGu2EXtoJ_4core3ops4drop4Drop4dropCsdGrGZaRBwMb_3syn, symObjAddr: 0x6490, symBinAddr: 0x6C400, symSize: 0x30 }
  - { offset: 0xAF191, size: 0x8, addend: 0x0, symName: __RNvXs1_NtCslJiobkLta79_5alloc7raw_vecINtB5_6RawVecTNtNtCsdGrGZaRBwMb_3syn2ty4TypeNtNtBR_5token5CommaEENtNtNtCsieiGu2EXtoJ_4core3ops4drop4Drop4dropBR_, symObjAddr: 0x64C0, symBinAddr: 0x6C430, symSize: 0x30 }
  - { offset: 0xAF1CD, size: 0x8, addend: 0x0, symName: __RNvXs1_NtCslJiobkLta79_5alloc7raw_vecINtB5_6RawVecTNtNtCsdGrGZaRBwMb_3syn2ty9BareFnArgNtNtBR_5token5CommaEENtNtNtCsieiGu2EXtoJ_4core3ops4drop4Drop4dropBR_, symObjAddr: 0x64F0, symBinAddr: 0x6C460, symSize: 0x30 }
  - { offset: 0xAF209, size: 0x8, addend: 0x0, symName: __RNvXs1_NtCslJiobkLta79_5alloc7raw_vecINtB5_6RawVecTNtNtCsdGrGZaRBwMb_3syn3pat3PatNtNtBR_5token2OrEENtNtNtCsieiGu2EXtoJ_4core3ops4drop4Drop4dropBR_, symObjAddr: 0x6520, symBinAddr: 0x6C490, symSize: 0x30 }
  - { offset: 0xAF245, size: 0x8, addend: 0x0, symName: __RNvXs1_NtCslJiobkLta79_5alloc7raw_vecINtB5_6RawVecTNtNtCsdGrGZaRBwMb_3syn3pat3PatNtNtBR_5token5CommaEENtNtNtCsieiGu2EXtoJ_4core3ops4drop4Drop4dropBR_, symObjAddr: 0x6550, symBinAddr: 0x6C4C0, symSize: 0x30 }
  - { offset: 0xAF281, size: 0x8, addend: 0x0, symName: __RNvXs1_NtCslJiobkLta79_5alloc7raw_vecINtB5_6RawVecTNtNtCsdGrGZaRBwMb_3syn3pat8FieldPatNtNtBR_5token5CommaEENtNtNtCsieiGu2EXtoJ_4core3ops4drop4Drop4dropBR_, symObjAddr: 0x6580, symBinAddr: 0x6C4F0, symSize: 0x30 }
  - { offset: 0xAF2BD, size: 0x8, addend: 0x0, symName: __RNvXs1_NtCslJiobkLta79_5alloc7raw_vecINtB5_6RawVecTNtNtCsdGrGZaRBwMb_3syn4data5FieldNtNtBR_5token5CommaEENtNtNtCsieiGu2EXtoJ_4core3ops4drop4Drop4dropBR_, symObjAddr: 0x65B0, symBinAddr: 0x6C520, symSize: 0x30 }
  - { offset: 0xAF2F9, size: 0x8, addend: 0x0, symName: __RNvXs1_NtCslJiobkLta79_5alloc7raw_vecINtB5_6RawVecTNtNtCsdGrGZaRBwMb_3syn4data7VariantNtNtBR_5token5CommaEENtNtNtCsieiGu2EXtoJ_4core3ops4drop4Drop4dropBR_, symObjAddr: 0x6610, symBinAddr: 0x6C550, symSize: 0x30 }
  - { offset: 0xAF335, size: 0x8, addend: 0x0, symName: __RNvXs1_NtCslJiobkLta79_5alloc7raw_vecINtB5_6RawVecTNtNtCsdGrGZaRBwMb_3syn4expr10FieldValueNtNtBR_5token5CommaEENtNtNtCsieiGu2EXtoJ_4core3ops4drop4Drop4dropBR_, symObjAddr: 0x6640, symBinAddr: 0x6C580, symSize: 0x30 }
  - { offset: 0xAF371, size: 0x8, addend: 0x0, symName: __RNvXs1_NtCslJiobkLta79_5alloc7raw_vecINtB5_6RawVecTNtNtCsdGrGZaRBwMb_3syn4expr4ExprNtNtBR_5token5CommaEENtNtNtCsieiGu2EXtoJ_4core3ops4drop4Drop4dropBR_, symObjAddr: 0x6670, symBinAddr: 0x6C5B0, symSize: 0x30 }
  - { offset: 0xAF3AD, size: 0x8, addend: 0x0, symName: __RNvXs1_NtCslJiobkLta79_5alloc7raw_vecINtB5_6RawVecTNtNtCsdGrGZaRBwMb_3syn4item5FnArgNtNtBR_5token5CommaEENtNtNtCsieiGu2EXtoJ_4core3ops4drop4Drop4dropBR_, symObjAddr: 0x66A0, symBinAddr: 0x6C5E0, symSize: 0x30 }
  - { offset: 0xAF3E9, size: 0x8, addend: 0x0, symName: __RNvXs1_NtCslJiobkLta79_5alloc7raw_vecINtB5_6RawVecTNtNtCsdGrGZaRBwMb_3syn4item7UseTreeNtNtBR_5token5CommaEENtNtNtCsieiGu2EXtoJ_4core3ops4drop4Drop4dropBR_, symObjAddr: 0x66D0, symBinAddr: 0x6C610, symSize: 0x30 }
  - { offset: 0xAF425, size: 0x8, addend: 0x0, symName: __RNvXs1_NtCslJiobkLta79_5alloc7raw_vecINtB5_6RawVecTNtNtCsdGrGZaRBwMb_3syn4path11PathSegmentNtNtBR_5token7PathSepEENtNtNtCsieiGu2EXtoJ_4core3ops4drop4Drop4dropBR_, symObjAddr: 0x6700, symBinAddr: 0x6C640, symSize: 0x30 }
  - { offset: 0xAF461, size: 0x8, addend: 0x0, symName: __RNvXs1_NtCslJiobkLta79_5alloc7raw_vecINtB5_6RawVecTNtNtCsdGrGZaRBwMb_3syn4path15GenericArgumentNtNtBR_5token5CommaEENtNtNtCsieiGu2EXtoJ_4core3ops4drop4Drop4dropBR_, symObjAddr: 0x6730, symBinAddr: 0x6C670, symSize: 0x30 }
  - { offset: 0xAF49D, size: 0x8, addend: 0x0, symName: __RNvXs1_NtCslJiobkLta79_5alloc7raw_vecINtB5_6RawVecTNtNtCsdGrGZaRBwMb_3syn8generics12GenericParamNtNtBR_5token5CommaEENtNtNtCsieiGu2EXtoJ_4core3ops4drop4Drop4dropBR_, symObjAddr: 0x6760, symBinAddr: 0x6C6A0, symSize: 0x30 }
  - { offset: 0xAF4D9, size: 0x8, addend: 0x0, symName: __RNvXs1_NtCslJiobkLta79_5alloc7raw_vecINtB5_6RawVecTNtNtCsdGrGZaRBwMb_3syn8generics13CapturedParamNtNtBR_5token5CommaEENtNtNtCsieiGu2EXtoJ_4core3ops4drop4Drop4dropBR_, symObjAddr: 0x6790, symBinAddr: 0x6C6D0, symSize: 0x30 }
  - { offset: 0xAF515, size: 0x8, addend: 0x0, symName: __RNvXs1_NtCslJiobkLta79_5alloc7raw_vecINtB5_6RawVecTNtNtCsdGrGZaRBwMb_3syn8generics14TypeParamBoundNtNtBR_5token4PlusEENtNtNtCsieiGu2EXtoJ_4core3ops4drop4Drop4dropBR_, symObjAddr: 0x67C0, symBinAddr: 0x6C700, symSize: 0x30 }
  - { offset: 0xAF551, size: 0x8, addend: 0x0, symName: __RNvXs1_NtCslJiobkLta79_5alloc7raw_vecINtB5_6RawVecTNtNtCsdGrGZaRBwMb_3syn8generics14WherePredicateNtNtBR_5token5CommaEENtNtNtCsieiGu2EXtoJ_4core3ops4drop4Drop4dropBR_, symObjAddr: 0x67F0, symBinAddr: 0x6C730, symSize: 0x30 }
  - { offset: 0xAF58D, size: 0x8, addend: 0x0, symName: __RNvXs1_NtCslJiobkLta79_5alloc7raw_vecINtB5_6RawVecTNtNtCsdGrGZaRBwMb_3syn8lifetime8LifetimeNtNtBR_5token4PlusEENtNtNtCsieiGu2EXtoJ_4core3ops4drop4Drop4dropBR_, symObjAddr: 0x6820, symBinAddr: 0x6C760, symSize: 0x30 }
  - { offset: 0xAFCA9, size: 0x8, addend: 0x0, symName: __RINvMs_NtCsdGrGZaRBwMb_3syn4pathNtB5_4Path8is_identeEB7_, symObjAddr: 0x0, symBinAddr: 0x675C0, symSize: 0x80 }
  - { offset: 0xAFF89, size: 0x8, addend: 0x0, symName: __RNvMs0_NtCslJiobkLta79_5alloc7raw_vecINtB5_6RawVecNtNtCsdGrGZaRBwMb_3syn4attr9AttributeE8grow_oneBQ_, symObjAddr: 0x1790, symBinAddr: 0x680C0, symSize: 0x90 }
  - { offset: 0xB003B, size: 0x8, addend: 0x0, symName: __RNvMs0_NtCslJiobkLta79_5alloc7raw_vecINtB5_6RawVecNtNtCsdGrGZaRBwMb_3syn4expr3ArmE8grow_oneBQ_, symObjAddr: 0x18B0, symBinAddr: 0x68150, symSize: 0x90 }
  - { offset: 0xB00ED, size: 0x8, addend: 0x0, symName: __RNvMs0_NtCslJiobkLta79_5alloc7raw_vecINtB5_6RawVecNtNtCsdGrGZaRBwMb_3syn4expr6ExprIfE8grow_oneBQ_, symObjAddr: 0x1940, symBinAddr: 0x681E0, symSize: 0x90 }
  - { offset: 0xB019F, size: 0x8, addend: 0x0, symName: __RNvMs0_NtCslJiobkLta79_5alloc7raw_vecINtB5_6RawVecNtNtCsdGrGZaRBwMb_3syn4item11ForeignItemE8grow_oneBQ_, symObjAddr: 0x19D0, symBinAddr: 0x68270, symSize: 0x90 }
  - { offset: 0xB0251, size: 0x8, addend: 0x0, symName: __RNvMs0_NtCslJiobkLta79_5alloc7raw_vecINtB5_6RawVecNtNtCsdGrGZaRBwMb_3syn4item4ItemE8grow_oneBQ_, symObjAddr: 0x1A60, symBinAddr: 0x68300, symSize: 0x90 }
  - { offset: 0xB0303, size: 0x8, addend: 0x0, symName: __RNvMs0_NtCslJiobkLta79_5alloc7raw_vecINtB5_6RawVecNtNtCsdGrGZaRBwMb_3syn4item8ImplItemE8grow_oneBQ_, symObjAddr: 0x1AF0, symBinAddr: 0x68390, symSize: 0x90 }
  - { offset: 0xB03B5, size: 0x8, addend: 0x0, symName: __RNvMs0_NtCslJiobkLta79_5alloc7raw_vecINtB5_6RawVecNtNtCsdGrGZaRBwMb_3syn4item9TraitItemE8grow_oneBQ_, symObjAddr: 0x1B80, symBinAddr: 0x68420, symSize: 0x90 }
  - { offset: 0xB0467, size: 0x8, addend: 0x0, symName: __RNvMs0_NtCslJiobkLta79_5alloc7raw_vecINtB5_6RawVecNtNtCsdGrGZaRBwMb_3syn4stmt4StmtE8grow_oneBQ_, symObjAddr: 0x1C10, symBinAddr: 0x684B0, symSize: 0x90 }
  - { offset: 0xB0520, size: 0x8, addend: 0x0, symName: __RNvMs0_NtCslJiobkLta79_5alloc7raw_vecINtB5_6RawVecNtNtCsdGrGZaRBwMb_3syn6buffer5EntryE8grow_oneBQ_, symObjAddr: 0x1CA0, symBinAddr: 0x68540, symSize: 0x90 }
  - { offset: 0xB0801, size: 0x8, addend: 0x0, symName: __RNvMs0_NtCslJiobkLta79_5alloc7raw_vecINtB5_6RawVecNtNtCsdGrGZaRBwMb_3syn6buffer5EntryE8into_boxBQ_, symObjAddr: 0x1D30, symBinAddr: 0x685D0, symSize: 0x90 }
  - { offset: 0xB0A01, size: 0x8, addend: 0x0, symName: __RNvMs0_NtCslJiobkLta79_5alloc7raw_vecINtB5_6RawVecNtNtCsdGrGZaRBwMb_3syn8generics14TypeParamBoundE8grow_oneBQ_, symObjAddr: 0x1DC0, symBinAddr: 0x68660, symSize: 0x90 }
  - { offset: 0xB0AB3, size: 0x8, addend: 0x0, symName: __RNvMs0_NtCslJiobkLta79_5alloc7raw_vecINtB5_6RawVecTNtNtCsdGrGZaRBwMb_3syn2ty4TypeNtNtBR_5token5CommaEE8grow_oneBR_, symObjAddr: 0x1E50, symBinAddr: 0x686F0, symSize: 0x90 }
  - { offset: 0xB0B65, size: 0x8, addend: 0x0, symName: __RNvMs0_NtCslJiobkLta79_5alloc7raw_vecINtB5_6RawVecTNtNtCsdGrGZaRBwMb_3syn2ty9BareFnArgNtNtBR_5token5CommaEE8grow_oneBR_, symObjAddr: 0x1EE0, symBinAddr: 0x68780, symSize: 0x90 }
  - { offset: 0xB0C17, size: 0x8, addend: 0x0, symName: __RNvMs0_NtCslJiobkLta79_5alloc7raw_vecINtB5_6RawVecTNtNtCsdGrGZaRBwMb_3syn3pat3PatNtNtBR_5token2OrEE8grow_oneBR_, symObjAddr: 0x1F70, symBinAddr: 0x68810, symSize: 0x90 }
  - { offset: 0xB0CC9, size: 0x8, addend: 0x0, symName: __RNvMs0_NtCslJiobkLta79_5alloc7raw_vecINtB5_6RawVecTNtNtCsdGrGZaRBwMb_3syn3pat3PatNtNtBR_5token5CommaEE8grow_oneBR_, symObjAddr: 0x2000, symBinAddr: 0x688A0, symSize: 0x90 }
  - { offset: 0xB0D7B, size: 0x8, addend: 0x0, symName: __RNvMs0_NtCslJiobkLta79_5alloc7raw_vecINtB5_6RawVecTNtNtCsdGrGZaRBwMb_3syn3pat8FieldPatNtNtBR_5token5CommaEE8grow_oneBR_, symObjAddr: 0x2090, symBinAddr: 0x68930, symSize: 0x90 }
  - { offset: 0xB0E2D, size: 0x8, addend: 0x0, symName: __RNvMs0_NtCslJiobkLta79_5alloc7raw_vecINtB5_6RawVecTNtNtCsdGrGZaRBwMb_3syn4data5FieldNtNtBR_5token5CommaEE8grow_oneBR_, symObjAddr: 0x2120, symBinAddr: 0x689C0, symSize: 0x90 }
  - { offset: 0xB0EDF, size: 0x8, addend: 0x0, symName: __RNvMs0_NtCslJiobkLta79_5alloc7raw_vecINtB5_6RawVecTNtNtCsdGrGZaRBwMb_3syn4data7VariantNtNtBR_5token5CommaEE8grow_oneBR_, symObjAddr: 0x21B0, symBinAddr: 0x68A50, symSize: 0x90 }
  - { offset: 0xB0F91, size: 0x8, addend: 0x0, symName: __RNvMs0_NtCslJiobkLta79_5alloc7raw_vecINtB5_6RawVecTNtNtCsdGrGZaRBwMb_3syn4expr10FieldValueNtNtBR_5token5CommaEE8grow_oneBR_, symObjAddr: 0x2240, symBinAddr: 0x68AE0, symSize: 0x90 }
  - { offset: 0xB1043, size: 0x8, addend: 0x0, symName: __RNvMs0_NtCslJiobkLta79_5alloc7raw_vecINtB5_6RawVecTNtNtCsdGrGZaRBwMb_3syn4expr4ExprNtNtBR_5token5CommaEE8grow_oneBR_, symObjAddr: 0x22D0, symBinAddr: 0x68B70, symSize: 0x90 }
  - { offset: 0xB10F5, size: 0x8, addend: 0x0, symName: __RNvMs0_NtCslJiobkLta79_5alloc7raw_vecINtB5_6RawVecTNtNtCsdGrGZaRBwMb_3syn4item5FnArgNtNtBR_5token5CommaEE8grow_oneBR_, symObjAddr: 0x2360, symBinAddr: 0x68C00, symSize: 0x90 }
  - { offset: 0xB11A7, size: 0x8, addend: 0x0, symName: __RNvMs0_NtCslJiobkLta79_5alloc7raw_vecINtB5_6RawVecTNtNtCsdGrGZaRBwMb_3syn4item7UseTreeNtNtBR_5token5CommaEE8grow_oneBR_, symObjAddr: 0x23F0, symBinAddr: 0x68C90, symSize: 0x90 }
  - { offset: 0xB1259, size: 0x8, addend: 0x0, symName: __RNvMs0_NtCslJiobkLta79_5alloc7raw_vecINtB5_6RawVecTNtNtCsdGrGZaRBwMb_3syn4path11PathSegmentNtNtBR_5token7PathSepEE8grow_oneBR_, symObjAddr: 0x2480, symBinAddr: 0x68D20, symSize: 0x90 }
  - { offset: 0xB130B, size: 0x8, addend: 0x0, symName: __RNvMs0_NtCslJiobkLta79_5alloc7raw_vecINtB5_6RawVecTNtNtCsdGrGZaRBwMb_3syn4path15GenericArgumentNtNtBR_5token5CommaEE8grow_oneBR_, symObjAddr: 0x2510, symBinAddr: 0x68DB0, symSize: 0x90 }
  - { offset: 0xB13BD, size: 0x8, addend: 0x0, symName: __RNvMs0_NtCslJiobkLta79_5alloc7raw_vecINtB5_6RawVecTNtNtCsdGrGZaRBwMb_3syn8generics12GenericParamNtNtBR_5token5CommaEE8grow_oneBR_, symObjAddr: 0x25A0, symBinAddr: 0x68E40, symSize: 0x90 }
  - { offset: 0xB146F, size: 0x8, addend: 0x0, symName: __RNvMs0_NtCslJiobkLta79_5alloc7raw_vecINtB5_6RawVecTNtNtCsdGrGZaRBwMb_3syn8generics13CapturedParamNtNtBR_5token5CommaEE8grow_oneBR_, symObjAddr: 0x2630, symBinAddr: 0x68ED0, symSize: 0x90 }
  - { offset: 0xB1521, size: 0x8, addend: 0x0, symName: __RNvMs0_NtCslJiobkLta79_5alloc7raw_vecINtB5_6RawVecTNtNtCsdGrGZaRBwMb_3syn8generics14TypeParamBoundNtNtBR_5token4PlusEE8grow_oneBR_, symObjAddr: 0x26C0, symBinAddr: 0x68F60, symSize: 0x90 }
  - { offset: 0xB15D3, size: 0x8, addend: 0x0, symName: __RNvMs0_NtCslJiobkLta79_5alloc7raw_vecINtB5_6RawVecTNtNtCsdGrGZaRBwMb_3syn8generics14WherePredicateNtNtBR_5token5CommaEE8grow_oneBR_, symObjAddr: 0x2750, symBinAddr: 0x68FF0, symSize: 0x90 }
  - { offset: 0xB1685, size: 0x8, addend: 0x0, symName: __RNvMs0_NtCslJiobkLta79_5alloc7raw_vecINtB5_6RawVecTNtNtCsdGrGZaRBwMb_3syn8lifetime8LifetimeNtNtBR_5token4PlusEE8grow_oneBR_, symObjAddr: 0x27E0, symBinAddr: 0x69080, symSize: 0x90 }
  - { offset: 0xB1747, size: 0x8, addend: 0x0, symName: __RNvMs0_NtNtCsdGrGZaRBwMb_3syn4path7parsingNtB7_30AngleBracketedGenericArguments15parse_turbofish, symObjAddr: 0x2940, symBinAddr: 0x69110, symSize: 0xD0 }
  - { offset: 0xB17A6, size: 0x8, addend: 0x0, symName: __RNvMs0_NtNtCsdGrGZaRBwMb_3syn4path7parsingNtB7_30AngleBracketedGenericArguments8do_parse, symObjAddr: 0x2A10, symBinAddr: 0x691E0, symSize: 0x540 }
  - { offset: 0xB18CA, size: 0x8, addend: 0x0, symName: __RNvMs2_NtCsdGrGZaRBwMb_3syn4pathNtB5_13PathArguments7is_none, symObjAddr: 0x3000, symBinAddr: 0x69720, symSize: 0x60 }
  - { offset: 0xB18EC, size: 0x8, addend: 0x0, symName: __RNvMs2_NtCsdGrGZaRBwMb_3syn4pathNtB5_13PathArguments8is_empty, symObjAddr: 0x3060, symBinAddr: 0x69780, symSize: 0x90 }
  - { offset: 0xB19AF, size: 0x8, addend: 0x0, symName: __RNvMs2_NtCslJiobkLta79_5alloc7raw_vecNtB5_11RawVecInner14current_memoryCsdGrGZaRBwMb_3syn, symObjAddr: 0x30F0, symBinAddr: 0x69810, symSize: 0x170 }
  - { offset: 0xB1C1C, size: 0x8, addend: 0x0, symName: __RNvMs2_NtCslJiobkLta79_5alloc7raw_vecNtB5_11RawVecInner16shrink_uncheckedCsdGrGZaRBwMb_3syn, symObjAddr: 0x3260, symBinAddr: 0x69980, symSize: 0x3E0 }
  - { offset: 0xB1FC5, size: 0x8, addend: 0x0, symName: __RNvMs2_NtCslJiobkLta79_5alloc7raw_vecNtB5_11RawVecInner6shrinkCsdGrGZaRBwMb_3syn, symObjAddr: 0x3640, symBinAddr: 0x69D60, symSize: 0xE0 }
  - { offset: 0xB2088, size: 0x8, addend: 0x0, symName: __RNvMs4_NtNtCsdGrGZaRBwMb_3syn4path7parsingNtB7_11PathSegment12parse_helper, symObjAddr: 0x37B0, symBinAddr: 0x69E40, symSize: 0x790 }
  - { offset: 0xB228A, size: 0x8, addend: 0x0, symName: __RNvMs4_NtNtCsieiGu2EXtoJ_4core5slice4iterINtB5_4IterNtCsaKzlTDPUHDb_11proc_macro24SpanE3newCsdGrGZaRBwMb_3syn, symObjAddr: 0x3F40, symBinAddr: 0x6A5D0, symSize: 0x50 }
  - { offset: 0xB2437, size: 0x8, addend: 0x0, symName: __RNvMs4_NtNtCsieiGu2EXtoJ_4core5slice4iterINtB5_4IterNtNtCsdGrGZaRBwMb_3syn4attr9AttributeE3newBS_, symObjAddr: 0x3F90, symBinAddr: 0x6A620, symSize: 0x50 }
  - { offset: 0xB25FE, size: 0x8, addend: 0x0, symName: __RNvMs4_NtNtCsieiGu2EXtoJ_4core5slice4iterINtB5_4IterNtNtCsdGrGZaRBwMb_3syn4expr3ArmE3newBS_, symObjAddr: 0x3FE0, symBinAddr: 0x6A670, symSize: 0x50 }
  - { offset: 0xB2813, size: 0x8, addend: 0x0, symName: __RNvMs4_NtNtCsieiGu2EXtoJ_4core5slice4iterINtB5_4IterTNtNtCsdGrGZaRBwMb_3syn2ty4TypeNtNtBT_5token5CommaEE3newBT_, symObjAddr: 0x4080, symBinAddr: 0x6A6C0, symSize: 0x50 }
  - { offset: 0xB29DA, size: 0x8, addend: 0x0, symName: __RNvMs4_NtNtCsieiGu2EXtoJ_4core5slice4iterINtB5_4IterTNtNtCsdGrGZaRBwMb_3syn2ty9BareFnArgNtNtBT_5token5CommaEE3newBT_, symObjAddr: 0x40D0, symBinAddr: 0x6A710, symSize: 0x50 }
  - { offset: 0xB2BA1, size: 0x8, addend: 0x0, symName: __RNvMs4_NtNtCsieiGu2EXtoJ_4core5slice4iterINtB5_4IterTNtNtCsdGrGZaRBwMb_3syn3pat3PatNtNtBT_5token2OrEE3newBT_, symObjAddr: 0x4120, symBinAddr: 0x6A760, symSize: 0x50 }
  - { offset: 0xB2D68, size: 0x8, addend: 0x0, symName: __RNvMs4_NtNtCsieiGu2EXtoJ_4core5slice4iterINtB5_4IterTNtNtCsdGrGZaRBwMb_3syn3pat3PatNtNtBT_5token5CommaEE3newBT_, symObjAddr: 0x4170, symBinAddr: 0x6A7B0, symSize: 0x50 }
  - { offset: 0xB2F2F, size: 0x8, addend: 0x0, symName: __RNvMs4_NtNtCsieiGu2EXtoJ_4core5slice4iterINtB5_4IterTNtNtCsdGrGZaRBwMb_3syn3pat8FieldPatNtNtBT_5token5CommaEE3newBT_, symObjAddr: 0x41C0, symBinAddr: 0x6A800, symSize: 0x50 }
  - { offset: 0xB30F6, size: 0x8, addend: 0x0, symName: __RNvMs4_NtNtCsieiGu2EXtoJ_4core5slice4iterINtB5_4IterTNtNtCsdGrGZaRBwMb_3syn4data5FieldNtNtBT_5token5CommaEE3newBT_, symObjAddr: 0x4210, symBinAddr: 0x6A850, symSize: 0x50 }
  - { offset: 0xB32BD, size: 0x8, addend: 0x0, symName: __RNvMs4_NtNtCsieiGu2EXtoJ_4core5slice4iterINtB5_4IterTNtNtCsdGrGZaRBwMb_3syn4data7VariantNtNtBT_5token5CommaEE3newBT_, symObjAddr: 0x4260, symBinAddr: 0x6A8A0, symSize: 0x50 }
  - { offset: 0xB3484, size: 0x8, addend: 0x0, symName: __RNvMs4_NtNtCsieiGu2EXtoJ_4core5slice4iterINtB5_4IterTNtNtCsdGrGZaRBwMb_3syn4expr10FieldValueNtNtBT_5token5CommaEE3newBT_, symObjAddr: 0x42B0, symBinAddr: 0x6A8F0, symSize: 0x50 }
  - { offset: 0xB364B, size: 0x8, addend: 0x0, symName: __RNvMs4_NtNtCsieiGu2EXtoJ_4core5slice4iterINtB5_4IterTNtNtCsdGrGZaRBwMb_3syn4expr4ExprNtNtBT_5token5CommaEE3newBT_, symObjAddr: 0x4300, symBinAddr: 0x6A940, symSize: 0x50 }
  - { offset: 0xB3812, size: 0x8, addend: 0x0, symName: __RNvMs4_NtNtCsieiGu2EXtoJ_4core5slice4iterINtB5_4IterTNtNtCsdGrGZaRBwMb_3syn4item5FnArgNtNtBT_5token5CommaEE3newBT_, symObjAddr: 0x4350, symBinAddr: 0x6A990, symSize: 0x50 }
  - { offset: 0xB39D9, size: 0x8, addend: 0x0, symName: __RNvMs4_NtNtCsieiGu2EXtoJ_4core5slice4iterINtB5_4IterTNtNtCsdGrGZaRBwMb_3syn4item7UseTreeNtNtBT_5token5CommaEE3newBT_, symObjAddr: 0x43A0, symBinAddr: 0x6A9E0, symSize: 0x50 }
  - { offset: 0xB3B34, size: 0x8, addend: 0x0, symName: __RNvMs4_NtNtCsieiGu2EXtoJ_4core5slice4iterINtB5_4IterTNtNtCsdGrGZaRBwMb_3syn4path11PathSegmentNtNtBT_5token7PathSepEE3newBT_, symObjAddr: 0x43F0, symBinAddr: 0x6AA30, symSize: 0x50 }
  - { offset: 0xB3C8F, size: 0x8, addend: 0x0, symName: __RNvMs4_NtNtCsieiGu2EXtoJ_4core5slice4iterINtB5_4IterTNtNtCsdGrGZaRBwMb_3syn4path15GenericArgumentNtNtBT_5token5CommaEE3newBT_, symObjAddr: 0x4440, symBinAddr: 0x6AA80, symSize: 0x50 }
  - { offset: 0xB3E56, size: 0x8, addend: 0x0, symName: __RNvMs4_NtNtCsieiGu2EXtoJ_4core5slice4iterINtB5_4IterTNtNtCsdGrGZaRBwMb_3syn8generics12GenericParamNtNtBT_5token5CommaEE3newBT_, symObjAddr: 0x4490, symBinAddr: 0x6AAD0, symSize: 0x50 }
  - { offset: 0xB401D, size: 0x8, addend: 0x0, symName: __RNvMs4_NtNtCsieiGu2EXtoJ_4core5slice4iterINtB5_4IterTNtNtCsdGrGZaRBwMb_3syn8generics13CapturedParamNtNtBT_5token5CommaEE3newBT_, symObjAddr: 0x44E0, symBinAddr: 0x6AB20, symSize: 0x50 }
  - { offset: 0xB41E4, size: 0x8, addend: 0x0, symName: __RNvMs4_NtNtCsieiGu2EXtoJ_4core5slice4iterINtB5_4IterTNtNtCsdGrGZaRBwMb_3syn8generics14TypeParamBoundNtNtBT_5token4PlusEE3newBT_, symObjAddr: 0x4530, symBinAddr: 0x6AB70, symSize: 0x50 }
  - { offset: 0xB43AB, size: 0x8, addend: 0x0, symName: __RNvMs4_NtNtCsieiGu2EXtoJ_4core5slice4iterINtB5_4IterTNtNtCsdGrGZaRBwMb_3syn8generics14WherePredicateNtNtBT_5token5CommaEE3newBT_, symObjAddr: 0x4580, symBinAddr: 0x6ABC0, symSize: 0x50 }
  - { offset: 0xB4572, size: 0x8, addend: 0x0, symName: __RNvMs4_NtNtCsieiGu2EXtoJ_4core5slice4iterINtB5_4IterTNtNtCsdGrGZaRBwMb_3syn8lifetime8LifetimeNtNtBT_5token4PlusEE3newBT_, symObjAddr: 0x45D0, symBinAddr: 0x6AC10, symSize: 0x50 }
  - { offset: 0xB467D, size: 0x8, addend: 0x0, symName: __RNvMs5_NtCslJiobkLta79_5alloc2rcINtB5_2RcINtNtCsieiGu2EXtoJ_4core4cell4CellNtNtCsdGrGZaRBwMb_3syn5parse10UnexpectedEE9drop_slowB1f_, symObjAddr: 0x4620, symBinAddr: 0x6AC60, symSize: 0x70 }
  - { offset: 0xB46DD, size: 0x8, addend: 0x0, symName: __RNvMs5_NtNtCsdGrGZaRBwMb_3syn4path7parsingNtB7_4Path10parse_rest, symObjAddr: 0x4690, symBinAddr: 0x6ACD0, symSize: 0x2E0 }
  - { offset: 0xB47B1, size: 0x8, addend: 0x0, symName: __RNvMs5_NtNtCsdGrGZaRBwMb_3syn4path7parsingNtB7_4Path12is_mod_style, symObjAddr: 0x4970, symBinAddr: 0x6AFB0, symSize: 0x70 }
  - { offset: 0xB47D4, size: 0x8, addend: 0x0, symName: __RNvMs5_NtNtCsdGrGZaRBwMb_3syn4path7parsingNtB7_4Path12parse_helper, symObjAddr: 0x49E0, symBinAddr: 0x6B020, symSize: 0x430 }
  - { offset: 0xB48C7, size: 0x8, addend: 0x0, symName: __RNvMs5_NtNtCsdGrGZaRBwMb_3syn4path7parsingNtB7_4Path15parse_mod_style, symObjAddr: 0x4E10, symBinAddr: 0x6B450, symSize: 0x640 }
  - { offset: 0xB4A21, size: 0x8, addend: 0x0, symName: __RNvMs6_NtCslJiobkLta79_5alloc2rcINtB5_2RcINtNtCsieiGu2EXtoJ_4core4cell4CellNtNtCsdGrGZaRBwMb_3syn5parse10UnexpectedEE3newB1f_, symObjAddr: 0x5450, symBinAddr: 0x6BA90, symSize: 0xB0 }
  - { offset: 0xB4B43, size: 0x8, addend: 0x0, symName: __RNvMs_NtCsdGrGZaRBwMb_3syn4pathNtB4_4Path9get_ident, symObjAddr: 0x5550, symBinAddr: 0x6BB40, symSize: 0xB0 }
  - { offset: 0xB4C0B, size: 0x8, addend: 0x0, symName: __RNvMsa_NtNtCsieiGu2EXtoJ_4core5slice4iterINtB5_7IterMutTNtNtCsdGrGZaRBwMb_3syn4path11PathSegmentNtNtBW_5token7PathSepEE3newBW_, symObjAddr: 0x5650, symBinAddr: 0x6BBF0, symSize: 0x50 }
  - { offset: 0xB4D41, size: 0x8, addend: 0x0, symName: __RNvMsd_NtCslJiobkLta79_5alloc2rcINtB5_2RcINtNtCsieiGu2EXtoJ_4core4cell4CellNtNtCsdGrGZaRBwMb_3syn5parse10UnexpectedEE6ptr_eqB1f_, symObjAddr: 0x56F0, symBinAddr: 0x6BC40, symSize: 0x20 }
  - { offset: 0xB4DBB, size: 0x8, addend: 0x0, symName: __RNvXNtCs9OU1sGv5X54_5quote9to_tokensRNtNtCsdGrGZaRBwMb_3syn4path15GenericArgumentNtB2_8ToTokens9to_tokensBD_, symObjAddr: 0x57C0, symBinAddr: 0x6BD10, symSize: 0x30 }
  - { offset: 0xB652B, size: 0x8, addend: 0x0, symName: __RINvMsG_CsaKzlTDPUHDb_11proc_macro2NtB6_7Literal7subspanINtNtNtCsieiGu2EXtoJ_4core3ops5range5RangejEECsdGrGZaRBwMb_3syn, symObjAddr: 0x0, symBinAddr: 0x6FC70, symSize: 0x30 }
  - { offset: 0xB7945, size: 0x8, addend: 0x0, symName: __RNvXsw_NtCslJiobkLta79_5alloc6stringNtCsaKzlTDPUHDb_11proc_macro27LiteralNtB5_8ToString9to_stringCsdGrGZaRBwMb_3syn, symObjAddr: 0x17190, symBinAddr: 0x841E0, symSize: 0x30 }
  - { offset: 0xB797C, size: 0x8, addend: 0x0, symName: __RNvXsw_NtCslJiobkLta79_5alloc6stringNtCsaKzlTDPUHDb_11proc_macro28LexErrorNtB5_8ToString9to_stringCsdGrGZaRBwMb_3syn, symObjAddr: 0x171C0, symBinAddr: 0x84210, symSize: 0x30 }
  - { offset: 0xB79B9, size: 0x8, addend: 0x0, symName: __RNvXsx_NtCslJiobkLta79_5alloc6stringNtCsaKzlTDPUHDb_11proc_macro27LiteralNtB5_12SpecToString14spec_to_stringCsdGrGZaRBwMb_3syn, symObjAddr: 0x171F0, symBinAddr: 0x84240, symSize: 0x120 }
  - { offset: 0xB7A85, size: 0x8, addend: 0x0, symName: __RNvXsx_NtCslJiobkLta79_5alloc6stringNtCsaKzlTDPUHDb_11proc_macro28LexErrorNtB5_12SpecToString14spec_to_stringCsdGrGZaRBwMb_3syn, symObjAddr: 0x17310, symBinAddr: 0x84360, symSize: 0x120 }
  - { offset: 0xB7C9C, size: 0x8, addend: 0x0, symName: __RNvXs2_NtCslJiobkLta79_5alloc3streNtNtB7_6borrow7ToOwned8to_ownedCsdGrGZaRBwMb_3syn, symObjAddr: 0x15830, symBinAddr: 0x838F0, symSize: 0x50 }
  - { offset: 0xB89EB, size: 0x8, addend: 0x0, symName: __RNCNvMs5_NtNtCsdGrGZaRBwMb_3syn4path7parsingNtB9_4Path12is_mod_style0Bb_, symObjAddr: 0xB7E0, symBinAddr: 0x7A200, symSize: 0x30 }
  - { offset: 0xB8A2D, size: 0x8, addend: 0x0, symName: __RNvNtNtCsdGrGZaRBwMb_3syn4path7parsing14const_argument, symObjAddr: 0xFEC0, symBinAddr: 0x7E6D0, symSize: 0x600 }
  - { offset: 0xB8B2B, size: 0x8, addend: 0x0, symName: __RNvNtNtCsdGrGZaRBwMb_3syn4path7parsing5qpath, symObjAddr: 0x104C0, symBinAddr: 0x7ECD0, symSize: 0xF20 }
  - { offset: 0xBB5CB, size: 0x8, addend: 0x0, symName: __RNCNvNtNtCsdGrGZaRBwMb_3syn4expr8printing10print_expr0B7_, symObjAddr: 0xB810, symBinAddr: 0x7A230, symSize: 0xA90 }
  - { offset: 0xBBB0A, size: 0x8, addend: 0x0, symName: __RNCNvNtNtCsdGrGZaRBwMb_3syn4expr8printing15print_expr_call0B7_, symObjAddr: 0xC2A0, symBinAddr: 0x7ACC0, symSize: 0x30 }
  - { offset: 0xBBB4B, size: 0x8, addend: 0x0, symName: __RNCNvNtNtCsdGrGZaRBwMb_3syn4expr8printing15print_expr_cast0B7_, symObjAddr: 0xC2D0, symBinAddr: 0x7ACF0, symSize: 0x170 }
  - { offset: 0xBBBE7, size: 0x8, addend: 0x0, symName: __RNCNvNtNtCsdGrGZaRBwMb_3syn4expr8printing16print_expr_index0B7_, symObjAddr: 0xC440, symBinAddr: 0x7AE60, symSize: 0x30 }
  - { offset: 0xBBC28, size: 0x8, addend: 0x0, symName: __RNCNvNtNtCsdGrGZaRBwMb_3syn4expr8printing16print_expr_range0B7_, symObjAddr: 0xC470, symBinAddr: 0x7AE90, symSize: 0x370 }
  - { offset: 0xBBD20, size: 0x8, addend: 0x0, symName: __RNCNvNtNtCsdGrGZaRBwMb_3syn4expr8printing17print_expr_assign0B7_, symObjAddr: 0xC7E0, symBinAddr: 0x7B200, symSize: 0x1F0 }
  - { offset: 0xBBDBC, size: 0x8, addend: 0x0, symName: __RNCNvNtNtCsdGrGZaRBwMb_3syn4expr8printing17print_expr_binary0B7_, symObjAddr: 0xC9D0, symBinAddr: 0x7B3F0, symSize: 0x440 }
  - { offset: 0xBBEB3, size: 0x8, addend: 0x0, symName: __RNCNvNtNtCsdGrGZaRBwMb_3syn4expr8printing18print_expr_closure0B7_, symObjAddr: 0xCE10, symBinAddr: 0x7B830, symSize: 0x90 }
  - { offset: 0xBBEF4, size: 0x8, addend: 0x0, symName: __RNCNvNtNtCsdGrGZaRBwMb_3syn4expr8printing19print_subexpression0B7_, symObjAddr: 0xCEA0, symBinAddr: 0x7B8C0, symSize: 0x40 }
  - { offset: 0xBBF68, size: 0x8, addend: 0x0, symName: __RNCNvNtNtCsdGrGZaRBwMb_3syn4expr8printing22print_expr_method_call0B7_, symObjAddr: 0xCEE0, symBinAddr: 0x7B900, symSize: 0x30 }
  - { offset: 0xBBFAE, size: 0x8, addend: 0x0, symName: __RNCNvXNtNtCsdGrGZaRBwMb_3syn4expr8printingNtB6_9ExprArrayNtNtCs9OU1sGv5X54_5quote9to_tokens8ToTokens9to_tokens0B8_, symObjAddr: 0xCF10, symBinAddr: 0x7B930, symSize: 0x30 }
  - { offset: 0xBBFF5, size: 0x8, addend: 0x0, symName: __RNCNvXs3_NtNtCsdGrGZaRBwMb_3syn4expr8printingNtB9_9ExprBlockNtNtCs9OU1sGv5X54_5quote9to_tokens8ToTokens9to_tokens0Bb_, symObjAddr: 0xCF40, symBinAddr: 0x7B960, symSize: 0x50 }
  - { offset: 0xBC03C, size: 0x8, addend: 0x0, symName: __RNCNvXs8_NtNtCsdGrGZaRBwMb_3syn4expr8printingNtB9_9ExprConstNtNtCs9OU1sGv5X54_5quote9to_tokens8ToTokens9to_tokens0Bb_, symObjAddr: 0xCF90, symBinAddr: 0x7B9B0, symSize: 0x50 }
  - { offset: 0xBC083, size: 0x8, addend: 0x0, symName: __RNCNvXsb_NtNtCsdGrGZaRBwMb_3syn4expr8printingNtB9_11ExprForLoopNtNtCs9OU1sGv5X54_5quote9to_tokens8ToTokens9to_tokens0Bb_, symObjAddr: 0xCFE0, symBinAddr: 0x7BA00, symSize: 0x50 }
  - { offset: 0xBC0CA, size: 0x8, addend: 0x0, symName: __RNCNvXsc_NtNtCsdGrGZaRBwMb_3syn4expr8printingNtB9_9ExprGroupNtNtCs9OU1sGv5X54_5quote9to_tokens8ToTokens9to_tokens0Bb_, symObjAddr: 0xD030, symBinAddr: 0x7BA50, symSize: 0x30 }
  - { offset: 0xBC111, size: 0x8, addend: 0x0, symName: __RNCNvXsd_NtNtCsdGrGZaRBwMb_3syn4expr8printingNtB9_6ExprIfNtNtCs9OU1sGv5X54_5quote9to_tokens8ToTokens9to_tokens0Bb_, symObjAddr: 0xD060, symBinAddr: 0x7BA80, symSize: 0x40 }
  - { offset: 0xBC158, size: 0x8, addend: 0x0, symName: __RNCNvXsi_NtNtCsdGrGZaRBwMb_3syn4expr8printingNtB9_8ExprLoopNtNtCs9OU1sGv5X54_5quote9to_tokens8ToTokens9to_tokens0Bb_, symObjAddr: 0xD0A0, symBinAddr: 0x7BAC0, symSize: 0x50 }
  - { offset: 0xBC19F, size: 0x8, addend: 0x0, symName: __RNCNvXsk_NtNtCsdGrGZaRBwMb_3syn4expr8printingNtB9_9ExprMatchNtNtCs9OU1sGv5X54_5quote9to_tokens8ToTokens9to_tokens0Bb_, symObjAddr: 0xD0F0, symBinAddr: 0x7BB10, symSize: 0x220 }
  - { offset: 0xBC239, size: 0x8, addend: 0x0, symName: __RNCNvXsm_NtNtCsdGrGZaRBwMb_3syn4expr8printingNtB9_9ExprParenNtNtCs9OU1sGv5X54_5quote9to_tokens8ToTokens9to_tokens0Bb_, symObjAddr: 0xD310, symBinAddr: 0x7BD30, symSize: 0x30 }
  - { offset: 0xBC280, size: 0x8, addend: 0x0, symName: __RNCNvXsr_NtNtCsdGrGZaRBwMb_3syn4expr8printingNtB9_10ExprRepeatNtNtCs9OU1sGv5X54_5quote9to_tokens8ToTokens9to_tokens0Bb_, symObjAddr: 0xD340, symBinAddr: 0x7BD60, symSize: 0x60 }
  - { offset: 0xBC2C7, size: 0x8, addend: 0x0, symName: __RNCNvXst_NtNtCsdGrGZaRBwMb_3syn4expr8printingNtB9_10ExprStructNtNtCs9OU1sGv5X54_5quote9to_tokens8ToTokens9to_tokens0Bb_, symObjAddr: 0xD3A0, symBinAddr: 0x7BDC0, symSize: 0xD0 }
  - { offset: 0xBC32C, size: 0x8, addend: 0x0, symName: __RNCNvXsw_NtNtCsdGrGZaRBwMb_3syn4expr8printingNtB9_9ExprTupleNtNtCs9OU1sGv5X54_5quote9to_tokens8ToTokens9to_tokens0Bb_, symObjAddr: 0xD470, symBinAddr: 0x7BE90, symSize: 0x90 }
  - { offset: 0xBC373, size: 0x8, addend: 0x0, symName: __RNCNvXsy_NtNtCsdGrGZaRBwMb_3syn4expr8printingNtB9_10ExprUnsafeNtNtCs9OU1sGv5X54_5quote9to_tokens8ToTokens9to_tokens0Bb_, symObjAddr: 0xD500, symBinAddr: 0x7BF20, symSize: 0x50 }
  - { offset: 0xBC3BA, size: 0x8, addend: 0x0, symName: __RNCNvXsz_NtNtCsdGrGZaRBwMb_3syn4expr8printingNtB9_9ExprWhileNtNtCs9OU1sGv5X54_5quote9to_tokens8ToTokens9to_tokens0Bb_, symObjAddr: 0xD550, symBinAddr: 0x7BF70, symSize: 0x50 }
  - { offset: 0xBC3F7, size: 0x8, addend: 0x0, symName: __RNvNtNtCsdGrGZaRBwMb_3syn4expr8printing10print_expr, symObjAddr: 0xE390, symBinAddr: 0x7CBA0, symSize: 0xC0 }
  - { offset: 0xBC47D, size: 0x8, addend: 0x0, symName: __RNvNtNtCsdGrGZaRBwMb_3syn4expr8printing14print_expr_let, symObjAddr: 0xE450, symBinAddr: 0x7CC60, symSize: 0x180 }
  - { offset: 0xBC4EE, size: 0x8, addend: 0x0, symName: __RNvNtNtCsdGrGZaRBwMb_3syn4expr8printing14print_expr_try, symObjAddr: 0xE5D0, symBinAddr: 0x7CDE0, symSize: 0x160 }
  - { offset: 0xBC55F, size: 0x8, addend: 0x0, symName: __RNvNtNtCsdGrGZaRBwMb_3syn4expr8printing15print_expr_call, symObjAddr: 0xE730, symBinAddr: 0x7CF40, symSize: 0x200 }
  - { offset: 0xBC5FC, size: 0x8, addend: 0x0, symName: __RNvNtNtCsdGrGZaRBwMb_3syn4expr8printing15print_expr_cast, symObjAddr: 0xE930, symBinAddr: 0x7D140, symSize: 0xD0 }
  - { offset: 0xBC681, size: 0x8, addend: 0x0, symName: __RNvNtNtCsdGrGZaRBwMb_3syn4expr8printing16print_expr_await, symObjAddr: 0xEA00, symBinAddr: 0x7D210, symSize: 0x170 }
  - { offset: 0xBC6F2, size: 0x8, addend: 0x0, symName: __RNvNtNtCsdGrGZaRBwMb_3syn4expr8printing16print_expr_break, symObjAddr: 0xEB70, symBinAddr: 0x7D380, symSize: 0x1B0 }
  - { offset: 0xBC751, size: 0x8, addend: 0x0, symName: __RNvNtNtCsdGrGZaRBwMb_3syn4expr8printing16print_expr_field, symObjAddr: 0xED20, symBinAddr: 0x7D530, symSize: 0x170 }
  - { offset: 0xBC7C2, size: 0x8, addend: 0x0, symName: __RNvNtNtCsdGrGZaRBwMb_3syn4expr8printing16print_expr_index, symObjAddr: 0xEE90, symBinAddr: 0x7D6A0, symSize: 0x170 }
  - { offset: 0xBC833, size: 0x8, addend: 0x0, symName: __RNvNtNtCsdGrGZaRBwMb_3syn4expr8printing16print_expr_range, symObjAddr: 0xF000, symBinAddr: 0x7D810, symSize: 0xD0 }
  - { offset: 0xBC8B8, size: 0x8, addend: 0x0, symName: __RNvNtNtCsdGrGZaRBwMb_3syn4expr8printing16print_expr_unary, symObjAddr: 0xF0D0, symBinAddr: 0x7D8E0, symSize: 0x160 }
  - { offset: 0xBC929, size: 0x8, addend: 0x0, symName: __RNvNtNtCsdGrGZaRBwMb_3syn4expr8printing16print_expr_yield, symObjAddr: 0xF230, symBinAddr: 0x7DA40, symSize: 0x110 }
  - { offset: 0xBC988, size: 0x8, addend: 0x0, symName: __RNvNtNtCsdGrGZaRBwMb_3syn4expr8printing17print_expr_assign, symObjAddr: 0xF340, symBinAddr: 0x7DB50, symSize: 0xD0 }
  - { offset: 0xBCA0D, size: 0x8, addend: 0x0, symName: __RNvNtNtCsdGrGZaRBwMb_3syn4expr8printing17print_expr_binary, symObjAddr: 0xF410, symBinAddr: 0x7DC20, symSize: 0xD0 }
  - { offset: 0xBCA92, size: 0x8, addend: 0x0, symName: __RNvNtNtCsdGrGZaRBwMb_3syn4expr8printing17print_expr_return, symObjAddr: 0xF4E0, symBinAddr: 0x7DCF0, symSize: 0x110 }
  - { offset: 0xBCAF1, size: 0x8, addend: 0x0, symName: __RNvNtNtCsdGrGZaRBwMb_3syn4expr8printing18print_expr_closure, symObjAddr: 0xF5F0, symBinAddr: 0x7DE00, symSize: 0x2B0 }
  - { offset: 0xBCB69, size: 0x8, addend: 0x0, symName: __RNvNtNtCsdGrGZaRBwMb_3syn4expr8printing19print_expr_raw_addr, symObjAddr: 0xF8A0, symBinAddr: 0x7E0B0, symSize: 0x180 }
  - { offset: 0xBCBDA, size: 0x8, addend: 0x0, symName: __RNvNtNtCsdGrGZaRBwMb_3syn4expr8printing19print_subexpression, symObjAddr: 0xFA20, symBinAddr: 0x7E230, symSize: 0xB0 }
  - { offset: 0xBCC50, size: 0x8, addend: 0x0, symName: __RNvNtNtCsdGrGZaRBwMb_3syn4expr8printing20print_expr_reference, symObjAddr: 0xFAD0, symBinAddr: 0x7E2E0, symSize: 0x170 }
  - { offset: 0xBCCC1, size: 0x8, addend: 0x0, symName: __RNvNtNtCsdGrGZaRBwMb_3syn4expr8printing21inner_attrs_to_tokens, symObjAddr: 0xFC40, symBinAddr: 0x7E450, symSize: 0x50 }
  - { offset: 0xBCCFA, size: 0x8, addend: 0x0, symName: __RNvNtNtCsdGrGZaRBwMb_3syn4expr8printing21outer_attrs_to_tokens, symObjAddr: 0xFC90, symBinAddr: 0x7E4A0, symSize: 0x50 }
  - { offset: 0xBCD33, size: 0x8, addend: 0x0, symName: __RNvNtNtCsdGrGZaRBwMb_3syn4expr8printing22print_expr_method_call, symObjAddr: 0xFCE0, symBinAddr: 0x7E4F0, symSize: 0x1E0 }
  - { offset: 0xBCF92, size: 0x8, addend: 0x0, symName: __RNcNtNtNtCsdGrGZaRBwMb_3syn4stmt4Stmt5Local0B7_, symObjAddr: 0xD5A0, symBinAddr: 0x7BFC0, symSize: 0x40 }
  - { offset: 0xBCFC1, size: 0x8, addend: 0x0, symName: __RNcNtNtNtCsdGrGZaRBwMb_3syn4stmt4Stmt5Macro0B7_, symObjAddr: 0xD5E0, symBinAddr: 0x7C000, symSize: 0x40 }
  - { offset: 0xBCFF1, size: 0x8, addend: 0x0, symName: __RNvNtNtCsdGrGZaRBwMb_3syn4stmt7parsing10parse_stmt, symObjAddr: 0x113E0, symBinAddr: 0x7FBF0, symSize: 0xFB0 }
  - { offset: 0xBD103, size: 0x8, addend: 0x0, symName: __RNvNtNtCsdGrGZaRBwMb_3syn4stmt7parsing10stmt_local, symObjAddr: 0x12390, symBinAddr: 0x80BA0, symSize: 0x1010 }
  - { offset: 0xBD41E, size: 0x8, addend: 0x0, symName: __RNvNtNtCsdGrGZaRBwMb_3syn4stmt7parsing8stmt_mac, symObjAddr: 0x133A0, symBinAddr: 0x81BB0, symSize: 0x4B0 }
  - { offset: 0xBD517, size: 0x8, addend: 0x0, symName: __RNvNtNtCsdGrGZaRBwMb_3syn4stmt7parsing9stmt_expr, symObjAddr: 0x13850, symBinAddr: 0x82060, symSize: 0x9F0 }
  - { offset: 0xBD6AD, size: 0x8, addend: 0x0, symName: __RNvXs_NtNtCsdGrGZaRBwMb_3syn4stmt7parsingNtB6_5BlockNtNtB8_5parse5Parse5parse, symObjAddr: 0x16860, symBinAddr: 0x83CB0, symSize: 0x2E0 }
  - { offset: 0xBD762, size: 0x8, addend: 0x0, symName: __RNvXNtNtCsdGrGZaRBwMb_3syn4stmt8printingNtB4_5BlockNtNtCs9OU1sGv5X54_5quote9to_tokens8ToTokens9to_tokens, symObjAddr: 0x14BB0, symBinAddr: 0x83270, symSize: 0x30 }
  - { offset: 0xBD7A1, size: 0x8, addend: 0x0, symName: __RNvXs0_NtNtCsdGrGZaRBwMb_3syn4stmt8printingNtB7_5LocalNtNtCs9OU1sGv5X54_5quote9to_tokens8ToTokens9to_tokens, symObjAddr: 0x14CE0, symBinAddr: 0x832F0, symSize: 0x330 }
  - { offset: 0xBD83A, size: 0x8, addend: 0x0, symName: __RNvXs1_NtNtCsdGrGZaRBwMb_3syn4stmt8printingNtB7_9StmtMacroNtNtCs9OU1sGv5X54_5quote9to_tokens8ToTokens9to_tokens, symObjAddr: 0x15550, symBinAddr: 0x837D0, symSize: 0x60 }
  - { offset: 0xBD879, size: 0x8, addend: 0x0, symName: __RNvXs_NtNtCsdGrGZaRBwMb_3syn4stmt8printingNtB6_4StmtNtNtCs9OU1sGv5X54_5quote9to_tokens8ToTokens9to_tokens, symObjAddr: 0x16B40, symBinAddr: 0x83F90, symSize: 0x110 }
  - { offset: 0xC017C, size: 0x8, addend: 0x0, symName: __RNvXsc_NtCsdGrGZaRBwMb_3syn5parseNtCsaKzlTDPUHDb_11proc_macro211TokenStreamNtB5_5Parse5parse, symObjAddr: 0x16DE0, symBinAddr: 0x841B0, symSize: 0x30 }
  - { offset: 0xC02D5, size: 0x8, addend: 0x0, symName: __RNvNtCsdGrGZaRBwMb_3syn8verbatim7between, symObjAddr: 0xDF40, symBinAddr: 0x7C750, symSize: 0x450 }
  - { offset: 0xC03D5, size: 0x8, addend: 0x0, symName: __RNvXNtCsdGrGZaRBwMb_3syn3extNtCsaKzlTDPUHDb_11proc_macro25IdentNtB2_8IdentExt9parse_any, symObjAddr: 0x14B00, symBinAddr: 0x831C0, symSize: 0x30 }
  - { offset: 0xC0407, size: 0x8, addend: 0x0, symName: __RNvXs2_NtCsdGrGZaRBwMb_3syn3extNtCsaKzlTDPUHDb_11proc_macro211TokenStreamNtB5_14TokenStreamExt6append, symObjAddr: 0x15790, symBinAddr: 0x838B0, symSize: 0x40 }
  - { offset: 0xC0444, size: 0x8, addend: 0x0, symName: __RNvXs3_NtCsdGrGZaRBwMb_3syn3extNtCsaKzlTDPUHDb_11proc_macro25PunctNtB5_8PunctExt11new_spanned, symObjAddr: 0x15D10, symBinAddr: 0x83940, symSize: 0x70 }
  - { offset: 0xC04B5, size: 0x8, addend: 0x0, symName: __RNvXNtCsdGrGZaRBwMb_3syn4spanNtCsaKzlTDPUHDb_11proc_macro24SpanINtB2_9IntoSpansBr_E10into_spans, symObjAddr: 0x14B30, symBinAddr: 0x831F0, symSize: 0x20 }
  - { offset: 0xC04E7, size: 0x8, addend: 0x0, symName: __RNvXs0_NtCsdGrGZaRBwMb_3syn4spanNtCsaKzlTDPUHDb_11proc_macro24SpanINtB5_9IntoSpansABu_j2_E10into_spans, symObjAddr: 0x14C50, symBinAddr: 0x832D0, symSize: 0x20 }
  - { offset: 0xC0519, size: 0x8, addend: 0x0, symName: __RNvXs4_NtCsdGrGZaRBwMb_3syn4spanANtCsaKzlTDPUHDb_11proc_macro24Spanj3_INtB5_9IntoSpansBu_E10into_spans, symObjAddr: 0x16100, symBinAddr: 0x839B0, symSize: 0x20 }
  - { offset: 0xC054B, size: 0x8, addend: 0x0, symName: __RNvXs5_NtCsdGrGZaRBwMb_3syn4spanNtCsaKzlTDPUHDb_11proc_macro24SpanINtB5_9IntoSpansNtNtBw_5extra9DelimSpanE10into_spans, symObjAddr: 0x163D0, symBinAddr: 0x839D0, symSize: 0xA0 }
  - { offset: 0xC0593, size: 0x8, addend: 0x0, symName: __RNvXs_NtCsdGrGZaRBwMb_3syn4spanNtCsaKzlTDPUHDb_11proc_macro24SpanINtB4_9IntoSpansABt_j1_E10into_spans, symObjAddr: 0x16800, symBinAddr: 0x83C90, symSize: 0x20 }
  - { offset: 0xC05CB, size: 0x8, addend: 0x0, symName: __RNvXNtCsdGrGZaRBwMb_3syn5identNtCsaKzlTDPUHDb_11proc_macro25IdentINtNtCsieiGu2EXtoJ_4core7convert4FromNtNtB4_5token10UnderscoreE4from, symObjAddr: 0x14B50, symBinAddr: 0x83210, symSize: 0x60 }
  - { offset: 0xC0602, size: 0x8, addend: 0x0, symName: __RNvXNtNtCsdGrGZaRBwMb_3syn5ident7parsingNtCsaKzlTDPUHDb_11proc_macro25IdentNtNtB6_5parse5Parse5parse, symObjAddr: 0x14BE0, symBinAddr: 0x832A0, symSize: 0x30 }
  - { offset: 0xC0634, size: 0x8, addend: 0x0, symName: __RNvXs_NtNtCsdGrGZaRBwMb_3syn5ident7parsingNtCsaKzlTDPUHDb_11proc_macro25IdentNtNtB8_5token5Token4peek, symObjAddr: 0x16C50, symBinAddr: 0x840A0, symSize: 0xF0 }
  - { offset: 0xC0685, size: 0x8, addend: 0x0, symName: __RNvXs_NtNtCsdGrGZaRBwMb_3syn5ident7parsingNtCsaKzlTDPUHDb_11proc_macro25IdentNtNtB8_5token5Token7display, symObjAddr: 0x16D40, symBinAddr: 0x84190, symSize: 0x20 }
  - { offset: 0xC0E15, size: 0x8, addend: 0x0, symName: __RNvXs11_CsaKzlTDPUHDb_11proc_macro2NtB6_7SpacingNtNtCsieiGu2EXtoJ_4core3cmp9PartialEq2eqCsdGrGZaRBwMb_3syn, symObjAddr: 0x15050, symBinAddr: 0x83660, symSize: 0x30 }
  - { offset: 0xC0E94, size: 0x8, addend: 0x0, symName: __RNvXs12_CsaKzlTDPUHDb_11proc_macro2NtB6_5IdentNtNtCsieiGu2EXtoJ_4core5clone5Clone5cloneCsdGrGZaRBwMb_3syn, symObjAddr: 0x15080, symBinAddr: 0x83690, symSize: 0x80 }
  - { offset: 0xC0EC8, size: 0x8, addend: 0x0, symName: __RNvXs13_CsaKzlTDPUHDb_11proc_macro2NtB6_7LiteralNtNtCsieiGu2EXtoJ_4core5clone5Clone5cloneCsdGrGZaRBwMb_3syn, symObjAddr: 0x15100, symBinAddr: 0x83710, symSize: 0x80 }
  - { offset: 0xC0EFC, size: 0x8, addend: 0x0, symName: __RNvXsK_CsaKzlTDPUHDb_11proc_macro2NtB5_11TokenStreamNtNtCsieiGu2EXtoJ_4core5clone5Clone5cloneCsdGrGZaRBwMb_3syn, symObjAddr: 0x16610, symBinAddr: 0x83AA0, symSize: 0x90 }
  - { offset: 0xC0F2E, size: 0x8, addend: 0x0, symName: __RNvXsM_CsaKzlTDPUHDb_11proc_macro2NtB5_4SpanNtNtCsieiGu2EXtoJ_4core5clone5Clone5cloneCsdGrGZaRBwMb_3syn, symObjAddr: 0x166A0, symBinAddr: 0x83B30, symSize: 0x10 }
  - { offset: 0xC0F62, size: 0x8, addend: 0x0, symName: __RNvXsO_CsaKzlTDPUHDb_11proc_macro2NtB5_5GroupNtNtCsieiGu2EXtoJ_4core5clone5Clone5cloneCsdGrGZaRBwMb_3syn, symObjAddr: 0x166B0, symBinAddr: 0x83B40, symSize: 0x50 }
  - { offset: 0xC0F96, size: 0x8, addend: 0x0, symName: __RNvXsQ_CsaKzlTDPUHDb_11proc_macro2NtB5_9DelimiterNtNtCsieiGu2EXtoJ_4core5clone5Clone5cloneCsdGrGZaRBwMb_3syn, symObjAddr: 0x16700, symBinAddr: 0x83B90, symSize: 0x10 }
  - { offset: 0xC0FCA, size: 0x8, addend: 0x0, symName: __RNvXsU_CsaKzlTDPUHDb_11proc_macro2NtB5_9DelimiterNtNtCsieiGu2EXtoJ_4core3cmp9PartialEq2eqCsdGrGZaRBwMb_3syn, symObjAddr: 0x16710, symBinAddr: 0x83BA0, symSize: 0x30 }
  - { offset: 0xC1049, size: 0x8, addend: 0x0, symName: __RNvXsV_CsaKzlTDPUHDb_11proc_macro2NtB5_5PunctNtNtCsieiGu2EXtoJ_4core5clone5Clone5cloneCsdGrGZaRBwMb_3syn, symObjAddr: 0x16790, symBinAddr: 0x83C20, symSize: 0x60 }
  - { offset: 0xC107D, size: 0x8, addend: 0x0, symName: __RNvXsX_CsaKzlTDPUHDb_11proc_macro2NtB5_7SpacingNtNtCsieiGu2EXtoJ_4core5clone5Clone5cloneCsdGrGZaRBwMb_3syn, symObjAddr: 0x167F0, symBinAddr: 0x83C80, symSize: 0x10 }
  - { offset: 0xC10B1, size: 0x8, addend: 0x0, symName: __RNvXsz_CsaKzlTDPUHDb_11proc_macro2NtB5_5IdentINtNtCsieiGu2EXtoJ_4core3cmp9PartialEqReE2eqCsdGrGZaRBwMb_3syn, symObjAddr: 0x17430, symBinAddr: 0x84480, symSize: 0x30 }
  - { offset: 0xC10F7, size: 0x8, addend: 0x0, symName: __RNvXsz_CsaKzlTDPUHDb_11proc_macro2NtB5_5IdentINtNtCsieiGu2EXtoJ_4core3cmp9PartialEqeE2eqCsdGrGZaRBwMb_3syn, symObjAddr: 0x17460, symBinAddr: 0x844B0, symSize: 0x30 }
  - { offset: 0xC1581, size: 0x8, addend: 0x0, symName: __RNvXs10_CscKtU6MdFI5n_10proc_macroNtB6_5GroupNtNtCsieiGu2EXtoJ_4core5clone5Clone5cloneCsdGrGZaRBwMb_3syn, symObjAddr: 0x15010, symBinAddr: 0x83620, symSize: 0x40 }
  - { offset: 0xC15B5, size: 0x8, addend: 0x0, symName: __RNvXs1e_CscKtU6MdFI5n_10proc_macroNtB6_5IdentNtNtCsieiGu2EXtoJ_4core5clone5Clone5cloneCsdGrGZaRBwMb_3syn, symObjAddr: 0x155B0, symBinAddr: 0x83830, symSize: 0x40 }
  - { offset: 0xC15E9, size: 0x8, addend: 0x0, symName: __RNvXs1f_CscKtU6MdFI5n_10proc_macroNtB6_7LiteralNtNtCsieiGu2EXtoJ_4core5clone5Clone5cloneCsdGrGZaRBwMb_3syn, symObjAddr: 0x155F0, symBinAddr: 0x83870, symSize: 0x40 }
  - { offset: 0xC161D, size: 0x8, addend: 0x0, symName: __RNvXsU_CscKtU6MdFI5n_10proc_macroNtB5_11TokenStreamNtNtCsieiGu2EXtoJ_4core5clone5Clone5cloneCsdGrGZaRBwMb_3syn, symObjAddr: 0x16740, symBinAddr: 0x83BD0, symSize: 0x50 }
  - { offset: 0xC1FEC, size: 0x8, addend: 0x0, symName: __RINvNtCsieiGu2EXtoJ_4core3ptr13drop_in_placeINtNtB4_3pin3PinINtNtCslJiobkLta79_5alloc4sync3ArcNtNtCsHUR1vrdMJt_3std6thread5InnerEEECsdGrGZaRBwMb_3syn, symObjAddr: 0x30, symBinAddr: 0x6FCA0, symSize: 0x20 }
  - { offset: 0xC201B, size: 0x8, addend: 0x0, symName: __RINvNtCsieiGu2EXtoJ_4core3ptr13drop_in_placeINtNtB4_4cell10UnsafeCellINtNtB4_6option6OptionINtNtCslJiobkLta79_5alloc2rc2RcINtBJ_4CellNtNtCsdGrGZaRBwMb_3syn5parse10UnexpectedEEEEEB2b_, symObjAddr: 0x50, symBinAddr: 0x6FCC0, symSize: 0x20 }
  - { offset: 0xC204A, size: 0x8, addend: 0x0, symName: __RINvNtCsieiGu2EXtoJ_4core3ptr13drop_in_placeINtNtB4_4cell10UnsafeCellINtNtCslJiobkLta79_5alloc3vec3VecReEEECsdGrGZaRBwMb_3syn, symObjAddr: 0x70, symBinAddr: 0x6FCE0, symSize: 0x20 }
  - { offset: 0xC2079, size: 0x8, addend: 0x0, symName: __RINvNtCsieiGu2EXtoJ_4core3ptr13drop_in_placeINtNtB4_4cell10UnsafeCellNtNtCsdGrGZaRBwMb_3syn5parse10UnexpectedEEB19_, symObjAddr: 0x90, symBinAddr: 0x6FD00, symSize: 0x20 }
  - { offset: 0xC20A8, size: 0x8, addend: 0x0, symName: __RINvNtCsieiGu2EXtoJ_4core3ptr13drop_in_placeINtNtB4_4cell4CellINtNtB4_6option6OptionINtNtCslJiobkLta79_5alloc2rc2RcIBH_NtNtCsdGrGZaRBwMb_3syn5parse10UnexpectedEEEEEB1X_, symObjAddr: 0xB0, symBinAddr: 0x6FD20, symSize: 0x20 }
  - { offset: 0xC20D7, size: 0x8, addend: 0x0, symName: __RINvNtCsieiGu2EXtoJ_4core3ptr13drop_in_placeINtNtB4_4cell4CellNtNtCsdGrGZaRBwMb_3syn5parse10UnexpectedEEB12_, symObjAddr: 0xD0, symBinAddr: 0x6FD40, symSize: 0x20 }
  - { offset: 0xC2106, size: 0x8, addend: 0x0, symName: __RINvNtCsieiGu2EXtoJ_4core3ptr13drop_in_placeINtNtB4_4cell6RefMutINtNtCslJiobkLta79_5alloc3vec3VecReEEECsdGrGZaRBwMb_3syn, symObjAddr: 0xF0, symBinAddr: 0x6FD60, symSize: 0x20 }
  - { offset: 0xC2135, size: 0x8, addend: 0x0, symName: __RINvNtCsieiGu2EXtoJ_4core3ptr13drop_in_placeINtNtB4_4cell7RefCellINtNtCslJiobkLta79_5alloc3vec3VecReEEECsdGrGZaRBwMb_3syn, symObjAddr: 0x110, symBinAddr: 0x6FD80, symSize: 0x20 }
  - { offset: 0xC2164, size: 0x8, addend: 0x0, symName: __RINvNtCsieiGu2EXtoJ_4core3ptr13drop_in_placeINtNtB4_6option4ItemNtNtCsdGrGZaRBwMb_3syn4path11PathSegmentEEB14_, symObjAddr: 0x130, symBinAddr: 0x6FDA0, symSize: 0x20 }
  - { offset: 0xC2193, size: 0x8, addend: 0x0, symName: __RINvNtCsieiGu2EXtoJ_4core3ptr13drop_in_placeINtNtB4_6option6OptionINtNtCsdGrGZaRBwMb_3syn10punctuated4PairNtNtB17_4path11PathSegmentNtNtB17_5token7PathSepEEEB17_, symObjAddr: 0x150, symBinAddr: 0x6FDC0, symSize: 0x40 }
  - { offset: 0xC21C2, size: 0x8, addend: 0x0, symName: __RINvNtCsieiGu2EXtoJ_4core3ptr13drop_in_placeINtNtB4_6option6OptionINtNtCslJiobkLta79_5alloc2rc2RcINtNtB4_4cell4CellNtNtCsdGrGZaRBwMb_3syn5parse10UnexpectedEEEEB1T_, symObjAddr: 0x190, symBinAddr: 0x6FE00, symSize: 0x40 }
  - { offset: 0xC21F1, size: 0x8, addend: 0x0, symName: __RINvNtCsieiGu2EXtoJ_4core3ptr13drop_in_placeINtNtB4_6option6OptionINtNtCslJiobkLta79_5alloc5boxed3BoxNtNtCsdGrGZaRBwMb_3syn2ty4TypeEEEB1F_, symObjAddr: 0x1D0, symBinAddr: 0x6FE40, symSize: 0x40 }
  - { offset: 0xC2220, size: 0x8, addend: 0x0, symName: __RINvNtCsieiGu2EXtoJ_4core3ptr13drop_in_placeINtNtB4_6option6OptionINtNtCslJiobkLta79_5alloc5boxed3BoxNtNtCsdGrGZaRBwMb_3syn2ty9BareFnArgEEEB1F_, symObjAddr: 0x210, symBinAddr: 0x6FE80, symSize: 0x40 }
  - { offset: 0xC224F, size: 0x8, addend: 0x0, symName: __RINvNtCsieiGu2EXtoJ_4core3ptr13drop_in_placeINtNtB4_6option6OptionINtNtCslJiobkLta79_5alloc5boxed3BoxNtNtCsdGrGZaRBwMb_3syn3pat3PatEEEB1F_, symObjAddr: 0x250, symBinAddr: 0x6FEC0, symSize: 0x40 }
  - { offset: 0xC227E, size: 0x8, addend: 0x0, symName: __RINvNtCsieiGu2EXtoJ_4core3ptr13drop_in_placeINtNtB4_6option6OptionINtNtCslJiobkLta79_5alloc5boxed3BoxNtNtCsdGrGZaRBwMb_3syn3pat8FieldPatEEEB1F_, symObjAddr: 0x290, symBinAddr: 0x6FF00, symSize: 0x40 }
  - { offset: 0xC22AD, size: 0x8, addend: 0x0, symName: __RINvNtCsieiGu2EXtoJ_4core3ptr13drop_in_placeINtNtB4_6option6OptionINtNtCslJiobkLta79_5alloc5boxed3BoxNtNtCsdGrGZaRBwMb_3syn4data5FieldEEEB1F_, symObjAddr: 0x2D0, symBinAddr: 0x6FF40, symSize: 0x40 }
  - { offset: 0xC22DC, size: 0x8, addend: 0x0, symName: __RINvNtCsieiGu2EXtoJ_4core3ptr13drop_in_placeINtNtB4_6option6OptionINtNtCslJiobkLta79_5alloc5boxed3BoxNtNtCsdGrGZaRBwMb_3syn4data7VariantEEEB1F_, symObjAddr: 0x310, symBinAddr: 0x6FF80, symSize: 0x40 }
  - { offset: 0xC230B, size: 0x8, addend: 0x0, symName: __RINvNtCsieiGu2EXtoJ_4core3ptr13drop_in_placeINtNtB4_6option6OptionINtNtCslJiobkLta79_5alloc5boxed3BoxNtNtCsdGrGZaRBwMb_3syn4expr10FieldValueEEEB1F_, symObjAddr: 0x350, symBinAddr: 0x6FFC0, symSize: 0x40 }
  - { offset: 0xC233A, size: 0x8, addend: 0x0, symName: __RINvNtCsieiGu2EXtoJ_4core3ptr13drop_in_placeINtNtB4_6option6OptionINtNtCslJiobkLta79_5alloc5boxed3BoxNtNtCsdGrGZaRBwMb_3syn4expr4ExprEEEB1F_, symObjAddr: 0x390, symBinAddr: 0x70000, symSize: 0x40 }
  - { offset: 0xC2369, size: 0x8, addend: 0x0, symName: __RINvNtCsieiGu2EXtoJ_4core3ptr13drop_in_placeINtNtB4_6option6OptionINtNtCslJiobkLta79_5alloc5boxed3BoxNtNtCsdGrGZaRBwMb_3syn4item5FnArgEEEB1F_, symObjAddr: 0x3D0, symBinAddr: 0x70040, symSize: 0x40 }
  - { offset: 0xC2398, size: 0x8, addend: 0x0, symName: __RINvNtCsieiGu2EXtoJ_4core3ptr13drop_in_placeINtNtB4_6option6OptionINtNtCslJiobkLta79_5alloc5boxed3BoxNtNtCsdGrGZaRBwMb_3syn4item7UseTreeEEEB1F_, symObjAddr: 0x410, symBinAddr: 0x70080, symSize: 0x40 }
  - { offset: 0xC23C7, size: 0x8, addend: 0x0, symName: __RINvNtCsieiGu2EXtoJ_4core3ptr13drop_in_placeINtNtB4_6option6OptionINtNtCslJiobkLta79_5alloc5boxed3BoxNtNtCsdGrGZaRBwMb_3syn4path11PathSegmentEEEB1F_, symObjAddr: 0x450, symBinAddr: 0x700C0, symSize: 0x40 }
  - { offset: 0xC23F6, size: 0x8, addend: 0x0, symName: __RINvNtCsieiGu2EXtoJ_4core3ptr13drop_in_placeINtNtB4_6option6OptionINtNtCslJiobkLta79_5alloc5boxed3BoxNtNtCsdGrGZaRBwMb_3syn4path15GenericArgumentEEEB1F_, symObjAddr: 0x490, symBinAddr: 0x70100, symSize: 0x40 }
  - { offset: 0xC2425, size: 0x8, addend: 0x0, symName: __RINvNtCsieiGu2EXtoJ_4core3ptr13drop_in_placeINtNtB4_6option6OptionINtNtCslJiobkLta79_5alloc5boxed3BoxNtNtCsdGrGZaRBwMb_3syn8generics12GenericParamEEEB1F_, symObjAddr: 0x4D0, symBinAddr: 0x70140, symSize: 0x40 }
  - { offset: 0xC2454, size: 0x8, addend: 0x0, symName: __RINvNtCsieiGu2EXtoJ_4core3ptr13drop_in_placeINtNtB4_6option6OptionINtNtCslJiobkLta79_5alloc5boxed3BoxNtNtCsdGrGZaRBwMb_3syn8generics13CapturedParamEEEB1F_, symObjAddr: 0x510, symBinAddr: 0x70180, symSize: 0x40 }
  - { offset: 0xC2483, size: 0x8, addend: 0x0, symName: __RINvNtCsieiGu2EXtoJ_4core3ptr13drop_in_placeINtNtB4_6option6OptionINtNtCslJiobkLta79_5alloc5boxed3BoxNtNtCsdGrGZaRBwMb_3syn8generics14TypeParamBoundEEEB1F_, symObjAddr: 0x550, symBinAddr: 0x701C0, symSize: 0x40 }
  - { offset: 0xC24B2, size: 0x8, addend: 0x0, symName: __RINvNtCsieiGu2EXtoJ_4core3ptr13drop_in_placeINtNtB4_6option6OptionINtNtCslJiobkLta79_5alloc5boxed3BoxNtNtCsdGrGZaRBwMb_3syn8generics14WherePredicateEEEB1F_, symObjAddr: 0x590, symBinAddr: 0x70200, symSize: 0x40 }
  - { offset: 0xC24E1, size: 0x8, addend: 0x0, symName: __RINvNtCsieiGu2EXtoJ_4core3ptr13drop_in_placeINtNtB4_6option6OptionINtNtCslJiobkLta79_5alloc5boxed3BoxNtNtCsdGrGZaRBwMb_3syn8lifetime8LifetimeEEEB1F_, symObjAddr: 0x5D0, symBinAddr: 0x70240, symSize: 0x40 }
  - { offset: 0xC2510, size: 0x8, addend: 0x0, symName: __RINvNtCsieiGu2EXtoJ_4core3ptr13drop_in_placeINtNtB4_6option6OptionNtCsaKzlTDPUHDb_11proc_macro25IdentEECsdGrGZaRBwMb_3syn, symObjAddr: 0x610, symBinAddr: 0x70280, symSize: 0x40 }
  - { offset: 0xC253F, size: 0x8, addend: 0x0, symName: __RINvNtCsieiGu2EXtoJ_4core3ptr13drop_in_placeINtNtB4_6option6OptionNtNtCsdGrGZaRBwMb_3syn2ty12BareVariadicEEB16_, symObjAddr: 0x650, symBinAddr: 0x702C0, symSize: 0x40 }
  - { offset: 0xC256E, size: 0x8, addend: 0x0, symName: __RINvNtCsieiGu2EXtoJ_4core3ptr13drop_in_placeINtNtB4_6option6OptionNtNtCsdGrGZaRBwMb_3syn2ty3AbiEEB16_, symObjAddr: 0x690, symBinAddr: 0x70300, symSize: 0x30 }
  - { offset: 0xC259D, size: 0x8, addend: 0x0, symName: __RINvNtCsieiGu2EXtoJ_4core3ptr13drop_in_placeINtNtB4_6option6OptionNtNtCsdGrGZaRBwMb_3syn2ty4TypeEEB16_, symObjAddr: 0x6C0, symBinAddr: 0x70330, symSize: 0x40 }
  - { offset: 0xC25CC, size: 0x8, addend: 0x0, symName: __RINvNtCsieiGu2EXtoJ_4core3ptr13drop_in_placeINtNtB4_6option6OptionNtNtCsdGrGZaRBwMb_3syn3lit3LitEEB16_, symObjAddr: 0x700, symBinAddr: 0x70370, symSize: 0x40 }
  - { offset: 0xC25FB, size: 0x8, addend: 0x0, symName: __RINvNtCsieiGu2EXtoJ_4core3ptr13drop_in_placeINtNtB4_6option6OptionNtNtCsdGrGZaRBwMb_3syn3lit6LitStrEEB16_, symObjAddr: 0x740, symBinAddr: 0x703B0, symSize: 0x40 }
  - { offset: 0xC262A, size: 0x8, addend: 0x0, symName: __RINvNtCsieiGu2EXtoJ_4core3ptr13drop_in_placeINtNtB4_6option6OptionNtNtCsdGrGZaRBwMb_3syn3pat7PatRestEEB16_, symObjAddr: 0x780, symBinAddr: 0x703F0, symSize: 0x40 }
  - { offset: 0xC2659, size: 0x8, addend: 0x0, symName: __RINvNtCsieiGu2EXtoJ_4core3ptr13drop_in_placeINtNtB4_6option6OptionNtNtCsdGrGZaRBwMb_3syn4expr4ExprEEB16_, symObjAddr: 0x7C0, symBinAddr: 0x70430, symSize: 0x40 }
  - { offset: 0xC2688, size: 0x8, addend: 0x0, symName: __RINvNtCsieiGu2EXtoJ_4core3ptr13drop_in_placeINtNtB4_6option6OptionNtNtCsdGrGZaRBwMb_3syn4expr5LabelEEB16_, symObjAddr: 0x800, symBinAddr: 0x70470, symSize: 0x40 }
  - { offset: 0xC26B7, size: 0x8, addend: 0x0, symName: __RINvNtCsieiGu2EXtoJ_4core3ptr13drop_in_placeINtNtB4_6option6OptionNtNtCsdGrGZaRBwMb_3syn4item7UseTreeEEB16_, symObjAddr: 0x840, symBinAddr: 0x704B0, symSize: 0x40 }
  - { offset: 0xC26E6, size: 0x8, addend: 0x0, symName: __RINvNtCsieiGu2EXtoJ_4core3ptr13drop_in_placeINtNtB4_6option6OptionNtNtCsdGrGZaRBwMb_3syn4item8VariadicEEB16_, symObjAddr: 0x880, symBinAddr: 0x704F0, symSize: 0x40 }
  - { offset: 0xC2715, size: 0x8, addend: 0x0, symName: __RINvNtCsieiGu2EXtoJ_4core3ptr13drop_in_placeINtNtB4_6option6OptionNtNtCsdGrGZaRBwMb_3syn4item9SignatureEEB16_, symObjAddr: 0x8C0, symBinAddr: 0x70530, symSize: 0x40 }
  - { offset: 0xC2744, size: 0x8, addend: 0x0, symName: __RINvNtCsieiGu2EXtoJ_4core3ptr13drop_in_placeINtNtB4_6option6OptionNtNtCsdGrGZaRBwMb_3syn4path11PathSegmentEEB16_, symObjAddr: 0x900, symBinAddr: 0x70570, symSize: 0x40 }
  - { offset: 0xC2773, size: 0x8, addend: 0x0, symName: __RINvNtCsieiGu2EXtoJ_4core3ptr13drop_in_placeINtNtB4_6option6OptionNtNtCsdGrGZaRBwMb_3syn4path30AngleBracketedGenericArgumentsEEB16_, symObjAddr: 0x940, symBinAddr: 0x705B0, symSize: 0x40 }
  - { offset: 0xC27A2, size: 0x8, addend: 0x0, symName: __RINvNtCsieiGu2EXtoJ_4core3ptr13drop_in_placeINtNtB4_6option6OptionNtNtCsdGrGZaRBwMb_3syn4path5QSelfEEB16_, symObjAddr: 0x980, symBinAddr: 0x705F0, symSize: 0x40 }
  - { offset: 0xC27D1, size: 0x8, addend: 0x0, symName: __RINvNtCsieiGu2EXtoJ_4core3ptr13drop_in_placeINtNtB4_6option6OptionNtNtCsdGrGZaRBwMb_3syn4stmt5BlockEEB16_, symObjAddr: 0x9C0, symBinAddr: 0x70630, symSize: 0x40 }
  - { offset: 0xC2800, size: 0x8, addend: 0x0, symName: __RINvNtCsieiGu2EXtoJ_4core3ptr13drop_in_placeINtNtB4_6option6OptionNtNtCsdGrGZaRBwMb_3syn4stmt9LocalInitEEB16_, symObjAddr: 0xA00, symBinAddr: 0x70670, symSize: 0x40 }
  - { offset: 0xC282F, size: 0x8, addend: 0x0, symName: __RINvNtCsieiGu2EXtoJ_4core3ptr13drop_in_placeINtNtB4_6option6OptionNtNtCsdGrGZaRBwMb_3syn8generics11WhereClauseEEB16_, symObjAddr: 0xA40, symBinAddr: 0x706B0, symSize: 0x40 }
  - { offset: 0xC285E, size: 0x8, addend: 0x0, symName: __RINvNtCsieiGu2EXtoJ_4core3ptr13drop_in_placeINtNtB4_6option6OptionNtNtCsdGrGZaRBwMb_3syn8generics14BoundLifetimesEEB16_, symObjAddr: 0xA80, symBinAddr: 0x706F0, symSize: 0x40 }
  - { offset: 0xC288D, size: 0x8, addend: 0x0, symName: __RINvNtCsieiGu2EXtoJ_4core3ptr13drop_in_placeINtNtB4_6option6OptionNtNtCsdGrGZaRBwMb_3syn8lifetime8LifetimeEEB16_, symObjAddr: 0xAC0, symBinAddr: 0x70730, symSize: 0x40 }
  - { offset: 0xC28BC, size: 0x8, addend: 0x0, symName: __RINvNtCsieiGu2EXtoJ_4core3ptr13drop_in_placeINtNtB4_6option6OptionNtNtNtCsdGrGZaRBwMb_3syn3pat7parsing13PatRangeBoundEEB18_, symObjAddr: 0xB40, symBinAddr: 0x70770, symSize: 0x40 }
  - { offset: 0xC28EB, size: 0x8, addend: 0x0, symName: __RINvNtCsieiGu2EXtoJ_4core3ptr13drop_in_placeINtNtB4_6option6OptionTIBH_NtNtCsdGrGZaRBwMb_3syn5token3NotENtNtB1b_4path4PathNtB19_3ForEEEB1b_, symObjAddr: 0xB80, symBinAddr: 0x707B0, symSize: 0x40 }
  - { offset: 0xC291A, size: 0x8, addend: 0x0, symName: __RINvNtCsieiGu2EXtoJ_4core3ptr13drop_in_placeINtNtB4_6option6OptionTINtNtCslJiobkLta79_5alloc5boxed3BoxNtNtCsdGrGZaRBwMb_3syn3pat3PatENtNtB1G_5token5ColonEEEB1G_, symObjAddr: 0xBC0, symBinAddr: 0x707F0, symSize: 0x40 }
  - { offset: 0xC2949, size: 0x8, addend: 0x0, symName: __RINvNtCsieiGu2EXtoJ_4core3ptr13drop_in_placeINtNtB4_6option6OptionTNtCsaKzlTDPUHDb_11proc_macro25IdentNtNtCsdGrGZaRBwMb_3syn5token5ColonEEEB1G_, symObjAddr: 0xC00, symBinAddr: 0x70830, symSize: 0x40 }
  - { offset: 0xC2978, size: 0x8, addend: 0x0, symName: __RINvNtCsieiGu2EXtoJ_4core3ptr13drop_in_placeINtNtB4_6option6OptionTNtCsaKzlTDPUHDb_11proc_macro25IdentNtNtCsdGrGZaRBwMb_3syn6buffer6CursorEEEB1G_, symObjAddr: 0xC40, symBinAddr: 0x70870, symSize: 0x40 }
  - { offset: 0xC29A7, size: 0x8, addend: 0x0, symName: __RINvNtCsieiGu2EXtoJ_4core3ptr13drop_in_placeINtNtB4_6option6OptionTNtNtCsdGrGZaRBwMb_3syn5token2AsNtCsaKzlTDPUHDb_11proc_macro25IdentEEEB17_, symObjAddr: 0xD00, symBinAddr: 0x708B0, symSize: 0x40 }
  - { offset: 0xC29D6, size: 0x8, addend: 0x0, symName: __RINvNtCsieiGu2EXtoJ_4core3ptr13drop_in_placeINtNtB4_6option6OptionTNtNtCsdGrGZaRBwMb_3syn5token2AsNtNtB17_4path4PathEEEB17_, symObjAddr: 0xD40, symBinAddr: 0x708F0, symSize: 0x40 }
  - { offset: 0xC2A05, size: 0x8, addend: 0x0, symName: __RINvNtCsieiGu2EXtoJ_4core3ptr13drop_in_placeINtNtB4_6option6OptionTNtNtCsdGrGZaRBwMb_3syn5token2AtINtNtCslJiobkLta79_5alloc5boxed3BoxNtNtB17_3pat3PatEEEEB17_, symObjAddr: 0xD80, symBinAddr: 0x70930, symSize: 0x40 }
  - { offset: 0xC2A34, size: 0x8, addend: 0x0, symName: __RINvNtCsieiGu2EXtoJ_4core3ptr13drop_in_placeINtNtB4_6option6OptionTNtNtCsdGrGZaRBwMb_3syn5token2EqNtNtB17_2ty4TypeEEEB17_, symObjAddr: 0xDC0, symBinAddr: 0x70970, symSize: 0x40 }
  - { offset: 0xC2A63, size: 0x8, addend: 0x0, symName: __RINvNtCsieiGu2EXtoJ_4core3ptr13drop_in_placeINtNtB4_6option6OptionTNtNtCsdGrGZaRBwMb_3syn5token2EqNtNtB17_4expr4ExprEEEB17_, symObjAddr: 0xE00, symBinAddr: 0x709B0, symSize: 0x40 }
  - { offset: 0xC2A92, size: 0x8, addend: 0x0, symName: __RINvNtCsieiGu2EXtoJ_4core3ptr13drop_in_placeINtNtB4_6option6OptionTNtNtCsdGrGZaRBwMb_3syn5token2IfINtNtCslJiobkLta79_5alloc5boxed3BoxNtNtB17_4expr4ExprEEEEB17_, symObjAddr: 0xE40, symBinAddr: 0x709F0, symSize: 0x40 }
  - { offset: 0xC2AC1, size: 0x8, addend: 0x0, symName: __RINvNtCsieiGu2EXtoJ_4core3ptr13drop_in_placeINtNtB4_6option6OptionTNtNtCsdGrGZaRBwMb_3syn5token3AndIBH_NtNtB17_8lifetime8LifetimeEEEEB17_, symObjAddr: 0xE80, symBinAddr: 0x70A30, symSize: 0x40 }
  - { offset: 0xC2AF0, size: 0x8, addend: 0x0, symName: __RINvNtCsieiGu2EXtoJ_4core3ptr13drop_in_placeINtNtB4_6option6OptionTNtNtCsdGrGZaRBwMb_3syn5token4ElseINtNtCslJiobkLta79_5alloc5boxed3BoxNtNtB17_4expr4ExprEEEEB17_, symObjAddr: 0xEC0, symBinAddr: 0x70A70, symSize: 0x40 }
  - { offset: 0xC2B1F, size: 0x8, addend: 0x0, symName: __RINvNtCsieiGu2EXtoJ_4core3ptr13drop_in_placeINtNtB4_6option6OptionTNtNtCsdGrGZaRBwMb_3syn5token5BraceINtNtCslJiobkLta79_5alloc3vec3VecNtNtB17_4item4ItemEEEEB17_, symObjAddr: 0xF00, symBinAddr: 0x70AB0, symSize: 0x40 }
  - { offset: 0xC2B4E, size: 0x8, addend: 0x0, symName: __RINvNtCsieiGu2EXtoJ_4core3ptr13drop_in_placeINtNtB4_6option6OptionTNtNtCsdGrGZaRBwMb_3syn8lifetime8LifetimeNtNtB17_6buffer6CursorEEEB17_, symObjAddr: 0xF40, symBinAddr: 0x70AF0, symSize: 0x40 }
  - { offset: 0xC2B7D, size: 0x8, addend: 0x0, symName: __RINvNtCsieiGu2EXtoJ_4core3ptr13drop_in_placeINtNtB4_6option8IntoIterNtNtCsdGrGZaRBwMb_3syn4path11PathSegmentEEB18_, symObjAddr: 0xF80, symBinAddr: 0x70B30, symSize: 0x20 }
  - { offset: 0xC2BAC, size: 0x8, addend: 0x0, symName: __RINvNtCsieiGu2EXtoJ_4core3ptr13drop_in_placeINtNtB4_6result6ResultINtNtB4_6option6OptionNtNtCsdGrGZaRBwMb_3syn2ty3AbiENtNtB1s_5error5ErrorEEB1s_, symObjAddr: 0xFA0, symBinAddr: 0x70B50, symSize: 0x40 }
  - { offset: 0xC2BDB, size: 0x8, addend: 0x0, symName: __RINvNtCsieiGu2EXtoJ_4core3ptr13drop_in_placeINtNtB4_6result6ResultINtNtB4_6option6OptionNtNtCsdGrGZaRBwMb_3syn5token5AsyncENtNtB1s_5error5ErrorEEB1s_, symObjAddr: 0xFE0, symBinAddr: 0x70B90, symSize: 0x40 }
  - { offset: 0xC2C0A, size: 0x8, addend: 0x0, symName: __RINvNtCsieiGu2EXtoJ_4core3ptr13drop_in_placeINtNtB4_6result6ResultINtNtB4_6option6OptionNtNtCsdGrGZaRBwMb_3syn5token5ConstENtNtB1s_5error5ErrorEEB1s_, symObjAddr: 0x1020, symBinAddr: 0x70BD0, symSize: 0x40 }
  - { offset: 0xC2C39, size: 0x8, addend: 0x0, symName: __RINvNtCsieiGu2EXtoJ_4core3ptr13drop_in_placeINtNtB4_6result6ResultINtNtB4_6option6OptionNtNtCsdGrGZaRBwMb_3syn5token6UnsafeENtNtB1s_5error5ErrorEEB1s_, symObjAddr: 0x1060, symBinAddr: 0x70C10, symSize: 0x40 }
  - { offset: 0xC2C68, size: 0x8, addend: 0x0, symName: __RINvNtCsieiGu2EXtoJ_4core3ptr13drop_in_placeINtNtB4_6result6ResultNtCsaKzlTDPUHDb_11proc_macro24SpanNtNtCsdGrGZaRBwMb_3syn5error5ErrorEEB1E_, symObjAddr: 0x10A0, symBinAddr: 0x70C50, symSize: 0x40 }
  - { offset: 0xC2C97, size: 0x8, addend: 0x0, symName: __RINvNtCsieiGu2EXtoJ_4core3ptr13drop_in_placeINtNtB4_6result6ResultNtNtCsdGrGZaRBwMb_3syn2op5BinOpNtNtB16_5error5ErrorEEB16_, symObjAddr: 0x10E0, symBinAddr: 0x70C90, symSize: 0x40 }
  - { offset: 0xC2CC6, size: 0x8, addend: 0x0, symName: __RINvNtCsieiGu2EXtoJ_4core3ptr13drop_in_placeINtNtB4_6result6ResultNtNtCsdGrGZaRBwMb_3syn3lit3LitNtNtB16_5error5ErrorEEB16_, symObjAddr: 0x1170, symBinAddr: 0x70CD0, symSize: 0x40 }
  - { offset: 0xC2CF5, size: 0x8, addend: 0x0, symName: __RINvNtCsieiGu2EXtoJ_4core3ptr13drop_in_placeINtNtB4_6result6ResultNtNtCsdGrGZaRBwMb_3syn3lit6LitIntNtNtB16_5error5ErrorEEB16_, symObjAddr: 0x11B0, symBinAddr: 0x70D10, symSize: 0x50 }
  - { offset: 0xC2D24, size: 0x8, addend: 0x0, symName: __RINvNtCsieiGu2EXtoJ_4core3ptr13drop_in_placeINtNtB4_6result6ResultNtNtCsdGrGZaRBwMb_3syn3lit6LitStrNtNtB16_5error5ErrorEEB16_, symObjAddr: 0x1200, symBinAddr: 0x70D60, symSize: 0x50 }
  - { offset: 0xC2D53, size: 0x8, addend: 0x0, symName: __RINvNtCsieiGu2EXtoJ_4core3ptr13drop_in_placeINtNtB4_6result6ResultNtNtCsdGrGZaRBwMb_3syn3lit8LitFloatNtNtB16_5error5ErrorEEB16_, symObjAddr: 0x1380, symBinAddr: 0x70DB0, symSize: 0x50 }
  - { offset: 0xC2D82, size: 0x8, addend: 0x0, symName: __RINvNtCsieiGu2EXtoJ_4core3ptr13drop_in_placeINtNtB4_6result6ResultNtNtCsdGrGZaRBwMb_3syn4path4PathNtNtB16_5error5ErrorEEB16_, symObjAddr: 0x13D0, symBinAddr: 0x70E00, symSize: 0x50 }
  - { offset: 0xC2DB1, size: 0x8, addend: 0x0, symName: __RINvNtCsieiGu2EXtoJ_4core3ptr13drop_in_placeINtNtB4_6result6ResultNtNtNtCslJiobkLta79_5alloc3ffi5c_str7CStringNtB14_8NulErrorEECsdGrGZaRBwMb_3syn, symObjAddr: 0x1420, symBinAddr: 0x70E50, symSize: 0x50 }
  - { offset: 0xC2DE0, size: 0x8, addend: 0x0, symName: __RINvNtCsieiGu2EXtoJ_4core3ptr13drop_in_placeINtNtB4_6result6ResultTINtNtB4_6option6OptionTNtNtCsdGrGZaRBwMb_3syn5token3AndIB14_NtNtB1u_8lifetime8LifetimeEEEIB14_NtB1s_3MutENtB1s_9SelfValueENtNtB1u_5error5ErrorEEB1u_, symObjAddr: 0x1470, symBinAddr: 0x70EA0, symSize: 0x50 }
  - { offset: 0xC2E0F, size: 0x8, addend: 0x0, symName: __RINvNtCsieiGu2EXtoJ_4core3ptr13drop_in_placeINtNtCsdGrGZaRBwMb_3syn10punctuated10PunctuatedNtNtBL_2ty4TypeNtNtBL_5token5CommaEEBL_, symObjAddr: 0x14C0, symBinAddr: 0x70EF0, symSize: 0x60 }
  - { offset: 0xC2E3E, size: 0x8, addend: 0x0, symName: __RINvNtCsieiGu2EXtoJ_4core3ptr13drop_in_placeINtNtCsdGrGZaRBwMb_3syn10punctuated10PunctuatedNtNtBL_2ty9BareFnArgNtNtBL_5token5CommaEEBL_, symObjAddr: 0x1520, symBinAddr: 0x70F50, symSize: 0x60 }
  - { offset: 0xC2E6D, size: 0x8, addend: 0x0, symName: __RINvNtCsieiGu2EXtoJ_4core3ptr13drop_in_placeINtNtCsdGrGZaRBwMb_3syn10punctuated10PunctuatedNtNtBL_3pat3PatNtNtBL_5token2OrEEBL_, symObjAddr: 0x1580, symBinAddr: 0x70FB0, symSize: 0x60 }
  - { offset: 0xC2E9C, size: 0x8, addend: 0x0, symName: __RINvNtCsieiGu2EXtoJ_4core3ptr13drop_in_placeINtNtCsdGrGZaRBwMb_3syn10punctuated10PunctuatedNtNtBL_3pat3PatNtNtBL_5token5CommaEEBL_, symObjAddr: 0x15E0, symBinAddr: 0x71010, symSize: 0x60 }
  - { offset: 0xC2ECB, size: 0x8, addend: 0x0, symName: __RINvNtCsieiGu2EXtoJ_4core3ptr13drop_in_placeINtNtCsdGrGZaRBwMb_3syn10punctuated10PunctuatedNtNtBL_3pat8FieldPatNtNtBL_5token5CommaEEBL_, symObjAddr: 0x1640, symBinAddr: 0x71070, symSize: 0x60 }
  - { offset: 0xC2EFA, size: 0x8, addend: 0x0, symName: __RINvNtCsieiGu2EXtoJ_4core3ptr13drop_in_placeINtNtCsdGrGZaRBwMb_3syn10punctuated10PunctuatedNtNtBL_4data5FieldNtNtBL_5token5CommaEEBL_, symObjAddr: 0x16A0, symBinAddr: 0x710D0, symSize: 0x60 }
  - { offset: 0xC2F29, size: 0x8, addend: 0x0, symName: __RINvNtCsieiGu2EXtoJ_4core3ptr13drop_in_placeINtNtCsdGrGZaRBwMb_3syn10punctuated10PunctuatedNtNtBL_4data7VariantNtNtBL_5token5CommaEEBL_, symObjAddr: 0x1700, symBinAddr: 0x71130, symSize: 0x60 }
  - { offset: 0xC2F58, size: 0x8, addend: 0x0, symName: __RINvNtCsieiGu2EXtoJ_4core3ptr13drop_in_placeINtNtCsdGrGZaRBwMb_3syn10punctuated10PunctuatedNtNtBL_4expr10FieldValueNtNtBL_5token5CommaEEBL_, symObjAddr: 0x1760, symBinAddr: 0x71190, symSize: 0x60 }
  - { offset: 0xC2F87, size: 0x8, addend: 0x0, symName: __RINvNtCsieiGu2EXtoJ_4core3ptr13drop_in_placeINtNtCsdGrGZaRBwMb_3syn10punctuated10PunctuatedNtNtBL_4expr4ExprNtNtBL_5token5CommaEEBL_, symObjAddr: 0x17C0, symBinAddr: 0x711F0, symSize: 0x60 }
  - { offset: 0xC2FB6, size: 0x8, addend: 0x0, symName: __RINvNtCsieiGu2EXtoJ_4core3ptr13drop_in_placeINtNtCsdGrGZaRBwMb_3syn10punctuated10PunctuatedNtNtBL_4item5FnArgNtNtBL_5token5CommaEEBL_, symObjAddr: 0x1820, symBinAddr: 0x71250, symSize: 0x60 }
  - { offset: 0xC2FE5, size: 0x8, addend: 0x0, symName: __RINvNtCsieiGu2EXtoJ_4core3ptr13drop_in_placeINtNtCsdGrGZaRBwMb_3syn10punctuated10PunctuatedNtNtBL_4item7UseTreeNtNtBL_5token5CommaEEBL_, symObjAddr: 0x1880, symBinAddr: 0x712B0, symSize: 0x60 }
  - { offset: 0xC3014, size: 0x8, addend: 0x0, symName: __RINvNtCsieiGu2EXtoJ_4core3ptr13drop_in_placeINtNtCsdGrGZaRBwMb_3syn10punctuated10PunctuatedNtNtBL_4path11PathSegmentNtNtBL_5token7PathSepEEBL_, symObjAddr: 0x18E0, symBinAddr: 0x71310, symSize: 0x60 }
  - { offset: 0xC3043, size: 0x8, addend: 0x0, symName: __RINvNtCsieiGu2EXtoJ_4core3ptr13drop_in_placeINtNtCsdGrGZaRBwMb_3syn10punctuated10PunctuatedNtNtBL_4path15GenericArgumentNtNtBL_5token5CommaEEBL_, symObjAddr: 0x1940, symBinAddr: 0x71370, symSize: 0x60 }
  - { offset: 0xC3072, size: 0x8, addend: 0x0, symName: __RINvNtCsieiGu2EXtoJ_4core3ptr13drop_in_placeINtNtCsdGrGZaRBwMb_3syn10punctuated10PunctuatedNtNtBL_8generics12GenericParamNtNtBL_5token5CommaEEBL_, symObjAddr: 0x19A0, symBinAddr: 0x713D0, symSize: 0x60 }
  - { offset: 0xC30A1, size: 0x8, addend: 0x0, symName: __RINvNtCsieiGu2EXtoJ_4core3ptr13drop_in_placeINtNtCsdGrGZaRBwMb_3syn10punctuated10PunctuatedNtNtBL_8generics13CapturedParamNtNtBL_5token5CommaEEBL_, symObjAddr: 0x1A00, symBinAddr: 0x71430, symSize: 0x60 }
  - { offset: 0xC30D0, size: 0x8, addend: 0x0, symName: __RINvNtCsieiGu2EXtoJ_4core3ptr13drop_in_placeINtNtCsdGrGZaRBwMb_3syn10punctuated10PunctuatedNtNtBL_8generics14TypeParamBoundNtNtBL_5token4PlusEEBL_, symObjAddr: 0x1A60, symBinAddr: 0x71490, symSize: 0x60 }
  - { offset: 0xC30FF, size: 0x8, addend: 0x0, symName: __RINvNtCsieiGu2EXtoJ_4core3ptr13drop_in_placeINtNtCsdGrGZaRBwMb_3syn10punctuated10PunctuatedNtNtBL_8generics14WherePredicateNtNtBL_5token5CommaEEBL_, symObjAddr: 0x1AC0, symBinAddr: 0x714F0, symSize: 0x60 }
  - { offset: 0xC312E, size: 0x8, addend: 0x0, symName: __RINvNtCsieiGu2EXtoJ_4core3ptr13drop_in_placeINtNtCsdGrGZaRBwMb_3syn10punctuated10PunctuatedNtNtBL_8lifetime8LifetimeNtNtBL_5token4PlusEEBL_, symObjAddr: 0x1B20, symBinAddr: 0x71550, symSize: 0x60 }
  - { offset: 0xC315D, size: 0x8, addend: 0x0, symName: __RINvNtCsieiGu2EXtoJ_4core3ptr13drop_in_placeINtNtCsdGrGZaRBwMb_3syn10punctuated4IterNtNtBL_4path11PathSegmentEEBL_, symObjAddr: 0x1BA0, symBinAddr: 0x715B0, symSize: 0x20 }
  - { offset: 0xC318C, size: 0x8, addend: 0x0, symName: __RINvNtCsieiGu2EXtoJ_4core3ptr13drop_in_placeINtNtCsdGrGZaRBwMb_3syn10punctuated4IterNtNtBL_8generics14TypeParamBoundEEBL_, symObjAddr: 0x1BC0, symBinAddr: 0x715D0, symSize: 0x20 }
  - { offset: 0xC31BB, size: 0x8, addend: 0x0, symName: __RINvNtCsieiGu2EXtoJ_4core3ptr13drop_in_placeINtNtCsdGrGZaRBwMb_3syn10punctuated4PairNtNtBL_4path11PathSegmentNtNtBL_5token7PathSepEEBL_, symObjAddr: 0x1BE0, symBinAddr: 0x715F0, symSize: 0x50 }
  - { offset: 0xC31EA, size: 0x8, addend: 0x0, symName: __RINvNtCsieiGu2EXtoJ_4core3ptr13drop_in_placeINtNtCsdGrGZaRBwMb_3syn10punctuated7IterMutNtNtBL_4path11PathSegmentEEBL_, symObjAddr: 0x1C30, symBinAddr: 0x71640, symSize: 0x20 }
  - { offset: 0xC3219, size: 0x8, addend: 0x0, symName: __RINvNtCsieiGu2EXtoJ_4core3ptr13drop_in_placeINtNtCsdGrGZaRBwMb_3syn10punctuated8IntoIterNtNtBL_8generics14TypeParamBoundEEBL_, symObjAddr: 0x1C50, symBinAddr: 0x71660, symSize: 0x20 }
  - { offset: 0xC3248, size: 0x8, addend: 0x0, symName: __RINvNtCsieiGu2EXtoJ_4core3ptr13drop_in_placeINtNtCsdGrGZaRBwMb_3syn10punctuated9IntoPairsNtNtBL_4path11PathSegmentNtNtBL_5token7PathSepEEBL_, symObjAddr: 0x1C70, symBinAddr: 0x71680, symSize: 0x60 }
  - { offset: 0xC3277, size: 0x8, addend: 0x0, symName: __RINvNtCsieiGu2EXtoJ_4core3ptr13drop_in_placeINtNtCslJiobkLta79_5alloc2rc2RcINtNtB4_4cell4CellNtNtCsdGrGZaRBwMb_3syn5parse10UnexpectedEEEB1x_, symObjAddr: 0x1CD0, symBinAddr: 0x716E0, symSize: 0x20 }
  - { offset: 0xC32A6, size: 0x8, addend: 0x0, symName: __RINvNtCsieiGu2EXtoJ_4core3ptr13drop_in_placeINtNtCslJiobkLta79_5alloc2rc4WeakINtNtB4_4cell4CellNtNtCsdGrGZaRBwMb_3syn5parse10UnexpectedERNtNtBL_5alloc6GlobalEEB1z_, symObjAddr: 0x1CF0, symBinAddr: 0x71700, symSize: 0x20 }
  - { offset: 0xC32D5, size: 0x8, addend: 0x0, symName: __RINvNtCsieiGu2EXtoJ_4core3ptr13drop_in_placeINtNtCslJiobkLta79_5alloc2rc7RcInnerINtNtB4_4cell4CellNtNtCsdGrGZaRBwMb_3syn5parse10UnexpectedEEEB1C_, symObjAddr: 0x1D10, symBinAddr: 0x71720, symSize: 0x20 }
  - { offset: 0xC3304, size: 0x8, addend: 0x0, symName: __RINvNtCsieiGu2EXtoJ_4core3ptr13drop_in_placeINtNtCslJiobkLta79_5alloc3vec3VecNtNtCsdGrGZaRBwMb_3syn4attr9AttributeEEB1h_, symObjAddr: 0x1D30, symBinAddr: 0x71740, symSize: 0x50 }
  - { offset: 0xC3333, size: 0x8, addend: 0x0, symName: __RINvNtCsieiGu2EXtoJ_4core3ptr13drop_in_placeINtNtCslJiobkLta79_5alloc3vec3VecNtNtCsdGrGZaRBwMb_3syn4expr3ArmEEB1h_, symObjAddr: 0x1DD0, symBinAddr: 0x71790, symSize: 0x50 }
  - { offset: 0xC3362, size: 0x8, addend: 0x0, symName: __RINvNtCsieiGu2EXtoJ_4core3ptr13drop_in_placeINtNtCslJiobkLta79_5alloc3vec3VecNtNtCsdGrGZaRBwMb_3syn4expr6ExprIfEEB1h_, symObjAddr: 0x1E20, symBinAddr: 0x717E0, symSize: 0x50 }
  - { offset: 0xC3391, size: 0x8, addend: 0x0, symName: __RINvNtCsieiGu2EXtoJ_4core3ptr13drop_in_placeINtNtCslJiobkLta79_5alloc3vec3VecNtNtCsdGrGZaRBwMb_3syn4item11ForeignItemEEB1h_, symObjAddr: 0x1E70, symBinAddr: 0x71830, symSize: 0x50 }
  - { offset: 0xC33C0, size: 0x8, addend: 0x0, symName: __RINvNtCsieiGu2EXtoJ_4core3ptr13drop_in_placeINtNtCslJiobkLta79_5alloc3vec3VecNtNtCsdGrGZaRBwMb_3syn4item4ItemEEB1h_, symObjAddr: 0x1EC0, symBinAddr: 0x71880, symSize: 0x50 }
  - { offset: 0xC33EF, size: 0x8, addend: 0x0, symName: __RINvNtCsieiGu2EXtoJ_4core3ptr13drop_in_placeINtNtCslJiobkLta79_5alloc3vec3VecNtNtCsdGrGZaRBwMb_3syn4item8ImplItemEEB1h_, symObjAddr: 0x1F10, symBinAddr: 0x718D0, symSize: 0x50 }
  - { offset: 0xC341E, size: 0x8, addend: 0x0, symName: __RINvNtCsieiGu2EXtoJ_4core3ptr13drop_in_placeINtNtCslJiobkLta79_5alloc3vec3VecNtNtCsdGrGZaRBwMb_3syn4item9TraitItemEEB1h_, symObjAddr: 0x1F60, symBinAddr: 0x71920, symSize: 0x50 }
  - { offset: 0xC344D, size: 0x8, addend: 0x0, symName: __RINvNtCsieiGu2EXtoJ_4core3ptr13drop_in_placeINtNtCslJiobkLta79_5alloc3vec3VecNtNtCsdGrGZaRBwMb_3syn4stmt4StmtEEB1h_, symObjAddr: 0x1FB0, symBinAddr: 0x71970, symSize: 0x50 }
  - { offset: 0xC347C, size: 0x8, addend: 0x0, symName: __RINvNtCsieiGu2EXtoJ_4core3ptr13drop_in_placeINtNtCslJiobkLta79_5alloc3vec3VecNtNtCsdGrGZaRBwMb_3syn5error12ErrorMessageEEB1h_, symObjAddr: 0x2000, symBinAddr: 0x719C0, symSize: 0x50 }
  - { offset: 0xC34AB, size: 0x8, addend: 0x0, symName: __RINvNtCsieiGu2EXtoJ_4core3ptr13drop_in_placeINtNtCslJiobkLta79_5alloc3vec3VecNtNtCsdGrGZaRBwMb_3syn6buffer5EntryEEB1h_, symObjAddr: 0x2050, symBinAddr: 0x71A10, symSize: 0x50 }
  - { offset: 0xC34DA, size: 0x8, addend: 0x0, symName: __RINvNtCsieiGu2EXtoJ_4core3ptr13drop_in_placeINtNtCslJiobkLta79_5alloc3vec3VecNtNtCsdGrGZaRBwMb_3syn8generics14TypeParamBoundEEB1h_, symObjAddr: 0x20A0, symBinAddr: 0x71A60, symSize: 0x50 }
  - { offset: 0xC3509, size: 0x8, addend: 0x0, symName: __RINvNtCsieiGu2EXtoJ_4core3ptr13drop_in_placeINtNtCslJiobkLta79_5alloc3vec3VecReEECsdGrGZaRBwMb_3syn, symObjAddr: 0x20F0, symBinAddr: 0x71AB0, symSize: 0x50 }
  - { offset: 0xC3538, size: 0x8, addend: 0x0, symName: __RINvNtCsieiGu2EXtoJ_4core3ptr13drop_in_placeINtNtCslJiobkLta79_5alloc3vec3VecTNtNtCsdGrGZaRBwMb_3syn2ty4TypeNtNtB1i_5token5CommaEEEB1i_, symObjAddr: 0x2140, symBinAddr: 0x71B00, symSize: 0x50 }
  - { offset: 0xC3567, size: 0x8, addend: 0x0, symName: __RINvNtCsieiGu2EXtoJ_4core3ptr13drop_in_placeINtNtCslJiobkLta79_5alloc3vec3VecTNtNtCsdGrGZaRBwMb_3syn2ty9BareFnArgNtNtB1i_5token5CommaEEEB1i_, symObjAddr: 0x2190, symBinAddr: 0x71B50, symSize: 0x50 }
  - { offset: 0xC3596, size: 0x8, addend: 0x0, symName: __RINvNtCsieiGu2EXtoJ_4core3ptr13drop_in_placeINtNtCslJiobkLta79_5alloc3vec3VecTNtNtCsdGrGZaRBwMb_3syn3pat3PatNtNtB1i_5token2OrEEEB1i_, symObjAddr: 0x21E0, symBinAddr: 0x71BA0, symSize: 0x50 }
  - { offset: 0xC35C5, size: 0x8, addend: 0x0, symName: __RINvNtCsieiGu2EXtoJ_4core3ptr13drop_in_placeINtNtCslJiobkLta79_5alloc3vec3VecTNtNtCsdGrGZaRBwMb_3syn3pat3PatNtNtB1i_5token5CommaEEEB1i_, symObjAddr: 0x2230, symBinAddr: 0x71BF0, symSize: 0x50 }
  - { offset: 0xC35F4, size: 0x8, addend: 0x0, symName: __RINvNtCsieiGu2EXtoJ_4core3ptr13drop_in_placeINtNtCslJiobkLta79_5alloc3vec3VecTNtNtCsdGrGZaRBwMb_3syn3pat8FieldPatNtNtB1i_5token5CommaEEEB1i_, symObjAddr: 0x2280, symBinAddr: 0x71C40, symSize: 0x50 }
  - { offset: 0xC3623, size: 0x8, addend: 0x0, symName: __RINvNtCsieiGu2EXtoJ_4core3ptr13drop_in_placeINtNtCslJiobkLta79_5alloc3vec3VecTNtNtCsdGrGZaRBwMb_3syn4data5FieldNtNtB1i_5token5CommaEEEB1i_, symObjAddr: 0x22D0, symBinAddr: 0x71C90, symSize: 0x50 }
  - { offset: 0xC3652, size: 0x8, addend: 0x0, symName: __RINvNtCsieiGu2EXtoJ_4core3ptr13drop_in_placeINtNtCslJiobkLta79_5alloc3vec3VecTNtNtCsdGrGZaRBwMb_3syn4data7VariantNtNtB1i_5token5CommaEEEB1i_, symObjAddr: 0x2370, symBinAddr: 0x71CE0, symSize: 0x50 }
  - { offset: 0xC3681, size: 0x8, addend: 0x0, symName: __RINvNtCsieiGu2EXtoJ_4core3ptr13drop_in_placeINtNtCslJiobkLta79_5alloc3vec3VecTNtNtCsdGrGZaRBwMb_3syn4expr10FieldValueNtNtB1i_5token5CommaEEEB1i_, symObjAddr: 0x23C0, symBinAddr: 0x71D30, symSize: 0x50 }
  - { offset: 0xC36B0, size: 0x8, addend: 0x0, symName: __RINvNtCsieiGu2EXtoJ_4core3ptr13drop_in_placeINtNtCslJiobkLta79_5alloc3vec3VecTNtNtCsdGrGZaRBwMb_3syn4expr4ExprNtNtB1i_5token5CommaEEEB1i_, symObjAddr: 0x2410, symBinAddr: 0x71D80, symSize: 0x50 }
  - { offset: 0xC36DF, size: 0x8, addend: 0x0, symName: __RINvNtCsieiGu2EXtoJ_4core3ptr13drop_in_placeINtNtCslJiobkLta79_5alloc3vec3VecTNtNtCsdGrGZaRBwMb_3syn4item5FnArgNtNtB1i_5token5CommaEEEB1i_, symObjAddr: 0x2460, symBinAddr: 0x71DD0, symSize: 0x50 }
  - { offset: 0xC370E, size: 0x8, addend: 0x0, symName: __RINvNtCsieiGu2EXtoJ_4core3ptr13drop_in_placeINtNtCslJiobkLta79_5alloc3vec3VecTNtNtCsdGrGZaRBwMb_3syn4item7UseTreeNtNtB1i_5token5CommaEEEB1i_, symObjAddr: 0x24B0, symBinAddr: 0x71E20, symSize: 0x50 }
  - { offset: 0xC373D, size: 0x8, addend: 0x0, symName: __RINvNtCsieiGu2EXtoJ_4core3ptr13drop_in_placeINtNtCslJiobkLta79_5alloc3vec3VecTNtNtCsdGrGZaRBwMb_3syn4path11PathSegmentNtNtB1i_5token7PathSepEEEB1i_, symObjAddr: 0x2500, symBinAddr: 0x71E70, symSize: 0x50 }
  - { offset: 0xC376C, size: 0x8, addend: 0x0, symName: __RINvNtCsieiGu2EXtoJ_4core3ptr13drop_in_placeINtNtCslJiobkLta79_5alloc3vec3VecTNtNtCsdGrGZaRBwMb_3syn4path15GenericArgumentNtNtB1i_5token5CommaEEEB1i_, symObjAddr: 0x2550, symBinAddr: 0x71EC0, symSize: 0x50 }
  - { offset: 0xC379B, size: 0x8, addend: 0x0, symName: __RINvNtCsieiGu2EXtoJ_4core3ptr13drop_in_placeINtNtCslJiobkLta79_5alloc3vec3VecTNtNtCsdGrGZaRBwMb_3syn8generics12GenericParamNtNtB1i_5token5CommaEEEB1i_, symObjAddr: 0x25A0, symBinAddr: 0x71F10, symSize: 0x50 }
  - { offset: 0xC37CA, size: 0x8, addend: 0x0, symName: __RINvNtCsieiGu2EXtoJ_4core3ptr13drop_in_placeINtNtCslJiobkLta79_5alloc3vec3VecTNtNtCsdGrGZaRBwMb_3syn8generics13CapturedParamNtNtB1i_5token5CommaEEEB1i_, symObjAddr: 0x25F0, symBinAddr: 0x71F60, symSize: 0x50 }
  - { offset: 0xC37F9, size: 0x8, addend: 0x0, symName: __RINvNtCsieiGu2EXtoJ_4core3ptr13drop_in_placeINtNtCslJiobkLta79_5alloc3vec3VecTNtNtCsdGrGZaRBwMb_3syn8generics14TypeParamBoundNtNtB1i_5token4PlusEEEB1i_, symObjAddr: 0x2640, symBinAddr: 0x71FB0, symSize: 0x50 }
  - { offset: 0xC3828, size: 0x8, addend: 0x0, symName: __RINvNtCsieiGu2EXtoJ_4core3ptr13drop_in_placeINtNtCslJiobkLta79_5alloc3vec3VecTNtNtCsdGrGZaRBwMb_3syn8generics14WherePredicateNtNtB1i_5token5CommaEEEB1i_, symObjAddr: 0x2690, symBinAddr: 0x72000, symSize: 0x50 }
  - { offset: 0xC3857, size: 0x8, addend: 0x0, symName: __RINvNtCsieiGu2EXtoJ_4core3ptr13drop_in_placeINtNtCslJiobkLta79_5alloc3vec3VecTNtNtCsdGrGZaRBwMb_3syn8lifetime8LifetimeNtNtB1i_5token4PlusEEEB1i_, symObjAddr: 0x26E0, symBinAddr: 0x72050, symSize: 0x50 }
  - { offset: 0xC3886, size: 0x8, addend: 0x0, symName: __RINvNtCsieiGu2EXtoJ_4core3ptr13drop_in_placeINtNtCslJiobkLta79_5alloc4sync3ArcNtNtCsHUR1vrdMJt_3std6thread5InnerEECsdGrGZaRBwMb_3syn, symObjAddr: 0x2730, symBinAddr: 0x720A0, symSize: 0x20 }
  - { offset: 0xC38B5, size: 0x8, addend: 0x0, symName: __RINvNtCsieiGu2EXtoJ_4core3ptr13drop_in_placeINtNtCslJiobkLta79_5alloc5boxed3BoxINtNtCsdGrGZaRBwMb_3syn5drops6NoDropDINtNtB1k_10punctuated12IterMutTraitNtNtB1k_4path11PathSegmentEp4ItemQB2p_EL_EEEB1k_, symObjAddr: 0x2750, symBinAddr: 0x720C0, symSize: 0x20 }
  - { offset: 0xC38E4, size: 0x8, addend: 0x0, symName: __RINvNtCsieiGu2EXtoJ_4core3ptr13drop_in_placeINtNtCslJiobkLta79_5alloc5boxed3BoxINtNtCsdGrGZaRBwMb_3syn5drops6NoDropDINtNtB1k_10punctuated9IterTraitNtNtB1k_4path11PathSegmentEp4ItemRB2l_EL_EEEB1k_, symObjAddr: 0x2790, symBinAddr: 0x720E0, symSize: 0x20 }
  - { offset: 0xC3913, size: 0x8, addend: 0x0, symName: __RINvNtCsieiGu2EXtoJ_4core3ptr13drop_in_placeINtNtCslJiobkLta79_5alloc5boxed3BoxINtNtCsdGrGZaRBwMb_3syn5drops6NoDropDINtNtB1k_10punctuated9IterTraitNtNtB1k_8generics14TypeParamBoundEp4ItemRB2l_EL_EEEB1k_, symObjAddr: 0x27B0, symBinAddr: 0x72100, symSize: 0x20 }
  - { offset: 0xC3942, size: 0x8, addend: 0x0, symName: __RINvNtCsieiGu2EXtoJ_4core3ptr13drop_in_placeINtNtCslJiobkLta79_5alloc5boxed3BoxNtNtCsdGrGZaRBwMb_3syn2ty4TypeEEB1j_, symObjAddr: 0x2A90, symBinAddr: 0x72120, symSize: 0x50 }
  - { offset: 0xC3971, size: 0x8, addend: 0x0, symName: __RINvNtCsieiGu2EXtoJ_4core3ptr13drop_in_placeINtNtCslJiobkLta79_5alloc5boxed3BoxNtNtCsdGrGZaRBwMb_3syn2ty9BareFnArgEEB1j_, symObjAddr: 0x2AE0, symBinAddr: 0x72170, symSize: 0x50 }
  - { offset: 0xC39A0, size: 0x8, addend: 0x0, symName: __RINvNtCsieiGu2EXtoJ_4core3ptr13drop_in_placeINtNtCslJiobkLta79_5alloc5boxed3BoxNtNtCsdGrGZaRBwMb_3syn3lit10LitIntReprEEB1j_, symObjAddr: 0x2B30, symBinAddr: 0x721C0, symSize: 0x50 }
  - { offset: 0xC39CF, size: 0x8, addend: 0x0, symName: __RINvNtCsieiGu2EXtoJ_4core3ptr13drop_in_placeINtNtCslJiobkLta79_5alloc5boxed3BoxNtNtCsdGrGZaRBwMb_3syn3lit12LitFloatReprEEB1j_, symObjAddr: 0x2B80, symBinAddr: 0x72210, symSize: 0x50 }
  - { offset: 0xC39FE, size: 0x8, addend: 0x0, symName: __RINvNtCsieiGu2EXtoJ_4core3ptr13drop_in_placeINtNtCslJiobkLta79_5alloc5boxed3BoxNtNtCsdGrGZaRBwMb_3syn3lit7LitReprEEB1j_, symObjAddr: 0x2BD0, symBinAddr: 0x72260, symSize: 0x50 }
  - { offset: 0xC3A2D, size: 0x8, addend: 0x0, symName: __RINvNtCsieiGu2EXtoJ_4core3ptr13drop_in_placeINtNtCslJiobkLta79_5alloc5boxed3BoxNtNtCsdGrGZaRBwMb_3syn3pat3PatEEB1j_, symObjAddr: 0x2C20, symBinAddr: 0x722B0, symSize: 0x50 }
  - { offset: 0xC3A5C, size: 0x8, addend: 0x0, symName: __RINvNtCsieiGu2EXtoJ_4core3ptr13drop_in_placeINtNtCslJiobkLta79_5alloc5boxed3BoxNtNtCsdGrGZaRBwMb_3syn3pat8FieldPatEEB1j_, symObjAddr: 0x2C70, symBinAddr: 0x72300, symSize: 0x50 }
  - { offset: 0xC3A8B, size: 0x8, addend: 0x0, symName: __RINvNtCsieiGu2EXtoJ_4core3ptr13drop_in_placeINtNtCslJiobkLta79_5alloc5boxed3BoxNtNtCsdGrGZaRBwMb_3syn4data5FieldEEB1j_, symObjAddr: 0x2CC0, symBinAddr: 0x72350, symSize: 0x50 }
  - { offset: 0xC3ABA, size: 0x8, addend: 0x0, symName: __RINvNtCsieiGu2EXtoJ_4core3ptr13drop_in_placeINtNtCslJiobkLta79_5alloc5boxed3BoxNtNtCsdGrGZaRBwMb_3syn4data7VariantEEB1j_, symObjAddr: 0x2D10, symBinAddr: 0x723A0, symSize: 0x50 }
  - { offset: 0xC3AE9, size: 0x8, addend: 0x0, symName: __RINvNtCsieiGu2EXtoJ_4core3ptr13drop_in_placeINtNtCslJiobkLta79_5alloc5boxed3BoxNtNtCsdGrGZaRBwMb_3syn4expr10FieldValueEEB1j_, symObjAddr: 0x2D60, symBinAddr: 0x723F0, symSize: 0x50 }
  - { offset: 0xC3B18, size: 0x8, addend: 0x0, symName: __RINvNtCsieiGu2EXtoJ_4core3ptr13drop_in_placeINtNtCslJiobkLta79_5alloc5boxed3BoxNtNtCsdGrGZaRBwMb_3syn4expr4ExprEEB1j_, symObjAddr: 0x2DB0, symBinAddr: 0x72440, symSize: 0x50 }
  - { offset: 0xC3B47, size: 0x8, addend: 0x0, symName: __RINvNtCsieiGu2EXtoJ_4core3ptr13drop_in_placeINtNtCslJiobkLta79_5alloc5boxed3BoxNtNtCsdGrGZaRBwMb_3syn4item5FnArgEEB1j_, symObjAddr: 0x2E00, symBinAddr: 0x72490, symSize: 0x50 }
  - { offset: 0xC3B76, size: 0x8, addend: 0x0, symName: __RINvNtCsieiGu2EXtoJ_4core3ptr13drop_in_placeINtNtCslJiobkLta79_5alloc5boxed3BoxNtNtCsdGrGZaRBwMb_3syn4item7UseTreeEEB1j_, symObjAddr: 0x2E50, symBinAddr: 0x724E0, symSize: 0x50 }
  - { offset: 0xC3BA5, size: 0x8, addend: 0x0, symName: __RINvNtCsieiGu2EXtoJ_4core3ptr13drop_in_placeINtNtCslJiobkLta79_5alloc5boxed3BoxNtNtCsdGrGZaRBwMb_3syn4path11PathSegmentEEB1j_, symObjAddr: 0x2EA0, symBinAddr: 0x72530, symSize: 0x50 }
  - { offset: 0xC3BD4, size: 0x8, addend: 0x0, symName: __RINvNtCsieiGu2EXtoJ_4core3ptr13drop_in_placeINtNtCslJiobkLta79_5alloc5boxed3BoxNtNtCsdGrGZaRBwMb_3syn4path15GenericArgumentEEB1j_, symObjAddr: 0x2EF0, symBinAddr: 0x72580, symSize: 0x50 }
  - { offset: 0xC3C03, size: 0x8, addend: 0x0, symName: __RINvNtCsieiGu2EXtoJ_4core3ptr13drop_in_placeINtNtCslJiobkLta79_5alloc5boxed3BoxNtNtCsdGrGZaRBwMb_3syn4path4PathEEB1j_, symObjAddr: 0x2F40, symBinAddr: 0x725D0, symSize: 0x50 }
  - { offset: 0xC3C32, size: 0x8, addend: 0x0, symName: __RINvNtCsieiGu2EXtoJ_4core3ptr13drop_in_placeINtNtCslJiobkLta79_5alloc5boxed3BoxNtNtCsdGrGZaRBwMb_3syn4stmt5BlockEEB1j_, symObjAddr: 0x2F90, symBinAddr: 0x72620, symSize: 0x50 }
  - { offset: 0xC3C61, size: 0x8, addend: 0x0, symName: __RINvNtCsieiGu2EXtoJ_4core3ptr13drop_in_placeINtNtCslJiobkLta79_5alloc5boxed3BoxNtNtCsdGrGZaRBwMb_3syn8generics12GenericParamEEB1j_, symObjAddr: 0x2FE0, symBinAddr: 0x72670, symSize: 0x50 }
  - { offset: 0xC3C90, size: 0x8, addend: 0x0, symName: __RINvNtCsieiGu2EXtoJ_4core3ptr13drop_in_placeINtNtCslJiobkLta79_5alloc5boxed3BoxNtNtCsdGrGZaRBwMb_3syn8generics13CapturedParamEEB1j_, symObjAddr: 0x3030, symBinAddr: 0x726C0, symSize: 0x50 }
  - { offset: 0xC3CBF, size: 0x8, addend: 0x0, symName: __RINvNtCsieiGu2EXtoJ_4core3ptr13drop_in_placeINtNtCslJiobkLta79_5alloc5boxed3BoxNtNtCsdGrGZaRBwMb_3syn8generics14TypeParamBoundEEB1j_, symObjAddr: 0x3080, symBinAddr: 0x72710, symSize: 0x50 }
  - { offset: 0xC3CEE, size: 0x8, addend: 0x0, symName: __RINvNtCsieiGu2EXtoJ_4core3ptr13drop_in_placeINtNtCslJiobkLta79_5alloc5boxed3BoxNtNtCsdGrGZaRBwMb_3syn8generics14WherePredicateEEB1j_, symObjAddr: 0x30D0, symBinAddr: 0x72760, symSize: 0x50 }
  - { offset: 0xC3D1D, size: 0x8, addend: 0x0, symName: __RINvNtCsieiGu2EXtoJ_4core3ptr13drop_in_placeINtNtCslJiobkLta79_5alloc5boxed3BoxNtNtCsdGrGZaRBwMb_3syn8lifetime8LifetimeEEB1j_, symObjAddr: 0x3120, symBinAddr: 0x727B0, symSize: 0x50 }
  - { offset: 0xC3D4C, size: 0x8, addend: 0x0, symName: __RINvNtCsieiGu2EXtoJ_4core3ptr13drop_in_placeINtNtCslJiobkLta79_5alloc5boxed3BoxSNtNtCsdGrGZaRBwMb_3syn6buffer5EntryEEB1k_, symObjAddr: 0x3170, symBinAddr: 0x72800, symSize: 0x60 }
  - { offset: 0xC3D7B, size: 0x8, addend: 0x0, symName: __RINvNtCsieiGu2EXtoJ_4core3ptr13drop_in_placeINtNtCslJiobkLta79_5alloc5boxed3BoxShEECsdGrGZaRBwMb_3syn, symObjAddr: 0x31D0, symBinAddr: 0x72860, symSize: 0x20 }
  - { offset: 0xC3DAA, size: 0x8, addend: 0x0, symName: __RINvNtCsieiGu2EXtoJ_4core3ptr13drop_in_placeINtNtCslJiobkLta79_5alloc7raw_vec6RawVecNtNtCsdGrGZaRBwMb_3syn4attr9AttributeEEB1o_, symObjAddr: 0x31F0, symBinAddr: 0x72880, symSize: 0x20 }
  - { offset: 0xC3DD9, size: 0x8, addend: 0x0, symName: __RINvNtCsieiGu2EXtoJ_4core3ptr13drop_in_placeINtNtCslJiobkLta79_5alloc7raw_vec6RawVecNtNtCsdGrGZaRBwMb_3syn4expr3ArmEEB1o_, symObjAddr: 0x3230, symBinAddr: 0x728A0, symSize: 0x20 }
  - { offset: 0xC3E08, size: 0x8, addend: 0x0, symName: __RINvNtCsieiGu2EXtoJ_4core3ptr13drop_in_placeINtNtCslJiobkLta79_5alloc7raw_vec6RawVecNtNtCsdGrGZaRBwMb_3syn4expr6ExprIfEEB1o_, symObjAddr: 0x3250, symBinAddr: 0x728C0, symSize: 0x20 }
  - { offset: 0xC3E37, size: 0x8, addend: 0x0, symName: __RINvNtCsieiGu2EXtoJ_4core3ptr13drop_in_placeINtNtCslJiobkLta79_5alloc7raw_vec6RawVecNtNtCsdGrGZaRBwMb_3syn4item11ForeignItemEEB1o_, symObjAddr: 0x3270, symBinAddr: 0x728E0, symSize: 0x20 }
  - { offset: 0xC3E66, size: 0x8, addend: 0x0, symName: __RINvNtCsieiGu2EXtoJ_4core3ptr13drop_in_placeINtNtCslJiobkLta79_5alloc7raw_vec6RawVecNtNtCsdGrGZaRBwMb_3syn4item4ItemEEB1o_, symObjAddr: 0x3290, symBinAddr: 0x72900, symSize: 0x20 }
  - { offset: 0xC3E95, size: 0x8, addend: 0x0, symName: __RINvNtCsieiGu2EXtoJ_4core3ptr13drop_in_placeINtNtCslJiobkLta79_5alloc7raw_vec6RawVecNtNtCsdGrGZaRBwMb_3syn4item8ImplItemEEB1o_, symObjAddr: 0x32B0, symBinAddr: 0x72920, symSize: 0x20 }
  - { offset: 0xC3EC4, size: 0x8, addend: 0x0, symName: __RINvNtCsieiGu2EXtoJ_4core3ptr13drop_in_placeINtNtCslJiobkLta79_5alloc7raw_vec6RawVecNtNtCsdGrGZaRBwMb_3syn4item9TraitItemEEB1o_, symObjAddr: 0x32D0, symBinAddr: 0x72940, symSize: 0x20 }
  - { offset: 0xC3EF3, size: 0x8, addend: 0x0, symName: __RINvNtCsieiGu2EXtoJ_4core3ptr13drop_in_placeINtNtCslJiobkLta79_5alloc7raw_vec6RawVecNtNtCsdGrGZaRBwMb_3syn4stmt4StmtEEB1o_, symObjAddr: 0x32F0, symBinAddr: 0x72960, symSize: 0x20 }
  - { offset: 0xC3F22, size: 0x8, addend: 0x0, symName: __RINvNtCsieiGu2EXtoJ_4core3ptr13drop_in_placeINtNtCslJiobkLta79_5alloc7raw_vec6RawVecNtNtCsdGrGZaRBwMb_3syn5error12ErrorMessageEEB1o_, symObjAddr: 0x3310, symBinAddr: 0x72980, symSize: 0x20 }
  - { offset: 0xC3F51, size: 0x8, addend: 0x0, symName: __RINvNtCsieiGu2EXtoJ_4core3ptr13drop_in_placeINtNtCslJiobkLta79_5alloc7raw_vec6RawVecNtNtCsdGrGZaRBwMb_3syn6buffer5EntryEEB1o_, symObjAddr: 0x3330, symBinAddr: 0x729A0, symSize: 0x20 }
  - { offset: 0xC3F80, size: 0x8, addend: 0x0, symName: __RINvNtCsieiGu2EXtoJ_4core3ptr13drop_in_placeINtNtCslJiobkLta79_5alloc7raw_vec6RawVecNtNtCsdGrGZaRBwMb_3syn8generics14TypeParamBoundEEB1o_, symObjAddr: 0x3350, symBinAddr: 0x729C0, symSize: 0x20 }
  - { offset: 0xC3FAF, size: 0x8, addend: 0x0, symName: __RINvNtCsieiGu2EXtoJ_4core3ptr13drop_in_placeINtNtCslJiobkLta79_5alloc7raw_vec6RawVecReEECsdGrGZaRBwMb_3syn, symObjAddr: 0x3370, symBinAddr: 0x729E0, symSize: 0x20 }
  - { offset: 0xC3FDE, size: 0x8, addend: 0x0, symName: __RINvNtCsieiGu2EXtoJ_4core3ptr13drop_in_placeINtNtCslJiobkLta79_5alloc7raw_vec6RawVecTNtNtCsdGrGZaRBwMb_3syn2ty4TypeNtNtB1p_5token5CommaEEEB1p_, symObjAddr: 0x3390, symBinAddr: 0x72A00, symSize: 0x20 }
  - { offset: 0xC400D, size: 0x8, addend: 0x0, symName: __RINvNtCsieiGu2EXtoJ_4core3ptr13drop_in_placeINtNtCslJiobkLta79_5alloc7raw_vec6RawVecTNtNtCsdGrGZaRBwMb_3syn2ty9BareFnArgNtNtB1p_5token5CommaEEEB1p_, symObjAddr: 0x33B0, symBinAddr: 0x72A20, symSize: 0x20 }
  - { offset: 0xC403C, size: 0x8, addend: 0x0, symName: __RINvNtCsieiGu2EXtoJ_4core3ptr13drop_in_placeINtNtCslJiobkLta79_5alloc7raw_vec6RawVecTNtNtCsdGrGZaRBwMb_3syn3pat3PatNtNtB1p_5token2OrEEEB1p_, symObjAddr: 0x33D0, symBinAddr: 0x72A40, symSize: 0x20 }
  - { offset: 0xC406B, size: 0x8, addend: 0x0, symName: __RINvNtCsieiGu2EXtoJ_4core3ptr13drop_in_placeINtNtCslJiobkLta79_5alloc7raw_vec6RawVecTNtNtCsdGrGZaRBwMb_3syn3pat3PatNtNtB1p_5token5CommaEEEB1p_, symObjAddr: 0x33F0, symBinAddr: 0x72A60, symSize: 0x20 }
  - { offset: 0xC409A, size: 0x8, addend: 0x0, symName: __RINvNtCsieiGu2EXtoJ_4core3ptr13drop_in_placeINtNtCslJiobkLta79_5alloc7raw_vec6RawVecTNtNtCsdGrGZaRBwMb_3syn3pat8FieldPatNtNtB1p_5token5CommaEEEB1p_, symObjAddr: 0x3410, symBinAddr: 0x72A80, symSize: 0x20 }
  - { offset: 0xC40C9, size: 0x8, addend: 0x0, symName: __RINvNtCsieiGu2EXtoJ_4core3ptr13drop_in_placeINtNtCslJiobkLta79_5alloc7raw_vec6RawVecTNtNtCsdGrGZaRBwMb_3syn4data5FieldNtNtB1p_5token5CommaEEEB1p_, symObjAddr: 0x3430, symBinAddr: 0x72AA0, symSize: 0x20 }
  - { offset: 0xC40F8, size: 0x8, addend: 0x0, symName: __RINvNtCsieiGu2EXtoJ_4core3ptr13drop_in_placeINtNtCslJiobkLta79_5alloc7raw_vec6RawVecTNtNtCsdGrGZaRBwMb_3syn4data7VariantNtNtB1p_5token5CommaEEEB1p_, symObjAddr: 0x3470, symBinAddr: 0x72AC0, symSize: 0x20 }
  - { offset: 0xC4127, size: 0x8, addend: 0x0, symName: __RINvNtCsieiGu2EXtoJ_4core3ptr13drop_in_placeINtNtCslJiobkLta79_5alloc7raw_vec6RawVecTNtNtCsdGrGZaRBwMb_3syn4expr10FieldValueNtNtB1p_5token5CommaEEEB1p_, symObjAddr: 0x3490, symBinAddr: 0x72AE0, symSize: 0x20 }
  - { offset: 0xC4156, size: 0x8, addend: 0x0, symName: __RINvNtCsieiGu2EXtoJ_4core3ptr13drop_in_placeINtNtCslJiobkLta79_5alloc7raw_vec6RawVecTNtNtCsdGrGZaRBwMb_3syn4expr4ExprNtNtB1p_5token5CommaEEEB1p_, symObjAddr: 0x34B0, symBinAddr: 0x72B00, symSize: 0x20 }
  - { offset: 0xC4185, size: 0x8, addend: 0x0, symName: __RINvNtCsieiGu2EXtoJ_4core3ptr13drop_in_placeINtNtCslJiobkLta79_5alloc7raw_vec6RawVecTNtNtCsdGrGZaRBwMb_3syn4item5FnArgNtNtB1p_5token5CommaEEEB1p_, symObjAddr: 0x34D0, symBinAddr: 0x72B20, symSize: 0x20 }
  - { offset: 0xC41B4, size: 0x8, addend: 0x0, symName: __RINvNtCsieiGu2EXtoJ_4core3ptr13drop_in_placeINtNtCslJiobkLta79_5alloc7raw_vec6RawVecTNtNtCsdGrGZaRBwMb_3syn4item7UseTreeNtNtB1p_5token5CommaEEEB1p_, symObjAddr: 0x34F0, symBinAddr: 0x72B40, symSize: 0x20 }
  - { offset: 0xC41E3, size: 0x8, addend: 0x0, symName: __RINvNtCsieiGu2EXtoJ_4core3ptr13drop_in_placeINtNtCslJiobkLta79_5alloc7raw_vec6RawVecTNtNtCsdGrGZaRBwMb_3syn4path11PathSegmentNtNtB1p_5token7PathSepEEEB1p_, symObjAddr: 0x3510, symBinAddr: 0x72B60, symSize: 0x20 }
  - { offset: 0xC4212, size: 0x8, addend: 0x0, symName: __RINvNtCsieiGu2EXtoJ_4core3ptr13drop_in_placeINtNtCslJiobkLta79_5alloc7raw_vec6RawVecTNtNtCsdGrGZaRBwMb_3syn4path15GenericArgumentNtNtB1p_5token5CommaEEEB1p_, symObjAddr: 0x3530, symBinAddr: 0x72B80, symSize: 0x20 }
  - { offset: 0xC4241, size: 0x8, addend: 0x0, symName: __RINvNtCsieiGu2EXtoJ_4core3ptr13drop_in_placeINtNtCslJiobkLta79_5alloc7raw_vec6RawVecTNtNtCsdGrGZaRBwMb_3syn8generics12GenericParamNtNtB1p_5token5CommaEEEB1p_, symObjAddr: 0x3550, symBinAddr: 0x72BA0, symSize: 0x20 }
  - { offset: 0xC4270, size: 0x8, addend: 0x0, symName: __RINvNtCsieiGu2EXtoJ_4core3ptr13drop_in_placeINtNtCslJiobkLta79_5alloc7raw_vec6RawVecTNtNtCsdGrGZaRBwMb_3syn8generics13CapturedParamNtNtB1p_5token5CommaEEEB1p_, symObjAddr: 0x3570, symBinAddr: 0x72BC0, symSize: 0x20 }
  - { offset: 0xC429F, size: 0x8, addend: 0x0, symName: __RINvNtCsieiGu2EXtoJ_4core3ptr13drop_in_placeINtNtCslJiobkLta79_5alloc7raw_vec6RawVecTNtNtCsdGrGZaRBwMb_3syn8generics14TypeParamBoundNtNtB1p_5token4PlusEEEB1p_, symObjAddr: 0x3590, symBinAddr: 0x72BE0, symSize: 0x20 }
  - { offset: 0xC42CE, size: 0x8, addend: 0x0, symName: __RINvNtCsieiGu2EXtoJ_4core3ptr13drop_in_placeINtNtCslJiobkLta79_5alloc7raw_vec6RawVecTNtNtCsdGrGZaRBwMb_3syn8generics14WherePredicateNtNtB1p_5token5CommaEEEB1p_, symObjAddr: 0x35B0, symBinAddr: 0x72C00, symSize: 0x20 }
  - { offset: 0xC42FD, size: 0x8, addend: 0x0, symName: __RINvNtCsieiGu2EXtoJ_4core3ptr13drop_in_placeINtNtCslJiobkLta79_5alloc7raw_vec6RawVecTNtNtCsdGrGZaRBwMb_3syn8lifetime8LifetimeNtNtB1p_5token4PlusEEEB1p_, symObjAddr: 0x35D0, symBinAddr: 0x72C20, symSize: 0x20 }
  - { offset: 0xC432C, size: 0x8, addend: 0x0, symName: __RINvNtCsieiGu2EXtoJ_4core3ptr13drop_in_placeINtNtNtCslJiobkLta79_5alloc3vec9into_iter8IntoIterNtNtCsdGrGZaRBwMb_3syn4attr9AttributeEEB1y_, symObjAddr: 0x35F0, symBinAddr: 0x72C40, symSize: 0x20 }
  - { offset: 0xC435B, size: 0x8, addend: 0x0, symName: __RINvNtCsieiGu2EXtoJ_4core3ptr13drop_in_placeINtNtNtCslJiobkLta79_5alloc3vec9into_iter8IntoIterNtNtCsdGrGZaRBwMb_3syn8generics14TypeParamBoundEEB1y_, symObjAddr: 0x3630, symBinAddr: 0x72C60, symSize: 0x20 }
  - { offset: 0xC438A, size: 0x8, addend: 0x0, symName: __RINvNtCsieiGu2EXtoJ_4core3ptr13drop_in_placeINtNtNtCslJiobkLta79_5alloc3vec9into_iter8IntoIterTNtNtCsdGrGZaRBwMb_3syn4path11PathSegmentNtNtB1z_5token7PathSepEEEB1z_, symObjAddr: 0x3690, symBinAddr: 0x72C80, symSize: 0x20 }
  - { offset: 0xC43B9, size: 0x8, addend: 0x0, symName: __RINvNtCsieiGu2EXtoJ_4core3ptr13drop_in_placeINtNtNtCslJiobkLta79_5alloc3vec9into_iter8IntoIterTNtNtCsdGrGZaRBwMb_3syn8generics14TypeParamBoundNtNtB1z_5token4PlusEEEB1z_, symObjAddr: 0x36B0, symBinAddr: 0x72CA0, symSize: 0x20 }
  - { offset: 0xC43E8, size: 0x8, addend: 0x0, symName: __RINvNtCsieiGu2EXtoJ_4core3ptr13drop_in_placeINtNvMs_NtCslJiobkLta79_5alloc3vecINtBO_3VecppE10retain_mut15BackshiftOnDropReNtNtBQ_5alloc6GlobalEECsdGrGZaRBwMb_3syn, symObjAddr: 0x36F0, symBinAddr: 0x72CC0, symSize: 0x20 }
  - { offset: 0xC4417, size: 0x8, addend: 0x0, symName: __RINvNtCsieiGu2EXtoJ_4core3ptr13drop_in_placeINtNvXsd_NtNtCslJiobkLta79_5alloc3vec9into_iterINtBP_8IntoIterppENtNtNtB4_3ops4drop4Drop4drop9DropGuardNtNtCsdGrGZaRBwMb_3syn4attr9AttributeNtNtBT_5alloc6GlobalEEB2p_, symObjAddr: 0x3A50, symBinAddr: 0x72CE0, symSize: 0x20 }
  - { offset: 0xC4446, size: 0x8, addend: 0x0, symName: __RINvNtCsieiGu2EXtoJ_4core3ptr13drop_in_placeINtNvXsd_NtNtCslJiobkLta79_5alloc3vec9into_iterINtBP_8IntoIterppENtNtNtB4_3ops4drop4Drop4drop9DropGuardNtNtCsdGrGZaRBwMb_3syn8generics14TypeParamBoundNtNtBT_5alloc6GlobalEEB2p_, symObjAddr: 0x3A90, symBinAddr: 0x72D00, symSize: 0x20 }
  - { offset: 0xC4475, size: 0x8, addend: 0x0, symName: __RINvNtCsieiGu2EXtoJ_4core3ptr13drop_in_placeINtNvXsd_NtNtCslJiobkLta79_5alloc3vec9into_iterINtBP_8IntoIterppENtNtNtB4_3ops4drop4Drop4drop9DropGuardTNtNtCsdGrGZaRBwMb_3syn4path11PathSegmentNtNtB2q_5token7PathSepENtNtBT_5alloc6GlobalEEB2q_, symObjAddr: 0x3AF0, symBinAddr: 0x72D20, symSize: 0x20 }
  - { offset: 0xC44A4, size: 0x8, addend: 0x0, symName: __RINvNtCsieiGu2EXtoJ_4core3ptr13drop_in_placeINtNvXsd_NtNtCslJiobkLta79_5alloc3vec9into_iterINtBP_8IntoIterppENtNtNtB4_3ops4drop4Drop4drop9DropGuardTNtNtCsdGrGZaRBwMb_3syn8generics14TypeParamBoundNtNtB2q_5token4PlusENtNtBT_5alloc6GlobalEEB2q_, symObjAddr: 0x3B10, symBinAddr: 0x72D40, symSize: 0x20 }
  - { offset: 0xC44D3, size: 0x8, addend: 0x0, symName: __RINvNtCsieiGu2EXtoJ_4core3ptr13drop_in_placeNCNvXsp_NtNtCsdGrGZaRBwMb_3syn4item7parsingNtBQ_11TraitItemFnNtNtBS_5parse5Parse5parse0EBS_, symObjAddr: 0x3B30, symBinAddr: 0x72D60, symSize: 0x20 }
  - { offset: 0xC4502, size: 0x8, addend: 0x0, symName: __RINvNtCsieiGu2EXtoJ_4core3ptr13drop_in_placeNtNtB4_4cell12BorrowRefMutECsdGrGZaRBwMb_3syn, symObjAddr: 0x3B50, symBinAddr: 0x72D80, symSize: 0x20 }
  - { offset: 0xC4531, size: 0x8, addend: 0x0, symName: __RINvNtCsieiGu2EXtoJ_4core3ptr13drop_in_placeNtNtCsHUR1vrdMJt_3std6thread6ThreadECsdGrGZaRBwMb_3syn, symObjAddr: 0x3B70, symBinAddr: 0x72DA0, symSize: 0x20 }
  - { offset: 0xC4560, size: 0x8, addend: 0x0, symName: __RINvNtCsieiGu2EXtoJ_4core3ptr13drop_in_placeNtNtCsdGrGZaRBwMb_3syn11restriction10VisibilityEBK_, symObjAddr: 0x3B90, symBinAddr: 0x72DC0, symSize: 0x40 }
  - { offset: 0xC458F, size: 0x8, addend: 0x0, symName: __RINvNtCsieiGu2EXtoJ_4core3ptr13drop_in_placeNtNtCsdGrGZaRBwMb_3syn11restriction13VisRestrictedEBK_, symObjAddr: 0x3BD0, symBinAddr: 0x72E00, symSize: 0x20 }
  - { offset: 0xC45BE, size: 0x8, addend: 0x0, symName: __RINvNtCsieiGu2EXtoJ_4core3ptr13drop_in_placeNtNtCsdGrGZaRBwMb_3syn2ty10ReturnTypeEBK_, symObjAddr: 0x3BF0, symBinAddr: 0x72E20, symSize: 0x40 }
  - { offset: 0xC45ED, size: 0x8, addend: 0x0, symName: __RINvNtCsieiGu2EXtoJ_4core3ptr13drop_in_placeNtNtCsdGrGZaRBwMb_3syn2ty10TypeBareFnEBK_, symObjAddr: 0x3C30, symBinAddr: 0x72E60, symSize: 0xE0 }
  - { offset: 0xC461C, size: 0x8, addend: 0x0, symName: __RINvNtCsieiGu2EXtoJ_4core3ptr13drop_in_placeNtNtCsdGrGZaRBwMb_3syn2ty12BareVariadicEBK_, symObjAddr: 0x3D10, symBinAddr: 0x72F40, symSize: 0x60 }
  - { offset: 0xC464B, size: 0x8, addend: 0x0, symName: __RINvNtCsieiGu2EXtoJ_4core3ptr13drop_in_placeNtNtCsdGrGZaRBwMb_3syn2ty13TypeImplTraitEBK_, symObjAddr: 0x3D70, symBinAddr: 0x72FA0, symSize: 0x20 }
  - { offset: 0xC467A, size: 0x8, addend: 0x0, symName: __RINvNtCsieiGu2EXtoJ_4core3ptr13drop_in_placeNtNtCsdGrGZaRBwMb_3syn2ty13TypeReferenceEBK_, symObjAddr: 0x3D90, symBinAddr: 0x72FC0, symSize: 0x60 }
  - { offset: 0xC46A9, size: 0x8, addend: 0x0, symName: __RINvNtCsieiGu2EXtoJ_4core3ptr13drop_in_placeNtNtCsdGrGZaRBwMb_3syn2ty15TypeTraitObjectEBK_, symObjAddr: 0x3DF0, symBinAddr: 0x73020, symSize: 0x20 }
  - { offset: 0xC46D8, size: 0x8, addend: 0x0, symName: __RINvNtCsieiGu2EXtoJ_4core3ptr13drop_in_placeNtNtCsdGrGZaRBwMb_3syn2ty3AbiEBK_, symObjAddr: 0x3E10, symBinAddr: 0x73040, symSize: 0x20 }
  - { offset: 0xC4707, size: 0x8, addend: 0x0, symName: __RINvNtCsieiGu2EXtoJ_4core3ptr13drop_in_placeNtNtCsdGrGZaRBwMb_3syn2ty4TypeEBK_, symObjAddr: 0x3E30, symBinAddr: 0x73060, symSize: 0x140 }
  - { offset: 0xC4736, size: 0x8, addend: 0x0, symName: __RINvNtCsieiGu2EXtoJ_4core3ptr13drop_in_placeNtNtCsdGrGZaRBwMb_3syn2ty7TypePtrEBK_, symObjAddr: 0x3F70, symBinAddr: 0x731A0, symSize: 0x20 }
  - { offset: 0xC4765, size: 0x8, addend: 0x0, symName: __RINvNtCsieiGu2EXtoJ_4core3ptr13drop_in_placeNtNtCsdGrGZaRBwMb_3syn2ty8TypePathEBK_, symObjAddr: 0x3F90, symBinAddr: 0x731C0, symSize: 0x60 }
  - { offset: 0xC4794, size: 0x8, addend: 0x0, symName: __RINvNtCsieiGu2EXtoJ_4core3ptr13drop_in_placeNtNtCsdGrGZaRBwMb_3syn2ty9BareFnArgEBK_, symObjAddr: 0x3FF0, symBinAddr: 0x73220, symSize: 0x90 }
  - { offset: 0xC47C3, size: 0x8, addend: 0x0, symName: __RINvNtCsieiGu2EXtoJ_4core3ptr13drop_in_placeNtNtCsdGrGZaRBwMb_3syn2ty9TypeArrayEBK_, symObjAddr: 0x4080, symBinAddr: 0x732B0, symSize: 0x60 }
  - { offset: 0xC47F2, size: 0x8, addend: 0x0, symName: __RINvNtCsieiGu2EXtoJ_4core3ptr13drop_in_placeNtNtCsdGrGZaRBwMb_3syn2ty9TypeGroupEBK_, symObjAddr: 0x40E0, symBinAddr: 0x73310, symSize: 0x20 }
  - { offset: 0xC4821, size: 0x8, addend: 0x0, symName: __RINvNtCsieiGu2EXtoJ_4core3ptr13drop_in_placeNtNtCsdGrGZaRBwMb_3syn2ty9TypeMacroEBK_, symObjAddr: 0x4100, symBinAddr: 0x73330, symSize: 0x20 }
  - { offset: 0xC4850, size: 0x8, addend: 0x0, symName: __RINvNtCsieiGu2EXtoJ_4core3ptr13drop_in_placeNtNtCsdGrGZaRBwMb_3syn2ty9TypeParenEBK_, symObjAddr: 0x4120, symBinAddr: 0x73350, symSize: 0x20 }
  - { offset: 0xC487F, size: 0x8, addend: 0x0, symName: __RINvNtCsieiGu2EXtoJ_4core3ptr13drop_in_placeNtNtCsdGrGZaRBwMb_3syn2ty9TypeSliceEBK_, symObjAddr: 0x4140, symBinAddr: 0x73370, symSize: 0x20 }
  - { offset: 0xC48AE, size: 0x8, addend: 0x0, symName: __RINvNtCsieiGu2EXtoJ_4core3ptr13drop_in_placeNtNtCsdGrGZaRBwMb_3syn2ty9TypeTupleEBK_, symObjAddr: 0x4160, symBinAddr: 0x73390, symSize: 0x20 }
  - { offset: 0xC48DD, size: 0x8, addend: 0x0, symName: __RINvNtCsieiGu2EXtoJ_4core3ptr13drop_in_placeNtNtCsdGrGZaRBwMb_3syn3lit10LitByteStrEBK_, symObjAddr: 0x4180, symBinAddr: 0x733B0, symSize: 0x20 }
  - { offset: 0xC490C, size: 0x8, addend: 0x0, symName: __RINvNtCsieiGu2EXtoJ_4core3ptr13drop_in_placeNtNtCsdGrGZaRBwMb_3syn3lit10LitIntReprEBK_, symObjAddr: 0x41A0, symBinAddr: 0x733D0, symSize: 0x90 }
  - { offset: 0xC493B, size: 0x8, addend: 0x0, symName: __RINvNtCsieiGu2EXtoJ_4core3ptr13drop_in_placeNtNtCsdGrGZaRBwMb_3syn3lit12LitFloatReprEBK_, symObjAddr: 0x4230, symBinAddr: 0x73460, symSize: 0x90 }
  - { offset: 0xC496A, size: 0x8, addend: 0x0, symName: __RINvNtCsieiGu2EXtoJ_4core3ptr13drop_in_placeNtNtCsdGrGZaRBwMb_3syn3lit3LitEBK_, symObjAddr: 0x42C0, symBinAddr: 0x734F0, symSize: 0xF0 }
  - { offset: 0xC4999, size: 0x8, addend: 0x0, symName: __RINvNtCsieiGu2EXtoJ_4core3ptr13drop_in_placeNtNtCsdGrGZaRBwMb_3syn3lit6LitIntEBK_, symObjAddr: 0x43B0, symBinAddr: 0x735E0, symSize: 0x20 }
  - { offset: 0xC49C8, size: 0x8, addend: 0x0, symName: __RINvNtCsieiGu2EXtoJ_4core3ptr13drop_in_placeNtNtCsdGrGZaRBwMb_3syn3lit6LitStrEBK_, symObjAddr: 0x43D0, symBinAddr: 0x73600, symSize: 0x20 }
  - { offset: 0xC49F7, size: 0x8, addend: 0x0, symName: __RINvNtCsieiGu2EXtoJ_4core3ptr13drop_in_placeNtNtCsdGrGZaRBwMb_3syn3lit7LitByteEBK_, symObjAddr: 0x43F0, symBinAddr: 0x73620, symSize: 0x20 }
  - { offset: 0xC4A26, size: 0x8, addend: 0x0, symName: __RINvNtCsieiGu2EXtoJ_4core3ptr13drop_in_placeNtNtCsdGrGZaRBwMb_3syn3lit7LitCStrEBK_, symObjAddr: 0x4410, symBinAddr: 0x73640, symSize: 0x20 }
  - { offset: 0xC4A55, size: 0x8, addend: 0x0, symName: __RINvNtCsieiGu2EXtoJ_4core3ptr13drop_in_placeNtNtCsdGrGZaRBwMb_3syn3lit7LitCharEBK_, symObjAddr: 0x4430, symBinAddr: 0x73660, symSize: 0x20 }
  - { offset: 0xC4A84, size: 0x8, addend: 0x0, symName: __RINvNtCsieiGu2EXtoJ_4core3ptr13drop_in_placeNtNtCsdGrGZaRBwMb_3syn3lit7LitReprEBK_, symObjAddr: 0x4450, symBinAddr: 0x73680, symSize: 0x60 }
  - { offset: 0xC4AB3, size: 0x8, addend: 0x0, symName: __RINvNtCsieiGu2EXtoJ_4core3ptr13drop_in_placeNtNtCsdGrGZaRBwMb_3syn3lit8LitFloatEBK_, symObjAddr: 0x44B0, symBinAddr: 0x736E0, symSize: 0x20 }
  - { offset: 0xC4AE2, size: 0x8, addend: 0x0, symName: __RINvNtCsieiGu2EXtoJ_4core3ptr13drop_in_placeNtNtCsdGrGZaRBwMb_3syn3mac5MacroEBK_, symObjAddr: 0x44D0, symBinAddr: 0x73700, symSize: 0x60 }
  - { offset: 0xC4B11, size: 0x8, addend: 0x0, symName: __RINvNtCsieiGu2EXtoJ_4core3ptr13drop_in_placeNtNtCsdGrGZaRBwMb_3syn3pat12PatReferenceEBK_, symObjAddr: 0x4530, symBinAddr: 0x73760, symSize: 0x60 }
  - { offset: 0xC4B40, size: 0x8, addend: 0x0, symName: __RINvNtCsieiGu2EXtoJ_4core3ptr13drop_in_placeNtNtCsdGrGZaRBwMb_3syn3pat14PatTupleStructEBK_, symObjAddr: 0x4590, symBinAddr: 0x737C0, symSize: 0xB0 }
  - { offset: 0xC4B6F, size: 0x8, addend: 0x0, symName: __RINvNtCsieiGu2EXtoJ_4core3ptr13drop_in_placeNtNtCsdGrGZaRBwMb_3syn3pat3PatEBK_, symObjAddr: 0x4640, symBinAddr: 0x73870, symSize: 0x1B0 }
  - { offset: 0xC4B9E, size: 0x8, addend: 0x0, symName: __RINvNtCsieiGu2EXtoJ_4core3ptr13drop_in_placeNtNtCsdGrGZaRBwMb_3syn3pat5PatOrEBK_, symObjAddr: 0x47F0, symBinAddr: 0x73A20, symSize: 0x60 }
  - { offset: 0xC4BCD, size: 0x8, addend: 0x0, symName: __RINvNtCsieiGu2EXtoJ_4core3ptr13drop_in_placeNtNtCsdGrGZaRBwMb_3syn3pat7PatRestEBK_, symObjAddr: 0x4850, symBinAddr: 0x73A80, symSize: 0x20 }
  - { offset: 0xC4BFC, size: 0x8, addend: 0x0, symName: __RINvNtCsieiGu2EXtoJ_4core3ptr13drop_in_placeNtNtCsdGrGZaRBwMb_3syn3pat7PatTypeEBK_, symObjAddr: 0x4870, symBinAddr: 0x73AA0, symSize: 0x90 }
  - { offset: 0xC4C2B, size: 0x8, addend: 0x0, symName: __RINvNtCsieiGu2EXtoJ_4core3ptr13drop_in_placeNtNtCsdGrGZaRBwMb_3syn3pat7PatWildEBK_, symObjAddr: 0x4900, symBinAddr: 0x73B30, symSize: 0x20 }
  - { offset: 0xC4C5A, size: 0x8, addend: 0x0, symName: __RINvNtCsieiGu2EXtoJ_4core3ptr13drop_in_placeNtNtCsdGrGZaRBwMb_3syn3pat8FieldPatEBK_, symObjAddr: 0x4920, symBinAddr: 0x73B50, symSize: 0x90 }
  - { offset: 0xC4C89, size: 0x8, addend: 0x0, symName: __RINvNtCsieiGu2EXtoJ_4core3ptr13drop_in_placeNtNtCsdGrGZaRBwMb_3syn3pat8PatIdentEBK_, symObjAddr: 0x49B0, symBinAddr: 0x73BE0, symSize: 0x90 }
  - { offset: 0xC4CB8, size: 0x8, addend: 0x0, symName: __RINvNtCsieiGu2EXtoJ_4core3ptr13drop_in_placeNtNtCsdGrGZaRBwMb_3syn3pat8PatParenEBK_, symObjAddr: 0x4A40, symBinAddr: 0x73C70, symSize: 0x60 }
  - { offset: 0xC4CE7, size: 0x8, addend: 0x0, symName: __RINvNtCsieiGu2EXtoJ_4core3ptr13drop_in_placeNtNtCsdGrGZaRBwMb_3syn3pat8PatSliceEBK_, symObjAddr: 0x4AA0, symBinAddr: 0x73CD0, symSize: 0x60 }
  - { offset: 0xC4D16, size: 0x8, addend: 0x0, symName: __RINvNtCsieiGu2EXtoJ_4core3ptr13drop_in_placeNtNtCsdGrGZaRBwMb_3syn3pat8PatTupleEBK_, symObjAddr: 0x4B00, symBinAddr: 0x73D30, symSize: 0x60 }
  - { offset: 0xC4D45, size: 0x8, addend: 0x0, symName: __RINvNtCsieiGu2EXtoJ_4core3ptr13drop_in_placeNtNtCsdGrGZaRBwMb_3syn3pat9PatStructEBK_, symObjAddr: 0x4B60, symBinAddr: 0x73D90, symSize: 0xE0 }
  - { offset: 0xC4D74, size: 0x8, addend: 0x0, symName: __RINvNtCsieiGu2EXtoJ_4core3ptr13drop_in_placeNtNtCsdGrGZaRBwMb_3syn4attr13MetaNameValueEBK_, symObjAddr: 0x4C40, symBinAddr: 0x73E70, symSize: 0x60 }
  - { offset: 0xC4DA3, size: 0x8, addend: 0x0, symName: __RINvNtCsieiGu2EXtoJ_4core3ptr13drop_in_placeNtNtCsdGrGZaRBwMb_3syn4attr4MetaEBK_, symObjAddr: 0x4CA0, symBinAddr: 0x73ED0, symSize: 0x70 }
  - { offset: 0xC4DD2, size: 0x8, addend: 0x0, symName: __RINvNtCsieiGu2EXtoJ_4core3ptr13drop_in_placeNtNtCsdGrGZaRBwMb_3syn4attr8MetaListEBK_, symObjAddr: 0x4D10, symBinAddr: 0x73F40, symSize: 0x60 }
  - { offset: 0xC4E01, size: 0x8, addend: 0x0, symName: __RINvNtCsieiGu2EXtoJ_4core3ptr13drop_in_placeNtNtCsdGrGZaRBwMb_3syn4attr9AttributeEBK_, symObjAddr: 0x4D70, symBinAddr: 0x73FA0, symSize: 0x20 }
  - { offset: 0xC4E30, size: 0x8, addend: 0x0, symName: __RINvNtCsieiGu2EXtoJ_4core3ptr13drop_in_placeNtNtCsdGrGZaRBwMb_3syn4data11FieldsNamedEBK_, symObjAddr: 0x4D90, symBinAddr: 0x73FC0, symSize: 0x20 }
  - { offset: 0xC4E5F, size: 0x8, addend: 0x0, symName: __RINvNtCsieiGu2EXtoJ_4core3ptr13drop_in_placeNtNtCsdGrGZaRBwMb_3syn4data13FieldsUnnamedEBK_, symObjAddr: 0x4DB0, symBinAddr: 0x73FE0, symSize: 0x20 }
  - { offset: 0xC4E8E, size: 0x8, addend: 0x0, symName: __RINvNtCsieiGu2EXtoJ_4core3ptr13drop_in_placeNtNtCsdGrGZaRBwMb_3syn4data5FieldEBK_, symObjAddr: 0x4DD0, symBinAddr: 0x74000, symSize: 0xC0 }
  - { offset: 0xC4EBD, size: 0x8, addend: 0x0, symName: __RINvNtCsieiGu2EXtoJ_4core3ptr13drop_in_placeNtNtCsdGrGZaRBwMb_3syn4data6FieldsEBK_, symObjAddr: 0x4E90, symBinAddr: 0x740C0, symSize: 0x50 }
  - { offset: 0xC4EEC, size: 0x8, addend: 0x0, symName: __RINvNtCsieiGu2EXtoJ_4core3ptr13drop_in_placeNtNtCsdGrGZaRBwMb_3syn4data7VariantEBK_, symObjAddr: 0x4EE0, symBinAddr: 0x74110, symSize: 0xC0 }
  - { offset: 0xC4F1B, size: 0x8, addend: 0x0, symName: __RINvNtCsieiGu2EXtoJ_4core3ptr13drop_in_placeNtNtCsdGrGZaRBwMb_3syn4expr10ExprAssignEBK_, symObjAddr: 0x4FA0, symBinAddr: 0x741D0, symSize: 0x90 }
  - { offset: 0xC4F4A, size: 0x8, addend: 0x0, symName: __RINvNtCsieiGu2EXtoJ_4core3ptr13drop_in_placeNtNtCsdGrGZaRBwMb_3syn4expr10ExprBinaryEBK_, symObjAddr: 0x5030, symBinAddr: 0x74260, symSize: 0x90 }
  - { offset: 0xC4F79, size: 0x8, addend: 0x0, symName: __RINvNtCsieiGu2EXtoJ_4core3ptr13drop_in_placeNtNtCsdGrGZaRBwMb_3syn4expr10ExprRepeatEBK_, symObjAddr: 0x50C0, symBinAddr: 0x742F0, symSize: 0x90 }
  - { offset: 0xC4FA8, size: 0x8, addend: 0x0, symName: __RINvNtCsieiGu2EXtoJ_4core3ptr13drop_in_placeNtNtCsdGrGZaRBwMb_3syn4expr10ExprReturnEBK_, symObjAddr: 0x5150, symBinAddr: 0x74380, symSize: 0x60 }
  - { offset: 0xC4FD7, size: 0x8, addend: 0x0, symName: __RINvNtCsieiGu2EXtoJ_4core3ptr13drop_in_placeNtNtCsdGrGZaRBwMb_3syn4expr10ExprStructEBK_, symObjAddr: 0x51B0, symBinAddr: 0x743E0, symSize: 0xE0 }
  - { offset: 0xC5006, size: 0x8, addend: 0x0, symName: __RINvNtCsieiGu2EXtoJ_4core3ptr13drop_in_placeNtNtCsdGrGZaRBwMb_3syn4expr10ExprUnsafeEBK_, symObjAddr: 0x5290, symBinAddr: 0x744C0, symSize: 0x60 }
  - { offset: 0xC5035, size: 0x8, addend: 0x0, symName: __RINvNtCsieiGu2EXtoJ_4core3ptr13drop_in_placeNtNtCsdGrGZaRBwMb_3syn4expr10FieldValueEBK_, symObjAddr: 0x52F0, symBinAddr: 0x74520, symSize: 0x90 }
  - { offset: 0xC5064, size: 0x8, addend: 0x0, symName: __RINvNtCsieiGu2EXtoJ_4core3ptr13drop_in_placeNtNtCsdGrGZaRBwMb_3syn4expr11ExprClosureEBK_, symObjAddr: 0x5380, symBinAddr: 0x745B0, symSize: 0xF0 }
  - { offset: 0xC5093, size: 0x8, addend: 0x0, symName: __RINvNtCsieiGu2EXtoJ_4core3ptr13drop_in_placeNtNtCsdGrGZaRBwMb_3syn4expr11ExprForLoopEBK_, symObjAddr: 0x5470, symBinAddr: 0x746A0, symSize: 0xE0 }
  - { offset: 0xC50C2, size: 0x8, addend: 0x0, symName: __RINvNtCsieiGu2EXtoJ_4core3ptr13drop_in_placeNtNtCsdGrGZaRBwMb_3syn4expr11ExprRawAddrEBK_, symObjAddr: 0x5550, symBinAddr: 0x74780, symSize: 0x60 }
  - { offset: 0xC50F1, size: 0x8, addend: 0x0, symName: __RINvNtCsieiGu2EXtoJ_4core3ptr13drop_in_placeNtNtCsdGrGZaRBwMb_3syn4expr12ExprContinueEBK_, symObjAddr: 0x55B0, symBinAddr: 0x747E0, symSize: 0x60 }
  - { offset: 0xC5120, size: 0x8, addend: 0x0, symName: __RINvNtCsieiGu2EXtoJ_4core3ptr13drop_in_placeNtNtCsdGrGZaRBwMb_3syn4expr12ExprTryBlockEBK_, symObjAddr: 0x5610, symBinAddr: 0x74840, symSize: 0x60 }
  - { offset: 0xC514F, size: 0x8, addend: 0x0, symName: __RINvNtCsieiGu2EXtoJ_4core3ptr13drop_in_placeNtNtCsdGrGZaRBwMb_3syn4expr13ExprReferenceEBK_, symObjAddr: 0x5670, symBinAddr: 0x748A0, symSize: 0x60 }
  - { offset: 0xC517E, size: 0x8, addend: 0x0, symName: __RINvNtCsieiGu2EXtoJ_4core3ptr13drop_in_placeNtNtCsdGrGZaRBwMb_3syn4expr14ExprMethodCallEBK_, symObjAddr: 0x56D0, symBinAddr: 0x74900, symSize: 0xE0 }
  - { offset: 0xC51AD, size: 0x8, addend: 0x0, symName: __RINvNtCsieiGu2EXtoJ_4core3ptr13drop_in_placeNtNtCsdGrGZaRBwMb_3syn4expr3ArmEBK_, symObjAddr: 0x57B0, symBinAddr: 0x749E0, symSize: 0xC0 }
  - { offset: 0xC51DC, size: 0x8, addend: 0x0, symName: __RINvNtCsieiGu2EXtoJ_4core3ptr13drop_in_placeNtNtCsdGrGZaRBwMb_3syn4expr4ExprEBK_, symObjAddr: 0x5870, symBinAddr: 0x74AA0, symSize: 0x390 }
  - { offset: 0xC520B, size: 0x8, addend: 0x0, symName: __RINvNtCsieiGu2EXtoJ_4core3ptr13drop_in_placeNtNtCsdGrGZaRBwMb_3syn4expr5LabelEBK_, symObjAddr: 0x5C00, symBinAddr: 0x74E30, symSize: 0x20 }
  - { offset: 0xC523A, size: 0x8, addend: 0x0, symName: __RINvNtCsieiGu2EXtoJ_4core3ptr13drop_in_placeNtNtCsdGrGZaRBwMb_3syn4expr6ExprIfEBK_, symObjAddr: 0x5C20, symBinAddr: 0x74E50, symSize: 0xB0 }
  - { offset: 0xC5269, size: 0x8, addend: 0x0, symName: __RINvNtCsieiGu2EXtoJ_4core3ptr13drop_in_placeNtNtCsdGrGZaRBwMb_3syn4expr6MemberEBK_, symObjAddr: 0x5CD0, symBinAddr: 0x74F00, symSize: 0x40 }
  - { offset: 0xC5298, size: 0x8, addend: 0x0, symName: __RINvNtCsieiGu2EXtoJ_4core3ptr13drop_in_placeNtNtCsdGrGZaRBwMb_3syn4expr7ExprLetEBK_, symObjAddr: 0x5D10, symBinAddr: 0x74F40, symSize: 0x90 }
  - { offset: 0xC52C7, size: 0x8, addend: 0x0, symName: __RINvNtCsieiGu2EXtoJ_4core3ptr13drop_in_placeNtNtCsdGrGZaRBwMb_3syn4expr7ExprLitEBK_, symObjAddr: 0x5DA0, symBinAddr: 0x74FD0, symSize: 0x60 }
  - { offset: 0xC52F6, size: 0x8, addend: 0x0, symName: __RINvNtCsieiGu2EXtoJ_4core3ptr13drop_in_placeNtNtCsdGrGZaRBwMb_3syn4expr7ExprTryEBK_, symObjAddr: 0x5E00, symBinAddr: 0x75030, symSize: 0x60 }
  - { offset: 0xC5325, size: 0x8, addend: 0x0, symName: __RINvNtCsieiGu2EXtoJ_4core3ptr13drop_in_placeNtNtCsdGrGZaRBwMb_3syn4expr8ExprCallEBK_, symObjAddr: 0x5E60, symBinAddr: 0x75090, symSize: 0x90 }
  - { offset: 0xC5354, size: 0x8, addend: 0x0, symName: __RINvNtCsieiGu2EXtoJ_4core3ptr13drop_in_placeNtNtCsdGrGZaRBwMb_3syn4expr8ExprCastEBK_, symObjAddr: 0x5EF0, symBinAddr: 0x75120, symSize: 0x90 }
  - { offset: 0xC5383, size: 0x8, addend: 0x0, symName: __RINvNtCsieiGu2EXtoJ_4core3ptr13drop_in_placeNtNtCsdGrGZaRBwMb_3syn4expr8ExprLoopEBK_, symObjAddr: 0x5F80, symBinAddr: 0x751B0, symSize: 0x90 }
  - { offset: 0xC53B2, size: 0x8, addend: 0x0, symName: __RINvNtCsieiGu2EXtoJ_4core3ptr13drop_in_placeNtNtCsdGrGZaRBwMb_3syn4expr8ExprPathEBK_, symObjAddr: 0x6010, symBinAddr: 0x75240, symSize: 0x90 }
  - { offset: 0xC53E1, size: 0x8, addend: 0x0, symName: __RINvNtCsieiGu2EXtoJ_4core3ptr13drop_in_placeNtNtCsdGrGZaRBwMb_3syn4expr9ExprArrayEBK_, symObjAddr: 0x60A0, symBinAddr: 0x752D0, symSize: 0x60 }
  - { offset: 0xC5410, size: 0x8, addend: 0x0, symName: __RINvNtCsieiGu2EXtoJ_4core3ptr13drop_in_placeNtNtCsdGrGZaRBwMb_3syn4expr9ExprAsyncEBK_, symObjAddr: 0x6100, symBinAddr: 0x75330, symSize: 0x60 }
  - { offset: 0xC543F, size: 0x8, addend: 0x0, symName: __RINvNtCsieiGu2EXtoJ_4core3ptr13drop_in_placeNtNtCsdGrGZaRBwMb_3syn4expr9ExprAwaitEBK_, symObjAddr: 0x6160, symBinAddr: 0x75390, symSize: 0x60 }
  - { offset: 0xC546E, size: 0x8, addend: 0x0, symName: __RINvNtCsieiGu2EXtoJ_4core3ptr13drop_in_placeNtNtCsdGrGZaRBwMb_3syn4expr9ExprBlockEBK_, symObjAddr: 0x61C0, symBinAddr: 0x753F0, symSize: 0x90 }
  - { offset: 0xC549D, size: 0x8, addend: 0x0, symName: __RINvNtCsieiGu2EXtoJ_4core3ptr13drop_in_placeNtNtCsdGrGZaRBwMb_3syn4expr9ExprBreakEBK_, symObjAddr: 0x6250, symBinAddr: 0x75480, symSize: 0x90 }
  - { offset: 0xC54CC, size: 0x8, addend: 0x0, symName: __RINvNtCsieiGu2EXtoJ_4core3ptr13drop_in_placeNtNtCsdGrGZaRBwMb_3syn4expr9ExprConstEBK_, symObjAddr: 0x62E0, symBinAddr: 0x75510, symSize: 0x60 }
  - { offset: 0xC54FB, size: 0x8, addend: 0x0, symName: __RINvNtCsieiGu2EXtoJ_4core3ptr13drop_in_placeNtNtCsdGrGZaRBwMb_3syn4expr9ExprFieldEBK_, symObjAddr: 0x6340, symBinAddr: 0x75570, symSize: 0x90 }
  - { offset: 0xC552A, size: 0x8, addend: 0x0, symName: __RINvNtCsieiGu2EXtoJ_4core3ptr13drop_in_placeNtNtCsdGrGZaRBwMb_3syn4expr9ExprGroupEBK_, symObjAddr: 0x63D0, symBinAddr: 0x75600, symSize: 0x60 }
  - { offset: 0xC5559, size: 0x8, addend: 0x0, symName: __RINvNtCsieiGu2EXtoJ_4core3ptr13drop_in_placeNtNtCsdGrGZaRBwMb_3syn4expr9ExprIndexEBK_, symObjAddr: 0x6430, symBinAddr: 0x75660, symSize: 0x90 }
  - { offset: 0xC5588, size: 0x8, addend: 0x0, symName: __RINvNtCsieiGu2EXtoJ_4core3ptr13drop_in_placeNtNtCsdGrGZaRBwMb_3syn4expr9ExprInferEBK_, symObjAddr: 0x64C0, symBinAddr: 0x756F0, symSize: 0x20 }
  - { offset: 0xC55B7, size: 0x8, addend: 0x0, symName: __RINvNtCsieiGu2EXtoJ_4core3ptr13drop_in_placeNtNtCsdGrGZaRBwMb_3syn4expr9ExprMacroEBK_, symObjAddr: 0x64E0, symBinAddr: 0x75710, symSize: 0x60 }
  - { offset: 0xC55E6, size: 0x8, addend: 0x0, symName: __RINvNtCsieiGu2EXtoJ_4core3ptr13drop_in_placeNtNtCsdGrGZaRBwMb_3syn4expr9ExprMatchEBK_, symObjAddr: 0x6540, symBinAddr: 0x75770, symSize: 0x90 }
  - { offset: 0xC5615, size: 0x8, addend: 0x0, symName: __RINvNtCsieiGu2EXtoJ_4core3ptr13drop_in_placeNtNtCsdGrGZaRBwMb_3syn4expr9ExprParenEBK_, symObjAddr: 0x65D0, symBinAddr: 0x75800, symSize: 0x60 }
  - { offset: 0xC5644, size: 0x8, addend: 0x0, symName: __RINvNtCsieiGu2EXtoJ_4core3ptr13drop_in_placeNtNtCsdGrGZaRBwMb_3syn4expr9ExprRangeEBK_, symObjAddr: 0x6630, symBinAddr: 0x75860, symSize: 0x90 }
  - { offset: 0xC5673, size: 0x8, addend: 0x0, symName: __RINvNtCsieiGu2EXtoJ_4core3ptr13drop_in_placeNtNtCsdGrGZaRBwMb_3syn4expr9ExprTupleEBK_, symObjAddr: 0x66C0, symBinAddr: 0x758F0, symSize: 0x60 }
  - { offset: 0xC56A2, size: 0x8, addend: 0x0, symName: __RINvNtCsieiGu2EXtoJ_4core3ptr13drop_in_placeNtNtCsdGrGZaRBwMb_3syn4expr9ExprUnaryEBK_, symObjAddr: 0x6720, symBinAddr: 0x75950, symSize: 0x60 }
  - { offset: 0xC56D1, size: 0x8, addend: 0x0, symName: __RINvNtCsieiGu2EXtoJ_4core3ptr13drop_in_placeNtNtCsdGrGZaRBwMb_3syn4expr9ExprWhileEBK_, symObjAddr: 0x6780, symBinAddr: 0x759B0, symSize: 0xB0 }
  - { offset: 0xC5700, size: 0x8, addend: 0x0, symName: __RINvNtCsieiGu2EXtoJ_4core3ptr13drop_in_placeNtNtCsdGrGZaRBwMb_3syn4expr9ExprYieldEBK_, symObjAddr: 0x6830, symBinAddr: 0x75A60, symSize: 0x60 }
  - { offset: 0xC572F, size: 0x8, addend: 0x0, symName: __RINvNtCsieiGu2EXtoJ_4core3ptr13drop_in_placeNtNtCsdGrGZaRBwMb_3syn4item10ImplItemFnEBK_, symObjAddr: 0x6910, symBinAddr: 0x75AC0, symSize: 0xC0 }
  - { offset: 0xC575E, size: 0x8, addend: 0x0, symName: __RINvNtCsieiGu2EXtoJ_4core3ptr13drop_in_placeNtNtCsdGrGZaRBwMb_3syn4item10ItemStaticEBK_, symObjAddr: 0x69D0, symBinAddr: 0x75B80, symSize: 0xE0 }
  - { offset: 0xC578D, size: 0x8, addend: 0x0, symName: __RINvNtCsieiGu2EXtoJ_4core3ptr13drop_in_placeNtNtCsdGrGZaRBwMb_3syn4item10ItemStructEBK_, symObjAddr: 0x6AB0, symBinAddr: 0x75C60, symSize: 0xF0 }
  - { offset: 0xC57BC, size: 0x8, addend: 0x0, symName: __RINvNtCsieiGu2EXtoJ_4core3ptr13drop_in_placeNtNtCsdGrGZaRBwMb_3syn4item11ForeignItemEBK_, symObjAddr: 0x6BA0, symBinAddr: 0x75D50, symSize: 0xA0 }
  - { offset: 0xC57EB, size: 0x8, addend: 0x0, symName: __RINvNtCsieiGu2EXtoJ_4core3ptr13drop_in_placeNtNtCsdGrGZaRBwMb_3syn4item11TraitItemFnEBK_, symObjAddr: 0x6C40, symBinAddr: 0x75DF0, symSize: 0x90 }
  - { offset: 0xC581A, size: 0x8, addend: 0x0, symName: __RINvNtCsieiGu2EXtoJ_4core3ptr13drop_in_placeNtNtCsdGrGZaRBwMb_3syn4item12ImplItemTypeEBK_, symObjAddr: 0x6CD0, symBinAddr: 0x75E80, symSize: 0xF0 }
  - { offset: 0xC5849, size: 0x8, addend: 0x0, symName: __RINvNtCsieiGu2EXtoJ_4core3ptr13drop_in_placeNtNtCsdGrGZaRBwMb_3syn4item13ForeignItemFnEBK_, symObjAddr: 0x6DC0, symBinAddr: 0x75F70, symSize: 0x90 }
  - { offset: 0xC5878, size: 0x8, addend: 0x0, symName: __RINvNtCsieiGu2EXtoJ_4core3ptr13drop_in_placeNtNtCsdGrGZaRBwMb_3syn4item13ImplItemConstEBK_, symObjAddr: 0x6E50, symBinAddr: 0x76000, symSize: 0x120 }
  - { offset: 0xC58A7, size: 0x8, addend: 0x0, symName: __RINvNtCsieiGu2EXtoJ_4core3ptr13drop_in_placeNtNtCsdGrGZaRBwMb_3syn4item13ImplItemMacroEBK_, symObjAddr: 0x6F70, symBinAddr: 0x76120, symSize: 0x60 }
  - { offset: 0xC58D6, size: 0x8, addend: 0x0, symName: __RINvNtCsieiGu2EXtoJ_4core3ptr13drop_in_placeNtNtCsdGrGZaRBwMb_3syn4item13TraitItemTypeEBK_, symObjAddr: 0x6FD0, symBinAddr: 0x76180, symSize: 0xF0 }
  - { offset: 0xC5905, size: 0x8, addend: 0x0, symName: __RINvNtCsieiGu2EXtoJ_4core3ptr13drop_in_placeNtNtCsdGrGZaRBwMb_3syn4item14ItemForeignModEBK_, symObjAddr: 0x70C0, symBinAddr: 0x76270, symSize: 0x90 }
  - { offset: 0xC5934, size: 0x8, addend: 0x0, symName: __RINvNtCsieiGu2EXtoJ_4core3ptr13drop_in_placeNtNtCsdGrGZaRBwMb_3syn4item14ItemTraitAliasEBK_, symObjAddr: 0x7150, symBinAddr: 0x76300, symSize: 0xF0 }
  - { offset: 0xC5963, size: 0x8, addend: 0x0, symName: __RINvNtCsieiGu2EXtoJ_4core3ptr13drop_in_placeNtNtCsdGrGZaRBwMb_3syn4item14TraitItemConstEBK_, symObjAddr: 0x7240, symBinAddr: 0x763F0, symSize: 0xF0 }
  - { offset: 0xC5992, size: 0x8, addend: 0x0, symName: __RINvNtCsieiGu2EXtoJ_4core3ptr13drop_in_placeNtNtCsdGrGZaRBwMb_3syn4item14TraitItemMacroEBK_, symObjAddr: 0x7330, symBinAddr: 0x764E0, symSize: 0x60 }
  - { offset: 0xC59C1, size: 0x8, addend: 0x0, symName: __RINvNtCsieiGu2EXtoJ_4core3ptr13drop_in_placeNtNtCsdGrGZaRBwMb_3syn4item15ForeignItemTypeEBK_, symObjAddr: 0x7390, symBinAddr: 0x76540, symSize: 0xC0 }
  - { offset: 0xC59F0, size: 0x8, addend: 0x0, symName: __RINvNtCsieiGu2EXtoJ_4core3ptr13drop_in_placeNtNtCsdGrGZaRBwMb_3syn4item15ItemExternCrateEBK_, symObjAddr: 0x7450, symBinAddr: 0x76600, symSize: 0xB0 }
  - { offset: 0xC5A1F, size: 0x8, addend: 0x0, symName: __RINvNtCsieiGu2EXtoJ_4core3ptr13drop_in_placeNtNtCsdGrGZaRBwMb_3syn4item16ForeignItemMacroEBK_, symObjAddr: 0x7500, symBinAddr: 0x766B0, symSize: 0x60 }
  - { offset: 0xC5A4E, size: 0x8, addend: 0x0, symName: __RINvNtCsieiGu2EXtoJ_4core3ptr13drop_in_placeNtNtCsdGrGZaRBwMb_3syn4item17ForeignItemStaticEBK_, symObjAddr: 0x7560, symBinAddr: 0x76710, symSize: 0xB0 }
  - { offset: 0xC5A7D, size: 0x8, addend: 0x0, symName: __RINvNtCsieiGu2EXtoJ_4core3ptr13drop_in_placeNtNtCsdGrGZaRBwMb_3syn4item4ItemEBK_, symObjAddr: 0x7610, symBinAddr: 0x767C0, symSize: 0x190 }
  - { offset: 0xC5AAC, size: 0x8, addend: 0x0, symName: __RINvNtCsieiGu2EXtoJ_4core3ptr13drop_in_placeNtNtCsdGrGZaRBwMb_3syn4item5FnArgEBK_, symObjAddr: 0x77A0, symBinAddr: 0x76950, symSize: 0x50 }
  - { offset: 0xC5ADB, size: 0x8, addend: 0x0, symName: __RINvNtCsieiGu2EXtoJ_4core3ptr13drop_in_placeNtNtCsdGrGZaRBwMb_3syn4item6ItemFnEBK_, symObjAddr: 0x77F0, symBinAddr: 0x769A0, symSize: 0xC0 }
  - { offset: 0xC5B0A, size: 0x8, addend: 0x0, symName: __RINvNtCsieiGu2EXtoJ_4core3ptr13drop_in_placeNtNtCsdGrGZaRBwMb_3syn4item7ItemModEBK_, symObjAddr: 0x78B0, symBinAddr: 0x76A60, symSize: 0xB0 }
  - { offset: 0xC5B39, size: 0x8, addend: 0x0, symName: __RINvNtCsieiGu2EXtoJ_4core3ptr13drop_in_placeNtNtCsdGrGZaRBwMb_3syn4item7ItemUseEBK_, symObjAddr: 0x7960, symBinAddr: 0x76B10, symSize: 0x90 }
  - { offset: 0xC5B68, size: 0x8, addend: 0x0, symName: __RINvNtCsieiGu2EXtoJ_4core3ptr13drop_in_placeNtNtCsdGrGZaRBwMb_3syn4item7UseNameEBK_, symObjAddr: 0x79F0, symBinAddr: 0x76BA0, symSize: 0x20 }
  - { offset: 0xC5B97, size: 0x8, addend: 0x0, symName: __RINvNtCsieiGu2EXtoJ_4core3ptr13drop_in_placeNtNtCsdGrGZaRBwMb_3syn4item7UsePathEBK_, symObjAddr: 0x7A10, symBinAddr: 0x76BC0, symSize: 0x60 }
  - { offset: 0xC5BC6, size: 0x8, addend: 0x0, symName: __RINvNtCsieiGu2EXtoJ_4core3ptr13drop_in_placeNtNtCsdGrGZaRBwMb_3syn4item7UseTreeEBK_, symObjAddr: 0x7A70, symBinAddr: 0x76C20, symSize: 0x80 }
  - { offset: 0xC5BF5, size: 0x8, addend: 0x0, symName: __RINvNtCsieiGu2EXtoJ_4core3ptr13drop_in_placeNtNtCsdGrGZaRBwMb_3syn4item8ImplItemEBK_, symObjAddr: 0x7AF0, symBinAddr: 0x76CA0, symSize: 0xA0 }
  - { offset: 0xC5C24, size: 0x8, addend: 0x0, symName: __RINvNtCsieiGu2EXtoJ_4core3ptr13drop_in_placeNtNtCsdGrGZaRBwMb_3syn4item8ItemEnumEBK_, symObjAddr: 0x7B90, symBinAddr: 0x76D40, symSize: 0xF0 }
  - { offset: 0xC5C53, size: 0x8, addend: 0x0, symName: __RINvNtCsieiGu2EXtoJ_4core3ptr13drop_in_placeNtNtCsdGrGZaRBwMb_3syn4item8ItemImplEBK_, symObjAddr: 0x7C80, symBinAddr: 0x76E30, symSize: 0xF0 }
  - { offset: 0xC5C82, size: 0x8, addend: 0x0, symName: __RINvNtCsieiGu2EXtoJ_4core3ptr13drop_in_placeNtNtCsdGrGZaRBwMb_3syn4item8ItemTypeEBK_, symObjAddr: 0x7D70, symBinAddr: 0x76F20, symSize: 0xF0 }
  - { offset: 0xC5CB1, size: 0x8, addend: 0x0, symName: __RINvNtCsieiGu2EXtoJ_4core3ptr13drop_in_placeNtNtCsdGrGZaRBwMb_3syn4item8ReceiverEBK_, symObjAddr: 0x7E60, symBinAddr: 0x77010, symSize: 0x90 }
  - { offset: 0xC5CE0, size: 0x8, addend: 0x0, symName: __RINvNtCsieiGu2EXtoJ_4core3ptr13drop_in_placeNtNtCsdGrGZaRBwMb_3syn4item8UseGroupEBK_, symObjAddr: 0x7EF0, symBinAddr: 0x770A0, symSize: 0x20 }
  - { offset: 0xC5D0F, size: 0x8, addend: 0x0, symName: __RINvNtCsieiGu2EXtoJ_4core3ptr13drop_in_placeNtNtCsdGrGZaRBwMb_3syn4item8VariadicEBK_, symObjAddr: 0x7F10, symBinAddr: 0x770C0, symSize: 0x60 }
  - { offset: 0xC5D3E, size: 0x8, addend: 0x0, symName: __RINvNtCsieiGu2EXtoJ_4core3ptr13drop_in_placeNtNtCsdGrGZaRBwMb_3syn4item9ItemConstEBK_, symObjAddr: 0x7F70, symBinAddr: 0x77120, symSize: 0x120 }
  - { offset: 0xC5D6D, size: 0x8, addend: 0x0, symName: __RINvNtCsieiGu2EXtoJ_4core3ptr13drop_in_placeNtNtCsdGrGZaRBwMb_3syn4item9ItemMacroEBK_, symObjAddr: 0x8090, symBinAddr: 0x77240, symSize: 0x90 }
  - { offset: 0xC5D9C, size: 0x8, addend: 0x0, symName: __RINvNtCsieiGu2EXtoJ_4core3ptr13drop_in_placeNtNtCsdGrGZaRBwMb_3syn4item9ItemTraitEBK_, symObjAddr: 0x8120, symBinAddr: 0x772D0, symSize: 0x120 }
  - { offset: 0xC5DCB, size: 0x8, addend: 0x0, symName: __RINvNtCsieiGu2EXtoJ_4core3ptr13drop_in_placeNtNtCsdGrGZaRBwMb_3syn4item9ItemUnionEBK_, symObjAddr: 0x8240, symBinAddr: 0x773F0, symSize: 0xF0 }
  - { offset: 0xC5DFA, size: 0x8, addend: 0x0, symName: __RINvNtCsieiGu2EXtoJ_4core3ptr13drop_in_placeNtNtCsdGrGZaRBwMb_3syn4item9SignatureEBK_, symObjAddr: 0x8330, symBinAddr: 0x774E0, symSize: 0x120 }
  - { offset: 0xC5E29, size: 0x8, addend: 0x0, symName: __RINvNtCsieiGu2EXtoJ_4core3ptr13drop_in_placeNtNtCsdGrGZaRBwMb_3syn4item9TraitItemEBK_, symObjAddr: 0x8450, symBinAddr: 0x77600, symSize: 0xA0 }
  - { offset: 0xC5E58, size: 0x8, addend: 0x0, symName: __RINvNtCsieiGu2EXtoJ_4core3ptr13drop_in_placeNtNtCsdGrGZaRBwMb_3syn4item9UseRenameEBK_, symObjAddr: 0x84F0, symBinAddr: 0x776A0, symSize: 0x60 }
  - { offset: 0xC5E87, size: 0x8, addend: 0x0, symName: __RINvNtCsieiGu2EXtoJ_4core3ptr13drop_in_placeNtNtCsdGrGZaRBwMb_3syn4path10AssocConstEBK_, symObjAddr: 0x8550, symBinAddr: 0x77700, symSize: 0x90 }
  - { offset: 0xC5EB6, size: 0x8, addend: 0x0, symName: __RINvNtCsieiGu2EXtoJ_4core3ptr13drop_in_placeNtNtCsdGrGZaRBwMb_3syn4path10ConstraintEBK_, symObjAddr: 0x85E0, symBinAddr: 0x77790, symSize: 0x80 }
  - { offset: 0xC5EE5, size: 0x8, addend: 0x0, symName: __RINvNtCsieiGu2EXtoJ_4core3ptr13drop_in_placeNtNtCsdGrGZaRBwMb_3syn4path11PathSegmentEBK_, symObjAddr: 0x8660, symBinAddr: 0x77810, symSize: 0x60 }
  - { offset: 0xC5F14, size: 0x8, addend: 0x0, symName: __RINvNtCsieiGu2EXtoJ_4core3ptr13drop_in_placeNtNtCsdGrGZaRBwMb_3syn4path13PathArgumentsEBK_, symObjAddr: 0x86C0, symBinAddr: 0x77870, symSize: 0x70 }
  - { offset: 0xC5F43, size: 0x8, addend: 0x0, symName: __RINvNtCsieiGu2EXtoJ_4core3ptr13drop_in_placeNtNtCsdGrGZaRBwMb_3syn4path15GenericArgumentEBK_, symObjAddr: 0x8730, symBinAddr: 0x778E0, symSize: 0xC0 }
  - { offset: 0xC5F72, size: 0x8, addend: 0x0, symName: __RINvNtCsieiGu2EXtoJ_4core3ptr13drop_in_placeNtNtCsdGrGZaRBwMb_3syn4path29ParenthesizedGenericArgumentsEBK_, symObjAddr: 0x87F0, symBinAddr: 0x779A0, symSize: 0x60 }
  - { offset: 0xC5FA1, size: 0x8, addend: 0x0, symName: __RINvNtCsieiGu2EXtoJ_4core3ptr13drop_in_placeNtNtCsdGrGZaRBwMb_3syn4path30AngleBracketedGenericArgumentsEBK_, symObjAddr: 0x8850, symBinAddr: 0x77A00, symSize: 0x20 }
  - { offset: 0xC5FD0, size: 0x8, addend: 0x0, symName: __RINvNtCsieiGu2EXtoJ_4core3ptr13drop_in_placeNtNtCsdGrGZaRBwMb_3syn4path4PathEBK_, symObjAddr: 0x8870, symBinAddr: 0x77A20, symSize: 0x20 }
  - { offset: 0xC5FFF, size: 0x8, addend: 0x0, symName: __RINvNtCsieiGu2EXtoJ_4core3ptr13drop_in_placeNtNtCsdGrGZaRBwMb_3syn4path5QSelfEBK_, symObjAddr: 0x8890, symBinAddr: 0x77A40, symSize: 0x20 }
  - { offset: 0xC602E, size: 0x8, addend: 0x0, symName: __RINvNtCsieiGu2EXtoJ_4core3ptr13drop_in_placeNtNtCsdGrGZaRBwMb_3syn4path9AssocTypeEBK_, symObjAddr: 0x88B0, symBinAddr: 0x77A60, symSize: 0x90 }
  - { offset: 0xC605D, size: 0x8, addend: 0x0, symName: __RINvNtCsieiGu2EXtoJ_4core3ptr13drop_in_placeNtNtCsdGrGZaRBwMb_3syn4stmt4StmtEBK_, symObjAddr: 0x8940, symBinAddr: 0x77AF0, symSize: 0x90 }
  - { offset: 0xC608C, size: 0x8, addend: 0x0, symName: __RINvNtCsieiGu2EXtoJ_4core3ptr13drop_in_placeNtNtCsdGrGZaRBwMb_3syn4stmt5BlockEBK_, symObjAddr: 0x89D0, symBinAddr: 0x77B80, symSize: 0x20 }
  - { offset: 0xC60BB, size: 0x8, addend: 0x0, symName: __RINvNtCsieiGu2EXtoJ_4core3ptr13drop_in_placeNtNtCsdGrGZaRBwMb_3syn4stmt5LocalEBK_, symObjAddr: 0x89F0, symBinAddr: 0x77BA0, symSize: 0x90 }
  - { offset: 0xC60EA, size: 0x8, addend: 0x0, symName: __RINvNtCsieiGu2EXtoJ_4core3ptr13drop_in_placeNtNtCsdGrGZaRBwMb_3syn4stmt9LocalInitEBK_, symObjAddr: 0x8A80, symBinAddr: 0x77C30, symSize: 0x60 }
  - { offset: 0xC6119, size: 0x8, addend: 0x0, symName: __RINvNtCsieiGu2EXtoJ_4core3ptr13drop_in_placeNtNtCsdGrGZaRBwMb_3syn4stmt9StmtMacroEBK_, symObjAddr: 0x8AE0, symBinAddr: 0x77C90, symSize: 0x60 }
  - { offset: 0xC6148, size: 0x8, addend: 0x0, symName: __RINvNtCsieiGu2EXtoJ_4core3ptr13drop_in_placeNtNtCsdGrGZaRBwMb_3syn5error12ErrorMessageEBK_, symObjAddr: 0x8B40, symBinAddr: 0x77CF0, symSize: 0x20 }
  - { offset: 0xC6177, size: 0x8, addend: 0x0, symName: __RINvNtCsieiGu2EXtoJ_4core3ptr13drop_in_placeNtNtCsdGrGZaRBwMb_3syn5error5ErrorEBK_, symObjAddr: 0x8B60, symBinAddr: 0x77D10, symSize: 0x20 }
  - { offset: 0xC61A6, size: 0x8, addend: 0x0, symName: __RINvNtCsieiGu2EXtoJ_4core3ptr13drop_in_placeNtNtCsdGrGZaRBwMb_3syn5group5GroupEBK_, symObjAddr: 0x8B80, symBinAddr: 0x77D30, symSize: 0x20 }
  - { offset: 0xC61D5, size: 0x8, addend: 0x0, symName: __RINvNtCsieiGu2EXtoJ_4core3ptr13drop_in_placeNtNtCsdGrGZaRBwMb_3syn5parse10UnexpectedEBK_, symObjAddr: 0x8BA0, symBinAddr: 0x77D50, symSize: 0x30 }
  - { offset: 0xC6204, size: 0x8, addend: 0x0, symName: __RINvNtCsieiGu2EXtoJ_4core3ptr13drop_in_placeNtNtCsdGrGZaRBwMb_3syn5parse11ParseBufferEBK_, symObjAddr: 0x8BD0, symBinAddr: 0x77D80, symSize: 0x60 }
  - { offset: 0xC6233, size: 0x8, addend: 0x0, symName: __RINvNtCsieiGu2EXtoJ_4core3ptr13drop_in_placeNtNtCsdGrGZaRBwMb_3syn6bigint6BigIntEBK_, symObjAddr: 0x8C30, symBinAddr: 0x77DE0, symSize: 0x20 }
  - { offset: 0xC6262, size: 0x8, addend: 0x0, symName: __RINvNtCsieiGu2EXtoJ_4core3ptr13drop_in_placeNtNtCsdGrGZaRBwMb_3syn6buffer11TokenBufferEBK_, symObjAddr: 0x8C50, symBinAddr: 0x77E00, symSize: 0x20 }
  - { offset: 0xC6291, size: 0x8, addend: 0x0, symName: __RINvNtCsieiGu2EXtoJ_4core3ptr13drop_in_placeNtNtCsdGrGZaRBwMb_3syn6buffer5EntryEBK_, symObjAddr: 0x8C70, symBinAddr: 0x77E20, symSize: 0x80 }
  - { offset: 0xC62C0, size: 0x8, addend: 0x0, symName: __RINvNtCsieiGu2EXtoJ_4core3ptr13drop_in_placeNtNtCsdGrGZaRBwMb_3syn8generics10ConstParamEBK_, symObjAddr: 0x8DC0, symBinAddr: 0x77EA0, symSize: 0xC0 }
  - { offset: 0xC62EF, size: 0x8, addend: 0x0, symName: __RINvNtCsieiGu2EXtoJ_4core3ptr13drop_in_placeNtNtCsdGrGZaRBwMb_3syn8generics10TraitBoundEBK_, symObjAddr: 0x8E80, symBinAddr: 0x77F60, symSize: 0x60 }
  - { offset: 0xC631E, size: 0x8, addend: 0x0, symName: __RINvNtCsieiGu2EXtoJ_4core3ptr13drop_in_placeNtNtCsdGrGZaRBwMb_3syn8generics11WhereClauseEBK_, symObjAddr: 0x8EE0, symBinAddr: 0x77FC0, symSize: 0x20 }
  - { offset: 0xC634D, size: 0x8, addend: 0x0, symName: __RINvNtCsieiGu2EXtoJ_4core3ptr13drop_in_placeNtNtCsdGrGZaRBwMb_3syn8generics12GenericParamEBK_, symObjAddr: 0x8F00, symBinAddr: 0x77FE0, symSize: 0x70 }
  - { offset: 0xC637C, size: 0x8, addend: 0x0, symName: __RINvNtCsieiGu2EXtoJ_4core3ptr13drop_in_placeNtNtCsdGrGZaRBwMb_3syn8generics13CapturedParamEBK_, symObjAddr: 0x8F70, symBinAddr: 0x78050, symSize: 0x40 }
  - { offset: 0xC63AB, size: 0x8, addend: 0x0, symName: __RINvNtCsieiGu2EXtoJ_4core3ptr13drop_in_placeNtNtCsdGrGZaRBwMb_3syn8generics13LifetimeParamEBK_, symObjAddr: 0x8FB0, symBinAddr: 0x78090, symSize: 0x90 }
  - { offset: 0xC63DA, size: 0x8, addend: 0x0, symName: __RINvNtCsieiGu2EXtoJ_4core3ptr13drop_in_placeNtNtCsdGrGZaRBwMb_3syn8generics13PredicateTypeEBK_, symObjAddr: 0x9040, symBinAddr: 0x78120, symSize: 0x90 }
  - { offset: 0xC6409, size: 0x8, addend: 0x0, symName: __RINvNtCsieiGu2EXtoJ_4core3ptr13drop_in_placeNtNtCsdGrGZaRBwMb_3syn8generics14BoundLifetimesEBK_, symObjAddr: 0x90D0, symBinAddr: 0x781B0, symSize: 0x20 }
  - { offset: 0xC6438, size: 0x8, addend: 0x0, symName: __RINvNtCsieiGu2EXtoJ_4core3ptr13drop_in_placeNtNtCsdGrGZaRBwMb_3syn8generics14PreciseCaptureEBK_, symObjAddr: 0x90F0, symBinAddr: 0x781D0, symSize: 0x20 }
  - { offset: 0xC6467, size: 0x8, addend: 0x0, symName: __RINvNtCsieiGu2EXtoJ_4core3ptr13drop_in_placeNtNtCsdGrGZaRBwMb_3syn8generics14TypeParamBoundEBK_, symObjAddr: 0x9110, symBinAddr: 0x781F0, symSize: 0x90 }
  - { offset: 0xC6496, size: 0x8, addend: 0x0, symName: __RINvNtCsieiGu2EXtoJ_4core3ptr13drop_in_placeNtNtCsdGrGZaRBwMb_3syn8generics14WherePredicateEBK_, symObjAddr: 0x91A0, symBinAddr: 0x78280, symSize: 0x50 }
  - { offset: 0xC64C5, size: 0x8, addend: 0x0, symName: __RINvNtCsieiGu2EXtoJ_4core3ptr13drop_in_placeNtNtCsdGrGZaRBwMb_3syn8generics17PredicateLifetimeEBK_, symObjAddr: 0x91F0, symBinAddr: 0x782D0, symSize: 0x60 }
  - { offset: 0xC64F4, size: 0x8, addend: 0x0, symName: __RINvNtCsieiGu2EXtoJ_4core3ptr13drop_in_placeNtNtCsdGrGZaRBwMb_3syn8generics8GenericsEBK_, symObjAddr: 0x9250, symBinAddr: 0x78330, symSize: 0x60 }
  - { offset: 0xC6523, size: 0x8, addend: 0x0, symName: __RINvNtCsieiGu2EXtoJ_4core3ptr13drop_in_placeNtNtCsdGrGZaRBwMb_3syn8generics9TypeParamEBK_, symObjAddr: 0x92B0, symBinAddr: 0x78390, symSize: 0xC0 }
  - { offset: 0xC6552, size: 0x8, addend: 0x0, symName: __RINvNtCsieiGu2EXtoJ_4core3ptr13drop_in_placeNtNtCsdGrGZaRBwMb_3syn8lifetime8LifetimeEBK_, symObjAddr: 0x9370, symBinAddr: 0x78450, symSize: 0x20 }
  - { offset: 0xC6581, size: 0x8, addend: 0x0, symName: __RINvNtCsieiGu2EXtoJ_4core3ptr13drop_in_placeNtNtCsdGrGZaRBwMb_3syn9lookahead10Lookahead1EBK_, symObjAddr: 0x9390, symBinAddr: 0x78470, symSize: 0x20 }
  - { offset: 0xC65B0, size: 0x8, addend: 0x0, symName: __RINvNtCsieiGu2EXtoJ_4core3ptr13drop_in_placeNtNtCslJiobkLta79_5alloc6string13FromUtf8ErrorECsdGrGZaRBwMb_3syn, symObjAddr: 0x93B0, symBinAddr: 0x78490, symSize: 0x20 }
  - { offset: 0xC65DF, size: 0x8, addend: 0x0, symName: __RINvNtCsieiGu2EXtoJ_4core3ptr13drop_in_placeNtNtNtCsdGrGZaRBwMb_3syn3pat7parsing13PatRangeBoundEBM_, symObjAddr: 0x93D0, symBinAddr: 0x784B0, symSize: 0x80 }
  - { offset: 0xC660E, size: 0x8, addend: 0x0, symName: __RINvNtCsieiGu2EXtoJ_4core3ptr13drop_in_placeNtNtNtCslJiobkLta79_5alloc3ffi5c_str7CStringECsdGrGZaRBwMb_3syn, symObjAddr: 0x94A0, symBinAddr: 0x78530, symSize: 0x50 }
  - { offset: 0xC663D, size: 0x8, addend: 0x0, symName: __RINvNtCsieiGu2EXtoJ_4core3ptr13drop_in_placeNtNtNtCslJiobkLta79_5alloc3ffi5c_str8NulErrorECsdGrGZaRBwMb_3syn, symObjAddr: 0x94F0, symBinAddr: 0x78580, symSize: 0x20 }
  - { offset: 0xC666C, size: 0x8, addend: 0x0, symName: __RINvNtCsieiGu2EXtoJ_4core3ptr13drop_in_placeNtNtNtCslJiobkLta79_5alloc3vec15set_len_on_drop12SetLenOnDropECsdGrGZaRBwMb_3syn, symObjAddr: 0x9510, symBinAddr: 0x785A0, symSize: 0x20 }
  - { offset: 0xC669B, size: 0x8, addend: 0x0, symName: __RINvNtCsieiGu2EXtoJ_4core3ptr13drop_in_placeSNtNtCsdGrGZaRBwMb_3syn4attr9AttributeEBL_, symObjAddr: 0x9550, symBinAddr: 0x785C0, symSize: 0xA0 }
  - { offset: 0xC66CA, size: 0x8, addend: 0x0, symName: __RINvNtCsieiGu2EXtoJ_4core3ptr13drop_in_placeSNtNtCsdGrGZaRBwMb_3syn4expr3ArmEBL_, symObjAddr: 0x9690, symBinAddr: 0x78660, symSize: 0xA0 }
  - { offset: 0xC66F9, size: 0x8, addend: 0x0, symName: __RINvNtCsieiGu2EXtoJ_4core3ptr13drop_in_placeSNtNtCsdGrGZaRBwMb_3syn4expr6ExprIfEBL_, symObjAddr: 0x9730, symBinAddr: 0x78700, symSize: 0xA0 }
  - { offset: 0xC6728, size: 0x8, addend: 0x0, symName: __RINvNtCsieiGu2EXtoJ_4core3ptr13drop_in_placeSNtNtCsdGrGZaRBwMb_3syn4item11ForeignItemEBL_, symObjAddr: 0x97D0, symBinAddr: 0x787A0, symSize: 0xA0 }
  - { offset: 0xC6757, size: 0x8, addend: 0x0, symName: __RINvNtCsieiGu2EXtoJ_4core3ptr13drop_in_placeSNtNtCsdGrGZaRBwMb_3syn4item4ItemEBL_, symObjAddr: 0x9870, symBinAddr: 0x78840, symSize: 0xA0 }
  - { offset: 0xC6786, size: 0x8, addend: 0x0, symName: __RINvNtCsieiGu2EXtoJ_4core3ptr13drop_in_placeSNtNtCsdGrGZaRBwMb_3syn4item8ImplItemEBL_, symObjAddr: 0x9910, symBinAddr: 0x788E0, symSize: 0xA0 }
  - { offset: 0xC67B5, size: 0x8, addend: 0x0, symName: __RINvNtCsieiGu2EXtoJ_4core3ptr13drop_in_placeSNtNtCsdGrGZaRBwMb_3syn4item9TraitItemEBL_, symObjAddr: 0x99B0, symBinAddr: 0x78980, symSize: 0xA0 }
  - { offset: 0xC67E4, size: 0x8, addend: 0x0, symName: __RINvNtCsieiGu2EXtoJ_4core3ptr13drop_in_placeSNtNtCsdGrGZaRBwMb_3syn4stmt4StmtEBL_, symObjAddr: 0x9A50, symBinAddr: 0x78A20, symSize: 0xA0 }
  - { offset: 0xC6813, size: 0x8, addend: 0x0, symName: __RINvNtCsieiGu2EXtoJ_4core3ptr13drop_in_placeSNtNtCsdGrGZaRBwMb_3syn5error12ErrorMessageEBL_, symObjAddr: 0x9AF0, symBinAddr: 0x78AC0, symSize: 0xA0 }
  - { offset: 0xC6842, size: 0x8, addend: 0x0, symName: __RINvNtCsieiGu2EXtoJ_4core3ptr13drop_in_placeSNtNtCsdGrGZaRBwMb_3syn6buffer5EntryEBL_, symObjAddr: 0x9B90, symBinAddr: 0x78B60, symSize: 0xA0 }
  - { offset: 0xC6871, size: 0x8, addend: 0x0, symName: __RINvNtCsieiGu2EXtoJ_4core3ptr13drop_in_placeSNtNtCsdGrGZaRBwMb_3syn8generics14TypeParamBoundEBL_, symObjAddr: 0x9C30, symBinAddr: 0x78C00, symSize: 0xA0 }
  - { offset: 0xC68A0, size: 0x8, addend: 0x0, symName: __RINvNtCsieiGu2EXtoJ_4core3ptr13drop_in_placeSTNtNtCsdGrGZaRBwMb_3syn2ty4TypeNtNtBM_5token5CommaEEBM_, symObjAddr: 0x9CD0, symBinAddr: 0x78CA0, symSize: 0xA0 }
  - { offset: 0xC68CF, size: 0x8, addend: 0x0, symName: __RINvNtCsieiGu2EXtoJ_4core3ptr13drop_in_placeSTNtNtCsdGrGZaRBwMb_3syn2ty9BareFnArgNtNtBM_5token5CommaEEBM_, symObjAddr: 0x9D70, symBinAddr: 0x78D40, symSize: 0xA0 }
  - { offset: 0xC68FE, size: 0x8, addend: 0x0, symName: __RINvNtCsieiGu2EXtoJ_4core3ptr13drop_in_placeSTNtNtCsdGrGZaRBwMb_3syn3pat3PatNtNtBM_5token2OrEEBM_, symObjAddr: 0x9E10, symBinAddr: 0x78DE0, symSize: 0xA0 }
  - { offset: 0xC692D, size: 0x8, addend: 0x0, symName: __RINvNtCsieiGu2EXtoJ_4core3ptr13drop_in_placeSTNtNtCsdGrGZaRBwMb_3syn3pat3PatNtNtBM_5token5CommaEEBM_, symObjAddr: 0x9EB0, symBinAddr: 0x78E80, symSize: 0xA0 }
  - { offset: 0xC695C, size: 0x8, addend: 0x0, symName: __RINvNtCsieiGu2EXtoJ_4core3ptr13drop_in_placeSTNtNtCsdGrGZaRBwMb_3syn3pat8FieldPatNtNtBM_5token5CommaEEBM_, symObjAddr: 0x9F50, symBinAddr: 0x78F20, symSize: 0xA0 }
  - { offset: 0xC698B, size: 0x8, addend: 0x0, symName: __RINvNtCsieiGu2EXtoJ_4core3ptr13drop_in_placeSTNtNtCsdGrGZaRBwMb_3syn4data5FieldNtNtBM_5token5CommaEEBM_, symObjAddr: 0x9FF0, symBinAddr: 0x78FC0, symSize: 0xA0 }
  - { offset: 0xC69BA, size: 0x8, addend: 0x0, symName: __RINvNtCsieiGu2EXtoJ_4core3ptr13drop_in_placeSTNtNtCsdGrGZaRBwMb_3syn4data7VariantNtNtBM_5token5CommaEEBM_, symObjAddr: 0xA130, symBinAddr: 0x79060, symSize: 0xA0 }
  - { offset: 0xC69E9, size: 0x8, addend: 0x0, symName: __RINvNtCsieiGu2EXtoJ_4core3ptr13drop_in_placeSTNtNtCsdGrGZaRBwMb_3syn4expr10FieldValueNtNtBM_5token5CommaEEBM_, symObjAddr: 0xA1D0, symBinAddr: 0x79100, symSize: 0xA0 }
  - { offset: 0xC6A18, size: 0x8, addend: 0x0, symName: __RINvNtCsieiGu2EXtoJ_4core3ptr13drop_in_placeSTNtNtCsdGrGZaRBwMb_3syn4expr4ExprNtNtBM_5token5CommaEEBM_, symObjAddr: 0xA270, symBinAddr: 0x791A0, symSize: 0xA0 }
  - { offset: 0xC6A47, size: 0x8, addend: 0x0, symName: __RINvNtCsieiGu2EXtoJ_4core3ptr13drop_in_placeSTNtNtCsdGrGZaRBwMb_3syn4item5FnArgNtNtBM_5token5CommaEEBM_, symObjAddr: 0xA310, symBinAddr: 0x79240, symSize: 0xA0 }
  - { offset: 0xC6A76, size: 0x8, addend: 0x0, symName: __RINvNtCsieiGu2EXtoJ_4core3ptr13drop_in_placeSTNtNtCsdGrGZaRBwMb_3syn4item7UseTreeNtNtBM_5token5CommaEEBM_, symObjAddr: 0xA3B0, symBinAddr: 0x792E0, symSize: 0xA0 }
  - { offset: 0xC6AA5, size: 0x8, addend: 0x0, symName: __RINvNtCsieiGu2EXtoJ_4core3ptr13drop_in_placeSTNtNtCsdGrGZaRBwMb_3syn4path11PathSegmentNtNtBM_5token7PathSepEEBM_, symObjAddr: 0xA450, symBinAddr: 0x79380, symSize: 0xA0 }
  - { offset: 0xC6AD4, size: 0x8, addend: 0x0, symName: __RINvNtCsieiGu2EXtoJ_4core3ptr13drop_in_placeSTNtNtCsdGrGZaRBwMb_3syn4path15GenericArgumentNtNtBM_5token5CommaEEBM_, symObjAddr: 0xA4F0, symBinAddr: 0x79420, symSize: 0xA0 }
  - { offset: 0xC6B03, size: 0x8, addend: 0x0, symName: __RINvNtCsieiGu2EXtoJ_4core3ptr13drop_in_placeSTNtNtCsdGrGZaRBwMb_3syn8generics12GenericParamNtNtBM_5token5CommaEEBM_, symObjAddr: 0xA590, symBinAddr: 0x794C0, symSize: 0xA0 }
  - { offset: 0xC6B32, size: 0x8, addend: 0x0, symName: __RINvNtCsieiGu2EXtoJ_4core3ptr13drop_in_placeSTNtNtCsdGrGZaRBwMb_3syn8generics13CapturedParamNtNtBM_5token5CommaEEBM_, symObjAddr: 0xA630, symBinAddr: 0x79560, symSize: 0xA0 }
  - { offset: 0xC6B61, size: 0x8, addend: 0x0, symName: __RINvNtCsieiGu2EXtoJ_4core3ptr13drop_in_placeSTNtNtCsdGrGZaRBwMb_3syn8generics14TypeParamBoundNtNtBM_5token4PlusEEBM_, symObjAddr: 0xA6D0, symBinAddr: 0x79600, symSize: 0xA0 }
  - { offset: 0xC6B90, size: 0x8, addend: 0x0, symName: __RINvNtCsieiGu2EXtoJ_4core3ptr13drop_in_placeSTNtNtCsdGrGZaRBwMb_3syn8generics14WherePredicateNtNtBM_5token5CommaEEBM_, symObjAddr: 0xA770, symBinAddr: 0x796A0, symSize: 0xA0 }
  - { offset: 0xC6BBF, size: 0x8, addend: 0x0, symName: __RINvNtCsieiGu2EXtoJ_4core3ptr13drop_in_placeSTNtNtCsdGrGZaRBwMb_3syn8lifetime8LifetimeNtNtBM_5token4PlusEEBM_, symObjAddr: 0xA810, symBinAddr: 0x79740, symSize: 0xA0 }
  - { offset: 0xC6BEE, size: 0x8, addend: 0x0, symName: __RINvNtCsieiGu2EXtoJ_4core3ptr13drop_in_placeTINtNtB4_6option6OptionNtNtCsdGrGZaRBwMb_3syn5token3NotENtNtB17_4path4PathNtB15_3ForEEB17_, symObjAddr: 0xA8B0, symBinAddr: 0x797E0, symSize: 0x20 }
  - { offset: 0xC6C1D, size: 0x8, addend: 0x0, symName: __RINvNtCsieiGu2EXtoJ_4core3ptr13drop_in_placeTINtNtB4_6option6OptionTNtNtCsdGrGZaRBwMb_3syn5token3AndIBI_NtNtB18_8lifetime8LifetimeEEEIBI_NtB16_3MutENtB16_9SelfValueEEB18_, symObjAddr: 0xA8D0, symBinAddr: 0x79800, symSize: 0x20 }
  - { offset: 0xC6C4C, size: 0x8, addend: 0x0, symName: __RINvNtCsieiGu2EXtoJ_4core3ptr13drop_in_placeTINtNtCslJiobkLta79_5alloc2rc2RcINtNtB4_4cell4CellNtNtCsdGrGZaRBwMb_3syn5parse10UnexpectedEEINtNtB4_6option6OptionTNtCsaKzlTDPUHDb_11proc_macro24SpanNtB2z_9DelimiterEEEEB1y_, symObjAddr: 0xA8F0, symBinAddr: 0x79820, symSize: 0x20 }
  - { offset: 0xC6C7B, size: 0x8, addend: 0x0, symName: __RINvNtCsieiGu2EXtoJ_4core3ptr13drop_in_placeTINtNtCslJiobkLta79_5alloc5boxed3BoxNtNtCsdGrGZaRBwMb_3syn3pat3PatENtNtB1k_5token5ColonEEB1k_, symObjAddr: 0xA910, symBinAddr: 0x79840, symSize: 0x20 }
  - { offset: 0xC6CAA, size: 0x8, addend: 0x0, symName: __RINvNtCsieiGu2EXtoJ_4core3ptr13drop_in_placeTNtCsaKzlTDPUHDb_11proc_macro25IdentNtNtCsdGrGZaRBwMb_3syn5token5ColonEEB1k_, symObjAddr: 0xA930, symBinAddr: 0x79860, symSize: 0x20 }
  - { offset: 0xC6CD9, size: 0x8, addend: 0x0, symName: __RINvNtCsieiGu2EXtoJ_4core3ptr13drop_in_placeTNtCsaKzlTDPUHDb_11proc_macro25IdentNtNtCsdGrGZaRBwMb_3syn6buffer6CursorEEB1k_, symObjAddr: 0xA950, symBinAddr: 0x79880, symSize: 0x20 }
  - { offset: 0xC6D08, size: 0x8, addend: 0x0, symName: __RINvNtCsieiGu2EXtoJ_4core3ptr13drop_in_placeTNtNtCsaKzlTDPUHDb_11proc_macro25extra9DelimSpanNtNtCsdGrGZaRBwMb_3syn5parse11ParseBufferEEB1w_, symObjAddr: 0xA9D0, symBinAddr: 0x798A0, symSize: 0x20 }
  - { offset: 0xC6D37, size: 0x8, addend: 0x0, symName: __RINvNtCsieiGu2EXtoJ_4core3ptr13drop_in_placeTNtNtCsdGrGZaRBwMb_3syn11restriction10VisibilityINtNtB4_6option6OptionNtNtBL_5token7DefaultEEEBL_, symObjAddr: 0xA9F0, symBinAddr: 0x798C0, symSize: 0x20 }
  - { offset: 0xC6D66, size: 0x8, addend: 0x0, symName: __RINvNtCsieiGu2EXtoJ_4core3ptr13drop_in_placeTNtNtCsdGrGZaRBwMb_3syn2ty4TypeNtNtBL_5token5CommaEEBL_, symObjAddr: 0xAA10, symBinAddr: 0x798E0, symSize: 0x20 }
  - { offset: 0xC6D95, size: 0x8, addend: 0x0, symName: __RINvNtCsieiGu2EXtoJ_4core3ptr13drop_in_placeTNtNtCsdGrGZaRBwMb_3syn2ty9BareFnArgNtNtBL_5token5CommaEEBL_, symObjAddr: 0xAA30, symBinAddr: 0x79900, symSize: 0x20 }
  - { offset: 0xC6DC4, size: 0x8, addend: 0x0, symName: __RINvNtCsieiGu2EXtoJ_4core3ptr13drop_in_placeTNtNtCsdGrGZaRBwMb_3syn3mac14MacroDelimiterNtCsaKzlTDPUHDb_11proc_macro211TokenStreamEEBL_, symObjAddr: 0xAA50, symBinAddr: 0x79920, symSize: 0x20 }
  - { offset: 0xC6DF3, size: 0x8, addend: 0x0, symName: __RINvNtCsieiGu2EXtoJ_4core3ptr13drop_in_placeTNtNtCsdGrGZaRBwMb_3syn3pat3PatNtNtBL_5token2OrEEBL_, symObjAddr: 0xAA70, symBinAddr: 0x79940, symSize: 0x20 }
  - { offset: 0xC6E22, size: 0x8, addend: 0x0, symName: __RINvNtCsieiGu2EXtoJ_4core3ptr13drop_in_placeTNtNtCsdGrGZaRBwMb_3syn3pat3PatNtNtBL_5token5CommaEEBL_, symObjAddr: 0xAA90, symBinAddr: 0x79960, symSize: 0x20 }
  - { offset: 0xC6E51, size: 0x8, addend: 0x0, symName: __RINvNtCsieiGu2EXtoJ_4core3ptr13drop_in_placeTNtNtCsdGrGZaRBwMb_3syn3pat8FieldPatNtNtBL_5token5CommaEEBL_, symObjAddr: 0xAAB0, symBinAddr: 0x79980, symSize: 0x20 }
  - { offset: 0xC6E80, size: 0x8, addend: 0x0, symName: __RINvNtCsieiGu2EXtoJ_4core3ptr13drop_in_placeTNtNtCsdGrGZaRBwMb_3syn4data5FieldNtNtBL_5token5CommaEEBL_, symObjAddr: 0xAAD0, symBinAddr: 0x799A0, symSize: 0x20 }
  - { offset: 0xC6EAF, size: 0x8, addend: 0x0, symName: __RINvNtCsieiGu2EXtoJ_4core3ptr13drop_in_placeTNtNtCsdGrGZaRBwMb_3syn4data7VariantNtNtBL_5token5CommaEEBL_, symObjAddr: 0xAB10, symBinAddr: 0x799C0, symSize: 0x20 }
  - { offset: 0xC6EDE, size: 0x8, addend: 0x0, symName: __RINvNtCsieiGu2EXtoJ_4core3ptr13drop_in_placeTNtNtCsdGrGZaRBwMb_3syn4expr10FieldValueNtNtBL_5token5CommaEEBL_, symObjAddr: 0xAB30, symBinAddr: 0x799E0, symSize: 0x20 }
  - { offset: 0xC6F0D, size: 0x8, addend: 0x0, symName: __RINvNtCsieiGu2EXtoJ_4core3ptr13drop_in_placeTNtNtCsdGrGZaRBwMb_3syn4expr4ExprNtNtBL_5token5CommaEEBL_, symObjAddr: 0xAB50, symBinAddr: 0x79A00, symSize: 0x20 }
  - { offset: 0xC6F3C, size: 0x8, addend: 0x0, symName: __RINvNtCsieiGu2EXtoJ_4core3ptr13drop_in_placeTNtNtCsdGrGZaRBwMb_3syn4item5FnArgNtNtBL_5token5CommaEEBL_, symObjAddr: 0xAB70, symBinAddr: 0x79A20, symSize: 0x20 }
  - { offset: 0xC6F6B, size: 0x8, addend: 0x0, symName: __RINvNtCsieiGu2EXtoJ_4core3ptr13drop_in_placeTNtNtCsdGrGZaRBwMb_3syn4item7UseTreeNtNtBL_5token5CommaEEBL_, symObjAddr: 0xAB90, symBinAddr: 0x79A40, symSize: 0x20 }
  - { offset: 0xC6F9A, size: 0x8, addend: 0x0, symName: __RINvNtCsieiGu2EXtoJ_4core3ptr13drop_in_placeTNtNtCsdGrGZaRBwMb_3syn4path11PathSegmentNtNtBL_5token7PathSepEEBL_, symObjAddr: 0xABB0, symBinAddr: 0x79A60, symSize: 0x20 }
  - { offset: 0xC6FC9, size: 0x8, addend: 0x0, symName: __RINvNtCsieiGu2EXtoJ_4core3ptr13drop_in_placeTNtNtCsdGrGZaRBwMb_3syn4path15GenericArgumentNtNtBL_5token5CommaEEBL_, symObjAddr: 0xABD0, symBinAddr: 0x79A80, symSize: 0x20 }
  - { offset: 0xC6FF8, size: 0x8, addend: 0x0, symName: __RINvNtCsieiGu2EXtoJ_4core3ptr13drop_in_placeTNtNtCsdGrGZaRBwMb_3syn5token2AsNtCsaKzlTDPUHDb_11proc_macro25IdentEEBL_, symObjAddr: 0xABF0, symBinAddr: 0x79AA0, symSize: 0x20 }
  - { offset: 0xC7027, size: 0x8, addend: 0x0, symName: __RINvNtCsieiGu2EXtoJ_4core3ptr13drop_in_placeTNtNtCsdGrGZaRBwMb_3syn5token2AsNtNtBL_4path4PathEEBL_, symObjAddr: 0xAC10, symBinAddr: 0x79AC0, symSize: 0x20 }
  - { offset: 0xC7056, size: 0x8, addend: 0x0, symName: __RINvNtCsieiGu2EXtoJ_4core3ptr13drop_in_placeTNtNtCsdGrGZaRBwMb_3syn5token2AtINtNtCslJiobkLta79_5alloc5boxed3BoxNtNtBL_3pat3PatEEEBL_, symObjAddr: 0xAC30, symBinAddr: 0x79AE0, symSize: 0x20 }
  - { offset: 0xC7085, size: 0x8, addend: 0x0, symName: __RINvNtCsieiGu2EXtoJ_4core3ptr13drop_in_placeTNtNtCsdGrGZaRBwMb_3syn5token2EqNtNtBL_2ty4TypeEEBL_, symObjAddr: 0xAC50, symBinAddr: 0x79B00, symSize: 0x20 }
  - { offset: 0xC70B4, size: 0x8, addend: 0x0, symName: __RINvNtCsieiGu2EXtoJ_4core3ptr13drop_in_placeTNtNtCsdGrGZaRBwMb_3syn5token2EqNtNtBL_4expr4ExprEEBL_, symObjAddr: 0xAC70, symBinAddr: 0x79B20, symSize: 0x20 }
  - { offset: 0xC70E3, size: 0x8, addend: 0x0, symName: __RINvNtCsieiGu2EXtoJ_4core3ptr13drop_in_placeTNtNtCsdGrGZaRBwMb_3syn5token2IfINtNtCslJiobkLta79_5alloc5boxed3BoxNtNtBL_4expr4ExprEEEBL_, symObjAddr: 0xAC90, symBinAddr: 0x79B40, symSize: 0x20 }
  - { offset: 0xC7112, size: 0x8, addend: 0x0, symName: __RINvNtCsieiGu2EXtoJ_4core3ptr13drop_in_placeTNtNtCsdGrGZaRBwMb_3syn5token3AndINtNtB4_6option6OptionNtNtBL_8lifetime8LifetimeEEEBL_, symObjAddr: 0xACB0, symBinAddr: 0x79B60, symSize: 0x20 }
  - { offset: 0xC7141, size: 0x8, addend: 0x0, symName: __RINvNtCsieiGu2EXtoJ_4core3ptr13drop_in_placeTNtNtCsdGrGZaRBwMb_3syn5token4ElseINtNtCslJiobkLta79_5alloc5boxed3BoxNtNtBL_4expr4ExprEEEBL_, symObjAddr: 0xACD0, symBinAddr: 0x79B80, symSize: 0x20 }
  - { offset: 0xC7170, size: 0x8, addend: 0x0, symName: __RINvNtCsieiGu2EXtoJ_4core3ptr13drop_in_placeTNtNtCsdGrGZaRBwMb_3syn5token5BraceINtNtCslJiobkLta79_5alloc3vec3VecNtNtBL_4item4ItemEEEBL_, symObjAddr: 0xACF0, symBinAddr: 0x79BA0, symSize: 0x20 }
  - { offset: 0xC719F, size: 0x8, addend: 0x0, symName: __RINvNtCsieiGu2EXtoJ_4core3ptr13drop_in_placeTNtNtCsdGrGZaRBwMb_3syn8generics12GenericParamNtNtBL_5token5CommaEEBL_, symObjAddr: 0xAD10, symBinAddr: 0x79BC0, symSize: 0x20 }
  - { offset: 0xC71CE, size: 0x8, addend: 0x0, symName: __RINvNtCsieiGu2EXtoJ_4core3ptr13drop_in_placeTNtNtCsdGrGZaRBwMb_3syn8generics13CapturedParamNtNtBL_5token5CommaEEBL_, symObjAddr: 0xAD30, symBinAddr: 0x79BE0, symSize: 0x20 }
  - { offset: 0xC71FD, size: 0x8, addend: 0x0, symName: __RINvNtCsieiGu2EXtoJ_4core3ptr13drop_in_placeTNtNtCsdGrGZaRBwMb_3syn8generics14TypeParamBoundNtNtBL_5token4PlusEEBL_, symObjAddr: 0xAD50, symBinAddr: 0x79C00, symSize: 0x20 }
  - { offset: 0xC722C, size: 0x8, addend: 0x0, symName: __RINvNtCsieiGu2EXtoJ_4core3ptr13drop_in_placeTNtNtCsdGrGZaRBwMb_3syn8generics14WherePredicateNtNtBL_5token5CommaEEBL_, symObjAddr: 0xAD70, symBinAddr: 0x79C20, symSize: 0x20 }
  - { offset: 0xC725B, size: 0x8, addend: 0x0, symName: __RINvNtCsieiGu2EXtoJ_4core3ptr13drop_in_placeTNtNtCsdGrGZaRBwMb_3syn8lifetime8LifetimeNtNtBL_5token4PlusEEBL_, symObjAddr: 0xAD90, symBinAddr: 0x79C40, symSize: 0x20 }
  - { offset: 0xC728A, size: 0x8, addend: 0x0, symName: __RINvNtCsieiGu2EXtoJ_4core3ptr13drop_in_placeTNtNtCsdGrGZaRBwMb_3syn8lifetime8LifetimeNtNtBL_6buffer6CursorEEBL_, symObjAddr: 0xADB0, symBinAddr: 0x79C60, symSize: 0x20 }
  - { offset: 0xCA2B9, size: 0x8, addend: 0x0, symName: __RNvYFG0_RL1_RL0_NtNtCsdGrGZaRBwMb_3syn4attr9AttributeEbINtNtNtCsieiGu2EXtoJ_4core3ops8function5FnMutTRRBe_EE8call_mutBi_, symObjAddr: 0x17490, symBinAddr: 0x844E0, symSize: 0x30 }
  - { offset: 0xCA2FD, size: 0x8, addend: 0x0, symName: __RNvYINvNvNtNtNtNtCsieiGu2EXtoJ_4core4iter6traits8iterator8Iterator4last4someNtCsaKzlTDPUHDb_11proc_macro29TokenTreeEINtNtNtBf_3ops8function5FnMutTINtNtBf_6option6OptionB1c_EB1c_EE8call_mutCsdGrGZaRBwMb_3syn, symObjAddr: 0x174F0, symBinAddr: 0x84540, symSize: 0x70 }
  - { offset: 0xCA348, size: 0x8, addend: 0x0, symName: __RNvYFG_INtNtCsdGrGZaRBwMb_3syn6buffer6CursorL0_EEbINtNtNtCsieiGu2EXtoJ_4core3ops8function6FnOnceTB6_EE9call_onceBa_, symObjAddr: 0x174C0, symBinAddr: 0x84510, symSize: 0x30 }
  - { offset: 0xCA38C, size: 0x8, addend: 0x0, symName: __RNvYNCNvNtNtCsdGrGZaRBwMb_3syn4expr8printing10print_expr0INtNtNtCsieiGu2EXtoJ_4core3ops8function6FnOnceTQNtCsaKzlTDPUHDb_11proc_macro211TokenStreamEE9call_onceBa_, symObjAddr: 0x17560, symBinAddr: 0x845B0, symSize: 0x40 }
  - { offset: 0xCA3CC, size: 0x8, addend: 0x0, symName: __RNvYNCNvNtNtCsdGrGZaRBwMb_3syn4expr8printing15print_expr_cast0INtNtNtCsieiGu2EXtoJ_4core3ops8function6FnOnceTQNtCsaKzlTDPUHDb_11proc_macro211TokenStreamEE9call_onceBa_, symObjAddr: 0x175A0, symBinAddr: 0x845F0, symSize: 0x40 }
  - { offset: 0xCA40C, size: 0x8, addend: 0x0, symName: __RNvYNCNvNtNtCsdGrGZaRBwMb_3syn4expr8printing16print_expr_range0INtNtNtCsieiGu2EXtoJ_4core3ops8function6FnOnceTQNtCsaKzlTDPUHDb_11proc_macro211TokenStreamEE9call_onceBa_, symObjAddr: 0x175E0, symBinAddr: 0x84630, symSize: 0x40 }
  - { offset: 0xCA44C, size: 0x8, addend: 0x0, symName: __RNvYNCNvNtNtCsdGrGZaRBwMb_3syn4expr8printing17print_expr_assign0INtNtNtCsieiGu2EXtoJ_4core3ops8function6FnOnceTQNtCsaKzlTDPUHDb_11proc_macro211TokenStreamEE9call_onceBa_, symObjAddr: 0x17620, symBinAddr: 0x84670, symSize: 0x40 }
  - { offset: 0xCA48C, size: 0x8, addend: 0x0, symName: __RNvYNCNvNtNtCsdGrGZaRBwMb_3syn4expr8printing17print_expr_binary0INtNtNtCsieiGu2EXtoJ_4core3ops8function6FnOnceTQNtCsaKzlTDPUHDb_11proc_macro211TokenStreamEE9call_onceBa_, symObjAddr: 0x17660, symBinAddr: 0x846B0, symSize: 0x40 }
  - { offset: 0xCA4CC, size: 0x8, addend: 0x0, symName: __RNvYNCNvNtNtCsdGrGZaRBwMb_3syn4expr8printing19print_subexpression0INtNtNtCsieiGu2EXtoJ_4core3ops8function6FnOnceTQNtCsaKzlTDPUHDb_11proc_macro211TokenStreamEE9call_onceBa_, symObjAddr: 0x176A0, symBinAddr: 0x846F0, symSize: 0x40 }
  - { offset: 0xCA50C, size: 0x8, addend: 0x0, symName: __RNvYNCNvXs5_NtNtCsdGrGZaRBwMb_3syn8generics8printingNtBc_10TraitBoundNtNtCs9OU1sGv5X54_5quote9to_tokens8ToTokens9to_tokens0INtNtNtCsieiGu2EXtoJ_4core3ops8function6FnOnceTQNtCsaKzlTDPUHDb_11proc_macro211TokenStreamEE9call_onceBe_, symObjAddr: 0x176E0, symBinAddr: 0x84730, symSize: 0x40 }
  - { offset: 0xCA54C, size: 0x8, addend: 0x0, symName: __RNvYNcNtINtNtCsdGrGZaRBwMb_3syn10punctuated4PairNtNtBb_4path11PathSegmentNtNtBb_5token7PathSepE3End0INtNtNtCsieiGu2EXtoJ_4core3ops8function6FnOnceTBK_EE9call_onceBb_, symObjAddr: 0x17720, symBinAddr: 0x84770, symSize: 0x40 }
  - { offset: 0xCA591, size: 0x8, addend: 0x0, symName: __RNvYNcNtINtNtCsdGrGZaRBwMb_3syn10punctuated4PairRNtNtBb_2ty4TypeRNtNtBb_5token5CommaE3End0INtNtNtCsieiGu2EXtoJ_4core3ops8function6FnOnceTBK_EE9call_onceBb_, symObjAddr: 0x17760, symBinAddr: 0x847B0, symSize: 0x30 }
  - { offset: 0xCA5D5, size: 0x8, addend: 0x0, symName: __RNvYNcNtINtNtCsdGrGZaRBwMb_3syn10punctuated4PairRNtNtBb_2ty9BareFnArgRNtNtBb_5token5CommaE3End0INtNtNtCsieiGu2EXtoJ_4core3ops8function6FnOnceTBK_EE9call_onceBb_, symObjAddr: 0x17790, symBinAddr: 0x847E0, symSize: 0x30 }
  - { offset: 0xCA619, size: 0x8, addend: 0x0, symName: __RNvYNcNtINtNtCsdGrGZaRBwMb_3syn10punctuated4PairRNtNtBb_3pat3PatRNtNtBb_5token2OrE3End0INtNtNtCsieiGu2EXtoJ_4core3ops8function6FnOnceTBK_EE9call_onceBb_, symObjAddr: 0x177C0, symBinAddr: 0x84810, symSize: 0x30 }
  - { offset: 0xCA65D, size: 0x8, addend: 0x0, symName: __RNvYNcNtINtNtCsdGrGZaRBwMb_3syn10punctuated4PairRNtNtBb_3pat3PatRNtNtBb_5token5CommaE3End0INtNtNtCsieiGu2EXtoJ_4core3ops8function6FnOnceTBK_EE9call_onceBb_, symObjAddr: 0x177F0, symBinAddr: 0x84840, symSize: 0x30 }
  - { offset: 0xCA6A1, size: 0x8, addend: 0x0, symName: __RNvYNcNtINtNtCsdGrGZaRBwMb_3syn10punctuated4PairRNtNtBb_3pat8FieldPatRNtNtBb_5token5CommaE3End0INtNtNtCsieiGu2EXtoJ_4core3ops8function6FnOnceTBK_EE9call_onceBb_, symObjAddr: 0x17820, symBinAddr: 0x84870, symSize: 0x30 }
  - { offset: 0xCA6E5, size: 0x8, addend: 0x0, symName: __RNvYNcNtINtNtCsdGrGZaRBwMb_3syn10punctuated4PairRNtNtBb_4data5FieldRNtNtBb_5token5CommaE3End0INtNtNtCsieiGu2EXtoJ_4core3ops8function6FnOnceTBK_EE9call_onceBb_, symObjAddr: 0x17850, symBinAddr: 0x848A0, symSize: 0x30 }
  - { offset: 0xCA729, size: 0x8, addend: 0x0, symName: __RNvYNcNtINtNtCsdGrGZaRBwMb_3syn10punctuated4PairRNtNtBb_4data7VariantRNtNtBb_5token5CommaE3End0INtNtNtCsieiGu2EXtoJ_4core3ops8function6FnOnceTBK_EE9call_onceBb_, symObjAddr: 0x17880, symBinAddr: 0x848D0, symSize: 0x30 }
  - { offset: 0xCA76D, size: 0x8, addend: 0x0, symName: __RNvYNcNtINtNtCsdGrGZaRBwMb_3syn10punctuated4PairRNtNtBb_4expr10FieldValueRNtNtBb_5token5CommaE3End0INtNtNtCsieiGu2EXtoJ_4core3ops8function6FnOnceTBK_EE9call_onceBb_, symObjAddr: 0x178B0, symBinAddr: 0x84900, symSize: 0x30 }
  - { offset: 0xCA7B1, size: 0x8, addend: 0x0, symName: __RNvYNcNtINtNtCsdGrGZaRBwMb_3syn10punctuated4PairRNtNtBb_4expr4ExprRNtNtBb_5token5CommaE3End0INtNtNtCsieiGu2EXtoJ_4core3ops8function6FnOnceTBK_EE9call_onceBb_, symObjAddr: 0x178E0, symBinAddr: 0x84930, symSize: 0x30 }
  - { offset: 0xCA7F5, size: 0x8, addend: 0x0, symName: __RNvYNcNtINtNtCsdGrGZaRBwMb_3syn10punctuated4PairRNtNtBb_4item5FnArgRNtNtBb_5token5CommaE3End0INtNtNtCsieiGu2EXtoJ_4core3ops8function6FnOnceTBK_EE9call_onceBb_, symObjAddr: 0x17910, symBinAddr: 0x84960, symSize: 0x30 }
  - { offset: 0xCA839, size: 0x8, addend: 0x0, symName: __RNvYNcNtINtNtCsdGrGZaRBwMb_3syn10punctuated4PairRNtNtBb_4item7UseTreeRNtNtBb_5token5CommaE3End0INtNtNtCsieiGu2EXtoJ_4core3ops8function6FnOnceTBK_EE9call_onceBb_, symObjAddr: 0x17940, symBinAddr: 0x84990, symSize: 0x30 }
  - { offset: 0xCA87D, size: 0x8, addend: 0x0, symName: __RNvYNcNtINtNtCsdGrGZaRBwMb_3syn10punctuated4PairRNtNtBb_4path11PathSegmentRNtNtBb_5token7PathSepE3End0INtNtNtCsieiGu2EXtoJ_4core3ops8function6FnOnceTBK_EE9call_onceBb_, symObjAddr: 0x17970, symBinAddr: 0x849C0, symSize: 0x30 }
  - { offset: 0xCA8C1, size: 0x8, addend: 0x0, symName: __RNvYNcNtINtNtCsdGrGZaRBwMb_3syn10punctuated4PairRNtNtBb_4path15GenericArgumentRNtNtBb_5token5CommaE3End0INtNtNtCsieiGu2EXtoJ_4core3ops8function6FnOnceTBK_EE9call_onceBb_, symObjAddr: 0x179A0, symBinAddr: 0x849F0, symSize: 0x30 }
  - { offset: 0xCA905, size: 0x8, addend: 0x0, symName: __RNvYNcNtINtNtCsdGrGZaRBwMb_3syn10punctuated4PairRNtNtBb_8generics12GenericParamRNtNtBb_5token5CommaE3End0INtNtNtCsieiGu2EXtoJ_4core3ops8function6FnOnceTBK_EE9call_onceBb_, symObjAddr: 0x179D0, symBinAddr: 0x84A20, symSize: 0x30 }
  - { offset: 0xCA949, size: 0x8, addend: 0x0, symName: __RNvYNcNtINtNtCsdGrGZaRBwMb_3syn10punctuated4PairRNtNtBb_8generics13CapturedParamRNtNtBb_5token5CommaE3End0INtNtNtCsieiGu2EXtoJ_4core3ops8function6FnOnceTBK_EE9call_onceBb_, symObjAddr: 0x17A00, symBinAddr: 0x84A50, symSize: 0x30 }
  - { offset: 0xCA98D, size: 0x8, addend: 0x0, symName: __RNvYNcNtINtNtCsdGrGZaRBwMb_3syn10punctuated4PairRNtNtBb_8generics14TypeParamBoundRNtNtBb_5token4PlusE3End0INtNtNtCsieiGu2EXtoJ_4core3ops8function6FnOnceTBK_EE9call_onceBb_, symObjAddr: 0x17A30, symBinAddr: 0x84A80, symSize: 0x30 }
  - { offset: 0xCA9D1, size: 0x8, addend: 0x0, symName: __RNvYNcNtINtNtCsdGrGZaRBwMb_3syn10punctuated4PairRNtNtBb_8generics14WherePredicateRNtNtBb_5token5CommaE3End0INtNtNtCsieiGu2EXtoJ_4core3ops8function6FnOnceTBK_EE9call_onceBb_, symObjAddr: 0x17A60, symBinAddr: 0x84AB0, symSize: 0x30 }
  - { offset: 0xCAA15, size: 0x8, addend: 0x0, symName: __RNvYNcNtINtNtCsdGrGZaRBwMb_3syn10punctuated4PairRNtNtBb_8lifetime8LifetimeRNtNtBb_5token4PlusE3End0INtNtNtCsieiGu2EXtoJ_4core3ops8function6FnOnceTBK_EE9call_onceBb_, symObjAddr: 0x17A90, symBinAddr: 0x84AE0, symSize: 0x30 }
  - { offset: 0xCAA59, size: 0x8, addend: 0x0, symName: __RNvYNcNtINtNtCsieiGu2EXtoJ_4core6option6OptionNtCsaKzlTDPUHDb_11proc_macro25IdentE4Some0INtNtNtBb_3ops8function6FnOnceTBI_EE9call_onceCsdGrGZaRBwMb_3syn, symObjAddr: 0x17AC0, symBinAddr: 0x84B10, symSize: 0x40 }
  - { offset: 0xCAA9D, size: 0x8, addend: 0x0, symName: __RNvYNcNtINtNtCsieiGu2EXtoJ_4core6option6OptionNtNtCsdGrGZaRBwMb_3syn2ty3AbiE4Some0INtNtNtBb_3ops8function6FnOnceTBI_EE9call_onceBM_, symObjAddr: 0x17B00, symBinAddr: 0x84B50, symSize: 0x30 }
  - { offset: 0xCAAE1, size: 0x8, addend: 0x0, symName: __RNvYNcNtINtNtCsieiGu2EXtoJ_4core6option6OptionNtNtCsdGrGZaRBwMb_3syn4expr5LabelE4Some0INtNtNtBb_3ops8function6FnOnceTBI_EE9call_onceBM_, symObjAddr: 0x17B30, symBinAddr: 0x84B80, symSize: 0x40 }
  - { offset: 0xCAB25, size: 0x8, addend: 0x0, symName: __RNvYNcNtINtNtCsieiGu2EXtoJ_4core6option6OptionNtNtCsdGrGZaRBwMb_3syn8generics11WhereClauseE4Some0INtNtNtBb_3ops8function6FnOnceTBI_EE9call_onceBM_, symObjAddr: 0x17B70, symBinAddr: 0x84BC0, symSize: 0x40 }
  - { offset: 0xCAB69, size: 0x8, addend: 0x0, symName: __RNvYNcNtINtNtCsieiGu2EXtoJ_4core6option6OptionNtNtCsdGrGZaRBwMb_3syn8generics14BoundLifetimesE4Some0INtNtNtBb_3ops8function6FnOnceTBI_EE9call_onceBM_, symObjAddr: 0x17BB0, symBinAddr: 0x84C00, symSize: 0x40 }
  - { offset: 0xCABAD, size: 0x8, addend: 0x0, symName: __RNvYNcNtNtNtCsaKzlTDPUHDb_11proc_macro23imp4Span8Fallback0INtNtNtCsieiGu2EXtoJ_4core3ops8function6FnOnceTNtNtBa_8fallback4SpanEE9call_onceCsdGrGZaRBwMb_3syn, symObjAddr: 0x17BF0, symBinAddr: 0x84C40, symSize: 0x20 }
  - { offset: 0xCABF1, size: 0x8, addend: 0x0, symName: __RNvYNcNtNtNtCsdGrGZaRBwMb_3syn2op4UnOp3Neg0INtNtNtCsieiGu2EXtoJ_4core3ops8function6FnOnceTNtNtBa_5token5MinusEE9call_onceBa_, symObjAddr: 0x17C10, symBinAddr: 0x84C60, symSize: 0x40 }
  - { offset: 0xCAC35, size: 0x8, addend: 0x0, symName: __RNvYNcNtNtNtCsdGrGZaRBwMb_3syn2op4UnOp3Not0INtNtNtCsieiGu2EXtoJ_4core3ops8function6FnOnceTNtNtBa_5token3NotEE9call_onceBa_, symObjAddr: 0x17C50, symBinAddr: 0x84CA0, symSize: 0x40 }
  - { offset: 0xCAC79, size: 0x8, addend: 0x0, symName: __RNvYNcNtNtNtCsdGrGZaRBwMb_3syn2op4UnOp5Deref0INtNtNtCsieiGu2EXtoJ_4core3ops8function6FnOnceTNtNtBa_5token4StarEE9call_onceBa_, symObjAddr: 0x17C90, symBinAddr: 0x84CE0, symSize: 0x40 }
  - { offset: 0xCACBD, size: 0x8, addend: 0x0, symName: __RNvYNcNtNtNtCsdGrGZaRBwMb_3syn2op5BinOp11BitOrAssign0INtNtNtCsieiGu2EXtoJ_4core3ops8function6FnOnceTNtNtBa_5token4OrEqEE9call_onceBa_, symObjAddr: 0x17CD0, symBinAddr: 0x84D20, symSize: 0x40 }
  - { offset: 0xCAD01, size: 0x8, addend: 0x0, symName: __RNvYNcNtNtNtCsdGrGZaRBwMb_3syn2op5BinOp12BitAndAssign0INtNtNtCsieiGu2EXtoJ_4core3ops8function6FnOnceTNtNtBa_5token5AndEqEE9call_onceBa_, symObjAddr: 0x17D10, symBinAddr: 0x84D60, symSize: 0x40 }
  - { offset: 0xCAD45, size: 0x8, addend: 0x0, symName: __RNvYNcNtNtNtCsdGrGZaRBwMb_3syn2op5BinOp12BitXorAssign0INtNtNtCsieiGu2EXtoJ_4core3ops8function6FnOnceTNtNtBa_5token7CaretEqEE9call_onceBa_, symObjAddr: 0x17D50, symBinAddr: 0x84DA0, symSize: 0x40 }
  - { offset: 0xCAD89, size: 0x8, addend: 0x0, symName: __RNvYNcNtNtNtCsdGrGZaRBwMb_3syn2op5BinOp2Eq0INtNtNtCsieiGu2EXtoJ_4core3ops8function6FnOnceTNtNtBa_5token4EqEqEE9call_onceBa_, symObjAddr: 0x17D90, symBinAddr: 0x84DE0, symSize: 0x40 }
  - { offset: 0xCADCD, size: 0x8, addend: 0x0, symName: __RNvYNcNtNtNtCsdGrGZaRBwMb_3syn2op5BinOp2Ge0INtNtNtCsieiGu2EXtoJ_4core3ops8function6FnOnceTNtNtBa_5token2GeEE9call_onceBa_, symObjAddr: 0x17DD0, symBinAddr: 0x84E20, symSize: 0x40 }
  - { offset: 0xCAE11, size: 0x8, addend: 0x0, symName: __RNvYNcNtNtNtCsdGrGZaRBwMb_3syn2op5BinOp2Gt0INtNtNtCsieiGu2EXtoJ_4core3ops8function6FnOnceTNtNtBa_5token2GtEE9call_onceBa_, symObjAddr: 0x17E10, symBinAddr: 0x84E60, symSize: 0x30 }
  - { offset: 0xCAE55, size: 0x8, addend: 0x0, symName: __RNvYNcNtNtNtCsdGrGZaRBwMb_3syn2op5BinOp2Le0INtNtNtCsieiGu2EXtoJ_4core3ops8function6FnOnceTNtNtBa_5token2LeEE9call_onceBa_, symObjAddr: 0x17E40, symBinAddr: 0x84E90, symSize: 0x40 }
  - { offset: 0xCAE99, size: 0x8, addend: 0x0, symName: __RNvYNcNtNtNtCsdGrGZaRBwMb_3syn2op5BinOp2Lt0INtNtNtCsieiGu2EXtoJ_4core3ops8function6FnOnceTNtNtBa_5token2LtEE9call_onceBa_, symObjAddr: 0x17E80, symBinAddr: 0x84ED0, symSize: 0x30 }
  - { offset: 0xCAEDD, size: 0x8, addend: 0x0, symName: __RNvYNcNtNtNtCsdGrGZaRBwMb_3syn2op5BinOp2Ne0INtNtNtCsieiGu2EXtoJ_4core3ops8function6FnOnceTNtNtBa_5token2NeEE9call_onceBa_, symObjAddr: 0x17EB0, symBinAddr: 0x84F00, symSize: 0x40 }
  - { offset: 0xCAF21, size: 0x8, addend: 0x0, symName: __RNvYNcNtNtNtCsdGrGZaRBwMb_3syn2op5BinOp2Or0INtNtNtCsieiGu2EXtoJ_4core3ops8function6FnOnceTNtNtBa_5token4OrOrEE9call_onceBa_, symObjAddr: 0x17EF0, symBinAddr: 0x84F40, symSize: 0x40 }
  - { offset: 0xCAF65, size: 0x8, addend: 0x0, symName: __RNvYNcNtNtNtCsdGrGZaRBwMb_3syn2op5BinOp3Add0INtNtNtCsieiGu2EXtoJ_4core3ops8function6FnOnceTNtNtBa_5token4PlusEE9call_onceBa_, symObjAddr: 0x17F30, symBinAddr: 0x84F80, symSize: 0x30 }
  - { offset: 0xCAFA9, size: 0x8, addend: 0x0, symName: __RNvYNcNtNtNtCsdGrGZaRBwMb_3syn2op5BinOp3And0INtNtNtCsieiGu2EXtoJ_4core3ops8function6FnOnceTNtNtBa_5token6AndAndEE9call_onceBa_, symObjAddr: 0x17F60, symBinAddr: 0x84FB0, symSize: 0x40 }
  - { offset: 0xCAFED, size: 0x8, addend: 0x0, symName: __RNvYNcNtNtNtCsdGrGZaRBwMb_3syn2op5BinOp3Div0INtNtNtCsieiGu2EXtoJ_4core3ops8function6FnOnceTNtNtBa_5token5SlashEE9call_onceBa_, symObjAddr: 0x17FA0, symBinAddr: 0x84FF0, symSize: 0x30 }
  - { offset: 0xCB031, size: 0x8, addend: 0x0, symName: __RNvYNcNtNtNtCsdGrGZaRBwMb_3syn2op5BinOp3Mul0INtNtNtCsieiGu2EXtoJ_4core3ops8function6FnOnceTNtNtBa_5token4StarEE9call_onceBa_, symObjAddr: 0x17FD0, symBinAddr: 0x85020, symSize: 0x30 }
  - { offset: 0xCB075, size: 0x8, addend: 0x0, symName: __RNvYNcNtNtNtCsdGrGZaRBwMb_3syn2op5BinOp3Rem0INtNtNtCsieiGu2EXtoJ_4core3ops8function6FnOnceTNtNtBa_5token7PercentEE9call_onceBa_, symObjAddr: 0x18000, symBinAddr: 0x85050, symSize: 0x30 }
  - { offset: 0xCB0B9, size: 0x8, addend: 0x0, symName: __RNvYNcNtNtNtCsdGrGZaRBwMb_3syn2op5BinOp3Shl0INtNtNtCsieiGu2EXtoJ_4core3ops8function6FnOnceTNtNtBa_5token3ShlEE9call_onceBa_, symObjAddr: 0x18030, symBinAddr: 0x85080, symSize: 0x40 }
  - { offset: 0xCB0FD, size: 0x8, addend: 0x0, symName: __RNvYNcNtNtNtCsdGrGZaRBwMb_3syn2op5BinOp3Shr0INtNtNtCsieiGu2EXtoJ_4core3ops8function6FnOnceTNtNtBa_5token3ShrEE9call_onceBa_, symObjAddr: 0x18070, symBinAddr: 0x850C0, symSize: 0x40 }
  - { offset: 0xCB141, size: 0x8, addend: 0x0, symName: __RNvYNcNtNtNtCsdGrGZaRBwMb_3syn2op5BinOp3Sub0INtNtNtCsieiGu2EXtoJ_4core3ops8function6FnOnceTNtNtBa_5token5MinusEE9call_onceBa_, symObjAddr: 0x180B0, symBinAddr: 0x85100, symSize: 0x30 }
  - { offset: 0xCB185, size: 0x8, addend: 0x0, symName: __RNvYNcNtNtNtCsdGrGZaRBwMb_3syn2op5BinOp5BitOr0INtNtNtCsieiGu2EXtoJ_4core3ops8function6FnOnceTNtNtBa_5token2OrEE9call_onceBa_, symObjAddr: 0x180E0, symBinAddr: 0x85130, symSize: 0x30 }
  - { offset: 0xCB1C9, size: 0x8, addend: 0x0, symName: __RNvYNcNtNtNtCsdGrGZaRBwMb_3syn2op5BinOp6BitAnd0INtNtNtCsieiGu2EXtoJ_4core3ops8function6FnOnceTNtNtBa_5token3AndEE9call_onceBa_, symObjAddr: 0x18110, symBinAddr: 0x85160, symSize: 0x30 }
  - { offset: 0xCB20D, size: 0x8, addend: 0x0, symName: __RNvYNcNtNtNtCsdGrGZaRBwMb_3syn2op5BinOp6BitXor0INtNtNtCsieiGu2EXtoJ_4core3ops8function6FnOnceTNtNtBa_5token5CaretEE9call_onceBa_, symObjAddr: 0x18140, symBinAddr: 0x85190, symSize: 0x30 }
  - { offset: 0xCB251, size: 0x8, addend: 0x0, symName: __RNvYNcNtNtNtCsdGrGZaRBwMb_3syn2op5BinOp9AddAssign0INtNtNtCsieiGu2EXtoJ_4core3ops8function6FnOnceTNtNtBa_5token6PlusEqEE9call_onceBa_, symObjAddr: 0x18170, symBinAddr: 0x851C0, symSize: 0x40 }
  - { offset: 0xCB295, size: 0x8, addend: 0x0, symName: __RNvYNcNtNtNtCsdGrGZaRBwMb_3syn2op5BinOp9DivAssign0INtNtNtCsieiGu2EXtoJ_4core3ops8function6FnOnceTNtNtBa_5token7SlashEqEE9call_onceBa_, symObjAddr: 0x181B0, symBinAddr: 0x85200, symSize: 0x40 }
  - { offset: 0xCB2D9, size: 0x8, addend: 0x0, symName: __RNvYNcNtNtNtCsdGrGZaRBwMb_3syn2op5BinOp9MulAssign0INtNtNtCsieiGu2EXtoJ_4core3ops8function6FnOnceTNtNtBa_5token6StarEqEE9call_onceBa_, symObjAddr: 0x181F0, symBinAddr: 0x85240, symSize: 0x40 }
  - { offset: 0xCB31D, size: 0x8, addend: 0x0, symName: __RNvYNcNtNtNtCsdGrGZaRBwMb_3syn2op5BinOp9RemAssign0INtNtNtCsieiGu2EXtoJ_4core3ops8function6FnOnceTNtNtBa_5token9PercentEqEE9call_onceBa_, symObjAddr: 0x18230, symBinAddr: 0x85280, symSize: 0x40 }
  - { offset: 0xCB361, size: 0x8, addend: 0x0, symName: __RNvYNcNtNtNtCsdGrGZaRBwMb_3syn2op5BinOp9ShlAssign0INtNtNtCsieiGu2EXtoJ_4core3ops8function6FnOnceTNtNtBa_5token5ShlEqEE9call_onceBa_, symObjAddr: 0x18270, symBinAddr: 0x852C0, symSize: 0x30 }
  - { offset: 0xCB3A5, size: 0x8, addend: 0x0, symName: __RNvYNcNtNtNtCsdGrGZaRBwMb_3syn2op5BinOp9ShrAssign0INtNtNtCsieiGu2EXtoJ_4core3ops8function6FnOnceTNtNtBa_5token5ShrEqEE9call_onceBa_, symObjAddr: 0x182A0, symBinAddr: 0x852F0, symSize: 0x30 }
  - { offset: 0xCB3E9, size: 0x8, addend: 0x0, symName: __RNvYNcNtNtNtCsdGrGZaRBwMb_3syn2op5BinOp9SubAssign0INtNtNtCsieiGu2EXtoJ_4core3ops8function6FnOnceTNtNtBa_5token7MinusEqEE9call_onceBa_, symObjAddr: 0x182D0, symBinAddr: 0x85320, symSize: 0x40 }
  - { offset: 0xCB42D, size: 0x8, addend: 0x0, symName: __RNvYNcNtNtNtCsdGrGZaRBwMb_3syn2ty4Type11TraitObject0INtNtNtCsieiGu2EXtoJ_4core3ops8function6FnOnceTNtB8_15TypeTraitObjectEE9call_onceBa_, symObjAddr: 0x18310, symBinAddr: 0x85360, symSize: 0x40 }
  - { offset: 0xCB471, size: 0x8, addend: 0x0, symName: __RNvYNcNtNtNtCsdGrGZaRBwMb_3syn2ty4Type3Ptr0INtNtNtCsieiGu2EXtoJ_4core3ops8function6FnOnceTNtB8_7TypePtrEE9call_onceBa_, symObjAddr: 0x18350, symBinAddr: 0x853A0, symSize: 0x50 }
  - { offset: 0xCB4B5, size: 0x8, addend: 0x0, symName: __RNvYNcNtNtNtCsdGrGZaRBwMb_3syn2ty4Type5Infer0INtNtNtCsieiGu2EXtoJ_4core3ops8function6FnOnceTNtB8_9TypeInferEE9call_onceBa_, symObjAddr: 0x183A0, symBinAddr: 0x853F0, symSize: 0x30 }
  - { offset: 0xCB4F9, size: 0x8, addend: 0x0, symName: __RNvYNcNtNtNtCsdGrGZaRBwMb_3syn2ty4Type5Never0INtNtNtCsieiGu2EXtoJ_4core3ops8function6FnOnceTNtB8_9TypeNeverEE9call_onceBa_, symObjAddr: 0x183D0, symBinAddr: 0x85420, symSize: 0x30 }
  - { offset: 0xCB53D, size: 0x8, addend: 0x0, symName: __RNvYNcNtNtNtCsdGrGZaRBwMb_3syn2ty4Type9ImplTrait0INtNtNtCsieiGu2EXtoJ_4core3ops8function6FnOnceTNtB8_13TypeImplTraitEE9call_onceBa_, symObjAddr: 0x18400, symBinAddr: 0x85450, symSize: 0x40 }
  - { offset: 0xCB581, size: 0x8, addend: 0x0, symName: __RNvYNcNtNtNtCsdGrGZaRBwMb_3syn2ty4Type9Reference0INtNtNtCsieiGu2EXtoJ_4core3ops8function6FnOnceTNtB8_13TypeReferenceEE9call_onceBa_, symObjAddr: 0x18440, symBinAddr: 0x85490, symSize: 0x40 }
  - { offset: 0xCB5C5, size: 0x8, addend: 0x0, symName: __RNvYNcNtNtNtCsdGrGZaRBwMb_3syn3pat3Pat11TupleStruct0INtNtNtCsieiGu2EXtoJ_4core3ops8function6FnOnceTNtB8_14PatTupleStructEE9call_onceBa_, symObjAddr: 0x18480, symBinAddr: 0x854D0, symSize: 0x50 }
  - { offset: 0xCB60A, size: 0x8, addend: 0x0, symName: __RNvYNcNtNtNtCsdGrGZaRBwMb_3syn3pat3Pat4Wild0INtNtNtCsieiGu2EXtoJ_4core3ops8function6FnOnceTNtB8_7PatWildEE9call_onceBa_, symObjAddr: 0x184D0, symBinAddr: 0x85520, symSize: 0x50 }
  - { offset: 0xCB64E, size: 0x8, addend: 0x0, symName: __RNvYNcNtNtNtCsdGrGZaRBwMb_3syn3pat3Pat5Ident0INtNtNtCsieiGu2EXtoJ_4core3ops8function6FnOnceTNtB8_8PatIdentEE9call_onceBa_, symObjAddr: 0x18520, symBinAddr: 0x85570, symSize: 0x40 }
  - { offset: 0xCB693, size: 0x8, addend: 0x0, symName: __RNvYNcNtNtNtCsdGrGZaRBwMb_3syn3pat3Pat5Slice0INtNtNtCsieiGu2EXtoJ_4core3ops8function6FnOnceTNtB8_8PatSliceEE9call_onceBa_, symObjAddr: 0x18560, symBinAddr: 0x855B0, symSize: 0x40 }
  - { offset: 0xCB6D8, size: 0x8, addend: 0x0, symName: __RNvYNcNtNtNtCsdGrGZaRBwMb_3syn3pat3Pat6Struct0INtNtNtCsieiGu2EXtoJ_4core3ops8function6FnOnceTNtB8_9PatStructEE9call_onceBa_, symObjAddr: 0x185A0, symBinAddr: 0x855F0, symSize: 0x50 }
  - { offset: 0xCB71D, size: 0x8, addend: 0x0, symName: __RNvYNcNtNtNtCsdGrGZaRBwMb_3syn3pat3Pat8Verbatim0INtNtNtCsieiGu2EXtoJ_4core3ops8function6FnOnceTNtCsaKzlTDPUHDb_11proc_macro211TokenStreamEE9call_onceBa_, symObjAddr: 0x185F0, symBinAddr: 0x85640, symSize: 0x50 }
  - { offset: 0xCB761, size: 0x8, addend: 0x0, symName: __RNvYNcNtNtNtCsdGrGZaRBwMb_3syn3pat3Pat9Reference0INtNtNtCsieiGu2EXtoJ_4core3ops8function6FnOnceTNtB8_12PatReferenceEE9call_onceBa_, symObjAddr: 0x18640, symBinAddr: 0x85690, symSize: 0x40 }
  - { offset: 0xCB7A5, size: 0x8, addend: 0x0, symName: __RNvYNcNtNtNtCsdGrGZaRBwMb_3syn4attr4Meta4List0INtNtNtCsieiGu2EXtoJ_4core3ops8function6FnOnceTNtB8_8MetaListEE9call_onceBa_, symObjAddr: 0x18680, symBinAddr: 0x856D0, symSize: 0x40 }
  - { offset: 0xCB7EA, size: 0x8, addend: 0x0, symName: __RNvYNcNtNtNtCsdGrGZaRBwMb_3syn4attr4Meta9NameValue0INtNtNtCsieiGu2EXtoJ_4core3ops8function6FnOnceTNtB8_13MetaNameValueEE9call_onceBa_, symObjAddr: 0x186C0, symBinAddr: 0x85710, symSize: 0x50 }
  - { offset: 0xCB82F, size: 0x8, addend: 0x0, symName: __RNvYNcNtNtNtCsdGrGZaRBwMb_3syn4expr11RangeLimits6Closed0INtNtNtCsieiGu2EXtoJ_4core3ops8function6FnOnceTNtNtBa_5token8DotDotEqEE9call_onceBa_, symObjAddr: 0x18710, symBinAddr: 0x85760, symSize: 0x30 }
  - { offset: 0xCB873, size: 0x8, addend: 0x0, symName: __RNvYNcNtNtNtCsdGrGZaRBwMb_3syn4expr11RangeLimits8HalfOpen0INtNtNtCsieiGu2EXtoJ_4core3ops8function6FnOnceTNtNtBa_5token6DotDotEE9call_onceBa_, symObjAddr: 0x18740, symBinAddr: 0x85790, symSize: 0x40 }
  - { offset: 0xCB8B7, size: 0x8, addend: 0x0, symName: __RNvYNcNtNtNtCsdGrGZaRBwMb_3syn4expr4Expr2If0INtNtNtCsieiGu2EXtoJ_4core3ops8function6FnOnceTNtB8_6ExprIfEE9call_onceBa_, symObjAddr: 0x18780, symBinAddr: 0x857D0, symSize: 0x40 }
  - { offset: 0xCB8FC, size: 0x8, addend: 0x0, symName: __RNvYNcNtNtNtCsdGrGZaRBwMb_3syn4expr4Expr3Let0INtNtNtCsieiGu2EXtoJ_4core3ops8function6FnOnceTNtB8_7ExprLetEE9call_onceBa_, symObjAddr: 0x187C0, symBinAddr: 0x85810, symSize: 0x40 }
  - { offset: 0xCB940, size: 0x8, addend: 0x0, symName: __RNvYNcNtNtNtCsdGrGZaRBwMb_3syn4expr4Expr3Lit0INtNtNtCsieiGu2EXtoJ_4core3ops8function6FnOnceTNtB8_7ExprLitEE9call_onceBa_, symObjAddr: 0x18800, symBinAddr: 0x85850, symSize: 0x40 }
  - { offset: 0xCB984, size: 0x8, addend: 0x0, symName: __RNvYNcNtNtNtCsdGrGZaRBwMb_3syn4expr4Expr4Loop0INtNtNtCsieiGu2EXtoJ_4core3ops8function6FnOnceTNtB8_8ExprLoopEE9call_onceBa_, symObjAddr: 0x18840, symBinAddr: 0x85890, symSize: 0x50 }
  - { offset: 0xCB9C9, size: 0x8, addend: 0x0, symName: __RNvYNcNtNtNtCsdGrGZaRBwMb_3syn4expr4Expr5Async0INtNtNtCsieiGu2EXtoJ_4core3ops8function6FnOnceTNtB8_9ExprAsyncEE9call_onceBa_, symObjAddr: 0x18890, symBinAddr: 0x858E0, symSize: 0x40 }
  - { offset: 0xCBA0E, size: 0x8, addend: 0x0, symName: __RNvYNcNtNtNtCsdGrGZaRBwMb_3syn4expr4Expr5Block0INtNtNtCsieiGu2EXtoJ_4core3ops8function6FnOnceTNtB8_9ExprBlockEE9call_onceBa_, symObjAddr: 0x188D0, symBinAddr: 0x85920, symSize: 0x40 }
  - { offset: 0xCBA53, size: 0x8, addend: 0x0, symName: __RNvYNcNtNtNtCsdGrGZaRBwMb_3syn4expr4Expr5Break0INtNtNtCsieiGu2EXtoJ_4core3ops8function6FnOnceTNtB8_9ExprBreakEE9call_onceBa_, symObjAddr: 0x18910, symBinAddr: 0x85960, symSize: 0x40 }
  - { offset: 0xCBA98, size: 0x8, addend: 0x0, symName: __RNvYNcNtNtNtCsdGrGZaRBwMb_3syn4expr4Expr5Const0INtNtNtCsieiGu2EXtoJ_4core3ops8function6FnOnceTNtB8_9ExprConstEE9call_onceBa_, symObjAddr: 0x18950, symBinAddr: 0x859A0, symSize: 0x40 }
  - { offset: 0xCBADD, size: 0x8, addend: 0x0, symName: __RNvYNcNtNtNtCsdGrGZaRBwMb_3syn4expr4Expr5Infer0INtNtNtCsieiGu2EXtoJ_4core3ops8function6FnOnceTNtB8_9ExprInferEE9call_onceBa_, symObjAddr: 0x18990, symBinAddr: 0x859E0, symSize: 0x50 }
  - { offset: 0xCBB21, size: 0x8, addend: 0x0, symName: __RNvYNcNtNtNtCsdGrGZaRBwMb_3syn4expr4Expr5Match0INtNtNtCsieiGu2EXtoJ_4core3ops8function6FnOnceTNtB8_9ExprMatchEE9call_onceBa_, symObjAddr: 0x189E0, symBinAddr: 0x85A30, symSize: 0x40 }
  - { offset: 0xCBB66, size: 0x8, addend: 0x0, symName: __RNvYNcNtNtNtCsdGrGZaRBwMb_3syn4expr4Expr5Range0INtNtNtCsieiGu2EXtoJ_4core3ops8function6FnOnceTNtB8_9ExprRangeEE9call_onceBa_, symObjAddr: 0x18A20, symBinAddr: 0x85A70, symSize: 0x40 }
  - { offset: 0xCBBAA, size: 0x8, addend: 0x0, symName: __RNvYNcNtNtNtCsdGrGZaRBwMb_3syn4expr4Expr5Unary0INtNtNtCsieiGu2EXtoJ_4core3ops8function6FnOnceTNtB8_9ExprUnaryEE9call_onceBa_, symObjAddr: 0x18A60, symBinAddr: 0x85AB0, symSize: 0x40 }
  - { offset: 0xCBBEE, size: 0x8, addend: 0x0, symName: __RNvYNcNtNtNtCsdGrGZaRBwMb_3syn4expr4Expr5While0INtNtNtCsieiGu2EXtoJ_4core3ops8function6FnOnceTNtB8_9ExprWhileEE9call_onceBa_, symObjAddr: 0x18AA0, symBinAddr: 0x85AF0, symSize: 0x50 }
  - { offset: 0xCBC33, size: 0x8, addend: 0x0, symName: __RNvYNcNtNtNtCsdGrGZaRBwMb_3syn4expr4Expr5Yield0INtNtNtCsieiGu2EXtoJ_4core3ops8function6FnOnceTNtB8_9ExprYieldEE9call_onceBa_, symObjAddr: 0x18AF0, symBinAddr: 0x85B40, symSize: 0x40 }
  - { offset: 0xCBC77, size: 0x8, addend: 0x0, symName: __RNvYNcNtNtNtCsdGrGZaRBwMb_3syn4expr4Expr6Return0INtNtNtCsieiGu2EXtoJ_4core3ops8function6FnOnceTNtB8_10ExprReturnEE9call_onceBa_, symObjAddr: 0x18B30, symBinAddr: 0x85B80, symSize: 0x40 }
  - { offset: 0xCBCBB, size: 0x8, addend: 0x0, symName: __RNvYNcNtNtNtCsdGrGZaRBwMb_3syn4expr4Expr6Struct0INtNtNtCsieiGu2EXtoJ_4core3ops8function6FnOnceTNtB8_10ExprStructEE9call_onceBa_, symObjAddr: 0x18B70, symBinAddr: 0x85BC0, symSize: 0x50 }
  - { offset: 0xCBD00, size: 0x8, addend: 0x0, symName: __RNvYNcNtNtNtCsdGrGZaRBwMb_3syn4expr4Expr6Unsafe0INtNtNtCsieiGu2EXtoJ_4core3ops8function6FnOnceTNtB8_10ExprUnsafeEE9call_onceBa_, symObjAddr: 0x18BC0, symBinAddr: 0x85C10, symSize: 0x40 }
  - { offset: 0xCBD45, size: 0x8, addend: 0x0, symName: __RNvYNcNtNtNtCsdGrGZaRBwMb_3syn4expr4Expr7Closure0INtNtNtCsieiGu2EXtoJ_4core3ops8function6FnOnceTNtB8_11ExprClosureEE9call_onceBa_, symObjAddr: 0x18C00, symBinAddr: 0x85C50, symSize: 0x50 }
  - { offset: 0xCBD8A, size: 0x8, addend: 0x0, symName: __RNvYNcNtNtNtCsdGrGZaRBwMb_3syn4expr4Expr7ForLoop0INtNtNtCsieiGu2EXtoJ_4core3ops8function6FnOnceTNtB8_11ExprForLoopEE9call_onceBa_, symObjAddr: 0x18C50, symBinAddr: 0x85CA0, symSize: 0x50 }
  - { offset: 0xCBDCF, size: 0x8, addend: 0x0, symName: __RNvYNcNtNtNtCsdGrGZaRBwMb_3syn4expr4Expr8Continue0INtNtNtCsieiGu2EXtoJ_4core3ops8function6FnOnceTNtB8_12ExprContinueEE9call_onceBa_, symObjAddr: 0x18CA0, symBinAddr: 0x85CF0, symSize: 0x40 }
  - { offset: 0xCBE14, size: 0x8, addend: 0x0, symName: __RNvYNcNtNtNtCsdGrGZaRBwMb_3syn4expr4Expr8TryBlock0INtNtNtCsieiGu2EXtoJ_4core3ops8function6FnOnceTNtB8_12ExprTryBlockEE9call_onceBa_, symObjAddr: 0x18CE0, symBinAddr: 0x85D30, symSize: 0x40 }
  - { offset: 0xCBE59, size: 0x8, addend: 0x0, symName: __RNvYNcNtNtNtCsdGrGZaRBwMb_3syn4expr6Member5Named0INtNtNtCsieiGu2EXtoJ_4core3ops8function6FnOnceTNtCsaKzlTDPUHDb_11proc_macro25IdentEE9call_onceBa_, symObjAddr: 0x18D20, symBinAddr: 0x85D70, symSize: 0x40 }
  - { offset: 0xCBE9D, size: 0x8, addend: 0x0, symName: __RNvYNcNtNtNtCsdGrGZaRBwMb_3syn4expr6Member7Unnamed0INtNtNtCsieiGu2EXtoJ_4core3ops8function6FnOnceTNtB8_5IndexEE9call_onceBa_, symObjAddr: 0x18D60, symBinAddr: 0x85DB0, symSize: 0x30 }
  - { offset: 0xCBEE1, size: 0x8, addend: 0x0, symName: __RNvYNcNtNtNtCsdGrGZaRBwMb_3syn4item11ForeignItem5Macro0INtNtNtCsieiGu2EXtoJ_4core3ops8function6FnOnceTNtB8_16ForeignItemMacroEE9call_onceBa_, symObjAddr: 0x18D90, symBinAddr: 0x85DE0, symSize: 0x50 }
  - { offset: 0xCBF26, size: 0x8, addend: 0x0, symName: __RNvYNcNtNtNtCsdGrGZaRBwMb_3syn4item16StaticMutability3Mut0INtNtNtCsieiGu2EXtoJ_4core3ops8function6FnOnceTNtNtBa_5token3MutEE9call_onceBa_, symObjAddr: 0x18DE0, symBinAddr: 0x85E30, symSize: 0x20 }
  - { offset: 0xCBF6A, size: 0x8, addend: 0x0, symName: __RNvYNcNtNtNtCsdGrGZaRBwMb_3syn4item4Item10ForeignMod0INtNtNtCsieiGu2EXtoJ_4core3ops8function6FnOnceTNtB8_14ItemForeignModEE9call_onceBa_, symObjAddr: 0x18E00, symBinAddr: 0x85E50, symSize: 0x40 }
  - { offset: 0xCBFAF, size: 0x8, addend: 0x0, symName: __RNvYNcNtNtNtCsdGrGZaRBwMb_3syn4item4Item10TraitAlias0INtNtNtCsieiGu2EXtoJ_4core3ops8function6FnOnceTNtB8_14ItemTraitAliasEE9call_onceBa_, symObjAddr: 0x18E40, symBinAddr: 0x85E90, symSize: 0x50 }
  - { offset: 0xCBFF4, size: 0x8, addend: 0x0, symName: __RNvYNcNtNtNtCsdGrGZaRBwMb_3syn4item4Item11ExternCrate0INtNtNtCsieiGu2EXtoJ_4core3ops8function6FnOnceTNtB8_15ItemExternCrateEE9call_onceBa_, symObjAddr: 0x18E90, symBinAddr: 0x85EE0, symSize: 0x50 }
  - { offset: 0xCC039, size: 0x8, addend: 0x0, symName: __RNvYNcNtNtNtCsdGrGZaRBwMb_3syn4item4Item2Fn0INtNtNtCsieiGu2EXtoJ_4core3ops8function6FnOnceTNtB8_6ItemFnEE9call_onceBa_, symObjAddr: 0x18EE0, symBinAddr: 0x85F30, symSize: 0x50 }
  - { offset: 0xCC07E, size: 0x8, addend: 0x0, symName: __RNvYNcNtNtNtCsdGrGZaRBwMb_3syn4item4Item3Mod0INtNtNtCsieiGu2EXtoJ_4core3ops8function6FnOnceTNtB8_7ItemModEE9call_onceBa_, symObjAddr: 0x18F30, symBinAddr: 0x85F80, symSize: 0x50 }
  - { offset: 0xCC0C3, size: 0x8, addend: 0x0, symName: __RNvYNcNtNtNtCsdGrGZaRBwMb_3syn4item4Item4Enum0INtNtNtCsieiGu2EXtoJ_4core3ops8function6FnOnceTNtB8_8ItemEnumEE9call_onceBa_, symObjAddr: 0x18F80, symBinAddr: 0x85FD0, symSize: 0x50 }
  - { offset: 0xCC108, size: 0x8, addend: 0x0, symName: __RNvYNcNtNtNtCsdGrGZaRBwMb_3syn4item4Item5Macro0INtNtNtCsieiGu2EXtoJ_4core3ops8function6FnOnceTNtB8_9ItemMacroEE9call_onceBa_, symObjAddr: 0x18FD0, symBinAddr: 0x86020, symSize: 0x50 }
  - { offset: 0xCC14D, size: 0x8, addend: 0x0, symName: __RNvYNcNtNtNtCsdGrGZaRBwMb_3syn4item4Item5Trait0INtNtNtCsieiGu2EXtoJ_4core3ops8function6FnOnceTNtB8_9ItemTraitEE9call_onceBa_, symObjAddr: 0x19020, symBinAddr: 0x86070, symSize: 0x50 }
  - { offset: 0xCC192, size: 0x8, addend: 0x0, symName: __RNvYNcNtNtNtCsdGrGZaRBwMb_3syn4item4Item5Union0INtNtNtCsieiGu2EXtoJ_4core3ops8function6FnOnceTNtB8_9ItemUnionEE9call_onceBa_, symObjAddr: 0x19070, symBinAddr: 0x860C0, symSize: 0x50 }
  - { offset: 0xCC1D7, size: 0x8, addend: 0x0, symName: __RNvYNcNtNtNtCsdGrGZaRBwMb_3syn4item4Item6Struct0INtNtNtCsieiGu2EXtoJ_4core3ops8function6FnOnceTNtB8_10ItemStructEE9call_onceBa_, symObjAddr: 0x190C0, symBinAddr: 0x86110, symSize: 0x50 }
  - { offset: 0xCC21C, size: 0x8, addend: 0x0, symName: __RNvYNcNtNtNtCsdGrGZaRBwMb_3syn4item8ImplItem5Macro0INtNtNtCsieiGu2EXtoJ_4core3ops8function6FnOnceTNtB8_13ImplItemMacroEE9call_onceBa_, symObjAddr: 0x19110, symBinAddr: 0x86160, symSize: 0x50 }
  - { offset: 0xCC261, size: 0x8, addend: 0x0, symName: __RNvYNcNtNtNtCsdGrGZaRBwMb_3syn4item9TraitItem2Fn0INtNtNtCsieiGu2EXtoJ_4core3ops8function6FnOnceTNtB8_11TraitItemFnEE9call_onceBa_, symObjAddr: 0x19160, symBinAddr: 0x861B0, symSize: 0x50 }
  - { offset: 0xCC2A6, size: 0x8, addend: 0x0, symName: __RNvYNcNtNtNtCsdGrGZaRBwMb_3syn4item9TraitItem5Macro0INtNtNtCsieiGu2EXtoJ_4core3ops8function6FnOnceTNtB8_14TraitItemMacroEE9call_onceBa_, symObjAddr: 0x191B0, symBinAddr: 0x86200, symSize: 0x50 }
  - { offset: 0xCC2EB, size: 0x8, addend: 0x0, symName: __RNvYNcNtNtNtCsdGrGZaRBwMb_3syn4path15GenericArgument5Const0INtNtNtCsieiGu2EXtoJ_4core3ops8function6FnOnceTNtNtBa_4expr4ExprEE9call_onceBa_, symObjAddr: 0x19200, symBinAddr: 0x86250, symSize: 0x50 }
  - { offset: 0xCC330, size: 0x8, addend: 0x0, symName: __RNvYNcNtNtNtCsdGrGZaRBwMb_3syn4stmt4Stmt5Local0INtNtNtCsieiGu2EXtoJ_4core3ops8function6FnOnceTNtB8_5LocalEE9call_onceBa_, symObjAddr: 0x19250, symBinAddr: 0x862A0, symSize: 0x50 }
  - { offset: 0xCC375, size: 0x8, addend: 0x0, symName: __RNvYNcNtNtNtCsdGrGZaRBwMb_3syn4stmt4Stmt5Macro0INtNtNtCsieiGu2EXtoJ_4core3ops8function6FnOnceTNtB8_9StmtMacroEE9call_onceBa_, symObjAddr: 0x192A0, symBinAddr: 0x862F0, symSize: 0x50 }
  - { offset: 0xCC3BA, size: 0x8, addend: 0x0, symName: __RNvYNcNtNtNtCsdGrGZaRBwMb_3syn8generics13CapturedParam5Ident0INtNtNtCsieiGu2EXtoJ_4core3ops8function6FnOnceTNtCsaKzlTDPUHDb_11proc_macro25IdentEE9call_onceBa_, symObjAddr: 0x192F0, symBinAddr: 0x86340, symSize: 0x40 }
  - { offset: 0xCC3FE, size: 0x8, addend: 0x0, symName: __RNvYNcNtNtNtCsdGrGZaRBwMb_3syn8generics13CapturedParam8Lifetime0INtNtNtCsieiGu2EXtoJ_4core3ops8function6FnOnceTNtNtBa_8lifetime8LifetimeEE9call_onceBa_, symObjAddr: 0x19330, symBinAddr: 0x86380, symSize: 0x50 }
  - { offset: 0xCC442, size: 0x8, addend: 0x0, symName: __RNvYNcNtNtNtCsdGrGZaRBwMb_3syn8generics14TypeParamBound8Lifetime0INtNtNtCsieiGu2EXtoJ_4core3ops8function6FnOnceTNtNtBa_8lifetime8LifetimeEE9call_onceBa_, symObjAddr: 0x19380, symBinAddr: 0x863D0, symSize: 0x50 }
  - { offset: 0xCC486, size: 0x8, addend: 0x0, symName: __RNvYNcNtNtNtCsdGrGZaRBwMb_3syn8generics18TraitBoundModifier5Maybe0INtNtNtCsieiGu2EXtoJ_4core3ops8function6FnOnceTNtNtBa_5token8QuestionEE9call_onceBa_, symObjAddr: 0x193D0, symBinAddr: 0x86420, symSize: 0x40 }
  - { offset: 0xCC4CA, size: 0x8, addend: 0x0, symName: __RNvYNvMNtCsieiGu2EXtoJ_4core6optionINtB5_6OptionNtNtCsdGrGZaRBwMb_3syn4item7UseTreeE6unwrapINtNtNtB7_3ops8function6FnOnceTBx_EE9call_onceBO_, symObjAddr: 0x19560, symBinAddr: 0x86480, symSize: 0x60 }
  - { offset: 0xCC52D, size: 0x8, addend: 0x0, symName: __RNvYNvMNtCsieiGu2EXtoJ_4core6optionINtB5_6OptionNtNtCsdGrGZaRBwMb_3syn4item9SignatureE6unwrapINtNtNtB7_3ops8function6FnOnceTBx_EE9call_onceBO_, symObjAddr: 0x19650, symBinAddr: 0x864E0, symSize: 0x80 }
  - { offset: 0xCC590, size: 0x8, addend: 0x0, symName: __RNvYNvMNtCsieiGu2EXtoJ_4core6optionINtB5_6OptionNtNtCsdGrGZaRBwMb_3syn8generics10TraitBoundE6unwrapINtNtNtB7_3ops8function6FnOnceTBx_EE9call_onceBO_, symObjAddr: 0x196D0, symBinAddr: 0x86560, symSize: 0x80 }
  - { offset: 0xCC5F3, size: 0x8, addend: 0x0, symName: __RNvYNvMNtCslJiobkLta79_5alloc5boxedINtB5_3BoxNtNtCsdGrGZaRBwMb_3syn2ty4TypeE3newINtNtNtCsieiGu2EXtoJ_4core3ops8function6FnOnceTBH_EE9call_onceBL_, symObjAddr: 0x19750, symBinAddr: 0x865E0, symSize: 0x90 }
  - { offset: 0xCC656, size: 0x8, addend: 0x0, symName: __RNvYNvMNtCslJiobkLta79_5alloc5boxedINtB5_3BoxNtNtCsdGrGZaRBwMb_3syn4expr4ExprE3newINtNtNtCsieiGu2EXtoJ_4core3ops8function6FnOnceTBH_EE9call_onceBL_, symObjAddr: 0x19870, symBinAddr: 0x86670, symSize: 0x90 }
  - { offset: 0xCC6B9, size: 0x8, addend: 0x0, symName: __RNvYNvMs0_NtNtCsdGrGZaRBwMb_3syn3pat7parsingNtB8_13PatRangeBound9into_exprINtNtNtCsieiGu2EXtoJ_4core3ops8function6FnOnceTBG_EE9call_onceBc_, symObjAddr: 0x19900, symBinAddr: 0x86700, symSize: 0x30 }
  - { offset: 0xCC6FE, size: 0x8, addend: 0x0, symName: __RNvYNvMs_NtCsdGrGZaRBwMb_3syn6bufferNtB7_6Cursor4skipINtNtNtCsieiGu2EXtoJ_4core3ops8function6FnOnceTBy_EE9call_onceB9_, symObjAddr: 0x19930, symBinAddr: 0x86730, symSize: 0x30 }
  - { offset: 0xCC742, size: 0x8, addend: 0x0, symName: __RNvYNvMsi_CsaKzlTDPUHDb_11proc_macro2NtB8_4Span9call_siteINtNtNtCsieiGu2EXtoJ_4core3ops8function6FnOnceuE9call_onceCsdGrGZaRBwMb_3syn, symObjAddr: 0x19960, symBinAddr: 0x86760, symSize: 0x20 }
  - { offset: 0xCC786, size: 0x8, addend: 0x0, symName: __RNvYNvYINtNtCslJiobkLta79_5alloc5boxed3BoxNtNtCsdGrGZaRBwMb_3syn2ty4TypeEINtNtCsieiGu2EXtoJ_4core7convert5AsRefBE_E6as_refINtNtNtB1e_3ops8function6FnOnceTRB5_EE9call_onceBI_, symObjAddr: 0x19980, symBinAddr: 0x86780, symSize: 0x20 }
  - { offset: 0xCC7CA, size: 0x8, addend: 0x0, symName: __RNvYNvYINtNtCslJiobkLta79_5alloc5boxed3BoxNtNtCsdGrGZaRBwMb_3syn2ty9BareFnArgEINtNtCsieiGu2EXtoJ_4core7convert5AsRefBE_E6as_refINtNtNtB1j_3ops8function6FnOnceTRB5_EE9call_onceBI_, symObjAddr: 0x199A0, symBinAddr: 0x867A0, symSize: 0x20 }
  - { offset: 0xCC80E, size: 0x8, addend: 0x0, symName: __RNvYNvYINtNtCslJiobkLta79_5alloc5boxed3BoxNtNtCsdGrGZaRBwMb_3syn3pat3PatEINtNtCsieiGu2EXtoJ_4core7convert5AsRefBE_E6as_refINtNtNtB1e_3ops8function6FnOnceTRB5_EE9call_onceBI_, symObjAddr: 0x199C0, symBinAddr: 0x867C0, symSize: 0x20 }
  - { offset: 0xCC852, size: 0x8, addend: 0x0, symName: __RNvYNvYINtNtCslJiobkLta79_5alloc5boxed3BoxNtNtCsdGrGZaRBwMb_3syn3pat8FieldPatEINtNtCsieiGu2EXtoJ_4core7convert5AsRefBE_E6as_refINtNtNtB1j_3ops8function6FnOnceTRB5_EE9call_onceBI_, symObjAddr: 0x199E0, symBinAddr: 0x867E0, symSize: 0x20 }
  - { offset: 0xCC896, size: 0x8, addend: 0x0, symName: __RNvYNvYINtNtCslJiobkLta79_5alloc5boxed3BoxNtNtCsdGrGZaRBwMb_3syn4data5FieldEINtNtCsieiGu2EXtoJ_4core7convert5AsRefBE_E6as_refINtNtNtB1h_3ops8function6FnOnceTRB5_EE9call_onceBI_, symObjAddr: 0x19A20, symBinAddr: 0x86800, symSize: 0x20 }
  - { offset: 0xCC8DA, size: 0x8, addend: 0x0, symName: __RNvYNvYINtNtCslJiobkLta79_5alloc5boxed3BoxNtNtCsdGrGZaRBwMb_3syn4data7VariantEINtNtCsieiGu2EXtoJ_4core7convert5AsRefBE_E6as_refINtNtNtB1j_3ops8function6FnOnceTRB5_EE9call_onceBI_, symObjAddr: 0x19A40, symBinAddr: 0x86820, symSize: 0x20 }
  - { offset: 0xCC91E, size: 0x8, addend: 0x0, symName: __RNvYNvYINtNtCslJiobkLta79_5alloc5boxed3BoxNtNtCsdGrGZaRBwMb_3syn4expr10FieldValueEINtNtCsieiGu2EXtoJ_4core7convert5AsRefBE_E6as_refINtNtNtB1n_3ops8function6FnOnceTRB5_EE9call_onceBI_, symObjAddr: 0x19A60, symBinAddr: 0x86840, symSize: 0x20 }
  - { offset: 0xCC962, size: 0x8, addend: 0x0, symName: __RNvYNvYINtNtCslJiobkLta79_5alloc5boxed3BoxNtNtCsdGrGZaRBwMb_3syn4expr4ExprEINtNtCsieiGu2EXtoJ_4core7convert5AsRefBE_E6as_refINtNtNtB1g_3ops8function6FnOnceTRB5_EE9call_onceBI_, symObjAddr: 0x19A80, symBinAddr: 0x86860, symSize: 0x20 }
  - { offset: 0xCC9A6, size: 0x8, addend: 0x0, symName: __RNvYNvYINtNtCslJiobkLta79_5alloc5boxed3BoxNtNtCsdGrGZaRBwMb_3syn4item5FnArgEINtNtCsieiGu2EXtoJ_4core7convert5AsRefBE_E6as_refINtNtNtB1h_3ops8function6FnOnceTRB5_EE9call_onceBI_, symObjAddr: 0x19AA0, symBinAddr: 0x86880, symSize: 0x20 }
  - { offset: 0xCC9EA, size: 0x8, addend: 0x0, symName: __RNvYNvYINtNtCslJiobkLta79_5alloc5boxed3BoxNtNtCsdGrGZaRBwMb_3syn4item7UseTreeEINtNtCsieiGu2EXtoJ_4core7convert5AsRefBE_E6as_refINtNtNtB1j_3ops8function6FnOnceTRB5_EE9call_onceBI_, symObjAddr: 0x19AC0, symBinAddr: 0x868A0, symSize: 0x20 }
  - { offset: 0xCCA2E, size: 0x8, addend: 0x0, symName: __RNvYNvYINtNtCslJiobkLta79_5alloc5boxed3BoxNtNtCsdGrGZaRBwMb_3syn4path11PathSegmentEINtNtCsieiGu2EXtoJ_4core7convert5AsMutBE_E6as_mutINtNtNtB1o_3ops8function6FnOnceTQB5_EE9call_onceBI_, symObjAddr: 0x19AE0, symBinAddr: 0x868C0, symSize: 0x20 }
  - { offset: 0xCCA72, size: 0x8, addend: 0x0, symName: __RNvYNvYINtNtCslJiobkLta79_5alloc5boxed3BoxNtNtCsdGrGZaRBwMb_3syn4path11PathSegmentEINtNtCsieiGu2EXtoJ_4core7convert5AsRefBE_E6as_refINtNtNtB1o_3ops8function6FnOnceTRB5_EE9call_onceBI_, symObjAddr: 0x19B00, symBinAddr: 0x868E0, symSize: 0x20 }
  - { offset: 0xCCAB6, size: 0x8, addend: 0x0, symName: __RNvYNvYINtNtCslJiobkLta79_5alloc5boxed3BoxNtNtCsdGrGZaRBwMb_3syn4path15GenericArgumentEINtNtCsieiGu2EXtoJ_4core7convert5AsRefBE_E6as_refINtNtNtB1s_3ops8function6FnOnceTRB5_EE9call_onceBI_, symObjAddr: 0x19B20, symBinAddr: 0x86900, symSize: 0x20 }
  - { offset: 0xCCAFA, size: 0x8, addend: 0x0, symName: __RNvYNvYINtNtCslJiobkLta79_5alloc5boxed3BoxNtNtCsdGrGZaRBwMb_3syn8generics12GenericParamEINtNtCsieiGu2EXtoJ_4core7convert5AsRefBE_E6as_refINtNtNtB1t_3ops8function6FnOnceTRB5_EE9call_onceBI_, symObjAddr: 0x19B60, symBinAddr: 0x86920, symSize: 0x20 }
  - { offset: 0xCCB3E, size: 0x8, addend: 0x0, symName: __RNvYNvYINtNtCslJiobkLta79_5alloc5boxed3BoxNtNtCsdGrGZaRBwMb_3syn8generics13CapturedParamEINtNtCsieiGu2EXtoJ_4core7convert5AsRefBE_E6as_refINtNtNtB1u_3ops8function6FnOnceTRB5_EE9call_onceBI_, symObjAddr: 0x19B80, symBinAddr: 0x86940, symSize: 0x20 }
  - { offset: 0xCCB82, size: 0x8, addend: 0x0, symName: __RNvYNvYINtNtCslJiobkLta79_5alloc5boxed3BoxNtNtCsdGrGZaRBwMb_3syn8generics14TypeParamBoundEINtNtCsieiGu2EXtoJ_4core7convert5AsRefBE_E6as_refINtNtNtB1v_3ops8function6FnOnceTRB5_EE9call_onceBI_, symObjAddr: 0x19BA0, symBinAddr: 0x86960, symSize: 0x20 }
  - { offset: 0xCCBC6, size: 0x8, addend: 0x0, symName: __RNvYNvYINtNtCslJiobkLta79_5alloc5boxed3BoxNtNtCsdGrGZaRBwMb_3syn8generics14WherePredicateEINtNtCsieiGu2EXtoJ_4core7convert5AsRefBE_E6as_refINtNtNtB1v_3ops8function6FnOnceTRB5_EE9call_onceBI_, symObjAddr: 0x19BC0, symBinAddr: 0x86980, symSize: 0x20 }
  - { offset: 0xCCC0A, size: 0x8, addend: 0x0, symName: __RNvYNvYINtNtCslJiobkLta79_5alloc5boxed3BoxNtNtCsdGrGZaRBwMb_3syn8lifetime8LifetimeEINtNtCsieiGu2EXtoJ_4core7convert5AsRefBE_E6as_refINtNtNtB1o_3ops8function6FnOnceTRB5_EE9call_onceBI_, symObjAddr: 0x19BE0, symBinAddr: 0x869A0, symSize: 0x20 }
  - { offset: 0xCCC4E, size: 0x8, addend: 0x0, symName: __RNvYNvYNtNtCsdGrGZaRBwMb_3syn4expr5IndexNtNtB9_5parse5Parse5parseINtNtNtCsieiGu2EXtoJ_4core3ops8function6FnOnceTRNtBE_11ParseBufferEE9call_onceB9_, symObjAddr: 0x19C00, symBinAddr: 0x869C0, symSize: 0x30 }
  - { offset: 0xCCE4B, size: 0x8, addend: 0x0, symName: __RNvNvNtNtCsieiGu2EXtoJ_4core5slice3raw14from_raw_parts18precondition_checkCsdGrGZaRBwMb_3syn, symObjAddr: 0x144C0, symBinAddr: 0x82CD0, symSize: 0x260 }
  - { offset: 0xCD019, size: 0x8, addend: 0x0, symName: __RNvNvNtNtCsieiGu2EXtoJ_4core5slice3raw18from_raw_parts_mut18precondition_checkCsdGrGZaRBwMb_3syn, symObjAddr: 0x14720, symBinAddr: 0x82F30, symSize: 0x260 }
  - { offset: 0xCD5BA, size: 0x8, addend: 0x0, symName: __RNvMNtCsieiGu2EXtoJ_4core5sliceSNtCsaKzlTDPUHDb_11proc_macro24Span4iterCsdGrGZaRBwMb_3syn, symObjAddr: 0xD620, symBinAddr: 0x7C040, symSize: 0x20 }
  - { offset: 0xCD5F1, size: 0x8, addend: 0x0, symName: __RNvMNtCsieiGu2EXtoJ_4core5sliceSNtCsaKzlTDPUHDb_11proc_macro24Span4lastCsdGrGZaRBwMb_3syn, symObjAddr: 0xD640, symBinAddr: 0x7C060, symSize: 0x50 }
  - { offset: 0xCE3C4, size: 0x8, addend: 0x0, symName: __RNvMNtNtCsieiGu2EXtoJ_4core4char7methodsc11encode_utf8CsdGrGZaRBwMb_3syn, symObjAddr: 0xDBF0, symBinAddr: 0x7C610, symSize: 0x30 }
  - { offset: 0xCE401, size: 0x8, addend: 0x0, symName: __RNvMNtNtCsieiGu2EXtoJ_4core4char7methodsc8len_utf8CsdGrGZaRBwMb_3syn, symObjAddr: 0xDC80, symBinAddr: 0x7C640, symSize: 0x20 }
  - { offset: 0xCE42F, size: 0x8, addend: 0x0, symName: __RNvMNtNtCsieiGu2EXtoJ_4core4char7methodsc8to_digitCsdGrGZaRBwMb_3syn, symObjAddr: 0xDCA0, symBinAddr: 0x7C660, symSize: 0xF0 }
  - { offset: 0xCE52F, size: 0x8, addend: 0x0, symName: __RNvNtNtCsieiGu2EXtoJ_4core4char7methods15encode_utf8_rawCsdGrGZaRBwMb_3syn, symObjAddr: 0x14240, symBinAddr: 0x82A50, symSize: 0xE0 }
  - { offset: 0xCE62F, size: 0x8, addend: 0x0, symName: __RNvNtNtCsieiGu2EXtoJ_4core4char7methods25encode_utf8_raw_uncheckedCsdGrGZaRBwMb_3syn, symObjAddr: 0x14320, symBinAddr: 0x82B30, symSize: 0x140 }
  - { offset: 0xCE7D3, size: 0x8, addend: 0x0, symName: __RNvNtNtCsieiGu2EXtoJ_4core4char7methods8len_utf8CsdGrGZaRBwMb_3syn, symObjAddr: 0x14460, symBinAddr: 0x82C70, symSize: 0x60 }
  - { offset: 0xCEBBA, size: 0x8, addend: 0x0, symName: __RNvXs1_NtCsieiGu2EXtoJ_4core7convertNtCsaKzlTDPUHDb_11proc_macro25IdentINtB5_4IntoBy_E4intoCsdGrGZaRBwMb_3syn, symObjAddr: 0x154E0, symBinAddr: 0x83790, symSize: 0x20 }
  - { offset: 0xCEC18, size: 0x8, addend: 0x0, symName: __RNvXs1_NtCsieiGu2EXtoJ_4core7convertNtCsaKzlTDPUHDb_11proc_macro25IdentINtB5_4IntoNtNtCsdGrGZaRBwMb_3syn4path11PathSegmentE4intoB1m_, symObjAddr: 0x15500, symBinAddr: 0x837B0, symSize: 0x20 }
  - { offset: 0xCECC5, size: 0x8, addend: 0x0, symName: __RNvXs7_NtNtCsieiGu2EXtoJ_4core3cmp5implsRNtCsaKzlTDPUHDb_11proc_macro25IdentINtB7_9PartialEqReE2eqCsdGrGZaRBwMb_3syn, symObjAddr: 0x16470, symBinAddr: 0x83A70, symSize: 0x30 }
  - { offset: 0xCED1B, size: 0x8, addend: 0x0, symName: __RNvYNtCsaKzlTDPUHDb_11proc_macro27SpacingNtNtCsieiGu2EXtoJ_4core3cmp9PartialEq2neCsdGrGZaRBwMb_3syn, symObjAddr: 0x19410, symBinAddr: 0x86460, symSize: 0x20 }
  - { offset: 0xCF314, size: 0x8, addend: 0x0, symName: __RINvMsG_CsaKzlTDPUHDb_11proc_macro2NtB6_7Literal7subspanINtNtNtCsieiGu2EXtoJ_4core3ops5range5RangejEECsdGrGZaRBwMb_3syn, symObjAddr: 0x0, symBinAddr: 0x6FC70, symSize: 0x30 }
  - { offset: 0xCF35E, size: 0x8, addend: 0x0, symName: __RINvXNtCs9OU1sGv5X54_5quote3extNtCsaKzlTDPUHDb_11proc_macro211TokenStreamNtB3_14TokenStreamExt10append_allINtNtCsdGrGZaRBwMb_3syn10punctuated5PairsNtNtB1L_2ty4TypeNtNtB1L_5token5CommaEEB1L_, symObjAddr: 0xADD0, symBinAddr: 0x79C80, symSize: 0x40 }
  - { offset: 0xCF39E, size: 0x8, addend: 0x0, symName: __RINvXNtCs9OU1sGv5X54_5quote3extNtCsaKzlTDPUHDb_11proc_macro211TokenStreamNtB3_14TokenStreamExt10append_allINtNtCsdGrGZaRBwMb_3syn10punctuated5PairsNtNtB1L_2ty9BareFnArgNtNtB1L_5token5CommaEEB1L_, symObjAddr: 0xAE10, symBinAddr: 0x79CC0, symSize: 0x40 }
  - { offset: 0xCF3DE, size: 0x8, addend: 0x0, symName: __RINvXNtCs9OU1sGv5X54_5quote3extNtCsaKzlTDPUHDb_11proc_macro211TokenStreamNtB3_14TokenStreamExt10append_allINtNtCsdGrGZaRBwMb_3syn10punctuated5PairsNtNtB1L_3pat3PatNtNtB1L_5token2OrEEB1L_, symObjAddr: 0xAE50, symBinAddr: 0x79D00, symSize: 0x40 }
  - { offset: 0xCF41E, size: 0x8, addend: 0x0, symName: __RINvXNtCs9OU1sGv5X54_5quote3extNtCsaKzlTDPUHDb_11proc_macro211TokenStreamNtB3_14TokenStreamExt10append_allINtNtCsdGrGZaRBwMb_3syn10punctuated5PairsNtNtB1L_3pat3PatNtNtB1L_5token5CommaEEB1L_, symObjAddr: 0xAE90, symBinAddr: 0x79D40, symSize: 0x40 }
  - { offset: 0xCF45E, size: 0x8, addend: 0x0, symName: __RINvXNtCs9OU1sGv5X54_5quote3extNtCsaKzlTDPUHDb_11proc_macro211TokenStreamNtB3_14TokenStreamExt10append_allINtNtCsdGrGZaRBwMb_3syn10punctuated5PairsNtNtB1L_3pat8FieldPatNtNtB1L_5token5CommaEEB1L_, symObjAddr: 0xAED0, symBinAddr: 0x79D80, symSize: 0x40 }
  - { offset: 0xCF49E, size: 0x8, addend: 0x0, symName: __RINvXNtCs9OU1sGv5X54_5quote3extNtCsaKzlTDPUHDb_11proc_macro211TokenStreamNtB3_14TokenStreamExt10append_allINtNtCsdGrGZaRBwMb_3syn10punctuated5PairsNtNtB1L_4data5FieldNtNtB1L_5token5CommaEEB1L_, symObjAddr: 0xAF10, symBinAddr: 0x79DC0, symSize: 0x40 }
  - { offset: 0xCF4DE, size: 0x8, addend: 0x0, symName: __RINvXNtCs9OU1sGv5X54_5quote3extNtCsaKzlTDPUHDb_11proc_macro211TokenStreamNtB3_14TokenStreamExt10append_allINtNtCsdGrGZaRBwMb_3syn10punctuated5PairsNtNtB1L_4data7VariantNtNtB1L_5token5CommaEEB1L_, symObjAddr: 0xAF50, symBinAddr: 0x79E00, symSize: 0x40 }
  - { offset: 0xCF51E, size: 0x8, addend: 0x0, symName: __RINvXNtCs9OU1sGv5X54_5quote3extNtCsaKzlTDPUHDb_11proc_macro211TokenStreamNtB3_14TokenStreamExt10append_allINtNtCsdGrGZaRBwMb_3syn10punctuated5PairsNtNtB1L_4expr10FieldValueNtNtB1L_5token5CommaEEB1L_, symObjAddr: 0xAF90, symBinAddr: 0x79E40, symSize: 0x40 }
  - { offset: 0xCF55E, size: 0x8, addend: 0x0, symName: __RINvXNtCs9OU1sGv5X54_5quote3extNtCsaKzlTDPUHDb_11proc_macro211TokenStreamNtB3_14TokenStreamExt10append_allINtNtCsdGrGZaRBwMb_3syn10punctuated5PairsNtNtB1L_4expr4ExprNtNtB1L_5token5CommaEEB1L_, symObjAddr: 0xAFD0, symBinAddr: 0x79E80, symSize: 0x40 }
  - { offset: 0xCF59E, size: 0x8, addend: 0x0, symName: __RINvXNtCs9OU1sGv5X54_5quote3extNtCsaKzlTDPUHDb_11proc_macro211TokenStreamNtB3_14TokenStreamExt10append_allINtNtCsdGrGZaRBwMb_3syn10punctuated5PairsNtNtB1L_4item5FnArgNtNtB1L_5token5CommaEEB1L_, symObjAddr: 0xB010, symBinAddr: 0x79EC0, symSize: 0x40 }
  - { offset: 0xCF5DE, size: 0x8, addend: 0x0, symName: __RINvXNtCs9OU1sGv5X54_5quote3extNtCsaKzlTDPUHDb_11proc_macro211TokenStreamNtB3_14TokenStreamExt10append_allINtNtCsdGrGZaRBwMb_3syn10punctuated5PairsNtNtB1L_4item7UseTreeNtNtB1L_5token5CommaEEB1L_, symObjAddr: 0xB050, symBinAddr: 0x79F00, symSize: 0x40 }
  - { offset: 0xCF61E, size: 0x8, addend: 0x0, symName: __RINvXNtCs9OU1sGv5X54_5quote3extNtCsaKzlTDPUHDb_11proc_macro211TokenStreamNtB3_14TokenStreamExt10append_allINtNtCsdGrGZaRBwMb_3syn10punctuated5PairsNtNtB1L_8generics12GenericParamNtNtB1L_5token5CommaEEB1L_, symObjAddr: 0xB090, symBinAddr: 0x79F40, symSize: 0x40 }
  - { offset: 0xCF65E, size: 0x8, addend: 0x0, symName: __RINvXNtCs9OU1sGv5X54_5quote3extNtCsaKzlTDPUHDb_11proc_macro211TokenStreamNtB3_14TokenStreamExt10append_allINtNtCsdGrGZaRBwMb_3syn10punctuated5PairsNtNtB1L_8generics14TypeParamBoundNtNtB1L_5token4PlusEEB1L_, symObjAddr: 0xB0D0, symBinAddr: 0x79F80, symSize: 0x40 }
  - { offset: 0xCF69E, size: 0x8, addend: 0x0, symName: __RINvXNtCs9OU1sGv5X54_5quote3extNtCsaKzlTDPUHDb_11proc_macro211TokenStreamNtB3_14TokenStreamExt10append_allINtNtCsdGrGZaRBwMb_3syn10punctuated5PairsNtNtB1L_8generics14WherePredicateNtNtB1L_5token5CommaEEB1L_, symObjAddr: 0xB110, symBinAddr: 0x79FC0, symSize: 0x40 }
  - { offset: 0xCF6DE, size: 0x8, addend: 0x0, symName: __RINvXNtCs9OU1sGv5X54_5quote3extNtCsaKzlTDPUHDb_11proc_macro211TokenStreamNtB3_14TokenStreamExt10append_allINtNtCsdGrGZaRBwMb_3syn10punctuated5PairsNtNtB1L_8lifetime8LifetimeNtNtB1L_5token4PlusEEB1L_, symObjAddr: 0xB150, symBinAddr: 0x7A000, symSize: 0x40 }
  - { offset: 0xCF71E, size: 0x8, addend: 0x0, symName: __RINvXNtCs9OU1sGv5X54_5quote3extNtCsaKzlTDPUHDb_11proc_macro211TokenStreamNtB3_14TokenStreamExt10append_allINtNtNtNtCsieiGu2EXtoJ_4core4iter8adapters6filter6FilterINtNtNtB1P_5slice4iter4IterNtNtCsdGrGZaRBwMb_3syn4attr9AttributeEFG0_RL1_RL0_B31_EbEEB35_, symObjAddr: 0xB190, symBinAddr: 0x7A040, symSize: 0x40 }
  - { offset: 0xCF75E, size: 0x8, addend: 0x0, symName: __RINvXNtCs9OU1sGv5X54_5quote3extNtCsaKzlTDPUHDb_11proc_macro211TokenStreamNtB3_14TokenStreamExt10append_allRINtNtCslJiobkLta79_5alloc3vec3VecNtNtCsdGrGZaRBwMb_3syn4attr9AttributeEEB2i_, symObjAddr: 0xB1D0, symBinAddr: 0x7A080, symSize: 0x40 }
  - { offset: 0xCF79D, size: 0x8, addend: 0x0, symName: __RINvXNtCs9OU1sGv5X54_5quote3extNtCsaKzlTDPUHDb_11proc_macro211TokenStreamNtB3_14TokenStreamExt10append_allRINtNtCslJiobkLta79_5alloc3vec3VecNtNtCsdGrGZaRBwMb_3syn4item11ForeignItemEEB2i_, symObjAddr: 0xB210, symBinAddr: 0x7A0C0, symSize: 0x40 }
  - { offset: 0xCF7DC, size: 0x8, addend: 0x0, symName: __RINvXNtCs9OU1sGv5X54_5quote3extNtCsaKzlTDPUHDb_11proc_macro211TokenStreamNtB3_14TokenStreamExt10append_allRINtNtCslJiobkLta79_5alloc3vec3VecNtNtCsdGrGZaRBwMb_3syn4item4ItemEEB2i_, symObjAddr: 0xB250, symBinAddr: 0x7A100, symSize: 0x40 }
  - { offset: 0xCF81B, size: 0x8, addend: 0x0, symName: __RINvXNtCs9OU1sGv5X54_5quote3extNtCsaKzlTDPUHDb_11proc_macro211TokenStreamNtB3_14TokenStreamExt10append_allRINtNtCslJiobkLta79_5alloc3vec3VecNtNtCsdGrGZaRBwMb_3syn4item8ImplItemEEB2i_, symObjAddr: 0xB290, symBinAddr: 0x7A140, symSize: 0x40 }
  - { offset: 0xCF85A, size: 0x8, addend: 0x0, symName: __RINvXNtCs9OU1sGv5X54_5quote3extNtCsaKzlTDPUHDb_11proc_macro211TokenStreamNtB3_14TokenStreamExt10append_allRINtNtCslJiobkLta79_5alloc3vec3VecNtNtCsdGrGZaRBwMb_3syn4item9TraitItemEEB2i_, symObjAddr: 0xB2D0, symBinAddr: 0x7A180, symSize: 0x40 }
  - { offset: 0xCF899, size: 0x8, addend: 0x0, symName: __RINvXNtCs9OU1sGv5X54_5quote3extNtCsaKzlTDPUHDb_11proc_macro211TokenStreamNtB3_14TokenStreamExt10append_allRINtNtCslJiobkLta79_5alloc3vec3VecNtNtCsdGrGZaRBwMb_3syn4stmt4StmtEEB2i_, symObjAddr: 0xB310, symBinAddr: 0x7A1C0, symSize: 0x40 }
  - { offset: 0xCF8E4, size: 0x8, addend: 0x0, symName: __RNvXNtCs9OU1sGv5X54_5quote9to_tokensRNtNtCsdGrGZaRBwMb_3syn4stmt4StmtNtB2_8ToTokens9to_tokensBD_, symObjAddr: 0x14980, symBinAddr: 0x83190, symSize: 0x30 }
  - { offset: 0xCFB06, size: 0x8, addend: 0x0, symName: __RNvMNtNtCsdGrGZaRBwMb_3syn4stmt7parsingNtB4_5Block12parse_within, symObjAddr: 0xD690, symBinAddr: 0x7C0B0, symSize: 0x560 }
  - { offset: 0xD3C71, size: 0x8, addend: 0x0, symName: __RINvCsdGrGZaRBwMb_3syn9parse_strNtNtB2_4expr5IndexEB2_, symObjAddr: 0x0, symBinAddr: 0x869F0, symSize: 0x30 }
  - { offset: 0xD4E10, size: 0x8, addend: 0x0, symName: __RNvYNtNtCsdGrGZaRBwMb_3syn10precedence10PrecedenceNtNtCsieiGu2EXtoJ_4core3cmp10PartialOrd2geB6_, symObjAddr: 0x19D20, symBinAddr: 0x9E1E0, symSize: 0x50 }
  - { offset: 0xD4ED2, size: 0x8, addend: 0x0, symName: __RNvYNtNtCsdGrGZaRBwMb_3syn10precedence10PrecedenceNtNtCsieiGu2EXtoJ_4core3cmp10PartialOrd2gtB6_, symObjAddr: 0x19D70, symBinAddr: 0x9E230, symSize: 0x50 }
  - { offset: 0xD4F94, size: 0x8, addend: 0x0, symName: __RNvYNtNtCsdGrGZaRBwMb_3syn10precedence10PrecedenceNtNtCsieiGu2EXtoJ_4core3cmp10PartialOrd2leB6_, symObjAddr: 0x19DC0, symBinAddr: 0x9E280, symSize: 0x50 }
  - { offset: 0xD5056, size: 0x8, addend: 0x0, symName: __RNvYNtNtCsdGrGZaRBwMb_3syn10precedence10PrecedenceNtNtCsieiGu2EXtoJ_4core3cmp10PartialOrd2ltB6_, symObjAddr: 0x19E10, symBinAddr: 0x9E2D0, symSize: 0x50 }
  - { offset: 0xD511E, size: 0x8, addend: 0x0, symName: __RNvYNtNtCsdGrGZaRBwMb_3syn10precedence10PrecedenceNtNtCsieiGu2EXtoJ_4core3cmp9PartialEq2neB6_, symObjAddr: 0x19E60, symBinAddr: 0x9E320, symSize: 0x20 }
  - { offset: 0xDBA5F, size: 0x8, addend: 0x0, symName: __RNvXsp_NtCsieiGu2EXtoJ_4core6resultINtB5_6ResultANtCsaKzlTDPUHDb_11proc_macro24Spanj1_NtNtCsdGrGZaRBwMb_3syn5error5ErrorENtNtNtB7_3ops9try_trait3Try6branchB1q_, symObjAddr: 0x85E0, symBinAddr: 0x8E460, symSize: 0xB0 }
  - { offset: 0xDBADC, size: 0x8, addend: 0x0, symName: __RNvXsp_NtCsieiGu2EXtoJ_4core6resultINtB5_6ResultANtCsaKzlTDPUHDb_11proc_macro24Spanj2_NtNtCsdGrGZaRBwMb_3syn5error5ErrorENtNtNtB7_3ops9try_trait3Try6branchB1q_, symObjAddr: 0x8690, symBinAddr: 0x8E510, symSize: 0xB0 }
  - { offset: 0xDBB59, size: 0x8, addend: 0x0, symName: __RNvXsp_NtCsieiGu2EXtoJ_4core6resultINtB5_6ResultANtCsaKzlTDPUHDb_11proc_macro24Spanj3_NtNtCsdGrGZaRBwMb_3syn5error5ErrorENtNtNtB7_3ops9try_trait3Try6branchB1q_, symObjAddr: 0x8740, symBinAddr: 0x8E5C0, symSize: 0xC0 }
  - { offset: 0xDBBD6, size: 0x8, addend: 0x0, symName: __RNvXsp_NtCsieiGu2EXtoJ_4core6resultINtB5_6ResultINtNtB7_6option6OptionINtNtCslJiobkLta79_5alloc5boxed3BoxNtNtCsdGrGZaRBwMb_3syn4expr4ExprEENtNtB1J_5error5ErrorENtNtNtB7_3ops9try_trait3Try6branchB1J_, symObjAddr: 0x8800, symBinAddr: 0x8E680, symSize: 0xB0 }
  - { offset: 0xDBC53, size: 0x8, addend: 0x0, symName: __RNvXsp_NtCsieiGu2EXtoJ_4core6resultINtB5_6ResultINtNtB7_6option6OptionNtCsaKzlTDPUHDb_11proc_macro25IdentENtNtCsdGrGZaRBwMb_3syn5error5ErrorENtNtNtB7_3ops9try_trait3Try6branchB1K_, symObjAddr: 0x88B0, symBinAddr: 0x8E730, symSize: 0xC0 }
  - { offset: 0xDBCD1, size: 0x8, addend: 0x0, symName: __RNvXsp_NtCsieiGu2EXtoJ_4core6resultINtB5_6ResultINtNtB7_6option6OptionNtNtCsdGrGZaRBwMb_3syn2ty3AbiENtNtB1a_5error5ErrorENtNtNtB7_3ops9try_trait3Try6branchB1a_, symObjAddr: 0x8970, symBinAddr: 0x8E7F0, symSize: 0xC0 }
  - { offset: 0xDBD4F, size: 0x8, addend: 0x0, symName: __RNvXsp_NtCsieiGu2EXtoJ_4core6resultINtB5_6ResultINtNtB7_6option6OptionNtNtCsdGrGZaRBwMb_3syn3lit3LitENtNtB1a_5error5ErrorENtNtNtB7_3ops9try_trait3Try6branchB1a_, symObjAddr: 0x8A30, symBinAddr: 0x8E8B0, symSize: 0xC0 }
  - { offset: 0xDBDCD, size: 0x8, addend: 0x0, symName: __RNvXsp_NtCsieiGu2EXtoJ_4core6resultINtB5_6ResultINtNtB7_6option6OptionNtNtCsdGrGZaRBwMb_3syn3lit6LitStrENtNtB1a_5error5ErrorENtNtNtB7_3ops9try_trait3Try6branchB1a_, symObjAddr: 0x8AF0, symBinAddr: 0x8E970, symSize: 0xB0 }
  - { offset: 0xDBE4A, size: 0x8, addend: 0x0, symName: __RNvXsp_NtCsieiGu2EXtoJ_4core6resultINtB5_6ResultINtNtB7_6option6OptionNtNtCsdGrGZaRBwMb_3syn3lit8LitFloatENtNtB1a_5error5ErrorENtNtNtB7_3ops9try_trait3Try6branchB1a_, symObjAddr: 0x8BA0, symBinAddr: 0x8EA20, symSize: 0xB0 }
  - { offset: 0xDBEC7, size: 0x8, addend: 0x0, symName: __RNvXsp_NtCsieiGu2EXtoJ_4core6resultINtB5_6ResultINtNtB7_6option6OptionNtNtCsdGrGZaRBwMb_3syn4expr5LabelENtNtB1a_5error5ErrorENtNtNtB7_3ops9try_trait3Try6branchB1a_, symObjAddr: 0x8C50, symBinAddr: 0x8EAD0, symSize: 0xC0 }
  - { offset: 0xDBF45, size: 0x8, addend: 0x0, symName: __RNvXsp_NtCsieiGu2EXtoJ_4core6resultINtB5_6ResultINtNtB7_6option6OptionNtNtCsdGrGZaRBwMb_3syn4item10ImplItemFnENtNtB1a_5error5ErrorENtNtNtB7_3ops9try_trait3Try6branchB1a_, symObjAddr: 0x8D10, symBinAddr: 0x8EB90, symSize: 0xE0 }
  - { offset: 0xDBFC3, size: 0x8, addend: 0x0, symName: __RNvXsp_NtCsieiGu2EXtoJ_4core6resultINtB5_6ResultINtNtB7_6option6OptionNtNtCsdGrGZaRBwMb_3syn4item7ItemUseENtNtB1a_5error5ErrorENtNtNtB7_3ops9try_trait3Try6branchB1a_, symObjAddr: 0x8DF0, symBinAddr: 0x8EC70, symSize: 0xF0 }
  - { offset: 0xDC041, size: 0x8, addend: 0x0, symName: __RNvXsp_NtCsieiGu2EXtoJ_4core6resultINtB5_6ResultINtNtB7_6option6OptionNtNtCsdGrGZaRBwMb_3syn4item7UseTreeENtNtB1a_5error5ErrorENtNtNtB7_3ops9try_trait3Try6branchB1a_, symObjAddr: 0x8EE0, symBinAddr: 0x8ED60, symSize: 0xC0 }
  - { offset: 0xDC0BF, size: 0x8, addend: 0x0, symName: __RNvXsp_NtCsieiGu2EXtoJ_4core6resultINtB5_6ResultINtNtB7_6option6OptionNtNtCsdGrGZaRBwMb_3syn4item8ItemImplENtNtB1a_5error5ErrorENtNtNtB7_3ops9try_trait3Try6branchB1a_, symObjAddr: 0x8FA0, symBinAddr: 0x8EE20, symSize: 0xF0 }
  - { offset: 0xDC13D, size: 0x8, addend: 0x0, symName: __RNvXsp_NtCsieiGu2EXtoJ_4core6resultINtB5_6ResultINtNtB7_6option6OptionNtNtCsdGrGZaRBwMb_3syn4item9SignatureENtNtB1a_5error5ErrorENtNtNtB7_3ops9try_trait3Try6branchB1a_, symObjAddr: 0x9090, symBinAddr: 0x8EF10, symSize: 0xE0 }
  - { offset: 0xDC1BB, size: 0x8, addend: 0x0, symName: __RNvXsp_NtCsieiGu2EXtoJ_4core6resultINtB5_6ResultINtNtB7_6option6OptionNtNtCsdGrGZaRBwMb_3syn5token2EqENtNtB1a_5error5ErrorENtNtNtB7_3ops9try_trait3Try6branchB1a_, symObjAddr: 0x9170, symBinAddr: 0x8EFF0, symSize: 0xB0 }
  - { offset: 0xDC238, size: 0x8, addend: 0x0, symName: __RNvXsp_NtCsieiGu2EXtoJ_4core6resultINtB5_6ResultINtNtB7_6option6OptionNtNtCsdGrGZaRBwMb_3syn5token2OrENtNtB1a_5error5ErrorENtNtNtB7_3ops9try_trait3Try6branchB1a_, symObjAddr: 0x9220, symBinAddr: 0x8F0A0, symSize: 0xB0 }
  - { offset: 0xDC2B5, size: 0x8, addend: 0x0, symName: __RNvXsp_NtCsieiGu2EXtoJ_4core6resultINtB5_6ResultINtNtB7_6option6OptionNtNtCsdGrGZaRBwMb_3syn5token3BoxENtNtB1a_5error5ErrorENtNtNtB7_3ops9try_trait3Try6branchB1a_, symObjAddr: 0x92D0, symBinAddr: 0x8F150, symSize: 0xB0 }
  - { offset: 0xDC332, size: 0x8, addend: 0x0, symName: __RNvXsp_NtCsieiGu2EXtoJ_4core6resultINtB5_6ResultINtNtB7_6option6OptionNtNtCsdGrGZaRBwMb_3syn5token3DynENtNtB1a_5error5ErrorENtNtNtB7_3ops9try_trait3Try6branchB1a_, symObjAddr: 0x9380, symBinAddr: 0x8F200, symSize: 0xB0 }
  - { offset: 0xDC3AF, size: 0x8, addend: 0x0, symName: __RNvXsp_NtCsieiGu2EXtoJ_4core6resultINtB5_6ResultINtNtB7_6option6OptionNtNtCsdGrGZaRBwMb_3syn5token3MutENtNtB1a_5error5ErrorENtNtNtB7_3ops9try_trait3Try6branchB1a_, symObjAddr: 0x9430, symBinAddr: 0x8F2B0, symSize: 0xB0 }
  - { offset: 0xDC42C, size: 0x8, addend: 0x0, symName: __RNvXsp_NtCsieiGu2EXtoJ_4core6resultINtB5_6ResultINtNtB7_6option6OptionNtNtCsdGrGZaRBwMb_3syn5token3RefENtNtB1a_5error5ErrorENtNtNtB7_3ops9try_trait3Try6branchB1a_, symObjAddr: 0x94E0, symBinAddr: 0x8F360, symSize: 0xB0 }
  - { offset: 0xDC4A9, size: 0x8, addend: 0x0, symName: __RNvXsp_NtCsieiGu2EXtoJ_4core6resultINtB5_6ResultINtNtB7_6option6OptionNtNtCsdGrGZaRBwMb_3syn5token4AutoENtNtB1a_5error5ErrorENtNtNtB7_3ops9try_trait3Try6branchB1a_, symObjAddr: 0x9590, symBinAddr: 0x8F410, symSize: 0xB0 }
  - { offset: 0xDC526, size: 0x8, addend: 0x0, symName: __RNvXsp_NtCsieiGu2EXtoJ_4core6resultINtB5_6ResultINtNtB7_6option6OptionNtNtCsdGrGZaRBwMb_3syn5token4MoveENtNtB1a_5error5ErrorENtNtNtB7_3ops9try_trait3Try6branchB1a_, symObjAddr: 0x9640, symBinAddr: 0x8F4C0, symSize: 0xB0 }
  - { offset: 0xDC5A3, size: 0x8, addend: 0x0, symName: __RNvXsp_NtCsieiGu2EXtoJ_4core6resultINtB5_6ResultINtNtB7_6option6OptionNtNtCsdGrGZaRBwMb_3syn5token4PlusENtNtB1a_5error5ErrorENtNtNtB7_3ops9try_trait3Try6branchB1a_, symObjAddr: 0x96F0, symBinAddr: 0x8F570, symSize: 0xB0 }
  - { offset: 0xDC620, size: 0x8, addend: 0x0, symName: __RNvXsp_NtCsieiGu2EXtoJ_4core6resultINtB5_6ResultINtNtB7_6option6OptionNtNtCsdGrGZaRBwMb_3syn5token4SemiENtNtB1a_5error5ErrorENtNtNtB7_3ops9try_trait3Try6branchB1a_, symObjAddr: 0x97A0, symBinAddr: 0x8F620, symSize: 0xB0 }
  - { offset: 0xDC69D, size: 0x8, addend: 0x0, symName: __RNvXsp_NtCsieiGu2EXtoJ_4core6resultINtB5_6ResultINtNtB7_6option6OptionNtNtCsdGrGZaRBwMb_3syn5token4StarENtNtB1a_5error5ErrorENtNtNtB7_3ops9try_trait3Try6branchB1a_, symObjAddr: 0x9850, symBinAddr: 0x8F6D0, symSize: 0xB0 }
  - { offset: 0xDC71A, size: 0x8, addend: 0x0, symName: __RNvXsp_NtCsieiGu2EXtoJ_4core6resultINtB5_6ResultINtNtB7_6option6OptionNtNtCsdGrGZaRBwMb_3syn5token5AsyncENtNtB1a_5error5ErrorENtNtNtB7_3ops9try_trait3Try6branchB1a_, symObjAddr: 0x9900, symBinAddr: 0x8F780, symSize: 0xB0 }
  - { offset: 0xDC797, size: 0x8, addend: 0x0, symName: __RNvXsp_NtCsieiGu2EXtoJ_4core6resultINtB5_6ResultINtNtB7_6option6OptionNtNtCsdGrGZaRBwMb_3syn5token5AwaitENtNtB1a_5error5ErrorENtNtNtB7_3ops9try_trait3Try6branchB1a_, symObjAddr: 0x99B0, symBinAddr: 0x8F830, symSize: 0xB0 }
  - { offset: 0xDC814, size: 0x8, addend: 0x0, symName: __RNvXsp_NtCsieiGu2EXtoJ_4core6resultINtB5_6ResultINtNtB7_6option6OptionNtNtCsdGrGZaRBwMb_3syn5token5ColonENtNtB1a_5error5ErrorENtNtNtB7_3ops9try_trait3Try6branchB1a_, symObjAddr: 0x9A60, symBinAddr: 0x8F8E0, symSize: 0xB0 }
  - { offset: 0xDC891, size: 0x8, addend: 0x0, symName: __RNvXsp_NtCsieiGu2EXtoJ_4core6resultINtB5_6ResultINtNtB7_6option6OptionNtNtCsdGrGZaRBwMb_3syn5token5CommaENtNtB1a_5error5ErrorENtNtNtB7_3ops9try_trait3Try6branchB1a_, symObjAddr: 0x9B10, symBinAddr: 0x8F990, symSize: 0xB0 }
  - { offset: 0xDC90E, size: 0x8, addend: 0x0, symName: __RNvXsp_NtCsieiGu2EXtoJ_4core6resultINtB5_6ResultINtNtB7_6option6OptionNtNtCsdGrGZaRBwMb_3syn5token5ConstENtNtB1a_5error5ErrorENtNtNtB7_3ops9try_trait3Try6branchB1a_, symObjAddr: 0x9BC0, symBinAddr: 0x8FA40, symSize: 0xB0 }
  - { offset: 0xDC98B, size: 0x8, addend: 0x0, symName: __RNvXsp_NtCsieiGu2EXtoJ_4core6resultINtB5_6ResultINtNtB7_6option6OptionNtNtCsdGrGZaRBwMb_3syn5token6StaticENtNtB1a_5error5ErrorENtNtNtB7_3ops9try_trait3Try6branchB1a_, symObjAddr: 0x9C70, symBinAddr: 0x8FAF0, symSize: 0xB0 }
  - { offset: 0xDCA08, size: 0x8, addend: 0x0, symName: __RNvXsp_NtCsieiGu2EXtoJ_4core6resultINtB5_6ResultINtNtB7_6option6OptionNtNtCsdGrGZaRBwMb_3syn5token6UnsafeENtNtB1a_5error5ErrorENtNtNtB7_3ops9try_trait3Try6branchB1a_, symObjAddr: 0x9D20, symBinAddr: 0x8FBA0, symSize: 0xB0 }
  - { offset: 0xDCA85, size: 0x8, addend: 0x0, symName: __RNvXsp_NtCsieiGu2EXtoJ_4core6resultINtB5_6ResultINtNtB7_6option6OptionNtNtCsdGrGZaRBwMb_3syn5token7DefaultENtNtB1a_5error5ErrorENtNtNtB7_3ops9try_trait3Try6branchB1a_, symObjAddr: 0x9DD0, symBinAddr: 0x8FC50, symSize: 0xB0 }
  - { offset: 0xDCB02, size: 0x8, addend: 0x0, symName: __RNvXsp_NtCsieiGu2EXtoJ_4core6resultINtB5_6ResultINtNtB7_6option6OptionNtNtCsdGrGZaRBwMb_3syn5token7PathSepENtNtB1a_5error5ErrorENtNtNtB7_3ops9try_trait3Try6branchB1a_, symObjAddr: 0x9E80, symBinAddr: 0x8FD00, symSize: 0xC0 }
  - { offset: 0xDCB7F, size: 0x8, addend: 0x0, symName: __RNvXsp_NtCsieiGu2EXtoJ_4core6resultINtB5_6ResultINtNtB7_6option6OptionNtNtCsdGrGZaRBwMb_3syn5token8QuestionENtNtB1a_5error5ErrorENtNtNtB7_3ops9try_trait3Try6branchB1a_, symObjAddr: 0x9F40, symBinAddr: 0x8FDC0, symSize: 0xB0 }
  - { offset: 0xDCBFC, size: 0x8, addend: 0x0, symName: __RNvXsp_NtCsieiGu2EXtoJ_4core6resultINtB5_6ResultINtNtB7_6option6OptionNtNtCsdGrGZaRBwMb_3syn5token9DotDotDotENtNtB1a_5error5ErrorENtNtNtB7_3ops9try_trait3Try6branchB1a_, symObjAddr: 0x9FF0, symBinAddr: 0x8FE70, symSize: 0xC0 }
  - { offset: 0xDCC79, size: 0x8, addend: 0x0, symName: __RNvXsp_NtCsieiGu2EXtoJ_4core6resultINtB5_6ResultINtNtB7_6option6OptionNtNtCsdGrGZaRBwMb_3syn8generics10TraitBoundENtNtB1a_5error5ErrorENtNtNtB7_3ops9try_trait3Try6branchB1a_, symObjAddr: 0xA0B0, symBinAddr: 0x8FF30, symSize: 0xF0 }
  - { offset: 0xDCCF7, size: 0x8, addend: 0x0, symName: __RNvXsp_NtCsieiGu2EXtoJ_4core6resultINtB5_6ResultINtNtB7_6option6OptionNtNtCsdGrGZaRBwMb_3syn8generics11WhereClauseENtNtB1a_5error5ErrorENtNtNtB7_3ops9try_trait3Try6branchB1a_, symObjAddr: 0xA1A0, symBinAddr: 0x90020, symSize: 0xD0 }
  - { offset: 0xDCD75, size: 0x8, addend: 0x0, symName: __RNvXsp_NtCsieiGu2EXtoJ_4core6resultINtB5_6ResultINtNtB7_6option6OptionNtNtCsdGrGZaRBwMb_3syn8generics14BoundLifetimesENtNtB1a_5error5ErrorENtNtNtB7_3ops9try_trait3Try6branchB1a_, symObjAddr: 0xA270, symBinAddr: 0x900F0, symSize: 0xD0 }
  - { offset: 0xDCDF3, size: 0x8, addend: 0x0, symName: __RNvXsp_NtCsieiGu2EXtoJ_4core6resultINtB5_6ResultINtNtB7_6option6OptionNtNtCsdGrGZaRBwMb_3syn8lifetime8LifetimeENtNtB1a_5error5ErrorENtNtNtB7_3ops9try_trait3Try6branchB1a_, symObjAddr: 0xA340, symBinAddr: 0x901C0, symSize: 0xD0 }
  - { offset: 0xDCE71, size: 0x8, addend: 0x0, symName: __RNvXsp_NtCsieiGu2EXtoJ_4core6resultINtB5_6ResultINtNtB7_6option6OptionNtNtNtCsdGrGZaRBwMb_3syn3pat7parsing13PatRangeBoundENtNtB1c_5error5ErrorENtNtNtB7_3ops9try_trait3Try6branchB1c_, symObjAddr: 0xA410, symBinAddr: 0x90290, symSize: 0xF0 }
  - { offset: 0xDCEEF, size: 0x8, addend: 0x0, symName: __RNvXsp_NtCsieiGu2EXtoJ_4core6resultINtB5_6ResultINtNtB7_6option6OptionTNtNtCsdGrGZaRBwMb_3syn5token2EqNtNtB1b_2ty4TypeEENtNtB1b_5error5ErrorENtNtNtB7_3ops9try_trait3Try6branchB1b_, symObjAddr: 0xA500, symBinAddr: 0x90380, symSize: 0xE0 }
  - { offset: 0xDCF6D, size: 0x8, addend: 0x0, symName: __RNvXsp_NtCsieiGu2EXtoJ_4core6resultINtB5_6ResultINtNtCsdGrGZaRBwMb_3syn10punctuated10PunctuatedNtNtBP_2ty4TypeNtNtBP_5token5CommaENtNtBP_5error5ErrorENtNtNtB7_3ops9try_trait3Try6branchBP_, symObjAddr: 0xA5E0, symBinAddr: 0x90460, symSize: 0xE0 }
  - { offset: 0xDCFEB, size: 0x8, addend: 0x0, symName: __RNvXsp_NtCsieiGu2EXtoJ_4core6resultINtB5_6ResultINtNtCsdGrGZaRBwMb_3syn10punctuated10PunctuatedNtNtBP_4data5FieldNtNtBP_5token5CommaENtNtBP_5error5ErrorENtNtNtB7_3ops9try_trait3Try6branchBP_, symObjAddr: 0xA6C0, symBinAddr: 0x90540, symSize: 0xE0 }
  - { offset: 0xDD069, size: 0x8, addend: 0x0, symName: __RNvXsp_NtCsieiGu2EXtoJ_4core6resultINtB5_6ResultINtNtCsdGrGZaRBwMb_3syn10punctuated10PunctuatedNtNtBP_4data7VariantNtNtBP_5token5CommaENtNtBP_5error5ErrorENtNtNtB7_3ops9try_trait3Try6branchBP_, symObjAddr: 0xA7A0, symBinAddr: 0x90620, symSize: 0xE0 }
  - { offset: 0xDD0E7, size: 0x8, addend: 0x0, symName: __RNvXsp_NtCsieiGu2EXtoJ_4core6resultINtB5_6ResultINtNtCsdGrGZaRBwMb_3syn10punctuated10PunctuatedNtNtBP_4expr4ExprNtNtBP_5token5CommaENtNtBP_5error5ErrorENtNtNtB7_3ops9try_trait3Try6branchBP_, symObjAddr: 0xA880, symBinAddr: 0x90700, symSize: 0xE0 }
  - { offset: 0xDD165, size: 0x8, addend: 0x0, symName: __RNvXsp_NtCsieiGu2EXtoJ_4core6resultINtB5_6ResultINtNtCsdGrGZaRBwMb_3syn10punctuated10PunctuatedNtNtBP_8generics14TypeParamBoundNtNtBP_5token4PlusENtNtBP_5error5ErrorENtNtNtB7_3ops9try_trait3Try6branchBP_, symObjAddr: 0xA960, symBinAddr: 0x907E0, symSize: 0xE0 }
  - { offset: 0xDD1E3, size: 0x8, addend: 0x0, symName: __RNvXsp_NtCsieiGu2EXtoJ_4core6resultINtB5_6ResultINtNtCslJiobkLta79_5alloc3vec3VecNtNtCsdGrGZaRBwMb_3syn4attr9AttributeENtNtB1l_5error5ErrorENtNtNtB7_3ops9try_trait3Try6branchB1l_, symObjAddr: 0xAA40, symBinAddr: 0x908C0, symSize: 0xC0 }
  - { offset: 0xDD261, size: 0x8, addend: 0x0, symName: __RNvXsp_NtCsieiGu2EXtoJ_4core6resultINtB5_6ResultINtNtCslJiobkLta79_5alloc3vec3VecNtNtCsdGrGZaRBwMb_3syn4expr3ArmENtNtB1l_5error5ErrorENtNtNtB7_3ops9try_trait3Try6branchB1l_, symObjAddr: 0xAB00, symBinAddr: 0x90980, symSize: 0xC0 }
  - { offset: 0xDD2DF, size: 0x8, addend: 0x0, symName: __RNvXsp_NtCsieiGu2EXtoJ_4core6resultINtB5_6ResultINtNtCslJiobkLta79_5alloc3vec3VecNtNtCsdGrGZaRBwMb_3syn4stmt4StmtENtNtB1l_5error5ErrorENtNtNtB7_3ops9try_trait3Try6branchB1l_, symObjAddr: 0xABC0, symBinAddr: 0x90A40, symSize: 0xC0 }
  - { offset: 0xDD35D, size: 0x8, addend: 0x0, symName: __RNvXsp_NtCsieiGu2EXtoJ_4core6resultINtB5_6ResultINtNtCslJiobkLta79_5alloc5boxed3BoxNtNtCsdGrGZaRBwMb_3syn2ty4TypeENtNtB1n_5error5ErrorENtNtNtB7_3ops9try_trait3Try6branchB1n_, symObjAddr: 0xAC80, symBinAddr: 0x90B00, symSize: 0xB0 }
  - { offset: 0xDD3DA, size: 0x8, addend: 0x0, symName: __RNvXsp_NtCsieiGu2EXtoJ_4core6resultINtB5_6ResultINtNtCslJiobkLta79_5alloc5boxed3BoxNtNtCsdGrGZaRBwMb_3syn4expr4ExprENtNtB1n_5error5ErrorENtNtNtB7_3ops9try_trait3Try6branchB1n_, symObjAddr: 0xAD30, symBinAddr: 0x90BB0, symSize: 0xB0 }
  - { offset: 0xDD457, size: 0x8, addend: 0x0, symName: __RNvXsp_NtCsieiGu2EXtoJ_4core6resultINtB5_6ResultNtCsaKzlTDPUHDb_11proc_macro211TokenStreamNtBM_8LexErrorENtNtNtB7_3ops9try_trait3Try6branchCsdGrGZaRBwMb_3syn, symObjAddr: 0xADE0, symBinAddr: 0x90C60, symSize: 0xA0 }
  - { offset: 0xDD4D4, size: 0x8, addend: 0x0, symName: __RNvXsp_NtCsieiGu2EXtoJ_4core6resultINtB5_6ResultNtCsaKzlTDPUHDb_11proc_macro211TokenStreamNtNtCsdGrGZaRBwMb_3syn5error5ErrorENtNtNtB7_3ops9try_trait3Try6branchB1u_, symObjAddr: 0xAE80, symBinAddr: 0x90D00, symSize: 0xE0 }
  - { offset: 0xDD552, size: 0x8, addend: 0x0, symName: __RNvXsp_NtCsieiGu2EXtoJ_4core6resultINtB5_6ResultNtCsaKzlTDPUHDb_11proc_macro24SpanNtNtCsdGrGZaRBwMb_3syn5error5ErrorENtNtNtB7_3ops9try_trait3Try6branchB1m_, symObjAddr: 0xAF60, symBinAddr: 0x90DE0, symSize: 0xB0 }
  - { offset: 0xDD5CF, size: 0x8, addend: 0x0, symName: __RNvXsp_NtCsieiGu2EXtoJ_4core6resultINtB5_6ResultNtCsaKzlTDPUHDb_11proc_macro25IdentNtNtCsdGrGZaRBwMb_3syn5error5ErrorENtNtNtB7_3ops9try_trait3Try6branchB1n_, symObjAddr: 0xB010, symBinAddr: 0x90E90, symSize: 0xC0 }
  - { offset: 0xDD64D, size: 0x8, addend: 0x0, symName: __RNvXsp_NtCsieiGu2EXtoJ_4core6resultINtB5_6ResultNtNtCsdGrGZaRBwMb_3syn11restriction10VisibilityNtNtBO_5error5ErrorENtNtNtB7_3ops9try_trait3Try6branchBO_, symObjAddr: 0xB0D0, symBinAddr: 0x90F50, symSize: 0xD0 }
  - { offset: 0xDD6CB, size: 0x8, addend: 0x0, symName: __RNvXsp_NtCsieiGu2EXtoJ_4core6resultINtB5_6ResultNtNtCsdGrGZaRBwMb_3syn2op4UnOpNtNtBO_5error5ErrorENtNtNtB7_3ops9try_trait3Try6branchBO_, symObjAddr: 0xB1A0, symBinAddr: 0x91020, symSize: 0xB0 }
  - { offset: 0xDD748, size: 0x8, addend: 0x0, symName: __RNvXsp_NtCsieiGu2EXtoJ_4core6resultINtB5_6ResultNtNtCsdGrGZaRBwMb_3syn2ty10ReturnTypeNtNtBO_5error5ErrorENtNtNtB7_3ops9try_trait3Try6branchBO_, symObjAddr: 0xB250, symBinAddr: 0x910D0, symSize: 0xC0 }
  - { offset: 0xDD7C5, size: 0x8, addend: 0x0, symName: __RNvXsp_NtCsieiGu2EXtoJ_4core6resultINtB5_6ResultNtNtCsdGrGZaRBwMb_3syn2ty10TypeBareFnNtNtBO_5error5ErrorENtNtNtB7_3ops9try_trait3Try6branchBO_, symObjAddr: 0xB310, symBinAddr: 0x91190, symSize: 0xE0 }
  - { offset: 0xDD843, size: 0x8, addend: 0x0, symName: __RNvXsp_NtCsieiGu2EXtoJ_4core6resultINtB5_6ResultNtNtCsdGrGZaRBwMb_3syn2ty12BareVariadicNtNtBO_5error5ErrorENtNtNtB7_3ops9try_trait3Try6branchBO_, symObjAddr: 0xB3F0, symBinAddr: 0x91270, symSize: 0xE0 }
  - { offset: 0xDD8C1, size: 0x8, addend: 0x0, symName: __RNvXsp_NtCsieiGu2EXtoJ_4core6resultINtB5_6ResultNtNtCsdGrGZaRBwMb_3syn2ty15TypeTraitObjectNtNtBO_5error5ErrorENtNtNtB7_3ops9try_trait3Try6branchBO_, symObjAddr: 0xB4D0, symBinAddr: 0x91350, symSize: 0xD0 }
  - { offset: 0xDD93F, size: 0x8, addend: 0x0, symName: __RNvXsp_NtCsieiGu2EXtoJ_4core6resultINtB5_6ResultNtNtCsdGrGZaRBwMb_3syn2ty3AbiNtNtBO_5error5ErrorENtNtNtB7_3ops9try_trait3Try6branchBO_, symObjAddr: 0xB5A0, symBinAddr: 0x91420, symSize: 0xB0 }
  - { offset: 0xDD9BC, size: 0x8, addend: 0x0, symName: __RNvXsp_NtCsieiGu2EXtoJ_4core6resultINtB5_6ResultNtNtCsdGrGZaRBwMb_3syn2ty4TypeNtNtBO_5error5ErrorENtNtNtB7_3ops9try_trait3Try6branchBO_, symObjAddr: 0xB650, symBinAddr: 0x914D0, symSize: 0xE0 }
  - { offset: 0xDDA3A, size: 0x8, addend: 0x0, symName: __RNvXsp_NtCsieiGu2EXtoJ_4core6resultINtB5_6ResultNtNtCsdGrGZaRBwMb_3syn2ty8TypePathNtNtBO_5error5ErrorENtNtNtB7_3ops9try_trait3Try6branchBO_, symObjAddr: 0xB730, symBinAddr: 0x915B0, symSize: 0xE0 }
  - { offset: 0xDDAB8, size: 0x8, addend: 0x0, symName: __RNvXsp_NtCsieiGu2EXtoJ_4core6resultINtB5_6ResultNtNtCsdGrGZaRBwMb_3syn2ty9BareFnArgNtNtBO_5error5ErrorENtNtNtB7_3ops9try_trait3Try6branchBO_, symObjAddr: 0xB810, symBinAddr: 0x91690, symSize: 0xE0 }
  - { offset: 0xDDB36, size: 0x8, addend: 0x0, symName: __RNvXsp_NtCsieiGu2EXtoJ_4core6resultINtB5_6ResultNtNtCsdGrGZaRBwMb_3syn2ty9TypeGroupNtNtBO_5error5ErrorENtNtNtB7_3ops9try_trait3Try6branchBO_, symObjAddr: 0xB8F0, symBinAddr: 0x91770, symSize: 0xB0 }
  - { offset: 0xDDBB3, size: 0x8, addend: 0x0, symName: __RNvXsp_NtCsieiGu2EXtoJ_4core6resultINtB5_6ResultNtNtCsdGrGZaRBwMb_3syn3lit3LitNtNtBO_5error5ErrorENtNtNtB7_3ops9try_trait3Try6branchBO_, symObjAddr: 0xB9A0, symBinAddr: 0x91820, symSize: 0xC0 }
  - { offset: 0xDDC31, size: 0x8, addend: 0x0, symName: __RNvXsp_NtCsieiGu2EXtoJ_4core6resultINtB5_6ResultNtNtCsdGrGZaRBwMb_3syn3lit6LitIntNtNtBO_5error5ErrorENtNtNtB7_3ops9try_trait3Try6branchBO_, symObjAddr: 0xBA60, symBinAddr: 0x918E0, symSize: 0xB0 }
  - { offset: 0xDDCAE, size: 0x8, addend: 0x0, symName: __RNvXsp_NtCsieiGu2EXtoJ_4core6resultINtB5_6ResultNtNtCsdGrGZaRBwMb_3syn3lit6LitStrNtNtBO_5error5ErrorENtNtNtB7_3ops9try_trait3Try6branchBO_, symObjAddr: 0xBB10, symBinAddr: 0x91990, symSize: 0xB0 }
  - { offset: 0xDDD2B, size: 0x8, addend: 0x0, symName: __RNvXsp_NtCsieiGu2EXtoJ_4core6resultINtB5_6ResultNtNtCsdGrGZaRBwMb_3syn3lit8LitFloatNtNtBO_5error5ErrorENtNtNtB7_3ops9try_trait3Try6branchBO_, symObjAddr: 0xBBC0, symBinAddr: 0x91A40, symSize: 0xB0 }
  - { offset: 0xDDDA8, size: 0x8, addend: 0x0, symName: __RNvXsp_NtCsieiGu2EXtoJ_4core6resultINtB5_6ResultNtNtCsdGrGZaRBwMb_3syn3mac5MacroNtNtBO_5error5ErrorENtNtNtB7_3ops9try_trait3Try6branchBO_, symObjAddr: 0xBC70, symBinAddr: 0x91AF0, symSize: 0xF0 }
  - { offset: 0xDDE26, size: 0x8, addend: 0x0, symName: __RNvXsp_NtCsieiGu2EXtoJ_4core6resultINtB5_6ResultNtNtCsdGrGZaRBwMb_3syn3pat3PatNtNtBO_5error5ErrorENtNtNtB7_3ops9try_trait3Try6branchBO_, symObjAddr: 0xBD60, symBinAddr: 0x91BE0, symSize: 0xF0 }
  - { offset: 0xDDEA4, size: 0x8, addend: 0x0, symName: __RNvXsp_NtCsieiGu2EXtoJ_4core6resultINtB5_6ResultNtNtCsdGrGZaRBwMb_3syn3pat8FieldPatNtNtBO_5error5ErrorENtNtNtB7_3ops9try_trait3Try6branchBO_, symObjAddr: 0xBE50, symBinAddr: 0x91CD0, symSize: 0xD0 }
  - { offset: 0xDDF22, size: 0x8, addend: 0x0, symName: __RNvXsp_NtCsieiGu2EXtoJ_4core6resultINtB5_6ResultNtNtCsdGrGZaRBwMb_3syn4attr4MetaNtNtBO_5error5ErrorENtNtNtB7_3ops9try_trait3Try6branchBO_, symObjAddr: 0xBF20, symBinAddr: 0x91DA0, symSize: 0xE0 }
  - { offset: 0xDDFA0, size: 0x8, addend: 0x0, symName: __RNvXsp_NtCsieiGu2EXtoJ_4core6resultINtB5_6ResultNtNtCsdGrGZaRBwMb_3syn4attr9AttributeNtNtBO_5error5ErrorENtNtNtB7_3ops9try_trait3Try6branchBO_, symObjAddr: 0xC000, symBinAddr: 0x91E80, symSize: 0xE0 }
  - { offset: 0xDE01E, size: 0x8, addend: 0x0, symName: __RNvXsp_NtCsieiGu2EXtoJ_4core6resultINtB5_6ResultNtNtCsdGrGZaRBwMb_3syn4data11FieldsNamedNtNtBO_5error5ErrorENtNtNtB7_3ops9try_trait3Try6branchBO_, symObjAddr: 0xC0E0, symBinAddr: 0x91F60, symSize: 0xD0 }
  - { offset: 0xDE09C, size: 0x8, addend: 0x0, symName: __RNvXsp_NtCsieiGu2EXtoJ_4core6resultINtB5_6ResultNtNtCsdGrGZaRBwMb_3syn4data13FieldsUnnamedNtNtBO_5error5ErrorENtNtNtB7_3ops9try_trait3Try6branchBO_, symObjAddr: 0xC1B0, symBinAddr: 0x92030, symSize: 0xD0 }
  - { offset: 0xDE11A, size: 0x8, addend: 0x0, symName: __RNvXsp_NtCsieiGu2EXtoJ_4core6resultINtB5_6ResultNtNtCsdGrGZaRBwMb_3syn4data5FieldNtNtBO_5error5ErrorENtNtNtB7_3ops9try_trait3Try6branchBO_, symObjAddr: 0xC280, symBinAddr: 0x92100, symSize: 0xE0 }
  - { offset: 0xDE198, size: 0x8, addend: 0x0, symName: __RNvXsp_NtCsieiGu2EXtoJ_4core6resultINtB5_6ResultNtNtCsdGrGZaRBwMb_3syn4data7VariantNtNtBO_5error5ErrorENtNtNtB7_3ops9try_trait3Try6branchBO_, symObjAddr: 0xC360, symBinAddr: 0x921E0, symSize: 0xE0 }
  - { offset: 0xDE216, size: 0x8, addend: 0x0, symName: __RNvXsp_NtCsieiGu2EXtoJ_4core6resultINtB5_6ResultNtNtCsdGrGZaRBwMb_3syn4expr10ExprUnsafeNtNtBO_5error5ErrorENtNtNtB7_3ops9try_trait3Try6branchBO_, symObjAddr: 0xC440, symBinAddr: 0x922C0, symSize: 0xE0 }
  - { offset: 0xDE294, size: 0x8, addend: 0x0, symName: __RNvXsp_NtCsieiGu2EXtoJ_4core6resultINtB5_6ResultNtNtCsdGrGZaRBwMb_3syn4expr10FieldValueNtNtBO_5error5ErrorENtNtNtB7_3ops9try_trait3Try6branchBO_, symObjAddr: 0xC520, symBinAddr: 0x923A0, symSize: 0xE0 }
  - { offset: 0xDE312, size: 0x8, addend: 0x0, symName: __RNvXsp_NtCsieiGu2EXtoJ_4core6resultINtB5_6ResultNtNtCsdGrGZaRBwMb_3syn4expr11ExprForLoopNtNtBO_5error5ErrorENtNtNtB7_3ops9try_trait3Try6branchBO_, symObjAddr: 0xC600, symBinAddr: 0x92480, symSize: 0xF0 }
  - { offset: 0xDE390, size: 0x8, addend: 0x0, symName: __RNvXsp_NtCsieiGu2EXtoJ_4core6resultINtB5_6ResultNtNtCsdGrGZaRBwMb_3syn4expr11RangeLimitsNtNtBO_5error5ErrorENtNtNtB7_3ops9try_trait3Try6branchBO_, symObjAddr: 0xC6F0, symBinAddr: 0x92570, symSize: 0xC0 }
  - { offset: 0xDE40D, size: 0x8, addend: 0x0, symName: __RNvXsp_NtCsieiGu2EXtoJ_4core6resultINtB5_6ResultNtNtCsdGrGZaRBwMb_3syn4expr12ExprTryBlockNtNtBO_5error5ErrorENtNtNtB7_3ops9try_trait3Try6branchBO_, symObjAddr: 0xC7B0, symBinAddr: 0x92630, symSize: 0xE0 }
  - { offset: 0xDE48B, size: 0x8, addend: 0x0, symName: __RNvXsp_NtCsieiGu2EXtoJ_4core6resultINtB5_6ResultNtNtCsdGrGZaRBwMb_3syn4expr3ArmNtNtBO_5error5ErrorENtNtNtB7_3ops9try_trait3Try6branchBO_, symObjAddr: 0xC940, symBinAddr: 0x92710, symSize: 0xF0 }
  - { offset: 0xDE509, size: 0x8, addend: 0x0, symName: __RNvXsp_NtCsieiGu2EXtoJ_4core6resultINtB5_6ResultNtNtCsdGrGZaRBwMb_3syn4expr4ExprNtNtBO_5error5ErrorENtNtNtB7_3ops9try_trait3Try6branchBO_, symObjAddr: 0xCA30, symBinAddr: 0x92800, symSize: 0xE0 }
  - { offset: 0xDE587, size: 0x8, addend: 0x0, symName: __RNvXsp_NtCsieiGu2EXtoJ_4core6resultINtB5_6ResultNtNtCsdGrGZaRBwMb_3syn4expr5IndexNtNtBO_5error5ErrorENtNtNtB7_3ops9try_trait3Try6branchBO_, symObjAddr: 0xCB10, symBinAddr: 0x928E0, symSize: 0xB0 }
  - { offset: 0xDE604, size: 0x8, addend: 0x0, symName: __RNvXsp_NtCsieiGu2EXtoJ_4core6resultINtB5_6ResultNtNtCsdGrGZaRBwMb_3syn4expr5LabelNtNtBO_5error5ErrorENtNtNtB7_3ops9try_trait3Try6branchBO_, symObjAddr: 0xCBC0, symBinAddr: 0x92990, symSize: 0xC0 }
  - { offset: 0xDE682, size: 0x8, addend: 0x0, symName: __RNvXsp_NtCsieiGu2EXtoJ_4core6resultINtB5_6ResultNtNtCsdGrGZaRBwMb_3syn4expr6ExprIfNtNtBO_5error5ErrorENtNtNtB7_3ops9try_trait3Try6branchBO_, symObjAddr: 0xCC80, symBinAddr: 0x92A50, symSize: 0xF0 }
  - { offset: 0xDE700, size: 0x8, addend: 0x0, symName: __RNvXsp_NtCsieiGu2EXtoJ_4core6resultINtB5_6ResultNtNtCsdGrGZaRBwMb_3syn4expr6MemberNtNtBO_5error5ErrorENtNtNtB7_3ops9try_trait3Try6branchBO_, symObjAddr: 0xCD70, symBinAddr: 0x92B40, symSize: 0xC0 }
  - { offset: 0xDE77E, size: 0x8, addend: 0x0, symName: __RNvXsp_NtCsieiGu2EXtoJ_4core6resultINtB5_6ResultNtNtCsdGrGZaRBwMb_3syn4expr7ExprLitNtNtBO_5error5ErrorENtNtNtB7_3ops9try_trait3Try6branchBO_, symObjAddr: 0xCE30, symBinAddr: 0x92C00, symSize: 0xD0 }
  - { offset: 0xDE7FC, size: 0x8, addend: 0x0, symName: __RNvXsp_NtCsieiGu2EXtoJ_4core6resultINtB5_6ResultNtNtCsdGrGZaRBwMb_3syn4expr8ExprLoopNtNtBO_5error5ErrorENtNtNtB7_3ops9try_trait3Try6branchBO_, symObjAddr: 0xCF00, symBinAddr: 0x92CD0, symSize: 0xF0 }
  - { offset: 0xDE87A, size: 0x8, addend: 0x0, symName: __RNvXsp_NtCsieiGu2EXtoJ_4core6resultINtB5_6ResultNtNtCsdGrGZaRBwMb_3syn4expr8ExprPathNtNtBO_5error5ErrorENtNtNtB7_3ops9try_trait3Try6branchBO_, symObjAddr: 0xCFF0, symBinAddr: 0x92DC0, symSize: 0xF0 }
  - { offset: 0xDE8F8, size: 0x8, addend: 0x0, symName: __RNvXsp_NtCsieiGu2EXtoJ_4core6resultINtB5_6ResultNtNtCsdGrGZaRBwMb_3syn4expr9ExprBlockNtNtBO_5error5ErrorENtNtNtB7_3ops9try_trait3Try6branchBO_, symObjAddr: 0xD0E0, symBinAddr: 0x92EB0, symSize: 0xF0 }
  - { offset: 0xDE976, size: 0x8, addend: 0x0, symName: __RNvXsp_NtCsieiGu2EXtoJ_4core6resultINtB5_6ResultNtNtCsdGrGZaRBwMb_3syn4expr9ExprConstNtNtBO_5error5ErrorENtNtNtB7_3ops9try_trait3Try6branchBO_, symObjAddr: 0xD1D0, symBinAddr: 0x92FA0, symSize: 0xE0 }
  - { offset: 0xDE9F4, size: 0x8, addend: 0x0, symName: __RNvXsp_NtCsieiGu2EXtoJ_4core6resultINtB5_6ResultNtNtCsdGrGZaRBwMb_3syn4expr9ExprMatchNtNtBO_5error5ErrorENtNtNtB7_3ops9try_trait3Try6branchBO_, symObjAddr: 0xD2B0, symBinAddr: 0x93080, symSize: 0xE0 }
  - { offset: 0xDEA72, size: 0x8, addend: 0x0, symName: __RNvXsp_NtCsieiGu2EXtoJ_4core6resultINtB5_6ResultNtNtCsdGrGZaRBwMb_3syn4expr9ExprWhileNtNtBO_5error5ErrorENtNtNtB7_3ops9try_trait3Try6branchBO_, symObjAddr: 0xD390, symBinAddr: 0x93160, symSize: 0xF0 }
  - { offset: 0xDEAF0, size: 0x8, addend: 0x0, symName: __RNvXsp_NtCsieiGu2EXtoJ_4core6resultINtB5_6ResultNtNtCsdGrGZaRBwMb_3syn4item11ForeignItemNtNtBO_5error5ErrorENtNtNtB7_3ops9try_trait3Try6branchBO_, symObjAddr: 0xD560, symBinAddr: 0x93250, symSize: 0xE0 }
  - { offset: 0xDEB6E, size: 0x8, addend: 0x0, symName: __RNvXsp_NtCsieiGu2EXtoJ_4core6resultINtB5_6ResultNtNtCsdGrGZaRBwMb_3syn4item16StaticMutabilityNtNtBO_5error5ErrorENtNtNtB7_3ops9try_trait3Try6branchBO_, symObjAddr: 0xD640, symBinAddr: 0x93330, symSize: 0xB0 }
  - { offset: 0xDEBEB, size: 0x8, addend: 0x0, symName: __RNvXsp_NtCsieiGu2EXtoJ_4core6resultINtB5_6ResultNtNtCsdGrGZaRBwMb_3syn4item4ItemNtNtBO_5error5ErrorENtNtNtB7_3ops9try_trait3Try6branchBO_, symObjAddr: 0xD6F0, symBinAddr: 0x933E0, symSize: 0xE0 }
  - { offset: 0xDEC69, size: 0x8, addend: 0x0, symName: __RNvXsp_NtCsieiGu2EXtoJ_4core6resultINtB5_6ResultNtNtCsdGrGZaRBwMb_3syn4item7UseTreeNtNtBO_5error5ErrorENtNtNtB7_3ops9try_trait3Try6branchBO_, symObjAddr: 0xD7D0, symBinAddr: 0x934C0, symSize: 0xC0 }
  - { offset: 0xDECE7, size: 0x8, addend: 0x0, symName: __RNvXsp_NtCsieiGu2EXtoJ_4core6resultINtB5_6ResultNtNtCsdGrGZaRBwMb_3syn4item8ImplItemNtNtBO_5error5ErrorENtNtNtB7_3ops9try_trait3Try6branchBO_, symObjAddr: 0xD890, symBinAddr: 0x93580, symSize: 0xE0 }
  - { offset: 0xDED65, size: 0x8, addend: 0x0, symName: __RNvXsp_NtCsieiGu2EXtoJ_4core6resultINtB5_6ResultNtNtCsdGrGZaRBwMb_3syn4item8ReceiverNtNtBO_5error5ErrorENtNtNtB7_3ops9try_trait3Try6branchBO_, symObjAddr: 0xD970, symBinAddr: 0x93660, symSize: 0xF0 }
  - { offset: 0xDEDE3, size: 0x8, addend: 0x0, symName: __RNvXsp_NtCsieiGu2EXtoJ_4core6resultINtB5_6ResultNtNtCsdGrGZaRBwMb_3syn4item9SignatureNtNtBO_5error5ErrorENtNtNtB7_3ops9try_trait3Try6branchBO_, symObjAddr: 0xDA60, symBinAddr: 0x93750, symSize: 0xE0 }
  - { offset: 0xDEE61, size: 0x8, addend: 0x0, symName: __RNvXsp_NtCsieiGu2EXtoJ_4core6resultINtB5_6ResultNtNtCsdGrGZaRBwMb_3syn4item9TraitItemNtNtBO_5error5ErrorENtNtNtB7_3ops9try_trait3Try6branchBO_, symObjAddr: 0xDB40, symBinAddr: 0x93830, symSize: 0xE0 }
  - { offset: 0xDEEDF, size: 0x8, addend: 0x0, symName: __RNvXsp_NtCsieiGu2EXtoJ_4core6resultINtB5_6ResultNtNtCsdGrGZaRBwMb_3syn4path11PathSegmentNtNtBO_5error5ErrorENtNtNtB7_3ops9try_trait3Try6branchBO_, symObjAddr: 0xDC20, symBinAddr: 0x93910, symSize: 0xF0 }
  - { offset: 0xDEF5D, size: 0x8, addend: 0x0, symName: __RNvXsp_NtCsieiGu2EXtoJ_4core6resultINtB5_6ResultNtNtCsdGrGZaRBwMb_3syn4path15GenericArgumentNtNtBO_5error5ErrorENtNtNtB7_3ops9try_trait3Try6branchBO_, symObjAddr: 0xDD10, symBinAddr: 0x93A00, symSize: 0xE0 }
  - { offset: 0xDEFDB, size: 0x8, addend: 0x0, symName: __RNvXsp_NtCsieiGu2EXtoJ_4core6resultINtB5_6ResultNtNtCsdGrGZaRBwMb_3syn4path29ParenthesizedGenericArgumentsNtNtBO_5error5ErrorENtNtNtB7_3ops9try_trait3Try6branchBO_, symObjAddr: 0xDDF0, symBinAddr: 0x93AE0, symSize: 0xD0 }
  - { offset: 0xDF059, size: 0x8, addend: 0x0, symName: __RNvXsp_NtCsieiGu2EXtoJ_4core6resultINtB5_6ResultNtNtCsdGrGZaRBwMb_3syn4path30AngleBracketedGenericArgumentsNtNtBO_5error5ErrorENtNtNtB7_3ops9try_trait3Try6branchBO_, symObjAddr: 0xDEC0, symBinAddr: 0x93BB0, symSize: 0xD0 }
  - { offset: 0xDF0D7, size: 0x8, addend: 0x0, symName: __RNvXsp_NtCsieiGu2EXtoJ_4core6resultINtB5_6ResultNtNtCsdGrGZaRBwMb_3syn4path4PathNtNtBO_5error5ErrorENtNtNtB7_3ops9try_trait3Try6branchBO_, symObjAddr: 0xDF90, symBinAddr: 0x93C80, symSize: 0xD0 }
  - { offset: 0xDF155, size: 0x8, addend: 0x0, symName: __RNvXsp_NtCsieiGu2EXtoJ_4core6resultINtB5_6ResultNtNtCsdGrGZaRBwMb_3syn4stmt4StmtNtNtBO_5error5ErrorENtNtNtB7_3ops9try_trait3Try6branchBO_, symObjAddr: 0xE060, symBinAddr: 0x93D50, symSize: 0xE0 }
  - { offset: 0xDF1D3, size: 0x8, addend: 0x0, symName: __RNvXsp_NtCsieiGu2EXtoJ_4core6resultINtB5_6ResultNtNtCsdGrGZaRBwMb_3syn4stmt5BlockNtNtBO_5error5ErrorENtNtNtB7_3ops9try_trait3Try6branchBO_, symObjAddr: 0xE140, symBinAddr: 0x93E30, symSize: 0xD0 }
  - { offset: 0xDF251, size: 0x8, addend: 0x0, symName: __RNvXsp_NtCsieiGu2EXtoJ_4core6resultINtB5_6ResultNtNtCsdGrGZaRBwMb_3syn5group5GroupNtNtBO_5error5ErrorENtNtNtB7_3ops9try_trait3Try6branchBO_, symObjAddr: 0xE210, symBinAddr: 0x93F00, symSize: 0xC0 }
  - { offset: 0xDF2CF, size: 0x8, addend: 0x0, symName: __RNvXsp_NtCsieiGu2EXtoJ_4core6resultINtB5_6ResultNtNtCsdGrGZaRBwMb_3syn5token10UnderscoreNtNtBO_5error5ErrorENtNtNtB7_3ops9try_trait3Try6branchBO_, symObjAddr: 0xE2D0, symBinAddr: 0x93FC0, symSize: 0xB0 }
  - { offset: 0xDF34C, size: 0x8, addend: 0x0, symName: __RNvXsp_NtCsieiGu2EXtoJ_4core6resultINtB5_6ResultNtNtCsdGrGZaRBwMb_3syn5token2AsNtNtBO_5error5ErrorENtNtNtB7_3ops9try_trait3Try6branchBO_, symObjAddr: 0xE380, symBinAddr: 0x94070, symSize: 0xB0 }
  - { offset: 0xDF3C9, size: 0x8, addend: 0x0, symName: __RNvXsp_NtCsieiGu2EXtoJ_4core6resultINtB5_6ResultNtNtCsdGrGZaRBwMb_3syn5token2AtNtNtBO_5error5ErrorENtNtNtB7_3ops9try_trait3Try6branchBO_, symObjAddr: 0xE430, symBinAddr: 0x94120, symSize: 0xB0 }
  - { offset: 0xDF446, size: 0x8, addend: 0x0, symName: __RNvXsp_NtCsieiGu2EXtoJ_4core6resultINtB5_6ResultNtNtCsdGrGZaRBwMb_3syn5token2EqNtNtBO_5error5ErrorENtNtNtB7_3ops9try_trait3Try6branchBO_, symObjAddr: 0xE4E0, symBinAddr: 0x941D0, symSize: 0xB0 }
  - { offset: 0xDF4C3, size: 0x8, addend: 0x0, symName: __RNvXsp_NtCsieiGu2EXtoJ_4core6resultINtB5_6ResultNtNtCsdGrGZaRBwMb_3syn5token2FnNtNtBO_5error5ErrorENtNtNtB7_3ops9try_trait3Try6branchBO_, symObjAddr: 0xE590, symBinAddr: 0x94280, symSize: 0xB0 }
  - { offset: 0xDF540, size: 0x8, addend: 0x0, symName: __RNvXsp_NtCsieiGu2EXtoJ_4core6resultINtB5_6ResultNtNtCsdGrGZaRBwMb_3syn5token2GtNtNtBO_5error5ErrorENtNtNtB7_3ops9try_trait3Try6branchBO_, symObjAddr: 0xE640, symBinAddr: 0x94330, symSize: 0xB0 }
  - { offset: 0xDF5BD, size: 0x8, addend: 0x0, symName: __RNvXsp_NtCsieiGu2EXtoJ_4core6resultINtB5_6ResultNtNtCsdGrGZaRBwMb_3syn5token2IfNtNtBO_5error5ErrorENtNtNtB7_3ops9try_trait3Try6branchBO_, symObjAddr: 0xE6F0, symBinAddr: 0x943E0, symSize: 0xB0 }
  - { offset: 0xDF63A, size: 0x8, addend: 0x0, symName: __RNvXsp_NtCsieiGu2EXtoJ_4core6resultINtB5_6ResultNtNtCsdGrGZaRBwMb_3syn5token2InNtNtBO_5error5ErrorENtNtNtB7_3ops9try_trait3Try6branchBO_, symObjAddr: 0xE7A0, symBinAddr: 0x94490, symSize: 0xB0 }
  - { offset: 0xDF6B7, size: 0x8, addend: 0x0, symName: __RNvXsp_NtCsieiGu2EXtoJ_4core6resultINtB5_6ResultNtNtCsdGrGZaRBwMb_3syn5token2LtNtNtBO_5error5ErrorENtNtNtB7_3ops9try_trait3Try6branchBO_, symObjAddr: 0xE850, symBinAddr: 0x94540, symSize: 0xB0 }
  - { offset: 0xDF734, size: 0x8, addend: 0x0, symName: __RNvXsp_NtCsieiGu2EXtoJ_4core6resultINtB5_6ResultNtNtCsdGrGZaRBwMb_3syn5token2OrNtNtBO_5error5ErrorENtNtNtB7_3ops9try_trait3Try6branchBO_, symObjAddr: 0xE900, symBinAddr: 0x945F0, symSize: 0xB0 }
  - { offset: 0xDF7B1, size: 0x8, addend: 0x0, symName: __RNvXsp_NtCsieiGu2EXtoJ_4core6resultINtB5_6ResultNtNtCsdGrGZaRBwMb_3syn5token3AndNtNtBO_5error5ErrorENtNtNtB7_3ops9try_trait3Try6branchBO_, symObjAddr: 0xE9B0, symBinAddr: 0x946A0, symSize: 0xB0 }
  - { offset: 0xDF82E, size: 0x8, addend: 0x0, symName: __RNvXsp_NtCsieiGu2EXtoJ_4core6resultINtB5_6ResultNtNtCsdGrGZaRBwMb_3syn5token3BoxNtNtBO_5error5ErrorENtNtNtB7_3ops9try_trait3Try6branchBO_, symObjAddr: 0xEA60, symBinAddr: 0x94750, symSize: 0xB0 }
  - { offset: 0xDF8AB, size: 0x8, addend: 0x0, symName: __RNvXsp_NtCsieiGu2EXtoJ_4core6resultINtB5_6ResultNtNtCsdGrGZaRBwMb_3syn5token3DotNtNtBO_5error5ErrorENtNtNtB7_3ops9try_trait3Try6branchBO_, symObjAddr: 0xEB10, symBinAddr: 0x94800, symSize: 0xB0 }
  - { offset: 0xDF928, size: 0x8, addend: 0x0, symName: __RNvXsp_NtCsieiGu2EXtoJ_4core6resultINtB5_6ResultNtNtCsdGrGZaRBwMb_3syn5token3DynNtNtBO_5error5ErrorENtNtNtB7_3ops9try_trait3Try6branchBO_, symObjAddr: 0xEBC0, symBinAddr: 0x948B0, symSize: 0xB0 }
  - { offset: 0xDF9A5, size: 0x8, addend: 0x0, symName: __RNvXsp_NtCsieiGu2EXtoJ_4core6resultINtB5_6ResultNtNtCsdGrGZaRBwMb_3syn5token3ForNtNtBO_5error5ErrorENtNtNtB7_3ops9try_trait3Try6branchBO_, symObjAddr: 0xEC70, symBinAddr: 0x94960, symSize: 0xB0 }
  - { offset: 0xDFA22, size: 0x8, addend: 0x0, symName: __RNvXsp_NtCsieiGu2EXtoJ_4core6resultINtB5_6ResultNtNtCsdGrGZaRBwMb_3syn5token3LetNtNtBO_5error5ErrorENtNtNtB7_3ops9try_trait3Try6branchBO_, symObjAddr: 0xED20, symBinAddr: 0x94A10, symSize: 0xB0 }
  - { offset: 0xDFA9F, size: 0x8, addend: 0x0, symName: __RNvXsp_NtCsieiGu2EXtoJ_4core6resultINtB5_6ResultNtNtCsdGrGZaRBwMb_3syn5token3ModNtNtBO_5error5ErrorENtNtNtB7_3ops9try_trait3Try6branchBO_, symObjAddr: 0xEDD0, symBinAddr: 0x94AC0, symSize: 0xB0 }
  - { offset: 0xDFB1C, size: 0x8, addend: 0x0, symName: __RNvXsp_NtCsieiGu2EXtoJ_4core6resultINtB5_6ResultNtNtCsdGrGZaRBwMb_3syn5token3MutNtNtBO_5error5ErrorENtNtNtB7_3ops9try_trait3Try6branchBO_, symObjAddr: 0xEE80, symBinAddr: 0x94B70, symSize: 0xB0 }
  - { offset: 0xDFB99, size: 0x8, addend: 0x0, symName: __RNvXsp_NtCsieiGu2EXtoJ_4core6resultINtB5_6ResultNtNtCsdGrGZaRBwMb_3syn5token3NotNtNtBO_5error5ErrorENtNtNtB7_3ops9try_trait3Try6branchBO_, symObjAddr: 0xEF30, symBinAddr: 0x94C20, symSize: 0xB0 }
  - { offset: 0xDFC16, size: 0x8, addend: 0x0, symName: __RNvXsp_NtCsieiGu2EXtoJ_4core6resultINtB5_6ResultNtNtCsdGrGZaRBwMb_3syn5token3PubNtNtBO_5error5ErrorENtNtNtB7_3ops9try_trait3Try6branchBO_, symObjAddr: 0xEFE0, symBinAddr: 0x94CD0, symSize: 0xB0 }
  - { offset: 0xDFC93, size: 0x8, addend: 0x0, symName: __RNvXsp_NtCsieiGu2EXtoJ_4core6resultINtB5_6ResultNtNtCsdGrGZaRBwMb_3syn5token3RawNtNtBO_5error5ErrorENtNtNtB7_3ops9try_trait3Try6branchBO_, symObjAddr: 0xF090, symBinAddr: 0x94D80, symSize: 0xB0 }
  - { offset: 0xDFD10, size: 0x8, addend: 0x0, symName: __RNvXsp_NtCsieiGu2EXtoJ_4core6resultINtB5_6ResultNtNtCsdGrGZaRBwMb_3syn5token3RefNtNtBO_5error5ErrorENtNtNtB7_3ops9try_trait3Try6branchBO_, symObjAddr: 0xF140, symBinAddr: 0x94E30, symSize: 0xB0 }
  - { offset: 0xDFD8D, size: 0x8, addend: 0x0, symName: __RNvXsp_NtCsieiGu2EXtoJ_4core6resultINtB5_6ResultNtNtCsdGrGZaRBwMb_3syn5token3TryNtNtBO_5error5ErrorENtNtNtB7_3ops9try_trait3Try6branchBO_, symObjAddr: 0xF1F0, symBinAddr: 0x94EE0, symSize: 0xB0 }
  - { offset: 0xDFE0A, size: 0x8, addend: 0x0, symName: __RNvXsp_NtCsieiGu2EXtoJ_4core6resultINtB5_6ResultNtNtCsdGrGZaRBwMb_3syn5token3UseNtNtBO_5error5ErrorENtNtNtB7_3ops9try_trait3Try6branchBO_, symObjAddr: 0xF2A0, symBinAddr: 0x94F90, symSize: 0xB0 }
  - { offset: 0xDFE87, size: 0x8, addend: 0x0, symName: __RNvXsp_NtCsieiGu2EXtoJ_4core6resultINtB5_6ResultNtNtCsdGrGZaRBwMb_3syn5token4AutoNtNtBO_5error5ErrorENtNtNtB7_3ops9try_trait3Try6branchBO_, symObjAddr: 0xF350, symBinAddr: 0x95040, symSize: 0xB0 }
  - { offset: 0xDFF04, size: 0x8, addend: 0x0, symName: __RNvXsp_NtCsieiGu2EXtoJ_4core6resultINtB5_6ResultNtNtCsdGrGZaRBwMb_3syn5token4ElseNtNtBO_5error5ErrorENtNtNtB7_3ops9try_trait3Try6branchBO_, symObjAddr: 0xF400, symBinAddr: 0x950F0, symSize: 0xB0 }
  - { offset: 0xDFF81, size: 0x8, addend: 0x0, symName: __RNvXsp_NtCsieiGu2EXtoJ_4core6resultINtB5_6ResultNtNtCsdGrGZaRBwMb_3syn5token4EnumNtNtBO_5error5ErrorENtNtNtB7_3ops9try_trait3Try6branchBO_, symObjAddr: 0xF4B0, symBinAddr: 0x951A0, symSize: 0xB0 }
  - { offset: 0xDFFFE, size: 0x8, addend: 0x0, symName: __RNvXsp_NtCsieiGu2EXtoJ_4core6resultINtB5_6ResultNtNtCsdGrGZaRBwMb_3syn5token4ImplNtNtBO_5error5ErrorENtNtNtB7_3ops9try_trait3Try6branchBO_, symObjAddr: 0xF560, symBinAddr: 0x95250, symSize: 0xB0 }
  - { offset: 0xE007B, size: 0x8, addend: 0x0, symName: __RNvXsp_NtCsieiGu2EXtoJ_4core6resultINtB5_6ResultNtNtCsdGrGZaRBwMb_3syn5token4LoopNtNtBO_5error5ErrorENtNtNtB7_3ops9try_trait3Try6branchBO_, symObjAddr: 0xF610, symBinAddr: 0x95300, symSize: 0xB0 }
  - { offset: 0xE00F8, size: 0x8, addend: 0x0, symName: __RNvXsp_NtCsieiGu2EXtoJ_4core6resultINtB5_6ResultNtNtCsdGrGZaRBwMb_3syn5token4MoveNtNtBO_5error5ErrorENtNtNtB7_3ops9try_trait3Try6branchBO_, symObjAddr: 0xF6C0, symBinAddr: 0x953B0, symSize: 0xB0 }
  - { offset: 0xE0175, size: 0x8, addend: 0x0, symName: __RNvXsp_NtCsieiGu2EXtoJ_4core6resultINtB5_6ResultNtNtCsdGrGZaRBwMb_3syn5token4PlusNtNtBO_5error5ErrorENtNtNtB7_3ops9try_trait3Try6branchBO_, symObjAddr: 0xF770, symBinAddr: 0x95460, symSize: 0xB0 }
  - { offset: 0xE01F2, size: 0x8, addend: 0x0, symName: __RNvXsp_NtCsieiGu2EXtoJ_4core6resultINtB5_6ResultNtNtCsdGrGZaRBwMb_3syn5token4SemiNtNtBO_5error5ErrorENtNtNtB7_3ops9try_trait3Try6branchBO_, symObjAddr: 0xF820, symBinAddr: 0x95510, symSize: 0xB0 }
  - { offset: 0xE026F, size: 0x8, addend: 0x0, symName: __RNvXsp_NtCsieiGu2EXtoJ_4core6resultINtB5_6ResultNtNtCsdGrGZaRBwMb_3syn5token4StarNtNtBO_5error5ErrorENtNtNtB7_3ops9try_trait3Try6branchBO_, symObjAddr: 0xF8D0, symBinAddr: 0x955C0, symSize: 0xB0 }
  - { offset: 0xE02EC, size: 0x8, addend: 0x0, symName: __RNvXsp_NtCsieiGu2EXtoJ_4core6resultINtB5_6ResultNtNtCsdGrGZaRBwMb_3syn5token4TypeNtNtBO_5error5ErrorENtNtNtB7_3ops9try_trait3Try6branchBO_, symObjAddr: 0xF980, symBinAddr: 0x95670, symSize: 0xB0 }
  - { offset: 0xE0369, size: 0x8, addend: 0x0, symName: __RNvXsp_NtCsieiGu2EXtoJ_4core6resultINtB5_6ResultNtNtCsdGrGZaRBwMb_3syn5token5AsyncNtNtBO_5error5ErrorENtNtNtB7_3ops9try_trait3Try6branchBO_, symObjAddr: 0xFA30, symBinAddr: 0x95720, symSize: 0xB0 }
  - { offset: 0xE03E6, size: 0x8, addend: 0x0, symName: __RNvXsp_NtCsieiGu2EXtoJ_4core6resultINtB5_6ResultNtNtCsdGrGZaRBwMb_3syn5token5AwaitNtNtBO_5error5ErrorENtNtNtB7_3ops9try_trait3Try6branchBO_, symObjAddr: 0xFAE0, symBinAddr: 0x957D0, symSize: 0xB0 }
  - { offset: 0xE0463, size: 0x8, addend: 0x0, symName: __RNvXsp_NtCsieiGu2EXtoJ_4core6resultINtB5_6ResultNtNtCsdGrGZaRBwMb_3syn5token5BreakNtNtBO_5error5ErrorENtNtNtB7_3ops9try_trait3Try6branchBO_, symObjAddr: 0xFB90, symBinAddr: 0x95880, symSize: 0xB0 }
  - { offset: 0xE04E0, size: 0x8, addend: 0x0, symName: __RNvXsp_NtCsieiGu2EXtoJ_4core6resultINtB5_6ResultNtNtCsdGrGZaRBwMb_3syn5token5ColonNtNtBO_5error5ErrorENtNtNtB7_3ops9try_trait3Try6branchBO_, symObjAddr: 0xFC40, symBinAddr: 0x95930, symSize: 0xB0 }
  - { offset: 0xE055D, size: 0x8, addend: 0x0, symName: __RNvXsp_NtCsieiGu2EXtoJ_4core6resultINtB5_6ResultNtNtCsdGrGZaRBwMb_3syn5token5CommaNtNtBO_5error5ErrorENtNtNtB7_3ops9try_trait3Try6branchBO_, symObjAddr: 0xFCF0, symBinAddr: 0x959E0, symSize: 0xB0 }
  - { offset: 0xE05DA, size: 0x8, addend: 0x0, symName: __RNvXsp_NtCsieiGu2EXtoJ_4core6resultINtB5_6ResultNtNtCsdGrGZaRBwMb_3syn5token5ConstNtNtBO_5error5ErrorENtNtNtB7_3ops9try_trait3Try6branchBO_, symObjAddr: 0xFDA0, symBinAddr: 0x95A90, symSize: 0xB0 }
  - { offset: 0xE0657, size: 0x8, addend: 0x0, symName: __RNvXsp_NtCsieiGu2EXtoJ_4core6resultINtB5_6ResultNtNtCsdGrGZaRBwMb_3syn5token5CrateNtNtBO_5error5ErrorENtNtNtB7_3ops9try_trait3Try6branchBO_, symObjAddr: 0xFE50, symBinAddr: 0x95B40, symSize: 0xB0 }
  - { offset: 0xE06D4, size: 0x8, addend: 0x0, symName: __RNvXsp_NtCsieiGu2EXtoJ_4core6resultINtB5_6ResultNtNtCsdGrGZaRBwMb_3syn5token5MacroNtNtBO_5error5ErrorENtNtNtB7_3ops9try_trait3Try6branchBO_, symObjAddr: 0xFF00, symBinAddr: 0x95BF0, symSize: 0xB0 }
  - { offset: 0xE0751, size: 0x8, addend: 0x0, symName: __RNvXsp_NtCsieiGu2EXtoJ_4core6resultINtB5_6ResultNtNtCsdGrGZaRBwMb_3syn5token5MatchNtNtBO_5error5ErrorENtNtNtB7_3ops9try_trait3Try6branchBO_, symObjAddr: 0xFFB0, symBinAddr: 0x95CA0, symSize: 0xB0 }
  - { offset: 0xE07CE, size: 0x8, addend: 0x0, symName: __RNvXsp_NtCsieiGu2EXtoJ_4core6resultINtB5_6ResultNtNtCsdGrGZaRBwMb_3syn5token5PoundNtNtBO_5error5ErrorENtNtNtB7_3ops9try_trait3Try6branchBO_, symObjAddr: 0x10060, symBinAddr: 0x95D50, symSize: 0xB0 }
  - { offset: 0xE084B, size: 0x8, addend: 0x0, symName: __RNvXsp_NtCsieiGu2EXtoJ_4core6resultINtB5_6ResultNtNtCsdGrGZaRBwMb_3syn5token5TraitNtNtBO_5error5ErrorENtNtNtB7_3ops9try_trait3Try6branchBO_, symObjAddr: 0x10110, symBinAddr: 0x95E00, symSize: 0xB0 }
  - { offset: 0xE08C8, size: 0x8, addend: 0x0, symName: __RNvXsp_NtCsieiGu2EXtoJ_4core6resultINtB5_6ResultNtNtCsdGrGZaRBwMb_3syn5token5UnionNtNtBO_5error5ErrorENtNtNtB7_3ops9try_trait3Try6branchBO_, symObjAddr: 0x101C0, symBinAddr: 0x95EB0, symSize: 0xB0 }
  - { offset: 0xE0945, size: 0x8, addend: 0x0, symName: __RNvXsp_NtCsieiGu2EXtoJ_4core6resultINtB5_6ResultNtNtCsdGrGZaRBwMb_3syn5token5WhereNtNtBO_5error5ErrorENtNtNtB7_3ops9try_trait3Try6branchBO_, symObjAddr: 0x10270, symBinAddr: 0x95F60, symSize: 0xB0 }
  - { offset: 0xE09C2, size: 0x8, addend: 0x0, symName: __RNvXsp_NtCsieiGu2EXtoJ_4core6resultINtB5_6ResultNtNtCsdGrGZaRBwMb_3syn5token5WhileNtNtBO_5error5ErrorENtNtNtB7_3ops9try_trait3Try6branchBO_, symObjAddr: 0x10320, symBinAddr: 0x96010, symSize: 0xB0 }
  - { offset: 0xE0A3F, size: 0x8, addend: 0x0, symName: __RNvXsp_NtCsieiGu2EXtoJ_4core6resultINtB5_6ResultNtNtCsdGrGZaRBwMb_3syn5token5YieldNtNtBO_5error5ErrorENtNtNtB7_3ops9try_trait3Try6branchBO_, symObjAddr: 0x103D0, symBinAddr: 0x960C0, symSize: 0xB0 }
  - { offset: 0xE0ABC, size: 0x8, addend: 0x0, symName: __RNvXsp_NtCsieiGu2EXtoJ_4core6resultINtB5_6ResultNtNtCsdGrGZaRBwMb_3syn5token6BecomeNtNtBO_5error5ErrorENtNtNtB7_3ops9try_trait3Try6branchBO_, symObjAddr: 0x10480, symBinAddr: 0x96170, symSize: 0xB0 }
  - { offset: 0xE0B39, size: 0x8, addend: 0x0, symName: __RNvXsp_NtCsieiGu2EXtoJ_4core6resultINtB5_6ResultNtNtCsdGrGZaRBwMb_3syn5token6DotDotNtNtBO_5error5ErrorENtNtNtB7_3ops9try_trait3Try6branchBO_, symObjAddr: 0x10530, symBinAddr: 0x96220, symSize: 0xB0 }
  - { offset: 0xE0BB6, size: 0x8, addend: 0x0, symName: __RNvXsp_NtCsieiGu2EXtoJ_4core6resultINtB5_6ResultNtNtCsdGrGZaRBwMb_3syn5token6ExternNtNtBO_5error5ErrorENtNtNtB7_3ops9try_trait3Try6branchBO_, symObjAddr: 0x105E0, symBinAddr: 0x962D0, symSize: 0xB0 }
  - { offset: 0xE0C33, size: 0x8, addend: 0x0, symName: __RNvXsp_NtCsieiGu2EXtoJ_4core6resultINtB5_6ResultNtNtCsdGrGZaRBwMb_3syn5token6RArrowNtNtBO_5error5ErrorENtNtNtB7_3ops9try_trait3Try6branchBO_, symObjAddr: 0x10690, symBinAddr: 0x96380, symSize: 0xB0 }
  - { offset: 0xE0CB0, size: 0x8, addend: 0x0, symName: __RNvXsp_NtCsieiGu2EXtoJ_4core6resultINtB5_6ResultNtNtCsdGrGZaRBwMb_3syn5token6ReturnNtNtBO_5error5ErrorENtNtNtB7_3ops9try_trait3Try6branchBO_, symObjAddr: 0x10740, symBinAddr: 0x96430, symSize: 0xB0 }
  - { offset: 0xE0D2D, size: 0x8, addend: 0x0, symName: __RNvXsp_NtCsieiGu2EXtoJ_4core6resultINtB5_6ResultNtNtCsdGrGZaRBwMb_3syn5token6StaticNtNtBO_5error5ErrorENtNtNtB7_3ops9try_trait3Try6branchBO_, symObjAddr: 0x107F0, symBinAddr: 0x964E0, symSize: 0xB0 }
  - { offset: 0xE0DAA, size: 0x8, addend: 0x0, symName: __RNvXsp_NtCsieiGu2EXtoJ_4core6resultINtB5_6ResultNtNtCsdGrGZaRBwMb_3syn5token6StructNtNtBO_5error5ErrorENtNtNtB7_3ops9try_trait3Try6branchBO_, symObjAddr: 0x108A0, symBinAddr: 0x96590, symSize: 0xB0 }
  - { offset: 0xE0E27, size: 0x8, addend: 0x0, symName: __RNvXsp_NtCsieiGu2EXtoJ_4core6resultINtB5_6ResultNtNtCsdGrGZaRBwMb_3syn5token6UnsafeNtNtBO_5error5ErrorENtNtNtB7_3ops9try_trait3Try6branchBO_, symObjAddr: 0x10950, symBinAddr: 0x96640, symSize: 0xB0 }
  - { offset: 0xE0EA4, size: 0x8, addend: 0x0, symName: __RNvXsp_NtCsieiGu2EXtoJ_4core6resultINtB5_6ResultNtNtCsdGrGZaRBwMb_3syn5token7DefaultNtNtBO_5error5ErrorENtNtNtB7_3ops9try_trait3Try6branchBO_, symObjAddr: 0x10A00, symBinAddr: 0x966F0, symSize: 0xB0 }
  - { offset: 0xE0F21, size: 0x8, addend: 0x0, symName: __RNvXsp_NtCsieiGu2EXtoJ_4core6resultINtB5_6ResultNtNtCsdGrGZaRBwMb_3syn5token7PathSepNtNtBO_5error5ErrorENtNtNtB7_3ops9try_trait3Try6branchBO_, symObjAddr: 0x10AB0, symBinAddr: 0x967A0, symSize: 0xB0 }
  - { offset: 0xE0F9E, size: 0x8, addend: 0x0, symName: __RNvXsp_NtCsieiGu2EXtoJ_4core6resultINtB5_6ResultNtNtCsdGrGZaRBwMb_3syn5token8ContinueNtNtBO_5error5ErrorENtNtNtB7_3ops9try_trait3Try6branchBO_, symObjAddr: 0x10B60, symBinAddr: 0x96850, symSize: 0xB0 }
  - { offset: 0xE101B, size: 0x8, addend: 0x0, symName: __RNvXsp_NtCsieiGu2EXtoJ_4core6resultINtB5_6ResultNtNtCsdGrGZaRBwMb_3syn5token8FatArrowNtNtBO_5error5ErrorENtNtNtB7_3ops9try_trait3Try6branchBO_, symObjAddr: 0x10C10, symBinAddr: 0x96900, symSize: 0xB0 }
  - { offset: 0xE1098, size: 0x8, addend: 0x0, symName: __RNvXsp_NtCsieiGu2EXtoJ_4core6resultINtB5_6ResultNtNtCsdGrGZaRBwMb_3syn5token8QuestionNtNtBO_5error5ErrorENtNtNtB7_3ops9try_trait3Try6branchBO_, symObjAddr: 0x10CC0, symBinAddr: 0x969B0, symSize: 0xB0 }
  - { offset: 0xE1115, size: 0x8, addend: 0x0, symName: __RNvXsp_NtCsieiGu2EXtoJ_4core6resultINtB5_6ResultNtNtCsdGrGZaRBwMb_3syn5token9DotDotDotNtNtBO_5error5ErrorENtNtNtB7_3ops9try_trait3Try6branchBO_, symObjAddr: 0x10D70, symBinAddr: 0x96A60, symSize: 0xC0 }
  - { offset: 0xE1192, size: 0x8, addend: 0x0, symName: __RNvXsp_NtCsieiGu2EXtoJ_4core6resultINtB5_6ResultNtNtCsdGrGZaRBwMb_3syn5token9SelfValueNtNtBO_5error5ErrorENtNtNtB7_3ops9try_trait3Try6branchBO_, symObjAddr: 0x10E30, symBinAddr: 0x96B20, symSize: 0xB0 }
  - { offset: 0xE120F, size: 0x8, addend: 0x0, symName: __RNvXsp_NtCsieiGu2EXtoJ_4core6resultINtB5_6ResultNtNtCsdGrGZaRBwMb_3syn8generics10ConstParamNtNtBO_5error5ErrorENtNtNtB7_3ops9try_trait3Try6branchBO_, symObjAddr: 0x10EE0, symBinAddr: 0x96BD0, symSize: 0xE0 }
  - { offset: 0xE128D, size: 0x8, addend: 0x0, symName: __RNvXsp_NtCsieiGu2EXtoJ_4core6resultINtB5_6ResultNtNtCsdGrGZaRBwMb_3syn8generics10TraitBoundNtNtBO_5error5ErrorENtNtNtB7_3ops9try_trait3Try6branchBO_, symObjAddr: 0x10FC0, symBinAddr: 0x96CB0, symSize: 0xF0 }
  - { offset: 0xE130B, size: 0x8, addend: 0x0, symName: __RNvXsp_NtCsieiGu2EXtoJ_4core6resultINtB5_6ResultNtNtCsdGrGZaRBwMb_3syn8generics11WhereClauseNtNtBO_5error5ErrorENtNtNtB7_3ops9try_trait3Try6branchBO_, symObjAddr: 0x110B0, symBinAddr: 0x96DA0, symSize: 0xD0 }
  - { offset: 0xE1389, size: 0x8, addend: 0x0, symName: __RNvXsp_NtCsieiGu2EXtoJ_4core6resultINtB5_6ResultNtNtCsdGrGZaRBwMb_3syn8generics12GenericParamNtNtBO_5error5ErrorENtNtNtB7_3ops9try_trait3Try6branchBO_, symObjAddr: 0x11180, symBinAddr: 0x96E70, symSize: 0xE0 }
  - { offset: 0xE1407, size: 0x8, addend: 0x0, symName: __RNvXsp_NtCsieiGu2EXtoJ_4core6resultINtB5_6ResultNtNtCsdGrGZaRBwMb_3syn8generics13CapturedParamNtNtBO_5error5ErrorENtNtNtB7_3ops9try_trait3Try6branchBO_, symObjAddr: 0x11260, symBinAddr: 0x96F50, symSize: 0xC0 }
  - { offset: 0xE1485, size: 0x8, addend: 0x0, symName: __RNvXsp_NtCsieiGu2EXtoJ_4core6resultINtB5_6ResultNtNtCsdGrGZaRBwMb_3syn8generics13LifetimeParamNtNtBO_5error5ErrorENtNtNtB7_3ops9try_trait3Try6branchBO_, symObjAddr: 0x11320, symBinAddr: 0x97010, symSize: 0xF0 }
  - { offset: 0xE1503, size: 0x8, addend: 0x0, symName: __RNvXsp_NtCsieiGu2EXtoJ_4core6resultINtB5_6ResultNtNtCsdGrGZaRBwMb_3syn8generics14PreciseCaptureNtNtBO_5error5ErrorENtNtNtB7_3ops9try_trait3Try6branchBO_, symObjAddr: 0x11410, symBinAddr: 0x97100, symSize: 0xD0 }
  - { offset: 0xE1581, size: 0x8, addend: 0x0, symName: __RNvXsp_NtCsieiGu2EXtoJ_4core6resultINtB5_6ResultNtNtCsdGrGZaRBwMb_3syn8generics14TypeParamBoundNtNtBO_5error5ErrorENtNtNtB7_3ops9try_trait3Try6branchBO_, symObjAddr: 0x114E0, symBinAddr: 0x971D0, symSize: 0xF0 }
  - { offset: 0xE15FF, size: 0x8, addend: 0x0, symName: __RNvXsp_NtCsieiGu2EXtoJ_4core6resultINtB5_6ResultNtNtCsdGrGZaRBwMb_3syn8generics14WherePredicateNtNtBO_5error5ErrorENtNtNtB7_3ops9try_trait3Try6branchBO_, symObjAddr: 0x115D0, symBinAddr: 0x972C0, symSize: 0xE0 }
  - { offset: 0xE167D, size: 0x8, addend: 0x0, symName: __RNvXsp_NtCsieiGu2EXtoJ_4core6resultINtB5_6ResultNtNtCsdGrGZaRBwMb_3syn8generics18TraitBoundModifierNtNtBO_5error5ErrorENtNtNtB7_3ops9try_trait3Try6branchBO_, symObjAddr: 0x116B0, symBinAddr: 0x973A0, symSize: 0xB0 }
  - { offset: 0xE16FA, size: 0x8, addend: 0x0, symName: __RNvXsp_NtCsieiGu2EXtoJ_4core6resultINtB5_6ResultNtNtCsdGrGZaRBwMb_3syn8generics8GenericsNtNtBO_5error5ErrorENtNtNtB7_3ops9try_trait3Try6branchBO_, symObjAddr: 0x11760, symBinAddr: 0x97450, symSize: 0xF0 }
  - { offset: 0xE1778, size: 0x8, addend: 0x0, symName: __RNvXsp_NtCsieiGu2EXtoJ_4core6resultINtB5_6ResultNtNtCsdGrGZaRBwMb_3syn8generics9TypeParamNtNtBO_5error5ErrorENtNtNtB7_3ops9try_trait3Try6branchBO_, symObjAddr: 0x11850, symBinAddr: 0x97540, symSize: 0xE0 }
  - { offset: 0xE17F6, size: 0x8, addend: 0x0, symName: __RNvXsp_NtCsieiGu2EXtoJ_4core6resultINtB5_6ResultNtNtCsdGrGZaRBwMb_3syn8lifetime8LifetimeNtNtBO_5error5ErrorENtNtNtB7_3ops9try_trait3Try6branchBO_, symObjAddr: 0x11930, symBinAddr: 0x97620, symSize: 0xD0 }
  - { offset: 0xE1874, size: 0x8, addend: 0x0, symName: __RNvXsp_NtCsieiGu2EXtoJ_4core6resultINtB5_6ResultNtNtNtCsdGrGZaRBwMb_3syn4item7parsing15FnArgOrVariadicNtNtBQ_5error5ErrorENtNtNtB7_3ops9try_trait3Try6branchBQ_, symObjAddr: 0x11A00, symBinAddr: 0x976F0, symSize: 0xF0 }
  - { offset: 0xE18F2, size: 0x8, addend: 0x0, symName: __RNvXsp_NtCsieiGu2EXtoJ_4core6resultINtB5_6ResultNtNtNtCsdGrGZaRBwMb_3syn4item7parsing16FlexibleItemTypeNtNtBQ_5error5ErrorENtNtNtB7_3ops9try_trait3Try6branchBQ_, symObjAddr: 0x11AF0, symBinAddr: 0x977E0, symSize: 0xE0 }
  - { offset: 0xE1970, size: 0x8, addend: 0x0, symName: __RNvXsp_NtCsieiGu2EXtoJ_4core6resultINtB5_6ResultTINtNtB7_6option6OptionNtNtCsdGrGZaRBwMb_3syn4path5QSelfENtB19_4PathENtNtB1b_5error5ErrorENtNtNtB7_3ops9try_trait3Try6branchB1b_, symObjAddr: 0x11BD0, symBinAddr: 0x978C0, symSize: 0xE0 }
  - { offset: 0xE19EE, size: 0x8, addend: 0x0, symName: __RNvXsp_NtCsieiGu2EXtoJ_4core6resultINtB5_6ResultTINtNtB7_6option6OptionNtNtCsdGrGZaRBwMb_3syn5token5ColonEINtNtB1b_10punctuated10PunctuatedNtNtB1b_8generics14TypeParamBoundNtB19_4PlusEENtNtB1b_5error5ErrorENtNtNtB7_3ops9try_trait3Try6branchB1b_, symObjAddr: 0x11CB0, symBinAddr: 0x979A0, symSize: 0xD0 }
  - { offset: 0xE1A6C, size: 0x8, addend: 0x0, symName: __RNvXsp_NtCsieiGu2EXtoJ_4core6resultINtB5_6ResultTINtNtB7_6option6OptionNtNtCsdGrGZaRBwMb_3syn8generics11WhereClauseENtNtB1b_4data11FieldsNamedENtNtB1b_5error5ErrorENtNtNtB7_3ops9try_trait3Try6branchB1b_, symObjAddr: 0x11D80, symBinAddr: 0x97A70, symSize: 0xF0 }
  - { offset: 0xE1AEA, size: 0x8, addend: 0x0, symName: __RNvXsp_NtCsieiGu2EXtoJ_4core6resultINtB5_6ResultTINtNtB7_6option6OptionNtNtCsdGrGZaRBwMb_3syn8generics11WhereClauseENtNtB1b_4data6FieldsIBM_NtNtB1b_5token4SemiEENtNtB1b_5error5ErrorENtNtNtB7_3ops9try_trait3Try6branchB1b_, symObjAddr: 0x11E70, symBinAddr: 0x97B60, symSize: 0xE0 }
  - { offset: 0xE1B68, size: 0x8, addend: 0x0, symName: __RNvXsp_NtCsieiGu2EXtoJ_4core6resultINtB5_6ResultTINtNtB7_6option6OptionNtNtCsdGrGZaRBwMb_3syn8generics11WhereClauseENtNtB1b_5token5BraceINtNtB1b_10punctuated10PunctuatedNtNtB1b_4data7VariantNtB1S_5CommaEENtNtB1b_5error5ErrorENtNtNtB7_3ops9try_trait3Try6branchB1b_, symObjAddr: 0x11F50, symBinAddr: 0x97C40, symSize: 0xF0 }
  - { offset: 0xE1BE6, size: 0x8, addend: 0x0, symName: __RNvXsp_NtCsieiGu2EXtoJ_4core6resultINtB5_6ResultTINtNtCsdGrGZaRBwMb_3syn10punctuated10PunctuatedNtNtBQ_4item5FnArgNtNtBQ_5token5CommaEINtNtB7_6option6OptionNtB1y_8VariadicEENtNtBQ_5error5ErrorENtNtNtB7_3ops9try_trait3Try6branchBQ_, symObjAddr: 0x12100, symBinAddr: 0x97D30, symSize: 0xF0 }
  - { offset: 0xE1C64, size: 0x8, addend: 0x0, symName: __RNvXsp_NtCsieiGu2EXtoJ_4core6resultINtB5_6ResultTINtNtCslJiobkLta79_5alloc3vec3VecNtNtCsdGrGZaRBwMb_3syn4attr9AttributeENtNtB1m_11restriction10VisibilityNtNtB1m_5token5TraitNtCsaKzlTDPUHDb_11proc_macro25IdentNtNtB1m_8generics8GenericsENtNtB1m_5error5ErrorENtNtNtB7_3ops9try_trait3Try6branchB1m_, symObjAddr: 0x121F0, symBinAddr: 0x97E20, symSize: 0xF0 }
  - { offset: 0xE1CE2, size: 0x8, addend: 0x0, symName: __RNvXsp_NtCsieiGu2EXtoJ_4core6resultINtB5_6ResultTNtCsaKzlTDPUHDb_11proc_macro211TokenStreamNtNtCsdGrGZaRBwMb_3syn6buffer6CursorENtNtB1v_5error5ErrorENtNtNtB7_3ops9try_trait3Try6branchB1v_, symObjAddr: 0x122E0, symBinAddr: 0x97F10, symSize: 0xD0 }
  - { offset: 0xE1D60, size: 0x8, addend: 0x0, symName: __RNvXsp_NtCsieiGu2EXtoJ_4core6resultINtB5_6ResultTNtCsaKzlTDPUHDb_11proc_macro24SpanNtNtCsdGrGZaRBwMb_3syn6buffer6CursorENtNtB1n_5error5ErrorENtNtNtB7_3ops9try_trait3Try6branchB1n_, symObjAddr: 0x123B0, symBinAddr: 0x97FE0, symSize: 0xC0 }
  - { offset: 0xE1DDE, size: 0x8, addend: 0x0, symName: __RNvXsp_NtCsieiGu2EXtoJ_4core6resultINtB5_6ResultTNtCsaKzlTDPUHDb_11proc_macro25IdentNtNtCsdGrGZaRBwMb_3syn6buffer6CursorENtNtB1o_5error5ErrorENtNtNtB7_3ops9try_trait3Try6branchB1o_, symObjAddr: 0x12520, symBinAddr: 0x980A0, symSize: 0xC0 }
  - { offset: 0xE1E5C, size: 0x8, addend: 0x0, symName: __RNvXsp_NtCsieiGu2EXtoJ_4core6resultINtB5_6ResultTNtNtCsdGrGZaRBwMb_3syn3lit3LitNtNtBP_6buffer6CursorENtNtBP_5error5ErrorENtNtNtB7_3ops9try_trait3Try6branchBP_, symObjAddr: 0x12840, symBinAddr: 0x98160, symSize: 0xD0 }
  - { offset: 0xE1EDA, size: 0x8, addend: 0x0, symName: __RNvXsp_NtCsieiGu2EXtoJ_4core6resultINtB5_6ResultTNtNtCsdGrGZaRBwMb_3syn3mac14MacroDelimiterNtCsaKzlTDPUHDb_11proc_macro211TokenStreamENtNtBP_5error5ErrorENtNtNtB7_3ops9try_trait3Try6branchBP_, symObjAddr: 0x12910, symBinAddr: 0x98230, symSize: 0xD0 }
  - { offset: 0xE1F58, size: 0x8, addend: 0x0, symName: __RNvXsp_NtCsieiGu2EXtoJ_4core6resultINtB5_6ResultTNtNtCsdGrGZaRBwMb_3syn5token10UnderscoreNtNtBP_6buffer6CursorENtNtBP_5error5ErrorENtNtNtB7_3ops9try_trait3Try6branchBP_, symObjAddr: 0x129E0, symBinAddr: 0x98300, symSize: 0xC0 }
  - { offset: 0xE1FD6, size: 0x8, addend: 0x0, symName: __RNvXsp_NtCsieiGu2EXtoJ_4core6resultINtB5_6ResultTNtNtCsdGrGZaRBwMb_3syn8lifetime8LifetimeNtNtBP_6buffer6CursorENtNtBP_5error5ErrorENtNtNtB7_3ops9try_trait3Try6branchBP_, symObjAddr: 0x12AA0, symBinAddr: 0x983C0, symSize: 0xC0 }
  - { offset: 0xE2054, size: 0x8, addend: 0x0, symName: __RNvXsp_NtCsieiGu2EXtoJ_4core6resultINtB5_6ResultTTNtNtCsaKzlTDPUHDb_11proc_macro25extra9DelimSpanNtNtCsdGrGZaRBwMb_3syn5parse11ParseBufferENtNtB1B_6buffer6CursorENtNtB1B_5error5ErrorENtNtNtB7_3ops9try_trait3Try6branchB1B_, symObjAddr: 0x12C20, symBinAddr: 0x98480, symSize: 0xD0 }
  - { offset: 0xE20D2, size: 0x8, addend: 0x0, symName: __RNvXsp_NtCsieiGu2EXtoJ_4core6resultINtB5_6ResultTTNtNtCsdGrGZaRBwMb_3syn3mac14MacroDelimiterNtCsaKzlTDPUHDb_11proc_macro211TokenStreamENtNtBQ_6buffer6CursorENtNtBQ_5error5ErrorENtNtNtB7_3ops9try_trait3Try6branchBQ_, symObjAddr: 0x12CF0, symBinAddr: 0x98550, symSize: 0xE0 }
  - { offset: 0xE2150, size: 0x8, addend: 0x0, symName: __RNvXsp_NtCsieiGu2EXtoJ_4core6resultINtB5_6ResultTuNtNtCsdGrGZaRBwMb_3syn6buffer6CursorENtNtBQ_5error5ErrorENtNtNtB7_3ops9try_trait3Try6branchBQ_, symObjAddr: 0x12DD0, symBinAddr: 0x98630, symSize: 0xC0 }
  - { offset: 0xE21CD, size: 0x8, addend: 0x0, symName: __RNvXsp_NtCsieiGu2EXtoJ_4core6resultINtB5_6ResultbNtNtCsdGrGZaRBwMb_3syn5error5ErrorENtNtNtB7_3ops9try_trait3Try6branchBP_, symObjAddr: 0x12E90, symBinAddr: 0x986F0, symSize: 0xB0 }
  - { offset: 0xE224A, size: 0x8, addend: 0x0, symName: __RNvXsp_NtCsieiGu2EXtoJ_4core6resultINtB5_6ResultmNtNtCsdGrGZaRBwMb_3syn5error5ErrorENtNtNtB7_3ops9try_trait3Try6branchBP_, symObjAddr: 0x12F40, symBinAddr: 0x987A0, symSize: 0xB0 }
  - { offset: 0xE22C7, size: 0x8, addend: 0x0, symName: __RNvXsp_NtCsieiGu2EXtoJ_4core6resultINtB5_6ResultuNtNtCsdGrGZaRBwMb_3syn5error5ErrorENtNtNtB7_3ops9try_trait3Try6branchBP_, symObjAddr: 0x12FF0, symBinAddr: 0x98850, symSize: 0xA0 }
  - { offset: 0xE234A, size: 0x8, addend: 0x0, symName: __RNvXsq_NtCsieiGu2EXtoJ_4core6resultINtB5_6ResultANtCsaKzlTDPUHDb_11proc_macro24Spanj1_NtNtCsdGrGZaRBwMb_3syn5error5ErrorEINtNtNtB7_3ops9try_trait12FromResidualIBy_NtNtB7_7convert10InfallibleB1m_EE13from_residualB1q_, symObjAddr: 0x13090, symBinAddr: 0x988F0, symSize: 0x50 }
  - { offset: 0xE23CF, size: 0x8, addend: 0x0, symName: __RNvXsq_NtCsieiGu2EXtoJ_4core6resultINtB5_6ResultANtCsaKzlTDPUHDb_11proc_macro24Spanj2_NtNtCsdGrGZaRBwMb_3syn5error5ErrorEINtNtNtB7_3ops9try_trait12FromResidualIBy_NtNtB7_7convert10InfallibleB1m_EE13from_residualB1q_, symObjAddr: 0x130E0, symBinAddr: 0x98940, symSize: 0x50 }
  - { offset: 0xE2454, size: 0x8, addend: 0x0, symName: __RNvXsq_NtCsieiGu2EXtoJ_4core6resultINtB5_6ResultANtCsaKzlTDPUHDb_11proc_macro24Spanj3_NtNtCsdGrGZaRBwMb_3syn5error5ErrorEINtNtNtB7_3ops9try_trait12FromResidualIBy_NtNtB7_7convert10InfallibleB1m_EE13from_residualB1q_, symObjAddr: 0x13130, symBinAddr: 0x98990, symSize: 0x50 }
  - { offset: 0xE24D9, size: 0x8, addend: 0x0, symName: __RNvXsq_NtCsieiGu2EXtoJ_4core6resultINtB5_6ResultINtNtB7_6option6OptionINtNtCslJiobkLta79_5alloc5boxed3BoxNtNtCsdGrGZaRBwMb_3syn4expr4ExprEENtNtB1J_5error5ErrorEINtNtNtB7_3ops9try_trait12FromResidualIBy_NtNtB7_7convert10InfallibleB2d_EE13from_residualB1J_, symObjAddr: 0x13180, symBinAddr: 0x989E0, symSize: 0x50 }
  - { offset: 0xE255E, size: 0x8, addend: 0x0, symName: __RNvXsq_NtCsieiGu2EXtoJ_4core6resultINtB5_6ResultINtNtB7_6option6OptionNtCsaKzlTDPUHDb_11proc_macro25IdentENtNtCsdGrGZaRBwMb_3syn5error5ErrorEINtNtNtB7_3ops9try_trait12FromResidualIBy_NtNtB7_7convert10InfallibleB1G_EE13from_residualB1K_, symObjAddr: 0x131D0, symBinAddr: 0x98A30, symSize: 0x60 }
  - { offset: 0xE25E3, size: 0x8, addend: 0x0, symName: __RNvXsq_NtCsieiGu2EXtoJ_4core6resultINtB5_6ResultINtNtB7_6option6OptionNtNtCsdGrGZaRBwMb_3syn3lit3LitENtNtB1a_5error5ErrorEINtNtNtB7_3ops9try_trait12FromResidualIBy_NtNtB7_7convert10InfallibleB1B_EE13from_residualB1a_, symObjAddr: 0x13230, symBinAddr: 0x98A90, symSize: 0x60 }
  - { offset: 0xE2668, size: 0x8, addend: 0x0, symName: __RNvXsq_NtCsieiGu2EXtoJ_4core6resultINtB5_6ResultINtNtB7_6option6OptionNtNtCsdGrGZaRBwMb_3syn3lit6LitStrENtNtB1a_5error5ErrorEINtNtNtB7_3ops9try_trait12FromResidualIBy_NtNtB7_7convert10InfallibleB1E_EE13from_residualB1a_, symObjAddr: 0x13290, symBinAddr: 0x98AF0, symSize: 0x50 }
  - { offset: 0xE26ED, size: 0x8, addend: 0x0, symName: __RNvXsq_NtCsieiGu2EXtoJ_4core6resultINtB5_6ResultINtNtB7_6option6OptionNtNtCsdGrGZaRBwMb_3syn3lit8LitFloatENtNtB1a_5error5ErrorEINtNtNtB7_3ops9try_trait12FromResidualIBy_NtNtB7_7convert10InfallibleB1G_EE13from_residualB1a_, symObjAddr: 0x132E0, symBinAddr: 0x98B40, symSize: 0x50 }
  - { offset: 0xE2772, size: 0x8, addend: 0x0, symName: __RNvXsq_NtCsieiGu2EXtoJ_4core6resultINtB5_6ResultINtNtB7_6option6OptionNtNtCsdGrGZaRBwMb_3syn4item10ImplItemFnENtNtB1a_5error5ErrorEINtNtNtB7_3ops9try_trait12FromResidualIBy_NtNtB7_7convert10InfallibleB1K_EE13from_residualB1a_, symObjAddr: 0x13330, symBinAddr: 0x98B90, symSize: 0x60 }
