---
triple:          'x86_64-apple-darwin'
binary-path:     '/Users/kema/git/rust-serv/target/debug/build/num-traits-3b8a26af8cd471f6/build_script_build-3b8a26af8cd471f6'
relocations:
  - { offset: 0x1E, size: 0x8, addend: 0x0, symName: __RINvNtCsHUR1vrdMJt_3std2rt10lang_startuECskYQ1zJ86Vn3_18build_script_build, symObjAddr: 0x0, symBinAddr: 0x100000B90, symSize: 0x40 }
  - { offset: 0x5B, size: 0x8, addend: 0x0, symName: __RNCINvNtCsHUR1vrdMJt_3std2rt10lang_startuE0CskYQ1zJ86Vn3_18build_script_build, symObjAddr: 0x60, symBinAddr: 0x100000BF0, symSize: 0x30 }
  - { offset: 0xC5, size: 0x8, addend: 0x0, symName: __RINvNtCsHUR1vrdMJt_3std2rt10lang_startuECskYQ1zJ86Vn3_18build_script_build, symObjAddr: 0x0, symBinAddr: 0x100000B90, symSize: 0x40 }
  - { offset: 0x12F, size: 0x8, addend: 0x0, symName: __RINvNtNtCsHUR1vrdMJt_3std3sys9backtrace28___rust_begin_short_backtraceFEuuECskYQ1zJ86Vn3_18build_script_build, symObjAddr: 0x40, symBinAddr: 0x100000BD0, symSize: 0x20 }
  - { offset: 0x238, size: 0x8, addend: 0x0, symName: __RNvXsZ_NtCsHUR1vrdMJt_3std7processuNtB5_11Termination6reportCskYQ1zJ86Vn3_18build_script_build, symObjAddr: 0x150, symBinAddr: 0x100000CE0, symSize: 0x10 }
  - { offset: 0x2ED, size: 0x8, addend: 0x0, symName: __RNSNvYNCINvNtCsHUR1vrdMJt_3std2rt10lang_startuE0INtNtNtCsieiGu2EXtoJ_4core3ops8function6FnOnceuE9call_once6vtableCskYQ1zJ86Vn3_18build_script_build, symObjAddr: 0x90, symBinAddr: 0x100000C20, symSize: 0x20 }
  - { offset: 0x331, size: 0x8, addend: 0x0, symName: __RNvYFEuINtNtNtCsieiGu2EXtoJ_4core3ops8function6FnOnceuE9call_onceCskYQ1zJ86Vn3_18build_script_build, symObjAddr: 0x160, symBinAddr: 0x100000CF0, symSize: 0x20 }
  - { offset: 0x371, size: 0x8, addend: 0x0, symName: __RNvYNCINvNtCsHUR1vrdMJt_3std2rt10lang_startuE0INtNtNtCsieiGu2EXtoJ_4core3ops8function6FnOnceuE9call_onceCskYQ1zJ86Vn3_18build_script_build, symObjAddr: 0x180, symBinAddr: 0x100000D10, symSize: 0x40 }
  - { offset: 0x5D5, size: 0x8, addend: 0x0, symName: __RNvCskYQ1zJ86Vn3_18build_script_build4main, symObjAddr: 0xB0, symBinAddr: 0x100000C40, symSize: 0xA0 }
  - { offset: 0x872, size: 0x8, addend: 0x0, symName: __RINvMs6_NtCsjK30CmJ87bX_9hashbrown3rawINtB6_8RawTableTyuEE14reserve_rehashNCINvNtB8_3map11make_hasheryuNtNtNtCsHUR1vrdMJt_3std4hash6random11RandomStateE0ECs3GcDDz6nV1P_7autocfg, symObjAddr: 0x0, symBinAddr: 0x100063970, symSize: 0xD50 }
  - { offset: 0x8AE, size: 0x8, addend: 0x0, symName: __RNCINvMs6_NtCsjK30CmJ87bX_9hashbrown3rawINtB8_8RawTableTyuEE14reserve_rehashNCINvNtBa_3map11make_hasheryuNtNtNtCsHUR1vrdMJt_3std4hash6random11RandomStateE0E0Cs3GcDDz6nV1P_7autocfg, symObjAddr: 0x19C0, symBinAddr: 0x100001A50, symSize: 0xB0 }
  - { offset: 0xA7A, size: 0x8, addend: 0x0, symName: __RNCINvMs6_NtCsjK30CmJ87bX_9hashbrown3rawINtB8_8RawTableTyuEE24find_or_find_insert_slotNCINvNtBa_3map14equivalent_keyyyuE0NCINvB1r_11make_hasheryuNtNtNtCsHUR1vrdMJt_3std4hash6random11RandomStateE0E0Cs3GcDDz6nV1P_7autocfg, symObjAddr: 0x1A70, symBinAddr: 0x100001B00, symSize: 0xB0 }
  - { offset: 0x13B2, size: 0x8, addend: 0x0, symName: __RNCINvMsa_NtCsjK30CmJ87bX_9hashbrown3rawNtB8_13RawTableInner14prepare_resizeNtNtCslJiobkLta79_5alloc5alloc6GlobalE0Cs3GcDDz6nV1P_7autocfg, symObjAddr: 0x1B20, symBinAddr: 0x100001BB0, symSize: 0xD0 }
  - { offset: 0x1580, size: 0x8, addend: 0x0, symName: __RNCNvMsa_NtCsjK30CmJ87bX_9hashbrown3rawNtB7_13RawTableInner15rehash_in_place0Cs3GcDDz6nV1P_7autocfg, symObjAddr: 0x1BF0, symBinAddr: 0x100001C80, symSize: 0x250 }
  - { offset: 0x1BA0, size: 0x8, addend: 0x0, symName: __RNvNtCsjK30CmJ87bX_9hashbrown3raw19capacity_to_bucketsCs3GcDDz6nV1P_7autocfg, symObjAddr: 0x3720, symBinAddr: 0x1000037B0, symSize: 0x280 }
  - { offset: 0x1DB6, size: 0x8, addend: 0x0, symName: __RNvXsB_NtCsjK30CmJ87bX_9hashbrown3rawINtB5_11RawIntoIterTyuEENtNtNtCsieiGu2EXtoJ_4core3ops4drop4Drop4dropCs3GcDDz6nV1P_7autocfg, symObjAddr: 0x39A0, symBinAddr: 0x100003A30, symSize: 0x70 }
  - { offset: 0x1E72, size: 0x8, addend: 0x0, symName: __RNvXsD_NtCsjK30CmJ87bX_9hashbrown3rawINtB5_11RawIntoIterTyuEENtNtNtNtCsieiGu2EXtoJ_4core4iter6traits8iterator8Iterator4nextCs3GcDDz6nV1P_7autocfg, symObjAddr: 0x3A10, symBinAddr: 0x100003AA0, symSize: 0x100 }
  - { offset: 0x2009, size: 0x8, addend: 0x0, symName: __RNvXsg_NtCsjK30CmJ87bX_9hashbrown3rawINtB5_8RawTableTyuEENtNtNtCsieiGu2EXtoJ_4core3ops4drop4Drop4dropCs3GcDDz6nV1P_7autocfg, symObjAddr: 0x3B10, symBinAddr: 0x100003BA0, symSize: 0x30 }
  - { offset: 0x204B, size: 0x8, addend: 0x0, symName: __RNvXsh_NtCsjK30CmJ87bX_9hashbrown3rawINtB5_8RawTableTyuEENtNtNtNtCsieiGu2EXtoJ_4core4iter6traits7collect12IntoIterator9into_iterCs3GcDDz6nV1P_7autocfg, symObjAddr: 0x3B40, symBinAddr: 0x100003BD0, symSize: 0x180 }
  - { offset: 0x5980, size: 0x8, addend: 0x0, symName: __RINvMs6_NtCsjK30CmJ87bX_9hashbrown3rawINtB6_8RawTableTyuEE14reserve_rehashNCINvNtB8_3map11make_hasheryuNtNtNtCsHUR1vrdMJt_3std4hash6random11RandomStateE0ECs3GcDDz6nV1P_7autocfg, symObjAddr: 0x0, symBinAddr: 0x100063970, symSize: 0xD50 }
  - { offset: 0x6453, size: 0x8, addend: 0x0, symName: __RINvMs6_NtCsjK30CmJ87bX_9hashbrown3rawINtB6_8RawTableTyuEE24find_or_find_insert_slotNCINvNtB8_3map14equivalent_keyyyuE0NCINvB1p_11make_hasheryuNtNtNtCsHUR1vrdMJt_3std4hash6random11RandomStateE0ECs3GcDDz6nV1P_7autocfg, symObjAddr: 0xD50, symBinAddr: 0x100000DE0, symSize: 0x160 }
  - { offset: 0x6648, size: 0x8, addend: 0x0, symName: __RINvMs6_NtCsjK30CmJ87bX_9hashbrown3rawINtB6_8RawTableTyuEE7reserveNCINvNtB8_3map11make_hasheryuNtNtNtCsHUR1vrdMJt_3std4hash6random11RandomStateE0ECs3GcDDz6nV1P_7autocfg, symObjAddr: 0xEB0, symBinAddr: 0x100000F40, symSize: 0xC0 }
  - { offset: 0x67BC, size: 0x8, addend: 0x0, symName: __RINvMsa_NtCsjK30CmJ87bX_9hashbrown3rawNtB6_13RawTableInner13drop_elementsTyuEECs3GcDDz6nV1P_7autocfg, symObjAddr: 0xF70, symBinAddr: 0x100001000, symSize: 0x30 }
  - { offset: 0x6A13, size: 0x8, addend: 0x0, symName: __RINvMsa_NtCsjK30CmJ87bX_9hashbrown3rawNtB6_13RawTableInner16drop_inner_tableTyuENtNtCslJiobkLta79_5alloc5alloc6GlobalECs3GcDDz6nV1P_7autocfg, symObjAddr: 0xFA0, symBinAddr: 0x100001030, symSize: 0xD0 }
  - { offset: 0x6C0F, size: 0x8, addend: 0x0, symName: __RINvMsa_NtCsjK30CmJ87bX_9hashbrown3rawNtB6_13RawTableInner17new_uninitializedNtNtCslJiobkLta79_5alloc5alloc6GlobalECs3GcDDz6nV1P_7autocfg, symObjAddr: 0x1070, symBinAddr: 0x100001100, symSize: 0x290 }
  - { offset: 0x6E63, size: 0x8, addend: 0x0, symName: __RINvMsa_NtCsjK30CmJ87bX_9hashbrown3rawNtB6_13RawTableInner22fallible_with_capacityNtNtCslJiobkLta79_5alloc5alloc6GlobalECs3GcDDz6nV1P_7autocfg, symObjAddr: 0x1300, symBinAddr: 0x100001390, symSize: 0x430 }
  - { offset: 0x732C, size: 0x8, addend: 0x0, symName: __RINvMsi_NtCsjK30CmJ87bX_9hashbrown3rawINtB6_12RawIterRangeTyuEE9next_implKb0_ECs3GcDDz6nV1P_7autocfg, symObjAddr: 0x1730, symBinAddr: 0x1000017C0, symSize: 0x290 }
  - { offset: 0x7B1D, size: 0x8, addend: 0x0, symName: __RNvMs1_NtCsjK30CmJ87bX_9hashbrown3rawNtB5_11TableLayout20calculate_layout_forCs3GcDDz6nV1P_7autocfg, symObjAddr: 0x1E40, symBinAddr: 0x100001ED0, symSize: 0x2F0 }
  - { offset: 0x7FC0, size: 0x8, addend: 0x0, symName: __RNvMs6_NtCsjK30CmJ87bX_9hashbrown3rawINtB5_8RawTableTyuEE14insert_in_slotCs3GcDDz6nV1P_7autocfg, symObjAddr: 0x2130, symBinAddr: 0x1000021C0, symSize: 0x140 }
  - { offset: 0x8352, size: 0x8, addend: 0x0, symName: __RNvMs6_NtCsjK30CmJ87bX_9hashbrown3rawINtB5_8RawTableTyuEE14into_iter_fromCs3GcDDz6nV1P_7autocfg, symObjAddr: 0x2270, symBinAddr: 0x100002300, symSize: 0xA0 }
  - { offset: 0x842C, size: 0x8, addend: 0x0, symName: __RNvMs6_NtCsjK30CmJ87bX_9hashbrown3rawINtB5_8RawTableTyuEE15into_allocationCs3GcDDz6nV1P_7autocfg, symObjAddr: 0x2310, symBinAddr: 0x1000023A0, symSize: 0x1A0 }
  - { offset: 0x8655, size: 0x8, addend: 0x0, symName: __RNvMsa_NtCsjK30CmJ87bX_9hashbrown3rawNtB5_13RawTableInner15fix_insert_slotCs3GcDDz6nV1P_7autocfg, symObjAddr: 0x24B0, symBinAddr: 0x100002540, symSize: 0x140 }
  - { offset: 0x89EE, size: 0x8, addend: 0x0, symName: __RNvMsa_NtCsjK30CmJ87bX_9hashbrown3rawNtB5_13RawTableInner15rehash_in_placeCs3GcDDz6nV1P_7autocfg, symObjAddr: 0x25F0, symBinAddr: 0x100002680, symSize: 0x5B0 }
  - { offset: 0x91C7, size: 0x8, addend: 0x0, symName: __RNvMsa_NtCsjK30CmJ87bX_9hashbrown3rawNtB5_13RawTableInner16find_insert_slotCs3GcDDz6nV1P_7autocfg, symObjAddr: 0x2BA0, symBinAddr: 0x100002C30, symSize: 0x130 }
  - { offset: 0x93C6, size: 0x8, addend: 0x0, symName: __RNvMsa_NtCsjK30CmJ87bX_9hashbrown3rawNtB5_13RawTableInner19prepare_insert_slotCs3GcDDz6nV1P_7autocfg, symObjAddr: 0x2CD0, symBinAddr: 0x100002D60, symSize: 0x60 }
  - { offset: 0x96B7, size: 0x8, addend: 0x0, symName: __RNvMsa_NtCsjK30CmJ87bX_9hashbrown3rawNtB5_13RawTableInner23prepare_rehash_in_placeCs3GcDDz6nV1P_7autocfg, symObjAddr: 0x2D30, symBinAddr: 0x100002DC0, symSize: 0x340 }
  - { offset: 0x9DDE, size: 0x8, addend: 0x0, symName: __RNvMsa_NtCsjK30CmJ87bX_9hashbrown3rawNtB5_13RawTableInner25find_insert_slot_in_groupCs3GcDDz6nV1P_7autocfg, symObjAddr: 0x3070, symBinAddr: 0x100003100, symSize: 0x160 }
  - { offset: 0xA124, size: 0x8, addend: 0x0, symName: __RNvMsa_NtCsjK30CmJ87bX_9hashbrown3rawNtB5_13RawTableInner30find_or_find_insert_slot_innerCs3GcDDz6nV1P_7autocfg, symObjAddr: 0x31D0, symBinAddr: 0x100003260, symSize: 0x410 }
  - { offset: 0xA5B3, size: 0x8, addend: 0x0, symName: __RNvMsi_NtCsjK30CmJ87bX_9hashbrown3rawINtB5_12RawIterRangeTyuEE3newCs3GcDDz6nV1P_7autocfg, symObjAddr: 0x35E0, symBinAddr: 0x100003670, symSize: 0x120 }
  - { offset: 0xA893, size: 0x8, addend: 0x0, symName: __RNvMso_NtCsjK30CmJ87bX_9hashbrown3rawINtB5_7RawIterTyuEE13drop_elementsCs3GcDDz6nV1P_7autocfg, symObjAddr: 0x3700, symBinAddr: 0x100003790, symSize: 0x20 }
  - { offset: 0xAAB9, size: 0x8, addend: 0x0, symName: __RINvMsx_NtNtCsieiGu2EXtoJ_4core3str7patternNtB6_14TwoWaySearcher4nextNtB6_14RejectAndMatchECs3GcDDz6nV1P_7autocfg, symObjAddr: 0x0, symBinAddr: 0x100003D50, symSize: 0x620 }
  - { offset: 0xC5A1, size: 0x8, addend: 0x0, symName: __RNCNvNtNtCsieiGu2EXtoJ_4core3str7pattern13simd_contains0Cs3GcDDz6nV1P_7autocfg, symObjAddr: 0xC40, symBinAddr: 0x100004990, symSize: 0x60 }
  - { offset: 0xC607, size: 0x8, addend: 0x0, symName: __RNCNvNtNtCsieiGu2EXtoJ_4core3str7pattern13simd_containss0_0Cs3GcDDz6nV1P_7autocfg, symObjAddr: 0xCA0, symBinAddr: 0x1000646C0, symSize: 0x220 }
  - { offset: 0xC884, size: 0x8, addend: 0x0, symName: __RNCNvNtNtCsieiGu2EXtoJ_4core3str7pattern13simd_containss1_0Cs3GcDDz6nV1P_7autocfg, symObjAddr: 0xEC0, symBinAddr: 0x1000049F0, symSize: 0x1D0 }
  - { offset: 0xCBCC, size: 0x8, addend: 0x0, symName: __RNCNvNtNtCsieiGu2EXtoJ_4core3str7pattern13simd_containss_0Cs3GcDDz6nV1P_7autocfg, symObjAddr: 0x1090, symBinAddr: 0x100004BC0, symSize: 0x80 }
  - { offset: 0xCD5A, size: 0x8, addend: 0x0, symName: __RNvNtNtCsieiGu2EXtoJ_4core3str7pattern13simd_containsCs3GcDDz6nV1P_7autocfg, symObjAddr: 0x1110, symBinAddr: 0x100004C40, symSize: 0x9D0 }
  - { offset: 0xD3E3, size: 0x8, addend: 0x0, symName: __RNvNtNtCsieiGu2EXtoJ_4core3str7pattern14small_slice_eqCs3GcDDz6nV1P_7autocfg, symObjAddr: 0x1AE0, symBinAddr: 0x100005610, symSize: 0x2C0 }
  - { offset: 0xD77F, size: 0x8, addend: 0x0, symName: __RNvXs2_NtNtCsieiGu2EXtoJ_4core3str7patterncNtB5_7Pattern13into_searcherCs3GcDDz6nV1P_7autocfg, symObjAddr: 0x1DA0, symBinAddr: 0x1000058D0, symSize: 0x120 }
  - { offset: 0xD8A0, size: 0x8, addend: 0x0, symName: __RNvXs7_NtNtCsieiGu2EXtoJ_4core3str7patternINtB5_18MultiCharEqPatternNvMNtNtB9_4char7methodsc13is_whitespaceENtB5_7Pattern13into_searcherCs3GcDDz6nV1P_7autocfg, symObjAddr: 0x1EC0, symBinAddr: 0x1000059F0, symSize: 0xB0 }
  - { offset: 0xD902, size: 0x8, addend: 0x0, symName: __RNvXs8_NtNtCsieiGu2EXtoJ_4core3str7patternINtB5_19MultiCharEqSearcherNvMNtNtB9_4char7methodsc13is_whitespaceENtB5_8Searcher4nextCs3GcDDz6nV1P_7autocfg, symObjAddr: 0x1F70, symBinAddr: 0x100005AA0, symSize: 0x160 }
  - { offset: 0xDA30, size: 0x8, addend: 0x0, symName: __RNvXs9_NtNtCsieiGu2EXtoJ_4core3str7patternINtB5_19MultiCharEqSearcherNvMNtNtB9_4char7methodsc13is_whitespaceENtB5_15ReverseSearcher9next_backCs3GcDDz6nV1P_7autocfg, symObjAddr: 0x20D0, symBinAddr: 0x100005C00, symSize: 0x160 }
  - { offset: 0xDBC5, size: 0x8, addend: 0x0, symName: __RNvXs_NtNtCsieiGu2EXtoJ_4core3str7patternNtB4_12CharSearcherNtB4_8Searcher10next_matchCs3GcDDz6nV1P_7autocfg, symObjAddr: 0x2230, symBinAddr: 0x100005D60, symSize: 0x4A0 }
  - { offset: 0xE16A, size: 0x8, addend: 0x0, symName: __RNvXs_NtNtCsieiGu2EXtoJ_4core3str7patternNtB4_12CharSearcherNtB4_8Searcher8haystackCs3GcDDz6nV1P_7autocfg, symObjAddr: 0x26D0, symBinAddr: 0x100006200, symSize: 0x20 }
  - { offset: 0xE19E, size: 0x8, addend: 0x0, symName: __RNvXso_NtNtCsieiGu2EXtoJ_4core3str7patternINtB5_21CharPredicateSearcherNvMNtNtB9_4char7methodsc13is_whitespaceENtB5_8Searcher11next_rejectCs3GcDDz6nV1P_7autocfg, symObjAddr: 0x26F0, symBinAddr: 0x100006220, symSize: 0x30 }
  - { offset: 0xE1DB, size: 0x8, addend: 0x0, symName: __RNvXsp_NtNtCsieiGu2EXtoJ_4core3str7patternINtB5_21CharPredicateSearcherNvMNtNtB9_4char7methodsc13is_whitespaceENtB5_15ReverseSearcher16next_reject_backCs3GcDDz6nV1P_7autocfg, symObjAddr: 0x2720, symBinAddr: 0x100006250, symSize: 0x30 }
  - { offset: 0xE218, size: 0x8, addend: 0x0, symName: __RNvXst_NtNtCsieiGu2EXtoJ_4core3str7patternReNtB5_7Pattern12is_prefix_ofCs3GcDDz6nV1P_7autocfg, symObjAddr: 0x2750, symBinAddr: 0x100006280, symSize: 0x40 }
  - { offset: 0xE27F, size: 0x8, addend: 0x0, symName: __RNvXst_NtNtCsieiGu2EXtoJ_4core3str7patternReNtB5_7Pattern15is_contained_inCs3GcDDz6nV1P_7autocfg, symObjAddr: 0x2790, symBinAddr: 0x1000062C0, symSize: 0x2F0 }
  - { offset: 0xE58D, size: 0x8, addend: 0x0, symName: __RNvXst_NtNtCsieiGu2EXtoJ_4core3str7patternReNtB5_7Pattern15strip_suffix_ofCs3GcDDz6nV1P_7autocfg, symObjAddr: 0x2A80, symBinAddr: 0x1000065B0, symSize: 0xE0 }
  - { offset: 0xE7A2, size: 0x8, addend: 0x0, symName: __RNvXsv_NtNtCsieiGu2EXtoJ_4core3str7patternNtB5_11StrSearcherNtB5_8Searcher10next_matchCs3GcDDz6nV1P_7autocfg, symObjAddr: 0x2B60, symBinAddr: 0x100006690, symSize: 0x170 }
  - { offset: 0xE82F, size: 0x8, addend: 0x0, symName: __RNvXsv_NtNtCsieiGu2EXtoJ_4core3str7patternNtB5_11StrSearcherNtB5_8Searcher4nextCs3GcDDz6nV1P_7autocfg, symObjAddr: 0x2CD0, symBinAddr: 0x100006800, symSize: 0x500 }
  - { offset: 0xEB41, size: 0x8, addend: 0x0, symName: __RNvXsy_NtNtCsieiGu2EXtoJ_4core3str7patternNtB5_9MatchOnlyNtB5_14TwoWayStrategy16use_early_rejectCs3GcDDz6nV1P_7autocfg, symObjAddr: 0x31D0, symBinAddr: 0x100006D00, symSize: 0x10 }
  - { offset: 0xEB5F, size: 0x8, addend: 0x0, symName: __RNvXsy_NtNtCsieiGu2EXtoJ_4core3str7patternNtB5_9MatchOnlyNtB5_14TwoWayStrategy8matchingCs3GcDDz6nV1P_7autocfg, symObjAddr: 0x31E0, symBinAddr: 0x100006D10, symSize: 0x20 }
  - { offset: 0xEB9C, size: 0x8, addend: 0x0, symName: __RNvXsy_NtNtCsieiGu2EXtoJ_4core3str7patternNtB5_9MatchOnlyNtB5_14TwoWayStrategy9rejectingCs3GcDDz6nV1P_7autocfg, symObjAddr: 0x3200, symBinAddr: 0x100006D30, symSize: 0x20 }
  - { offset: 0xEBDF, size: 0x8, addend: 0x0, symName: __RNvXsz_NtNtCsieiGu2EXtoJ_4core3str7patternNtB5_14RejectAndMatchNtB5_14TwoWayStrategy16use_early_rejectCs3GcDDz6nV1P_7autocfg, symObjAddr: 0x3220, symBinAddr: 0x100006D50, symSize: 0x10 }
  - { offset: 0xEBFD, size: 0x8, addend: 0x0, symName: __RNvXsz_NtNtCsieiGu2EXtoJ_4core3str7patternNtB5_14RejectAndMatchNtB5_14TwoWayStrategy8matchingCs3GcDDz6nV1P_7autocfg, symObjAddr: 0x3230, symBinAddr: 0x100006D60, symSize: 0x20 }
  - { offset: 0xEC3A, size: 0x8, addend: 0x0, symName: __RNvXsz_NtNtCsieiGu2EXtoJ_4core3str7patternNtB5_14RejectAndMatchNtB5_14TwoWayStrategy9rejectingCs3GcDDz6nV1P_7autocfg, symObjAddr: 0x3250, symBinAddr: 0x100006D80, symSize: 0x20 }
  - { offset: 0xEC7D, size: 0x8, addend: 0x0, symName: __RNvYINtNtNtCsieiGu2EXtoJ_4core3str7pattern19MultiCharEqSearcherNvMNtNtB9_4char7methodsc13is_whitespaceENtB5_15ReverseSearcher16next_reject_backCs3GcDDz6nV1P_7autocfg, symObjAddr: 0x3270, symBinAddr: 0x100006DA0, symSize: 0x90 }
  - { offset: 0xECE8, size: 0x8, addend: 0x0, symName: __RNvYINtNtNtCsieiGu2EXtoJ_4core3str7pattern19MultiCharEqSearcherNvMNtNtB9_4char7methodsc13is_whitespaceENtB5_8Searcher11next_rejectCs3GcDDz6nV1P_7autocfg, symObjAddr: 0x3300, symBinAddr: 0x100006E30, symSize: 0x90 }
  - { offset: 0xFA38, size: 0x8, addend: 0x0, symName: __RINvMsx_NtNtCsieiGu2EXtoJ_4core3str7patternNtB6_14TwoWaySearcher4nextNtB6_14RejectAndMatchECs3GcDDz6nV1P_7autocfg, symObjAddr: 0x0, symBinAddr: 0x100003D50, symSize: 0x620 }
  - { offset: 0xFDD5, size: 0x8, addend: 0x0, symName: __RINvMsx_NtNtCsieiGu2EXtoJ_4core3str7patternNtB6_14TwoWaySearcher4nextNtB6_9MatchOnlyECs3GcDDz6nV1P_7autocfg, symObjAddr: 0x620, symBinAddr: 0x100004370, symSize: 0x620 }
  - { offset: 0x10613, size: 0x8, addend: 0x0, symName: __RINvMNtCsieiGu2EXtoJ_4core3stre11starts_withReECs3GcDDz6nV1P_7autocfg, symObjAddr: 0x0, symBinAddr: 0x100006EC0, symSize: 0x40 }
  - { offset: 0x11745, size: 0x8, addend: 0x0, symName: __RNvNvMs1_NtNtCsieiGu2EXtoJ_4core3ptr8non_nullINtB7_7NonNullpE13new_unchecked18precondition_checkCs3GcDDz6nV1P_7autocfg, symObjAddr: 0x1B30, symBinAddr: 0x1000089F0, symSize: 0x90 }
  - { offset: 0x11BE1, size: 0x8, addend: 0x0, symName: __RNvXNtNtCsieiGu2EXtoJ_4core3cmp5implsuNtB4_9PartialEq2eqCs3GcDDz6nV1P_7autocfg, symObjAddr: 0x1C40, symBinAddr: 0x100008B00, symSize: 0x20 }
  - { offset: 0x11CAE, size: 0x8, addend: 0x0, symName: __RNvXsn_NtNtCsieiGu2EXtoJ_4core3cmp5implsyNtB7_9PartialEq2eqCs3GcDDz6nV1P_7autocfg, symObjAddr: 0x2A40, symBinAddr: 0x1000098E0, symSize: 0x20 }
  - { offset: 0x11CF2, size: 0x8, addend: 0x0, symName: __RNvYjNtNtCsieiGu2EXtoJ_4core3cmp3Ord3maxCs3GcDDz6nV1P_7autocfg, symObjAddr: 0x2C20, symBinAddr: 0x100009A10, symSize: 0x60 }
  - { offset: 0x11D5E, size: 0x8, addend: 0x0, symName: __RNvYjNtNtCsieiGu2EXtoJ_4core3cmp3Ord3minCs3GcDDz6nV1P_7autocfg, symObjAddr: 0x2C80, symBinAddr: 0x100009A70, symSize: 0x60 }
  - { offset: 0x11DD6, size: 0x8, addend: 0x0, symName: __RINvMNtCsieiGu2EXtoJ_4core3stre11starts_withReECs3GcDDz6nV1P_7autocfg, symObjAddr: 0x0, symBinAddr: 0x100006EC0, symSize: 0x40 }
  - { offset: 0x11E50, size: 0x8, addend: 0x0, symName: __RINvMNtCsieiGu2EXtoJ_4core3stre12trim_matchesNvMNtNtB5_4char7methodsc13is_whitespaceECs3GcDDz6nV1P_7autocfg, symObjAddr: 0x40, symBinAddr: 0x100006F00, symSize: 0x180 }
  - { offset: 0x12000, size: 0x8, addend: 0x0, symName: __RINvMNtCsieiGu2EXtoJ_4core3stre4findcECs3GcDDz6nV1P_7autocfg, symObjAddr: 0x1C0, symBinAddr: 0x100007080, symSize: 0xD0 }
  - { offset: 0x1208D, size: 0x8, addend: 0x0, symName: __RINvMNtCsieiGu2EXtoJ_4core3stre5parsejECs3GcDDz6nV1P_7autocfg, symObjAddr: 0x290, symBinAddr: 0x100007150, symSize: 0x30 }
  - { offset: 0x120C4, size: 0x8, addend: 0x0, symName: __RINvMNtCsieiGu2EXtoJ_4core3stre5splitcECs3GcDDz6nV1P_7autocfg, symObjAddr: 0x2C0, symBinAddr: 0x100007180, symSize: 0xB0 }
  - { offset: 0x1213D, size: 0x8, addend: 0x0, symName: __RINvMNtCsieiGu2EXtoJ_4core3stre6splitncECs3GcDDz6nV1P_7autocfg, symObjAddr: 0x370, symBinAddr: 0x100007230, symSize: 0xF0 }
  - { offset: 0x121B8, size: 0x8, addend: 0x0, symName: __RINvMNtCsieiGu2EXtoJ_4core3stre8containsReECs3GcDDz6nV1P_7autocfg, symObjAddr: 0x460, symBinAddr: 0x100007320, symSize: 0x40 }
  - { offset: 0x121FE, size: 0x8, addend: 0x0, symName: __RNvMNtCsieiGu2EXtoJ_4core3stre3lenCs3GcDDz6nV1P_7autocfg, symObjAddr: 0x1120, symBinAddr: 0x100007FE0, symSize: 0x20 }
  - { offset: 0x1222A, size: 0x8, addend: 0x0, symName: __RNvMNtCsieiGu2EXtoJ_4core3stre4trimCs3GcDDz6nV1P_7autocfg, symObjAddr: 0x1140, symBinAddr: 0x100008000, symSize: 0x20 }
  - { offset: 0x12258, size: 0x8, addend: 0x0, symName: __RNvMNtCsieiGu2EXtoJ_4core3stre5charsCs3GcDDz6nV1P_7autocfg, symObjAddr: 0x1160, symBinAddr: 0x100008020, symSize: 0x20 }
  - { offset: 0x122FA, size: 0x8, addend: 0x0, symName: __RNvMNtCsieiGu2EXtoJ_4core3stre5linesCs3GcDDz6nV1P_7autocfg, symObjAddr: 0x1180, symBinAddr: 0x100008040, symSize: 0xE0 }
  - { offset: 0x1238A, size: 0x8, addend: 0x0, symName: __RNvMNtCsieiGu2EXtoJ_4core3stre8is_emptyCs3GcDDz6nV1P_7autocfg, symObjAddr: 0x1260, symBinAddr: 0x100008120, symSize: 0x20 }
  - { offset: 0x12562, size: 0x8, addend: 0x0, symName: __RNvXs8_NtNtCsieiGu2EXtoJ_4core3str6traitsINtNtNtB9_3ops5range7RangeTojEINtNtNtB9_5slice5index10SliceIndexeE3getCs3GcDDz6nV1P_7autocfg, symObjAddr: 0x2370, symBinAddr: 0x100009230, symSize: 0x110 }
  - { offset: 0x12688, size: 0x8, addend: 0x0, symName: __RNvXs8_NtNtCsieiGu2EXtoJ_4core3str6traitsINtNtNtB9_3ops5range7RangeTojEINtNtNtB9_5slice5index10SliceIndexeE5indexCs3GcDDz6nV1P_7autocfg, symObjAddr: 0x2480, symBinAddr: 0x100009340, symSize: 0x80 }
  - { offset: 0x1271B, size: 0x8, addend: 0x0, symName: __RNvXs9_NtNtCsieiGu2EXtoJ_4core3str6traitsINtNtNtB9_3ops5range9RangeFromjEINtNtNtB9_5slice5index10SliceIndexeE3getCs3GcDDz6nV1P_7autocfg, symObjAddr: 0x2500, symBinAddr: 0x1000093C0, symSize: 0x130 }
  - { offset: 0x12897, size: 0x8, addend: 0x0, symName: __RNvXs9_NtNtCsieiGu2EXtoJ_4core3str6traitsINtNtNtB9_3ops5range9RangeFromjEINtNtNtB9_5slice5index10SliceIndexeE5indexCs3GcDDz6nV1P_7autocfg, symObjAddr: 0x2630, symBinAddr: 0x1000094F0, symSize: 0x90 }
  - { offset: 0x12B70, size: 0x8, addend: 0x0, symName: __RNvXs8_NtNtCsieiGu2EXtoJ_4core3str5errorNtB5_9Utf8ErrorNtNtB9_3fmt5Debug3fmtCs3GcDDz6nV1P_7autocfg, symObjAddr: 0x22E0, symBinAddr: 0x1000091A0, symSize: 0x90 }
  - { offset: 0x12BB1, size: 0x8, addend: 0x0, symName: __RNvXs3_NtCsieiGu2EXtoJ_4core3strNtB5_8LinesMapINtNtNtB7_3ops8function2FnTReEE4callCs3GcDDz6nV1P_7autocfg, symObjAddr: 0x1E20, symBinAddr: 0x100008CE0, symSize: 0x230 }
  - { offset: 0x12CDA, size: 0x8, addend: 0x0, symName: __RNvXs4_NtCsieiGu2EXtoJ_4core3strNtB5_8LinesMapINtNtNtB7_3ops8function5FnMutTReEE8call_mutCs3GcDDz6nV1P_7autocfg, symObjAddr: 0x2160, symBinAddr: 0x100009020, symSize: 0x40 }
  - { offset: 0x1338F, size: 0x8, addend: 0x0, symName: __RNvXs19_NtCsieiGu2EXtoJ_4core3fmtRNtNtNtB8_3str5error9Utf8ErrorNtB6_5Debug3fmtCs3GcDDz6nV1P_7autocfg, symObjAddr: 0x1CD0, symBinAddr: 0x100008B90, symSize: 0x20 }
  - { offset: 0x135C7, size: 0x8, addend: 0x0, symName: __RINvNtNtNtCsieiGu2EXtoJ_4core4iter8adapters5chain17and_then_or_clearINtB2_5ChainINtNtB8_6option4IterNtNtCsHUR1vrdMJt_3std4path7PathBufEB1g_ERB1A_NvYB14_NtNtNtB6_6traits8iterator8Iterator4nextECs3GcDDz6nV1P_7autocfg, symObjAddr: 0xA00, symBinAddr: 0x1000078C0, symSize: 0xE0 }
  - { offset: 0x1370F, size: 0x8, addend: 0x0, symName: __RINvNtNtNtCsieiGu2EXtoJ_4core4iter8adapters5chain17and_then_or_clearINtNtB8_6option4IterNtNtCsHUR1vrdMJt_3std4path7PathBufERB1o_NvYB14_NtNtNtB6_6traits8iterator8Iterator4nextECs3GcDDz6nV1P_7autocfg, symObjAddr: 0xAE0, symBinAddr: 0x1000079A0, symSize: 0xB0 }
  - { offset: 0x138C0, size: 0x8, addend: 0x0, symName: __RNCNvXs_NtNtNtCsieiGu2EXtoJ_4core4iter8adapters5chainINtB6_5ChainIBQ_INtNtBc_6option4IterNtNtCsHUR1vrdMJt_3std4path7PathBufEB15_EINtB18_8IntoIterRB1p_EENtNtNtBa_6traits8iterator8Iterator4next0Cs3GcDDz6nV1P_7autocfg, symObjAddr: 0x1040, symBinAddr: 0x100007F00, symSize: 0x70 }
  - { offset: 0x13998, size: 0x8, addend: 0x0, symName: __RNCNvXs_NtNtNtCsieiGu2EXtoJ_4core4iter8adapters5chainINtB6_5ChainINtNtBc_6option4IterNtNtCsHUR1vrdMJt_3std4path7PathBufEB11_ENtNtNtBa_6traits8iterator8Iterator4next0Cs3GcDDz6nV1P_7autocfg, symObjAddr: 0x10B0, symBinAddr: 0x100007F70, symSize: 0x70 }
  - { offset: 0x13A71, size: 0x8, addend: 0x0, symName: __RNvXs_NtNtNtCsieiGu2EXtoJ_4core4iter8adapters5chainINtB4_5ChainIBO_INtNtBa_6option4IterNtNtCsHUR1vrdMJt_3std4path7PathBufEB13_EINtB16_8IntoIterRB1n_EENtNtNtB8_6traits8iterator8Iterator4nextCs3GcDDz6nV1P_7autocfg, symObjAddr: 0x2820, symBinAddr: 0x1000096C0, symSize: 0x30 }
  - { offset: 0x13AAF, size: 0x8, addend: 0x0, symName: __RNvXs_NtNtNtCsieiGu2EXtoJ_4core4iter8adapters5chainINtB4_5ChainINtNtBa_6option4IterNtNtCsHUR1vrdMJt_3std4path7PathBufEBZ_ENtNtNtB8_6traits8iterator8Iterator4nextCs3GcDDz6nV1P_7autocfg, symObjAddr: 0x2850, symBinAddr: 0x1000096F0, symSize: 0x30 }
  - { offset: 0x13BB5, size: 0x8, addend: 0x0, symName: __RNvXsh_NtNtNtCsieiGu2EXtoJ_4core4iter8adapters7step_byINtNtNtBb_3ops5range5RangejEINtB5_14SpecRangeSetupBQ_E5setupCs3GcDDz6nV1P_7autocfg, symObjAddr: 0x28E0, symBinAddr: 0x100009780, symSize: 0x160 }
  - { offset: 0x13CF3, size: 0x8, addend: 0x0, symName: __RINvYINtNtNtCsieiGu2EXtoJ_4core3ops5range5RangejENtNtNtNtBa_4iter6traits12double_ended19DoubleEndedIterator9try_rfolduNCINvNvBL_5rfind5checkjNCNvNtNtBa_3str7pattern13simd_contains0E0INtNtB8_12control_flow11ControlFlowjEECs3GcDDz6nV1P_7autocfg, symObjAddr: 0xBE0, symBinAddr: 0x100007AA0, symSize: 0x160 }
  - { offset: 0x13DCA, size: 0x8, addend: 0x0, symName: __RINvYINtNtNtCsieiGu2EXtoJ_4core3ops5range5RangeyENtNtNtNtBa_4iter6traits8iterator8Iterator3mapTyuENCINvXs8_NtCsjK30CmJ87bX_9hashbrown3setINtB1H_7HashSetyNtNtNtCsHUR1vrdMJt_3std4hash6random11RandomStateEINtNtBP_7collect6ExtendyE6extendB3_E0ECs3GcDDz6nV1P_7autocfg, symObjAddr: 0xD40, symBinAddr: 0x100007C00, symSize: 0x20 }
  - { offset: 0x13E22, size: 0x8, addend: 0x0, symName: __RINvYINtNtNtCsieiGu2EXtoJ_4core3ops5range5RangeyENtNtNtNtBa_4iter6traits8iterator8Iterator4folduNCINvNtNtBR_8adapters3map8map_foldyTyuEuNCINvXs8_NtCsjK30CmJ87bX_9hashbrown3setINtB2j_7HashSetyNtNtNtCsHUR1vrdMJt_3std4hash6random11RandomStateEINtNtBP_7collect6ExtendyE6extendB3_E0NCINvNvBL_8for_each4callB25_NCINvXs1i_NtB2l_3mapINtB53_7HashMapyuB33_EIB3R_B25_E6extendINtB1B_3MapB3_B2a_EE0E0E0ECs3GcDDz6nV1P_7autocfg, symObjAddr: 0xD60, symBinAddr: 0x100007C20, symSize: 0x90 }
  - { offset: 0x13EB2, size: 0x8, addend: 0x0, symName: __RINvYINtNtNtCsieiGu2EXtoJ_4core3ops5range5RangeyENtNtNtNtBa_4iter6traits8iterator8Iterator7collectINtNtNtNtCsHUR1vrdMJt_3std11collections4hash3set7HashSetyEECs3GcDDz6nV1P_7autocfg, symObjAddr: 0xDF0, symBinAddr: 0x100007CB0, symSize: 0x50 }
  - { offset: 0x13F47, size: 0x8, addend: 0x0, symName: __RINvYINtNtNtNtCsieiGu2EXtoJ_4core4iter8adapters5chain5ChainINtNtBc_6option4IterNtNtCsHUR1vrdMJt_3std4path7PathBufEBV_ENtNtNtBa_6traits8iterator8Iterator5chainINtBY_6OptionRB1f_EECs3GcDDz6nV1P_7autocfg, symObjAddr: 0xE40, symBinAddr: 0x100007D00, symSize: 0xD0 }
  - { offset: 0x1402F, size: 0x8, addend: 0x0, symName: __RNvXNtNtNtCsieiGu2EXtoJ_4core4iter6traits7collectINtNtNtB6_8adapters5chain5ChainIBM_INtNtB8_6option4IterNtNtCsHUR1vrdMJt_3std4path7PathBufEB1k_EINtB1n_8IntoIterRB1E_EENtB2_12IntoIterator9into_iterCs3GcDDz6nV1P_7autocfg, symObjAddr: 0x1C60, symBinAddr: 0x100008B20, symSize: 0x30 }
  - { offset: 0x14067, size: 0x8, addend: 0x0, symName: __RNvXNtNtNtCsieiGu2EXtoJ_4core4iter6traits7collectINtNtNtB8_3ops5range5RangeyENtB2_12IntoIterator9into_iterCs3GcDDz6nV1P_7autocfg, symObjAddr: 0x1C90, symBinAddr: 0x100008B50, symSize: 0x20 }
  - { offset: 0x140AB, size: 0x8, addend: 0x0, symName: __RNvXs3_NtNtCsieiGu2EXtoJ_4core4iter5rangeINtNtNtB9_3ops5range5RangejENtB5_17RangeIteratorImpl14spec_next_backCs3GcDDz6nV1P_7autocfg, symObjAddr: 0x2070, symBinAddr: 0x100008F30, symSize: 0x70 }
  - { offset: 0x14108, size: 0x8, addend: 0x0, symName: __RNvXs3_NtNtCsieiGu2EXtoJ_4core4iter5rangeINtNtNtB9_3ops5range5RangeyENtB5_17RangeIteratorImpl9spec_nextCs3GcDDz6nV1P_7autocfg, symObjAddr: 0x20E0, symBinAddr: 0x100008FA0, symSize: 0x80 }
  - { offset: 0x14189, size: 0x8, addend: 0x0, symName: __RNvXs4_NtNtCsieiGu2EXtoJ_4core4iter5rangeINtNtNtB9_3ops5range5RangeyENtNtNtB7_6traits8iterator8Iterator4nextCs3GcDDz6nV1P_7autocfg, symObjAddr: 0x21A0, symBinAddr: 0x100009060, symSize: 0x20 }
  - { offset: 0x141C0, size: 0x8, addend: 0x0, symName: __RNvXs4_NtNtCsieiGu2EXtoJ_4core4iter5rangeINtNtNtB9_3ops5range5RangeyENtNtNtB7_6traits8iterator8Iterator9size_hintCs3GcDDz6nV1P_7autocfg, symObjAddr: 0x21C0, symBinAddr: 0x100009080, symSize: 0x80 }
  - { offset: 0x1424A, size: 0x8, addend: 0x0, symName: __RNvXs5_NtNtCsieiGu2EXtoJ_4core4iter5rangeINtNtNtB9_3ops5range5RangejENtNtNtB7_6traits12double_ended19DoubleEndedIterator9next_backCs3GcDDz6nV1P_7autocfg, symObjAddr: 0x2240, symBinAddr: 0x100009100, symSize: 0x20 }
  - { offset: 0x142D7, size: 0x8, addend: 0x0, symName: __RNvXNtCsieiGu2EXtoJ_4core7convertRNtNtCsHUR1vrdMJt_3std4path7PathBufINtB2_5AsRefNtBy_4PathE6as_refCs3GcDDz6nV1P_7autocfg, symObjAddr: 0x1BE0, symBinAddr: 0x100008AA0, symSize: 0x20 }
  - { offset: 0x14317, size: 0x8, addend: 0x0, symName: __RNvXNtCsieiGu2EXtoJ_4core7convertRNtNtCsHUR1vrdMJt_3std4path7PathBufINtB2_5AsRefNtNtNtBA_3ffi6os_str5OsStrE6as_refCs3GcDDz6nV1P_7autocfg, symObjAddr: 0x1C00, symBinAddr: 0x100008AC0, symSize: 0x20 }
  - { offset: 0x14357, size: 0x8, addend: 0x0, symName: __RNvXNtCsieiGu2EXtoJ_4core7convertRRNtNtCsHUR1vrdMJt_3std4path7PathBufINtB2_5AsRefNtNtNtBB_3ffi6os_str5OsStrE6as_refCs3GcDDz6nV1P_7autocfg, symObjAddr: 0x1C20, symBinAddr: 0x100008AE0, symSize: 0x20 }
  - { offset: 0x143A3, size: 0x8, addend: 0x0, symName: __RINvYNtNtNtCsHUR1vrdMJt_3std4hash6random11RandomStateNtNtCsieiGu2EXtoJ_4core4hash11BuildHasher8hash_oneRyECs3GcDDz6nV1P_7autocfg, symObjAddr: 0xF10, symBinAddr: 0x100007DD0, symSize: 0x80 }
  - { offset: 0x14554, size: 0x8, addend: 0x0, symName: __RNvYNtNtNtCsHUR1vrdMJt_3std4hash6random13DefaultHasherNtNtCsieiGu2EXtoJ_4core4hash6Hasher9write_u64Cs3GcDDz6nV1P_7autocfg, symObjAddr: 0x2B40, symBinAddr: 0x1000099E0, symSize: 0x30 }
  - { offset: 0x14819, size: 0x8, addend: 0x0, symName: __RNvXs5_NtNtCsieiGu2EXtoJ_4core5slice5indexINtNtNtB9_3ops5range9RangeFromjEINtB5_10SliceIndexShE5indexCs3GcDDz6nV1P_7autocfg, symObjAddr: 0x2260, symBinAddr: 0x100009120, symSize: 0x80 }
  - { offset: 0x149D1, size: 0x8, addend: 0x0, symName: __RNvXsb_NtCsieiGu2EXtoJ_4core5arrayRARNtNtCsHUR1vrdMJt_3std4path7PathBufj2_NtNtNtNtB7_4iter6traits7collect12IntoIterator9into_iterCs3GcDDz6nV1P_7autocfg, symObjAddr: 0x2880, symBinAddr: 0x100009720, symSize: 0x60 }
  - { offset: 0x14D2B, size: 0x8, addend: 0x0, symName: __RNCNvXs1_NtNtNtCsHUR1vrdMJt_3std2io5error14repr_bitpackedNtB7_4ReprNtNtNtCsieiGu2EXtoJ_4core3ops4drop4Drop4drop0Cs3GcDDz6nV1P_7autocfg, symObjAddr: 0x1010, symBinAddr: 0x100007ED0, symSize: 0x30 }
  - { offset: 0x14DE0, size: 0x8, addend: 0x0, symName: __RNvXs1_NtNtNtCsHUR1vrdMJt_3std2io5error14repr_bitpackedNtB5_4ReprNtNtNtCsieiGu2EXtoJ_4core3ops4drop4Drop4dropCs3GcDDz6nV1P_7autocfg, symObjAddr: 0x1D70, symBinAddr: 0x100008C30, symSize: 0x30 }
  - { offset: 0x14E09, size: 0x8, addend: 0x0, symName: __RINvNtNtNtCsHUR1vrdMJt_3std2io5error14repr_bitpacked11decode_reprINtNtCslJiobkLta79_5alloc5boxed3BoxNtB4_6CustomENCNvXs1_B2_NtB2_4ReprNtNtNtCsieiGu2EXtoJ_4core3ops4drop4Drop4drop0ECs3GcDDz6nV1P_7autocfg, symObjAddr: 0x600, symBinAddr: 0x1000074C0, symSize: 0x200 }
  - { offset: 0x1507B, size: 0x8, addend: 0x0, symName: __RNCNvMs0_NtNtNtCsHUR1vrdMJt_3std2io5error14repr_bitpackedNtB7_4Repr4data0Cs3GcDDz6nV1P_7autocfg, symObjAddr: 0x1000, symBinAddr: 0x100007EC0, symSize: 0x10 }
  - { offset: 0x150B3, size: 0x8, addend: 0x0, symName: __RINvNtNtNtCsHUR1vrdMJt_3std2io5error14repr_bitpacked11decode_reprRNtB4_6CustomNCNvMs0_B2_NtB2_4Repr4data0ECs3GcDDz6nV1P_7autocfg, symObjAddr: 0x800, symBinAddr: 0x1000076C0, symSize: 0x200 }
  - { offset: 0x15314, size: 0x8, addend: 0x0, symName: __RNvNtNtNtCsHUR1vrdMJt_3std2io5error14repr_bitpacked14kind_from_primCs3GcDDz6nV1P_7autocfg, symObjAddr: 0x1580, symBinAddr: 0x100008440, symSize: 0x5B0 }
  - { offset: 0x15D9C, size: 0x8, addend: 0x0, symName: __RNvXs15_NtCsHUR1vrdMJt_3std4pathNtB6_7PathBufINtNtCsieiGu2EXtoJ_4core7convert5AsRefNtNtNtB8_3ffi6os_str5OsStrE6as_refCs3GcDDz6nV1P_7autocfg, symObjAddr: 0x1CB0, symBinAddr: 0x100008B70, symSize: 0x20 }
  - { offset: 0x15DEE, size: 0x8, addend: 0x0, symName: __RNvXsH_NtCsHUR1vrdMJt_3std4pathNtB5_7PathBufNtNtNtCsieiGu2EXtoJ_4core3ops5deref5Deref5derefCs3GcDDz6nV1P_7autocfg, symObjAddr: 0x26E0, symBinAddr: 0x1000095A0, symSize: 0x30 }
  - { offset: 0x15E7C, size: 0x8, addend: 0x0, symName: __RNvXs1r_NtCsHUR1vrdMJt_3std4pathNtB6_7PathBufINtNtCsieiGu2EXtoJ_4core7convert5AsRefNtB6_4PathE6as_refCs3GcDDz6nV1P_7autocfg, symObjAddr: 0x1DA0, symBinAddr: 0x100008C60, symSize: 0x30 }
  - { offset: 0x15F28, size: 0x8, addend: 0x0, symName: __RNvXsA_NtCsHUR1vrdMJt_3std4pathNtB5_7PathBufINtNtCsieiGu2EXtoJ_4core7convert4FromNtNtNtB7_3ffi6os_str8OsStringE4fromCs3GcDDz6nV1P_7autocfg, symObjAddr: 0x26C0, symBinAddr: 0x100009580, symSize: 0x20 }
  - { offset: 0x15F7A, size: 0x8, addend: 0x0, symName: __RNvXsz_NtCsHUR1vrdMJt_3std4pathNtB5_7PathBufINtNtCsieiGu2EXtoJ_4core7convert4FromReE4fromCs3GcDDz6nV1P_7autocfg, symObjAddr: 0x2A60, symBinAddr: 0x100009900, symSize: 0xE0 }
  - { offset: 0x161BF, size: 0x8, addend: 0x0, symName: __RNCNkNvNvMNtNtCsHUR1vrdMJt_3std4hash6randomNtB8_11RandomState3new4KEYS0s_0Cs3GcDDz6nV1P_7autocfg, symObjAddr: 0xFB0, symBinAddr: 0x100007E70, symSize: 0x30 }
  - { offset: 0x161FD, size: 0x8, addend: 0x0, symName: __RNvNvNvMNtNtCsHUR1vrdMJt_3std4hash6randomNtB6_11RandomState3new4KEYS6___initCs3GcDDz6nV1P_7autocfg, symObjAddr: 0x1BC0, symBinAddr: 0x100008A80, symSize: 0x20 }
  - { offset: 0x1621B, size: 0x8, addend: 0x0, symName: __RNCNvMNtNtCsHUR1vrdMJt_3std4hash6randomNtB4_11RandomState3new0Cs3GcDDz6nV1P_7autocfg, symObjAddr: 0xFE0, symBinAddr: 0x100007EA0, symSize: 0x20 }
  - { offset: 0x162E0, size: 0x8, addend: 0x0, symName: __RNvXs2_NtNtCsHUR1vrdMJt_3std4hash6randomNtB5_13DefaultHasherNtNtCsieiGu2EXtoJ_4core4hash6Hasher5writeCs3GcDDz6nV1P_7autocfg, symObjAddr: 0x1DD0, symBinAddr: 0x100008C90, symSize: 0x30 }
  - { offset: 0x1633B, size: 0x8, addend: 0x0, symName: __RNvXs2_NtNtCsHUR1vrdMJt_3std4hash6randomNtB5_13DefaultHasherNtNtCsieiGu2EXtoJ_4core4hash6Hasher6finishCs3GcDDz6nV1P_7autocfg, symObjAddr: 0x1E00, symBinAddr: 0x100008CC0, symSize: 0x20 }
  - { offset: 0x163BA, size: 0x8, addend: 0x0, symName: __RNvXs3_NtNtCsHUR1vrdMJt_3std4hash6randomNtB5_11RandomStateNtNtCsieiGu2EXtoJ_4core7default7Default7defaultCs3GcDDz6nV1P_7autocfg, symObjAddr: 0x2050, symBinAddr: 0x100008F10, symSize: 0x20 }
  - { offset: 0x163F2, size: 0x8, addend: 0x0, symName: __RNvXs_NtNtCsHUR1vrdMJt_3std4hash6randomNtB4_11RandomStateNtNtCsieiGu2EXtoJ_4core4hash11BuildHasher12build_hasherCs3GcDDz6nV1P_7autocfg, symObjAddr: 0x2730, symBinAddr: 0x1000095D0, symSize: 0xF0 }
  - { offset: 0x16737, size: 0x8, addend: 0x0, symName: __RNvXs1_NtCslJiobkLta79_5alloc7raw_vecINtB5_6RawVecINtNtB7_5boxed3BoxDINtNtNtCsieiGu2EXtoJ_4core3ops8function5FnMutuEp6OutputINtNtB1c_6result6ResultuNtNtNtCsHUR1vrdMJt_3std2io5error5ErrorENtNtB1c_6marker4SyncNtB31_4SendEL_EENtNtB1a_4drop4Drop4dropCs3GcDDz6nV1P_7autocfg, symObjAddr: 0x1CF0, symBinAddr: 0x100008BB0, symSize: 0x30 }
  - { offset: 0x16773, size: 0x8, addend: 0x0, symName: __RNvXs1_NtCslJiobkLta79_5alloc7raw_vecINtB5_6RawVecNtNtB7_6string6StringENtNtNtCsieiGu2EXtoJ_4core3ops4drop4Drop4dropCs3GcDDz6nV1P_7autocfg, symObjAddr: 0x1D20, symBinAddr: 0x100008BE0, symSize: 0x30 }
  - { offset: 0x167AF, size: 0x8, addend: 0x0, symName: __RNvXs1_NtCslJiobkLta79_5alloc7raw_vecINtB5_6RawVecPaENtNtNtCsieiGu2EXtoJ_4core3ops4drop4Drop4dropCs3GcDDz6nV1P_7autocfg, symObjAddr: 0x1D50, symBinAddr: 0x100008C10, symSize: 0x20 }
  - { offset: 0x16A09, size: 0x8, addend: 0x0, symName: __RINvMs16_NtCsHUR1vrdMJt_3std4pathNtB7_4Path4joinNtNtCslJiobkLta79_5alloc6string6StringECs3GcDDz6nV1P_7autocfg, symObjAddr: 0x4A0, symBinAddr: 0x100007360, symSize: 0x90 }
  - { offset: 0x16A53, size: 0x8, addend: 0x0, symName: __RINvMsr_NtCsHUR1vrdMJt_3std4pathNtB6_7PathBuf13set_extensionReECs3GcDDz6nV1P_7autocfg, symObjAddr: 0x530, symBinAddr: 0x1000073F0, symSize: 0x70 }
  - { offset: 0x16A9B, size: 0x8, addend: 0x0, symName: __RINvMsr_NtCsHUR1vrdMJt_3std4pathNtB6_7PathBuf4pushRNtNtNtB8_3ffi6os_str8OsStringECs3GcDDz6nV1P_7autocfg, symObjAddr: 0x5A0, symBinAddr: 0x100007460, symSize: 0x60 }
  - { offset: 0x16E4E, size: 0x8, addend: 0x0, symName: __RINvXs8_NtCsjK30CmJ87bX_9hashbrown3setINtB6_7HashSetyNtNtNtCsHUR1vrdMJt_3std4hash6random11RandomStateEINtNtNtNtCsieiGu2EXtoJ_4core4iter6traits7collect6ExtendyE6extendINtNtNtB1L_3ops5range5RangeyEECs3GcDDz6nV1P_7autocfg, symObjAddr: 0xB90, symBinAddr: 0x100007A50, symSize: 0x50 }
  - { offset: 0x16EB0, size: 0x8, addend: 0x0, symName: __RNCINvXs8_NtCsjK30CmJ87bX_9hashbrown3setINtB8_7HashSetyNtNtNtCsHUR1vrdMJt_3std4hash6random11RandomStateEINtNtNtNtCsieiGu2EXtoJ_4core4iter6traits7collect6ExtendyE6extendINtNtNtB1N_3ops5range5RangeyEE0Cs3GcDDz6nV1P_7autocfg, symObjAddr: 0xF90, symBinAddr: 0x100007E50, symSize: 0x20 }
  - { offset: 0x172EF, size: 0x8, addend: 0x0, symName: __RNvMNtNtNtCsjK30CmJ87bX_9hashbrown7control5group4sse2NtB2_5Group44convert_special_to_empty_and_full_to_deletedCs3GcDDz6nV1P_7autocfg, symObjAddr: 0x1280, symBinAddr: 0x100008140, symSize: 0xD0 }
  - { offset: 0x173F7, size: 0x8, addend: 0x0, symName: __RNvMs16_NtCsHUR1vrdMJt_3std4pathNtB6_4Path6to_strCs3GcDDz6nV1P_7autocfg, symObjAddr: 0x1350, symBinAddr: 0x100008210, symSize: 0x80 }
  - { offset: 0x174AB, size: 0x8, addend: 0x0, symName: __RNvMs1_NtNtCsieiGu2EXtoJ_4core3ptr8non_nullINtB5_7NonNullhE20offset_from_unsignedCs3GcDDz6nV1P_7autocfg, symObjAddr: 0x13D0, symBinAddr: 0x100008290, symSize: 0x60 }
  - { offset: 0x17626, size: 0x8, addend: 0x0, symName: __RNvMs2_NtCslJiobkLta79_5alloc7raw_vecNtB5_11RawVecInner16with_capacity_inCs3GcDDz6nV1P_7autocfg, symObjAddr: 0x1430, symBinAddr: 0x1000082F0, symSize: 0x150 }
  - { offset: 0x17C2E, size: 0x8, addend: 0x0, symName: __RINvMsb_NtNtNtCslJiobkLta79_5alloc11collections5btree8navigateINtB6_13LazyLeafRangeNtNtNtB8_4node6marker5DyingNtNtNtCsHUR1vrdMJt_3std3ffi6os_str8OsStringINtNtCsieiGu2EXtoJ_4core6option6OptionB1K_EE16deallocating_endNtNtBc_5alloc6GlobalECs3GcDDz6nV1P_7autocfg, symObjAddr: 0x0, symBinAddr: 0x100009AD0, symSize: 0x90 }
  - { offset: 0x18040, size: 0x8, addend: 0x0, symName: __RINvNtCsHUR1vrdMJt_3std2fs11remove_fileNtNtB4_4path7PathBufECs3GcDDz6nV1P_7autocfg, symObjAddr: 0x740, symBinAddr: 0x10000A210, symSize: 0x70 }
  - { offset: 0x180E5, size: 0x8, addend: 0x0, symName: __RINvNtCsHUR1vrdMJt_3std2fs8metadataRNtNtB4_4path7PathBufECs3GcDDz6nV1P_7autocfg, symObjAddr: 0x7B0, symBinAddr: 0x10000A280, symSize: 0x110 }
  - { offset: 0x18A08, size: 0x8, addend: 0x0, symName: __RNvNvMNtNtCsieiGu2EXtoJ_4core3ptr9const_ptrPp20offset_from_unsigned18precondition_checkCs3GcDDz6nV1P_7autocfg, symObjAddr: 0x2260, symBinAddr: 0x10000BC80, symSize: 0xA0 }
  - { offset: 0x18E5E, size: 0x8, addend: 0x0, symName: __RNvXs1i_NtNtCsieiGu2EXtoJ_4core3str4iterINtB6_6SplitNcENtNtNtNtBa_4iter6traits8iterator8Iterator4nextCs3GcDDz6nV1P_7autocfg, symObjAddr: 0x2980, symBinAddr: 0x10000C1C0, symSize: 0x20 }
  - { offset: 0x18EB0, size: 0x8, addend: 0x0, symName: __RNvXs3_NtNtCsieiGu2EXtoJ_4core3str4iterNtB5_11CharIndicesNtNtNtNtB9_4iter6traits8iterator8Iterator4nextCs3GcDDz6nV1P_7autocfg, symObjAddr: 0x29A0, symBinAddr: 0x10000C1E0, symSize: 0x110 }
  - { offset: 0x190F5, size: 0x8, addend: 0x0, symName: __RNvXs4_NtNtCsieiGu2EXtoJ_4core3str4iterNtB5_11CharIndicesNtNtNtNtB9_4iter6traits12double_ended19DoubleEndedIterator9next_backCs3GcDDz6nV1P_7autocfg, symObjAddr: 0x2AB0, symBinAddr: 0x10000C2F0, symSize: 0x150 }
  - { offset: 0x19255, size: 0x8, addend: 0x0, symName: __RNvXsH_NtNtCsieiGu2EXtoJ_4core3str4iterINtB5_14SplitInclusivecENtNtNtNtB9_4iter6traits8iterator8Iterator4nextCs3GcDDz6nV1P_7autocfg, symObjAddr: 0x3090, symBinAddr: 0x10000C8D0, symSize: 0x20 }
  - { offset: 0x19292, size: 0x8, addend: 0x0, symName: __RNvXsX_NtNtCsieiGu2EXtoJ_4core3str4iterINtB5_5SplitcENtNtNtNtB9_4iter6traits8iterator8Iterator4nextCs3GcDDz6nV1P_7autocfg, symObjAddr: 0x30B0, symBinAddr: 0x10000C8F0, symSize: 0x20 }
  - { offset: 0x192CF, size: 0x8, addend: 0x0, symName: __RNvXss_NtNtCsieiGu2EXtoJ_4core3str4iterNtB5_5LinesNtNtNtNtB9_4iter6traits8iterator8Iterator4nextCs3GcDDz6nV1P_7autocfg, symObjAddr: 0x32C0, symBinAddr: 0x10000C960, symSize: 0x20 }
  - { offset: 0x1A65D, size: 0x8, addend: 0x0, symName: __RNvXNtCsieiGu2EXtoJ_4core7convertRReINtB2_5AsRefNtNtNtCsHUR1vrdMJt_3std3ffi6os_str5OsStrE6as_refCs3GcDDz6nV1P_7autocfg, symObjAddr: 0x2510, symBinAddr: 0x10000BE40, symSize: 0x20 }
  - { offset: 0x1A69D, size: 0x8, addend: 0x0, symName: __RNvXNtCsieiGu2EXtoJ_4core7convertReINtB2_5AsRefNtNtNtCsHUR1vrdMJt_3std3ffi6os_str5OsStrE6as_refCs3GcDDz6nV1P_7autocfg, symObjAddr: 0x2530, symBinAddr: 0x10000BE60, symSize: 0x30 }
  - { offset: 0x1A6E3, size: 0x8, addend: 0x0, symName: __RNvXs1_NtCsieiGu2EXtoJ_4core7convertReINtB5_4IntoNtNtNtCsHUR1vrdMJt_3std3ffi6os_str8OsStringE4intoCs3GcDDz6nV1P_7autocfg, symObjAddr: 0x2950, symBinAddr: 0x10000C190, symSize: 0x30 }
  - { offset: 0x1A889, size: 0x8, addend: 0x0, symName: __RNvXNtNtCsieiGu2EXtoJ_4core3ops12control_flowINtB2_11ControlFlowReENtNtB4_9try_trait3Try11from_outputCs3GcDDz6nV1P_7autocfg, symObjAddr: 0x2560, symBinAddr: 0x10000BE90, symSize: 0x10 }
  - { offset: 0x1A8C7, size: 0x8, addend: 0x0, symName: __RNvXNtNtCsieiGu2EXtoJ_4core3ops12control_flowINtB2_11ControlFlowReENtNtB4_9try_trait3Try6branchCs3GcDDz6nV1P_7autocfg, symObjAddr: 0x2570, symBinAddr: 0x10000BEA0, symSize: 0x60 }
  - { offset: 0x1A93F, size: 0x8, addend: 0x0, symName: __RNvXNtNtCsieiGu2EXtoJ_4core3ops12control_flowINtB2_11ControlFlowjENtNtB4_9try_trait3Try11from_outputCs3GcDDz6nV1P_7autocfg, symObjAddr: 0x25D0, symBinAddr: 0x10000BF00, symSize: 0x10 }
  - { offset: 0x1A97D, size: 0x8, addend: 0x0, symName: __RNvXNtNtCsieiGu2EXtoJ_4core3ops12control_flowINtB2_11ControlFlowjENtNtB4_9try_trait3Try6branchCs3GcDDz6nV1P_7autocfg, symObjAddr: 0x25E0, symBinAddr: 0x10000BF10, symSize: 0x40 }
  - { offset: 0x1A9F5, size: 0x8, addend: 0x0, symName: __RNvXNtNtCsieiGu2EXtoJ_4core3ops12control_flowINtB2_11ControlFlowuENtNtB4_9try_trait3Try11from_outputCs3GcDDz6nV1P_7autocfg, symObjAddr: 0x2620, symBinAddr: 0x10000BF50, symSize: 0x10 }
  - { offset: 0x1AA33, size: 0x8, addend: 0x0, symName: __RNvXNtNtCsieiGu2EXtoJ_4core3ops12control_flowINtB2_11ControlFlowuENtNtB4_9try_trait3Try6branchCs3GcDDz6nV1P_7autocfg, symObjAddr: 0x2630, symBinAddr: 0x10000BF60, symSize: 0x30 }
  - { offset: 0x1AAB1, size: 0x8, addend: 0x0, symName: __RNvXs9_NtNtCsieiGu2EXtoJ_4core3ops12control_flowINtB5_11ControlFlowuENtNtB9_3cmp9PartialEq2eqCs3GcDDz6nV1P_7autocfg, symObjAddr: 0x2FB0, symBinAddr: 0x10000C7F0, symSize: 0xE0 }
  - { offset: 0x1ABD3, size: 0x8, addend: 0x0, symName: __RNvXs_NtNtCsieiGu2EXtoJ_4core3ops12control_flowINtB4_11ControlFlowReEINtNtB6_9try_trait12FromResidualIBK_B12_NtNtB8_7convert10InfallibleEE13from_residualCs3GcDDz6nV1P_7autocfg, symObjAddr: 0x3270, symBinAddr: 0x10000C910, symSize: 0x20 }
  - { offset: 0x1AC11, size: 0x8, addend: 0x0, symName: __RNvXs_NtNtCsieiGu2EXtoJ_4core3ops12control_flowINtB4_11ControlFlowjEINtNtB6_9try_trait12FromResidualIBK_jNtNtB8_7convert10InfallibleEE13from_residualCs3GcDDz6nV1P_7autocfg, symObjAddr: 0x3290, symBinAddr: 0x10000C930, symSize: 0x20 }
  - { offset: 0x1AC4F, size: 0x8, addend: 0x0, symName: __RNvXs_NtNtCsieiGu2EXtoJ_4core3ops12control_flowINtB4_11ControlFlowuEINtNtB6_9try_trait12FromResidualIBK_uNtNtB8_7convert10InfallibleEE13from_residualCs3GcDDz6nV1P_7autocfg, symObjAddr: 0x32B0, symBinAddr: 0x10000C950, symSize: 0x10 }
  - { offset: 0x1B22C, size: 0x8, addend: 0x0, symName: __RINvYINtNtNtCsieiGu2EXtoJ_4core3str4iter5SplitcENtNtNtNtBa_4iter6traits8iterator8Iterator3mapNtNtCslJiobkLta79_5alloc6string6StringNvYeNtB1v_8ToString9to_stringECs3GcDDz6nV1P_7autocfg, symObjAddr: 0x8C0, symBinAddr: 0x10000A390, symSize: 0x30 }
  - { offset: 0x1B29A, size: 0x8, addend: 0x0, symName: __RINvYINtNtNtCsieiGu2EXtoJ_4core3str4iter5SplitcENtNtNtNtBa_4iter6traits8iterator8Iterator3mapReNvMB8_e4trimECs3GcDDz6nV1P_7autocfg, symObjAddr: 0x8F0, symBinAddr: 0x10000A3C0, symSize: 0x30 }
  - { offset: 0x1B308, size: 0x8, addend: 0x0, symName: __RINvYINtNtNtCsieiGu2EXtoJ_4core3str4iter5SplitcENtNtNtNtBa_4iter6traits8iterator8Iterator8try_folduNCINvNtNtBQ_8adapters3map12map_try_foldReB2c_uINtNtNtBa_3ops12control_flow11ControlFlowB2c_ENvMB8_e4trimNCINvNvBK_4find5checkB2c_QNCNvCs3GcDDz6nV1P_7autocfg9rustflags0E0E0B2j_EB3J_, symObjAddr: 0x920, symBinAddr: 0x10000A3F0, symSize: 0x1B0 }
  - { offset: 0x1B3BB, size: 0x8, addend: 0x0, symName: __RINvYNtNtNtCsieiGu2EXtoJ_4core3str4iter5LinesNtNtNtNtB9_4iter6traits8iterator8Iterator4findNCNvMNtCs3GcDDz6nV1P_7autocfg7versionNtB1w_7Version12from_command0EB1y_, symObjAddr: 0xB80, symBinAddr: 0x10000A5A0, symSize: 0x90 }
  - { offset: 0x1B43A, size: 0x8, addend: 0x0, symName: __RINvYNtNtNtCsieiGu2EXtoJ_4core3str4iter5LinesNtNtNtNtB9_4iter6traits8iterator8Iterator8try_folduNCINvNvBH_4find5checkReNCNvMNtCs3GcDDz6nV1P_7autocfg7versionNtB1Y_7Version12from_command0E0INtNtNtB9_3ops12control_flow11ControlFlowB1R_EEB20_, symObjAddr: 0xC10, symBinAddr: 0x10000A630, symSize: 0x1A0 }
  - { offset: 0x1B4ED, size: 0x8, addend: 0x0, symName: __RNvYINtNtNtCsieiGu2EXtoJ_4core3str4iter5SplitcENtNtNtNtB9_4iter6traits8iterator8Iterator9size_hintCs3GcDDz6nV1P_7autocfg, symObjAddr: 0x32E0, symBinAddr: 0x10000C980, symSize: 0x30 }
  - { offset: 0x1B7AA, size: 0x8, addend: 0x0, symName: __RNvNvNtCsieiGu2EXtoJ_4core4hint16assert_unchecked18precondition_checkCs3GcDDz6nV1P_7autocfg, symObjAddr: 0x2300, symBinAddr: 0x10000BD20, symSize: 0xA0 }
  - { offset: 0x1B80A, size: 0x8, addend: 0x0, symName: __RNvNvNtCsieiGu2EXtoJ_4core4hint21unreachable_unchecked18precondition_checkCs3GcDDz6nV1P_7autocfg, symObjAddr: 0x23A0, symBinAddr: 0x10000BDC0, symSize: 0x80 }
  - { offset: 0x1BA51, size: 0x8, addend: 0x0, symName: __RNvXs19_NtCsieiGu2EXtoJ_4core3fmtRNtNtCs3GcDDz6nV1P_7autocfg5error9ErrorKindNtB6_5Debug3fmtBA_, symObjAddr: 0x27D0, symBinAddr: 0x10000C010, symSize: 0x20 }
  - { offset: 0x1BCEA, size: 0x8, addend: 0x0, symName: __RNvNtCs3GcDDz6nV1P_7autocfg5error7from_io, symObjAddr: 0x2060, symBinAddr: 0x10000BA80, symSize: 0x40 }
  - { offset: 0x1BD16, size: 0x8, addend: 0x0, symName: __RNvNtCs3GcDDz6nV1P_7autocfg5error8from_num, symObjAddr: 0x20A0, symBinAddr: 0x10000BAC0, symSize: 0x40 }
  - { offset: 0x1BD42, size: 0x8, addend: 0x0, symName: __RNvNtCs3GcDDz6nV1P_7autocfg5error8from_str, symObjAddr: 0x20E0, symBinAddr: 0x10000BB00, symSize: 0x40 }
  - { offset: 0x1BD6E, size: 0x8, addend: 0x0, symName: __RNvNtCs3GcDDz6nV1P_7autocfg5error9from_exit, symObjAddr: 0x2120, symBinAddr: 0x10000BB40, symSize: 0x40 }
  - { offset: 0x1BD9A, size: 0x8, addend: 0x0, symName: __RNvNtCs3GcDDz6nV1P_7autocfg5error9from_utf8, symObjAddr: 0x2160, symBinAddr: 0x10000BB80, symSize: 0x40 }
  - { offset: 0x1BDCB, size: 0x8, addend: 0x0, symName: __RNvXs0_NtCs3GcDDz6nV1P_7autocfg5errorNtB5_5ErrorNtNtCsieiGu2EXtoJ_4core3fmt5Debug3fmtB7_, symObjAddr: 0x2770, symBinAddr: 0x10000BFB0, symSize: 0x60 }
  - { offset: 0x1BE0B, size: 0x8, addend: 0x0, symName: __RNvXs1_NtCs3GcDDz6nV1P_7autocfg5errorNtB5_9ErrorKindNtNtCsieiGu2EXtoJ_4core3fmt5Debug3fmtB7_, symObjAddr: 0x27F0, symBinAddr: 0x10000C030, symSize: 0x160 }
  - { offset: 0x1C104, size: 0x8, addend: 0x0, symName: __RNCINvMsm_NtNtNtCslJiobkLta79_5alloc11collections5btree8navigateINtNtBa_4node6HandleINtB13_7NodeRefNtNtB13_6marker5DyingNtNtNtCsHUR1vrdMJt_3std3ffi6os_str8OsStringINtNtCsieiGu2EXtoJ_4core6option6OptionB1U_ENtB1B_4LeafENtB1B_4EdgeE27deallocating_next_uncheckedNtNtBe_5alloc6GlobalE0Cs3GcDDz6nV1P_7autocfg, symObjAddr: 0xDB0, symBinAddr: 0x10000A7D0, symSize: 0x60 }
  - { offset: 0x1CBDF, size: 0x8, addend: 0x0, symName: __RNvXNvMsT_NtNtNtCslJiobkLta79_5alloc11collections5btree4nodeINtB8_6HandleINtB8_7NodeRefNtNtB8_6marker5DyingpppENtB1p_2KVE12drop_key_valINtB2_7DropperINtNtCsieiGu2EXtoJ_4core6option6OptionNtNtNtCsHUR1vrdMJt_3std3ffi6os_str8OsStringEENtNtNtB2s_3ops4drop4Drop4dropCs3GcDDz6nV1P_7autocfg, symObjAddr: 0x2750, symBinAddr: 0x10000BF90, symSize: 0x20 }
  - { offset: 0x1CD2F, size: 0x8, addend: 0x0, symName: __RNCNvNtCslJiobkLta79_5alloc3fmt6format0Cs3GcDDz6nV1P_7autocfg, symObjAddr: 0xE10, symBinAddr: 0x10000A830, symSize: 0x40 }
  - { offset: 0x1CD60, size: 0x8, addend: 0x0, symName: __RNvNtCslJiobkLta79_5alloc3fmt6formatCs3GcDDz6nV1P_7autocfg, symObjAddr: 0x21A0, symBinAddr: 0x10000BBC0, symSize: 0xC0 }
  - { offset: 0x1CDCA, size: 0x8, addend: 0x0, symName: __RNvXs6_NtCslJiobkLta79_5alloc5boxedINtB5_3BoxDINtNtNtCsieiGu2EXtoJ_4core3ops8function5FnMutuEp6OutputINtNtBP_6result6ResultuNtNtNtCsHUR1vrdMJt_3std2io5error5ErrorENtNtBP_6marker4SyncNtB2D_4SendEL_ENtNtBN_4drop4Drop4dropCs3GcDDz6nV1P_7autocfg, symObjAddr: 0x2C00, symBinAddr: 0x10000C440, symSize: 0xC0 }
  - { offset: 0x1CF07, size: 0x8, addend: 0x0, symName: __RNvXs6_NtCslJiobkLta79_5alloc5boxedINtB5_3BoxDNtNtCsieiGu2EXtoJ_4core5error5ErrorNtNtBM_6marker4SyncNtB1j_4SendEL_ENtNtNtBM_3ops4drop4Drop4dropCs3GcDDz6nV1P_7autocfg, symObjAddr: 0x2CC0, symBinAddr: 0x10000C500, symSize: 0xC0 }
  - { offset: 0x1D044, size: 0x8, addend: 0x0, symName: __RNvXs6_NtCslJiobkLta79_5alloc5boxedINtB5_3BoxNtNtNtCsHUR1vrdMJt_3std2io5error6CustomENtNtNtCsieiGu2EXtoJ_4core3ops4drop4Drop4dropCs3GcDDz6nV1P_7autocfg, symObjAddr: 0x2D80, symBinAddr: 0x10000C5C0, symSize: 0xB0 }
  - { offset: 0x1D17F, size: 0x8, addend: 0x0, symName: __RNvXs6_NtCslJiobkLta79_5alloc5boxedINtB5_3BoxShENtNtNtCsieiGu2EXtoJ_4core3ops4drop4Drop4dropCs3GcDDz6nV1P_7autocfg, symObjAddr: 0x2E30, symBinAddr: 0x10000C670, symSize: 0xC0 }
  - { offset: 0x1D2BC, size: 0x8, addend: 0x0, symName: __RNvXs6_NtCslJiobkLta79_5alloc5boxedINtB5_3BoxSmENtNtNtCsieiGu2EXtoJ_4core3ops4drop4Drop4dropCs3GcDDz6nV1P_7autocfg, symObjAddr: 0x2EF0, symBinAddr: 0x10000C730, symSize: 0xC0 }
  - { offset: 0x1D49A, size: 0x8, addend: 0x0, symName: __RINvMsb_NtNtNtCslJiobkLta79_5alloc11collections5btree8navigateINtB6_13LazyLeafRangeNtNtNtB8_4node6marker5DyingNtNtNtCsHUR1vrdMJt_3std3ffi6os_str8OsStringINtNtCsieiGu2EXtoJ_4core6option6OptionB1K_EE16deallocating_endNtNtBc_5alloc6GlobalECs3GcDDz6nV1P_7autocfg, symObjAddr: 0x0, symBinAddr: 0x100009AD0, symSize: 0x90 }
  - { offset: 0x1D59E, size: 0x8, addend: 0x0, symName: __RINvMsb_NtNtNtCslJiobkLta79_5alloc11collections5btree8navigateINtB6_13LazyLeafRangeNtNtNtB8_4node6marker5DyingNtNtNtCsHUR1vrdMJt_3std3ffi6os_str8OsStringINtNtCsieiGu2EXtoJ_4core6option6OptionB1K_EE27deallocating_next_uncheckedNtNtBc_5alloc6GlobalECs3GcDDz6nV1P_7autocfg, symObjAddr: 0x90, symBinAddr: 0x100009B60, symSize: 0xB0 }
  - { offset: 0x1D721, size: 0x8, addend: 0x0, symName: __RINvMsh_NtNtNtCslJiobkLta79_5alloc11collections5btree4nodeINtB6_7NodeRefNtNtB6_6marker5DyingNtNtNtCsHUR1vrdMJt_3std3ffi6os_str8OsStringINtNtCsieiGu2EXtoJ_4core6option6OptionB1s_ENtB1a_14LeafOrInternalE21deallocate_and_ascendNtNtBc_5alloc6GlobalECs3GcDDz6nV1P_7autocfg, symObjAddr: 0x140, symBinAddr: 0x100009C10, symSize: 0x1A0 }
  - { offset: 0x1D957, size: 0x8, addend: 0x0, symName: __RINvMsj_NtNtNtCslJiobkLta79_5alloc11collections5btree8navigateINtNtB8_4node6HandleINtB11_7NodeRefNtNtB11_6marker5DyingNtNtNtCsHUR1vrdMJt_3std3ffi6os_str8OsStringINtNtCsieiGu2EXtoJ_4core6option6OptionB1S_ENtB1z_4LeafENtB1z_4EdgeE16deallocating_endNtNtBc_5alloc6GlobalECs3GcDDz6nV1P_7autocfg, symObjAddr: 0x2E0, symBinAddr: 0x100009DB0, symSize: 0xF0 }
  - { offset: 0x1DBDA, size: 0x8, addend: 0x0, symName: __RINvMsj_NtNtNtCslJiobkLta79_5alloc11collections5btree8navigateINtNtB8_4node6HandleINtB11_7NodeRefNtNtB11_6marker5DyingNtNtNtCsHUR1vrdMJt_3std3ffi6os_str8OsStringINtNtCsieiGu2EXtoJ_4core6option6OptionB1S_ENtB1z_4LeafENtB1z_4EdgeE17deallocating_nextNtNtBc_5alloc6GlobalECs3GcDDz6nV1P_7autocfg, symObjAddr: 0x3D0, symBinAddr: 0x100009EA0, symSize: 0x370 }
  - { offset: 0x1E06F, size: 0x8, addend: 0x0, symName: __RNvMNtNtNtCsieiGu2EXtoJ_4core4iter8adapters7step_byINtB2_6StepByINtNtNtB8_3ops5range5RangejEE3newCs3GcDDz6nV1P_7autocfg, symObjAddr: 0xE50, symBinAddr: 0x10000A870, symSize: 0xD0 }
  - { offset: 0x1E193, size: 0x8, addend: 0x0, symName: __RNvMsO_NtNtNtCslJiobkLta79_5alloc11collections5btree4nodeINtB5_6HandleINtB5_7NodeRefNtNtB5_6marker5DyingNtNtNtCsHUR1vrdMJt_3std3ffi6os_str8OsStringINtNtCsieiGu2EXtoJ_4core6option6OptionB1E_ENtB1m_8InternalENtB1m_4EdgeE7descendCs3GcDDz6nV1P_7autocfg, symObjAddr: 0xF20, symBinAddr: 0x10000A940, symSize: 0x80 }
  - { offset: 0x1E482, size: 0x8, addend: 0x0, symName: __RNvMsT_NtNtNtCslJiobkLta79_5alloc11collections5btree4nodeINtB5_6HandleINtB5_7NodeRefNtNtB5_6marker5DyingNtNtNtCsHUR1vrdMJt_3std3ffi6os_str8OsStringINtNtCsieiGu2EXtoJ_4core6option6OptionB1E_ENtB1m_14LeafOrInternalENtB1m_2KVE12drop_key_valCs3GcDDz6nV1P_7autocfg, symObjAddr: 0xFA0, symBinAddr: 0x10000A9C0, symSize: 0x140 }
  - { offset: 0x1E7E3, size: 0x8, addend: 0x0, symName: __RNvMsb_NtNtNtCslJiobkLta79_5alloc11collections5btree8navigateINtB5_13LazyLeafRangeNtNtNtB7_4node6marker5DyingNtNtNtCsHUR1vrdMJt_3std3ffi6os_str8OsStringINtNtCsieiGu2EXtoJ_4core6option6OptionB1J_EE10take_frontCs3GcDDz6nV1P_7autocfg, symObjAddr: 0x10E0, symBinAddr: 0x10000AB00, symSize: 0x2E0 }
  - { offset: 0x1EB42, size: 0x8, addend: 0x0, symName: __RNvMsc_NtNtNtCslJiobkLta79_5alloc11collections5btree8navigateINtB5_13LazyLeafRangeNtNtNtB7_4node6marker5DyingNtNtNtCsHUR1vrdMJt_3std3ffi6os_str8OsStringINtNtCsieiGu2EXtoJ_4core6option6OptionB1J_EE10init_frontCs3GcDDz6nV1P_7autocfg, symObjAddr: 0x13C0, symBinAddr: 0x10000ADE0, symSize: 0x280 }
  - { offset: 0x1EDF2, size: 0x8, addend: 0x0, symName: __RNvMse_NtNtNtCslJiobkLta79_5alloc11collections5btree4nodeINtB5_7NodeRefNtNtB5_6marker5DyingNtNtNtCsHUR1vrdMJt_3std3ffi6os_str8OsStringINtNtCsieiGu2EXtoJ_4core6option6OptionB1r_ENtB19_14LeafOrInternalE6ascendCs3GcDDz6nV1P_7autocfg, symObjAddr: 0x1640, symBinAddr: 0x10000B060, symSize: 0x230 }
  - { offset: 0x1EF91, size: 0x8, addend: 0x0, symName: __RNvMsf_NtNtCsieiGu2EXtoJ_4core3str4iterINtB5_13SplitInternalcE14next_inclusiveCs3GcDDz6nV1P_7autocfg, symObjAddr: 0x1870, symBinAddr: 0x10000B290, symSize: 0x160 }
  - { offset: 0x1F0C4, size: 0x8, addend: 0x0, symName: __RNvMsf_NtNtCsieiGu2EXtoJ_4core3str4iterINtB5_13SplitInternalcE4nextCs3GcDDz6nV1P_7autocfg, symObjAddr: 0x19D0, symBinAddr: 0x10000B3F0, symSize: 0x180 }
  - { offset: 0x1F208, size: 0x8, addend: 0x0, symName: __RNvMsf_NtNtCsieiGu2EXtoJ_4core3str4iterINtB5_13SplitInternalcE7get_endCs3GcDDz6nV1P_7autocfg, symObjAddr: 0x1B50, symBinAddr: 0x10000B570, symSize: 0x110 }
  - { offset: 0x1F32E, size: 0x8, addend: 0x0, symName: __RNvMsj_NtCsHUR1vrdMJt_3std2fsNtB5_8Metadata11permissionsCs3GcDDz6nV1P_7autocfg, symObjAddr: 0x1C60, symBinAddr: 0x10000B680, symSize: 0x10 }
  - { offset: 0x1F3B1, size: 0x8, addend: 0x0, symName: __RNvMsj_NtCsHUR1vrdMJt_3std2fsNtB5_8Metadata6is_dirCs3GcDDz6nV1P_7autocfg, symObjAddr: 0x1C70, symBinAddr: 0x10000B690, symSize: 0x20 }
  - { offset: 0x1F46B, size: 0x8, addend: 0x0, symName: __RNvMsl_NtNtCsieiGu2EXtoJ_4core3str4iterINtB5_14SplitNInternalcE4nextCs3GcDDz6nV1P_7autocfg, symObjAddr: 0x1C90, symBinAddr: 0x10000B6B0, symSize: 0x90 }
  - { offset: 0x1F6AB, size: 0x8, addend: 0x0, symName: __RNvMsp_NtNtNtCslJiobkLta79_5alloc11collections5btree8navigateINtNtB7_4node6HandleINtB10_7NodeRefNtNtB10_6marker5DyingNtNtNtCsHUR1vrdMJt_3std3ffi6os_str8OsStringINtNtCsieiGu2EXtoJ_4core6option6OptionB1R_ENtB1y_14LeafOrInternalENtB1y_2KVE14next_leaf_edgeCs3GcDDz6nV1P_7autocfg, symObjAddr: 0x1D20, symBinAddr: 0x10000B740, symSize: 0x320 }
  - { offset: 0x1F93A, size: 0x8, addend: 0x0, symName: __RNvMsq_NtCsHUR1vrdMJt_3std2fsNtB5_11Permissions8readonlyCs3GcDDz6nV1P_7autocfg, symObjAddr: 0x2040, symBinAddr: 0x10000BA60, symSize: 0x20 }
  - { offset: 0x20156, size: 0x8, addend: 0x0, symName: __RINvMCs3GcDDz6nV1P_7autocfgNtB3_7AutoCfg8with_dirNtNtNtCsHUR1vrdMJt_3std3ffi6os_str8OsStringEB3_, symObjAddr: 0x0, symBinAddr: 0x10000C9B0, symSize: 0x840 }
  - { offset: 0x2027B, size: 0x8, addend: 0x0, symName: __RNvNvMCs3GcDDz6nV1P_7autocfgNtB4_7AutoCfg14new_crate_name2ID, symObjAddr: 0x24500, symBinAddr: 0x1000807C0, symSize: 0x0 }
  - { offset: 0x20647, size: 0x8, addend: 0x0, symName: __RNCNvMNtCs3GcDDz6nV1P_7autocfg7versionNtB4_7Version12from_command0B6_, symObjAddr: 0xE70, symBinAddr: 0x10000D790, symSize: 0x40 }
  - { offset: 0x2067D, size: 0x8, addend: 0x0, symName: __RNCNvMNtCs3GcDDz6nV1P_7autocfg7versionNtB4_7Version12from_commands0_0B6_, symObjAddr: 0xEB0, symBinAddr: 0x10000D7D0, symSize: 0x40 }
  - { offset: 0x206A5, size: 0x8, addend: 0x0, symName: __RNCNvMNtCs3GcDDz6nV1P_7autocfg7versionNtB4_7Version12from_commands1_0B6_, symObjAddr: 0xEF0, symBinAddr: 0x10000D810, symSize: 0x40 }
  - { offset: 0x206CD, size: 0x8, addend: 0x0, symName: __RNCNvMNtCs3GcDDz6nV1P_7autocfg7versionNtB4_7Version12from_commands_0B6_, symObjAddr: 0xF30, symBinAddr: 0x10000D850, symSize: 0x40 }
  - { offset: 0x20723, size: 0x8, addend: 0x0, symName: __RNCNCNCNvCs3GcDDz6nV1P_7autocfg19dir_contains_target000B7_, symObjAddr: 0xB60, symBinAddr: 0x10000D510, symSize: 0x40 }
  - { offset: 0x2074D, size: 0x8, addend: 0x0, symName: __RNCNCNCNvCs3GcDDz6nV1P_7autocfg19dir_contains_target00s_0B7_, symObjAddr: 0xBA0, symBinAddr: 0x10000D550, symSize: 0x40 }
  - { offset: 0x20794, size: 0x8, addend: 0x0, symName: __RNCNCNvCs3GcDDz6nV1P_7autocfg19dir_contains_target00B5_, symObjAddr: 0xBE0, symBinAddr: 0x10000D590, symSize: 0x120 }
  - { offset: 0x20802, size: 0x8, addend: 0x0, symName: __RNCNvCs3GcDDz6nV1P_7autocfg19dir_contains_target0B3_, symObjAddr: 0xD00, symBinAddr: 0x10000D6B0, symSize: 0xB0 }
  - { offset: 0x20858, size: 0x8, addend: 0x0, symName: __RNCNvCs3GcDDz6nV1P_7autocfg9rustflags0B3_, symObjAddr: 0xE40, symBinAddr: 0x10000D760, symSize: 0x30 }
  - { offset: 0x20899, size: 0x8, addend: 0x0, symName: __RNvCs3GcDDz6nV1P_7autocfg10rerun_path, symObjAddr: 0xF70, symBinAddr: 0x10000D890, symSize: 0x60 }
  - { offset: 0x208DF, size: 0x8, addend: 0x0, symName: __RNvCs3GcDDz6nV1P_7autocfg16emit_possibility, symObjAddr: 0xFD0, symBinAddr: 0x10000D8F0, symSize: 0x60 }
  - { offset: 0x20925, size: 0x8, addend: 0x0, symName: __RNvCs3GcDDz6nV1P_7autocfg19dir_contains_target, symObjAddr: 0x1030, symBinAddr: 0x10000D950, symSize: 0xC0 }
  - { offset: 0x20973, size: 0x8, addend: 0x0, symName: __RNvCs3GcDDz6nV1P_7autocfg3new, symObjAddr: 0x10F0, symBinAddr: 0x10000DA10, symSize: 0xF0 }
  - { offset: 0x209C9, size: 0x8, addend: 0x0, symName: __RNvCs3GcDDz6nV1P_7autocfg4emit, symObjAddr: 0x11E0, symBinAddr: 0x10000DB00, symSize: 0x60 }
  - { offset: 0x20A0F, size: 0x8, addend: 0x0, symName: __RNvCs3GcDDz6nV1P_7autocfg8new_uuid, symObjAddr: 0x12A0, symBinAddr: 0x10000DB60, symSize: 0x130 }
  - { offset: 0x20AAF, size: 0x8, addend: 0x0, symName: __RNvCs3GcDDz6nV1P_7autocfg9rustflags, symObjAddr: 0x1430, symBinAddr: 0x10000DC90, symSize: 0x450 }
  - { offset: 0x212A8, size: 0x8, addend: 0x0, symName: __RNvXs5_NtNtNtCsHUR1vrdMJt_3std2os2fd5ownedNtB5_7OwnedFdNtNtNtCsieiGu2EXtoJ_4core3ops4drop4Drop4dropCs3GcDDz6nV1P_7autocfg, symObjAddr: 0x4820, symBinAddr: 0x1000101C0, symSize: 0x30 }
  - { offset: 0x21E31, size: 0x8, addend: 0x0, symName: __RNvXs5_NtNtCsieiGu2EXtoJ_4core3num5errorNtB5_15TryFromIntErrorNtNtB9_3fmt5Debug3fmtCs3GcDDz6nV1P_7autocfg, symObjAddr: 0x47D0, symBinAddr: 0x100010170, symSize: 0x50 }
  - { offset: 0x21E71, size: 0x8, addend: 0x0, symName: __RNvXsb_NtNtCsieiGu2EXtoJ_4core3num5errorNtB5_13ParseIntErrorNtNtB9_3fmt5Debug3fmtCs3GcDDz6nV1P_7autocfg, symObjAddr: 0x4A50, symBinAddr: 0x1000103F0, symSize: 0x60 }
  - { offset: 0x233F5, size: 0x8, addend: 0x0, symName: __RNvXs1_NtNtNtCsieiGu2EXtoJ_4core3ops8function5implsQNCNvCs3GcDDz6nV1P_7autocfg9rustflags0INtB7_5FnMutTRReEE8call_mutBS_, symObjAddr: 0x4330, symBinAddr: 0x10000FD80, symSize: 0x30 }
  - { offset: 0x2353F, size: 0x8, addend: 0x0, symName: __RNvYINtNtNtCsieiGu2EXtoJ_4core5slice4iter4IterhENtNtNtNtB9_4iter8adapters3zip27TrustedRandomAccessNoCoerce4sizeCs3GcDDz6nV1P_7autocfg, symObjAddr: 0x4DF0, symBinAddr: 0x100010790, symSize: 0x30 }
  - { offset: 0x23588, size: 0x8, addend: 0x0, symName: __RINvYINtNtNtCsieiGu2EXtoJ_4core5slice4iter4IterhENtNtNtNtBa_4iter6traits8iterator8Iterator3zipRShECs3GcDDz6nV1P_7autocfg, symObjAddr: 0x980, symBinAddr: 0x10000D330, symSize: 0xD0 }
  - { offset: 0x235FE, size: 0x8, addend: 0x0, symName: __RINvYINtNtNtCsieiGu2EXtoJ_4core5slice4iter7WindowshENtNtNtNtBa_4iter6traits8iterator8Iterator8try_folduNCINvNvBO_3any5checkRShNCNvNtNtBa_3str7pattern13simd_containss_0E0INtNtNtBa_3ops12control_flow11ControlFlowuEECs3GcDDz6nV1P_7autocfg, symObjAddr: 0xA50, symBinAddr: 0x10000D400, symSize: 0x110 }
  - { offset: 0x23778, size: 0x8, addend: 0x0, symName: __RNvXs2E_NtNtCsieiGu2EXtoJ_4core5slice4iterINtB6_4IterNtNtCslJiobkLta79_5alloc6string6StringENtNtNtNtBa_4iter6traits8iterator8Iterator4nextCs3GcDDz6nV1P_7autocfg, symObjAddr: 0x4360, symBinAddr: 0x10000FDB0, symSize: 0x90 }
  - { offset: 0x23899, size: 0x8, addend: 0x0, symName: __RNvXs2E_NtNtCsieiGu2EXtoJ_4core5slice4iterINtB6_4IterRNtNtCsHUR1vrdMJt_3std4path7PathBufENtNtNtNtBa_4iter6traits8iterator8Iterator4nextCs3GcDDz6nV1P_7autocfg, symObjAddr: 0x43F0, symBinAddr: 0x10000FE40, symSize: 0x90 }
  - { offset: 0x239BA, size: 0x8, addend: 0x0, symName: __RNvXs2E_NtNtCsieiGu2EXtoJ_4core5slice4iterINtB6_4IterReENtNtNtNtBa_4iter6traits8iterator8Iterator4nextCs3GcDDz6nV1P_7autocfg, symObjAddr: 0x4480, symBinAddr: 0x10000FED0, symSize: 0x90 }
  - { offset: 0x23ADB, size: 0x8, addend: 0x0, symName: __RNvXs2E_NtNtCsieiGu2EXtoJ_4core5slice4iterINtB6_4IterhENtNtNtNtBa_4iter6traits8iterator8Iterator24___iterator_get_uncheckedCs3GcDDz6nV1P_7autocfg, symObjAddr: 0x4510, symBinAddr: 0x10000FF60, symSize: 0x20 }
  - { offset: 0x23B36, size: 0x8, addend: 0x0, symName: __RNvXs2E_NtNtCsieiGu2EXtoJ_4core5slice4iterINtB6_4IterhENtNtNtNtBa_4iter6traits8iterator8Iterator4nextCs3GcDDz6nV1P_7autocfg, symObjAddr: 0x4530, symBinAddr: 0x10000FF80, symSize: 0x90 }
  - { offset: 0x23C57, size: 0x8, addend: 0x0, symName: __RNvXs2E_NtNtCsieiGu2EXtoJ_4core5slice4iterINtB6_4IterhENtNtNtNtBa_4iter6traits8iterator8Iterator9size_hintCs3GcDDz6nV1P_7autocfg, symObjAddr: 0x45C0, symBinAddr: 0x100010010, symSize: 0x60 }
  - { offset: 0x23CCC, size: 0x8, addend: 0x0, symName: __RNvXs2F_NtNtCsieiGu2EXtoJ_4core5slice4iterINtB6_4IterhENtNtNtNtBa_4iter6traits12double_ended19DoubleEndedIterator9next_backCs3GcDDz6nV1P_7autocfg, symObjAddr: 0x4620, symBinAddr: 0x100010070, symSize: 0x100 }
  - { offset: 0x23E21, size: 0x8, addend: 0x0, symName: __RNvXsY_NtNtCsieiGu2EXtoJ_4core5slice4iterINtB5_7WindowshENtNtNtNtB9_4iter6traits8iterator8Iterator4nextCs3GcDDz6nV1P_7autocfg, symObjAddr: 0x4850, symBinAddr: 0x1000101F0, symSize: 0x150 }
  - { offset: 0x23F68, size: 0x8, addend: 0x0, symName: __RNvXs_NtNtCsieiGu2EXtoJ_4core5slice4iterRShNtNtNtNtB8_4iter6traits7collect12IntoIterator9into_iterCs3GcDDz6nV1P_7autocfg, symObjAddr: 0x49A0, symBinAddr: 0x100010340, symSize: 0x50 }
  - { offset: 0x2419D, size: 0x8, addend: 0x0, symName: __RNvNvXs0_NtNtCsieiGu2EXtoJ_4core5slice5indexjINtB7_10SliceIndexSpE13get_unchecked18precondition_checkCs3GcDDz6nV1P_7autocfg, symObjAddr: 0x4060, symBinAddr: 0x10000FAB0, symSize: 0xA0 }
  - { offset: 0x2420B, size: 0x8, addend: 0x0, symName: __RNvNvXs0_NtNtCsieiGu2EXtoJ_4core5slice5indexjINtB7_10SliceIndexSpE17get_unchecked_mut18precondition_checkCs3GcDDz6nV1P_7autocfg, symObjAddr: 0x4100, symBinAddr: 0x10000FB50, symSize: 0xA0 }
  - { offset: 0x2427F, size: 0x8, addend: 0x0, symName: __RNvNvXs2_NtNtCsieiGu2EXtoJ_4core5slice5indexINtNtNtBb_3ops5range5RangejEINtB7_10SliceIndexSpE13get_unchecked18precondition_checkCs3GcDDz6nV1P_7autocfg, symObjAddr: 0x41A0, symBinAddr: 0x10000FBF0, symSize: 0xC0 }
  - { offset: 0x246CB, size: 0x8, addend: 0x0, symName: __RNvXs19_NtCsieiGu2EXtoJ_4core3fmtRNtNtNtB8_3num5error13ParseIntErrorNtB6_5Debug3fmtCs3GcDDz6nV1P_7autocfg, symObjAddr: 0x4310, symBinAddr: 0x10000FD60, symSize: 0x20 }
  - { offset: 0x248F1, size: 0x8, addend: 0x0, symName: __RNvNvMNtNtCsieiGu2EXtoJ_4core5alloc6layoutNtB4_6Layout25from_size_align_unchecked18precondition_checkCs3GcDDz6nV1P_7autocfg, symObjAddr: 0x3FB0, symBinAddr: 0x10000FA00, symSize: 0xB0 }
  - { offset: 0x24988, size: 0x8, addend: 0x0, symName: __RNvXsb_NtCsieiGu2EXtoJ_4core5arrayRARej2_NtNtNtNtB7_4iter6traits7collect12IntoIterator9into_iterCs3GcDDz6nV1P_7autocfg, symObjAddr: 0x49F0, symBinAddr: 0x100010390, symSize: 0x60 }
  - { offset: 0x24E7C, size: 0x8, addend: 0x0, symName: __RNvXNtNtNtCslJiobkLta79_5alloc11collections5btree3mapINtB2_8BTreeMapNtNtNtCsHUR1vrdMJt_3std3ffi6os_str8OsStringINtNtCsieiGu2EXtoJ_4core6option6OptionB14_EENtNtNtB1Q_3ops4drop4Drop4dropCs3GcDDz6nV1P_7autocfg, symObjAddr: 0x4260, symBinAddr: 0x10000FCB0, symSize: 0x40 }
  - { offset: 0x24F0A, size: 0x8, addend: 0x0, symName: __RNvXNvXsw_NtNtNtCslJiobkLta79_5alloc11collections5btree3mapINtB8_8IntoIterpppENtNtNtCsieiGu2EXtoJ_4core3ops4drop4Drop4dropINtB2_9DropGuardNtNtNtCsHUR1vrdMJt_3std3ffi6os_str8OsStringINtNtB1k_6option6OptionB2c_ENtNtBe_5alloc6GlobalEB1e_4dropCs3GcDDz6nV1P_7autocfg, symObjAddr: 0x42A0, symBinAddr: 0x10000FCF0, symSize: 0x70 }
  - { offset: 0x24F9F, size: 0x8, addend: 0x0, symName: __RNvXsw_NtNtNtCslJiobkLta79_5alloc11collections5btree3mapINtB5_8IntoIterNtNtNtCsHUR1vrdMJt_3std3ffi6os_str8OsStringINtNtCsieiGu2EXtoJ_4core6option6OptionB17_EENtNtNtB1T_3ops4drop4Drop4dropCs3GcDDz6nV1P_7autocfg, symObjAddr: 0x4D50, symBinAddr: 0x1000106F0, symSize: 0xA0 }
  - { offset: 0x25016, size: 0x8, addend: 0x0, symName: __RNvXsv_NtNtNtCslJiobkLta79_5alloc11collections5btree3mapINtB5_8BTreeMapNtNtNtCsHUR1vrdMJt_3std3ffi6os_str8OsStringINtNtCsieiGu2EXtoJ_4core6option6OptionB17_EENtNtNtNtB1T_4iter6traits7collect12IntoIterator9into_iterCs3GcDDz6nV1P_7autocfg, symObjAddr: 0x4AB0, symBinAddr: 0x100010450, symSize: 0x2A0 }
  - { offset: 0x25572, size: 0x8, addend: 0x0, symName: __RINvMCs3GcDDz6nV1P_7autocfgNtB3_7AutoCfg8with_dirNtNtNtCsHUR1vrdMJt_3std3ffi6os_str8OsStringEB3_, symObjAddr: 0x0, symBinAddr: 0x10000C9B0, symSize: 0x840 }
  - { offset: 0x256DE, size: 0x8, addend: 0x0, symName: __RINvMs2_NtNtCsHUR1vrdMJt_3std6thread5localINtB6_8LocalKeyINtNtCsieiGu2EXtoJ_4core4cell4CellTyyEEE4withNCNvMNtNtBa_4hash6randomNtB1H_11RandomState3new0B20_ECs3GcDDz6nV1P_7autocfg, symObjAddr: 0x840, symBinAddr: 0x10000D1F0, symSize: 0x50 }
  - { offset: 0x25797, size: 0x8, addend: 0x0, symName: __RINvMs2_NtNtCsHUR1vrdMJt_3std6thread5localINtB6_8LocalKeyINtNtCsieiGu2EXtoJ_4core4cell4CellTyyEEE8try_withNCNvMNtNtBa_4hash6randomNtB1L_11RandomState3new0B24_ECs3GcDDz6nV1P_7autocfg, symObjAddr: 0x890, symBinAddr: 0x10000D240, symSize: 0xF0 }
  - { offset: 0x259A4, size: 0x8, addend: 0x0, symName: __RNvMCs3GcDDz6nV1P_7autocfgNtB2_7AutoCfg14new_crate_name, symObjAddr: 0x20A0, symBinAddr: 0x10000E0E0, symSize: 0x120 }
  - { offset: 0x25A42, size: 0x8, addend: 0x0, symName: __RNvMCs3GcDDz6nV1P_7autocfgNtB2_7AutoCfg16probe_expression, symObjAddr: 0x2230, symBinAddr: 0x10000E200, symSize: 0x70 }
  - { offset: 0x25A93, size: 0x8, addend: 0x0, symName: __RNvMCs3GcDDz6nV1P_7autocfgNtB2_7AutoCfg19emit_expression_cfg, symObjAddr: 0x26C0, symBinAddr: 0x10000E270, symSize: 0x90 }
  - { offset: 0x25AD4, size: 0x8, addend: 0x0, symName: __RNvMCs3GcDDz6nV1P_7autocfgNtB2_7AutoCfg3new, symObjAddr: 0x2810, symBinAddr: 0x10000E300, symSize: 0xD0 }
  - { offset: 0x25BF3, size: 0x8, addend: 0x0, symName: __RNvMCs3GcDDz6nV1P_7autocfgNtB2_7AutoCfg5probe, symObjAddr: 0x28E0, symBinAddr: 0x10000E3D0, symSize: 0x110 }
  - { offset: 0x25C65, size: 0x8, addend: 0x0, symName: __RNvMCs3GcDDz6nV1P_7autocfgNtB2_7AutoCfg9probe_fmt, symObjAddr: 0x2A90, symBinAddr: 0x10000E4E0, symSize: 0x870 }
  - { offset: 0x25DD6, size: 0x8, addend: 0x0, symName: __RNvMCs3GcDDz6nV1P_7autocfgNtB2_7AutoCfg9probe_raw, symObjAddr: 0x3300, symBinAddr: 0x10000ED50, symSize: 0x80 }
  - { offset: 0x25F65, size: 0x8, addend: 0x0, symName: __RNvMNtCs3GcDDz6nV1P_7autocfg7versionNtB2_7Version12from_command, symObjAddr: 0x3380, symBinAddr: 0x10000EDD0, symSize: 0xB70 }
  - { offset: 0x26130, size: 0x8, addend: 0x0, symName: __RNvMNtCs3GcDDz6nV1P_7autocfg7versionNtB2_7Version3new, symObjAddr: 0x3EF0, symBinAddr: 0x10000F940, symSize: 0x30 }
  - { offset: 0x261B7, size: 0x8, addend: 0x0, symName: __RNvMsx_NtNtNtCslJiobkLta79_5alloc11collections5btree3mapINtB5_8IntoIterNtNtNtCsHUR1vrdMJt_3std3ffi6os_str8OsStringINtNtCsieiGu2EXtoJ_4core6option6OptionB17_EE10dying_nextCs3GcDDz6nV1P_7autocfg, symObjAddr: 0x3F20, symBinAddr: 0x10000F970, symSize: 0x90 }
  - { offset: 0x26DD1, size: 0x8, addend: 0x0, symName: __RINvMNtCsieiGu2EXtoJ_4core6optionINtB3_6OptionNtNtCsHUR1vrdMJt_3std4path7PathBufE14unwrap_or_elseNCNCNCNvCs3GcDDz6nV1P_7autocfg19dir_contains_target000EB1F_, symObjAddr: 0x0, symBinAddr: 0x1000107C0, symSize: 0x80 }
  - { offset: 0x2718D, size: 0x8, addend: 0x0, symName: __RNvNtNtCsHUR1vrdMJt_3std2io5stdio6stderrCs3GcDDz6nV1P_7autocfg, symObjAddr: 0x3110, symBinAddr: 0x100013570, symSize: 0x10 }
  - { offset: 0x271DB, size: 0x8, addend: 0x0, symName: __RNvYNtNtNtNtCsHUR1vrdMJt_3std3sys5stdio4unix6StderrNtNtBa_2io5Write9write_allCs3GcDDz6nV1P_7autocfg, symObjAddr: 0x3CE0, symBinAddr: 0x100014080, symSize: 0x2E0 }
  - { offset: 0x27381, size: 0x8, addend: 0x0, symName: __RNvYNtNtNtNtCsHUR1vrdMJt_3std3sys5stdio4unix6StderrNtNtBa_2io5Write9write_fmtCs3GcDDz6nV1P_7autocfg, symObjAddr: 0x3FC0, symBinAddr: 0x100014360, symSize: 0x170 }
  - { offset: 0x27918, size: 0x8, addend: 0x0, symName: __RINvNtCsHUR1vrdMJt_3std3env3varReECs3GcDDz6nV1P_7autocfg, symObjAddr: 0x770, symBinAddr: 0x100010EF0, symSize: 0x60 }
  - { offset: 0x2794D, size: 0x8, addend: 0x0, symName: __RINvNtCsHUR1vrdMJt_3std3env6var_osReECs3GcDDz6nV1P_7autocfg, symObjAddr: 0x7D0, symBinAddr: 0x100010F50, symSize: 0x60 }
  - { offset: 0x28015, size: 0x8, addend: 0x0, symName: __RINvNtCsieiGu2EXtoJ_4core3ptr13drop_in_placeINtNtB4_6option6OptionINtNtCslJiobkLta79_5alloc5boxed3BoxSmEEECs3GcDDz6nV1P_7autocfg, symObjAddr: 0x8B0, symBinAddr: 0x100010FB0, symSize: 0x40 }
  - { offset: 0x28044, size: 0x8, addend: 0x0, symName: __RINvNtCsieiGu2EXtoJ_4core3ptr13drop_in_placeINtNtB4_6option6OptionNtNtCsHUR1vrdMJt_3std4path7PathBufEECs3GcDDz6nV1P_7autocfg, symObjAddr: 0x8F0, symBinAddr: 0x100010FF0, symSize: 0x40 }
  - { offset: 0x28073, size: 0x8, addend: 0x0, symName: __RINvNtCsieiGu2EXtoJ_4core3ptr13drop_in_placeINtNtB4_6option6OptionNtNtCsHUR1vrdMJt_3std7process10ChildStdinEECs3GcDDz6nV1P_7autocfg, symObjAddr: 0x930, symBinAddr: 0x100011030, symSize: 0x40 }
  - { offset: 0x280A2, size: 0x8, addend: 0x0, symName: __RINvNtCsieiGu2EXtoJ_4core3ptr13drop_in_placeINtNtB4_6option6OptionNtNtCsHUR1vrdMJt_3std7process11ChildStderrEECs3GcDDz6nV1P_7autocfg, symObjAddr: 0x970, symBinAddr: 0x100011070, symSize: 0x40 }
  - { offset: 0x280D1, size: 0x8, addend: 0x0, symName: __RINvNtCsieiGu2EXtoJ_4core3ptr13drop_in_placeINtNtB4_6option6OptionNtNtCsHUR1vrdMJt_3std7process11ChildStdoutEECs3GcDDz6nV1P_7autocfg, symObjAddr: 0x9B0, symBinAddr: 0x1000110B0, symSize: 0x40 }
  - { offset: 0x28100, size: 0x8, addend: 0x0, symName: __RINvNtCsieiGu2EXtoJ_4core3ptr13drop_in_placeINtNtB4_6option6OptionNtNtCslJiobkLta79_5alloc6string6StringEECs3GcDDz6nV1P_7autocfg, symObjAddr: 0x9F0, symBinAddr: 0x1000110F0, symSize: 0x40 }
  - { offset: 0x2812F, size: 0x8, addend: 0x0, symName: __RINvNtCsieiGu2EXtoJ_4core3ptr13drop_in_placeINtNtB4_6option6OptionNtNtNtCsHUR1vrdMJt_3std3ffi6os_str8OsStringEECs3GcDDz6nV1P_7autocfg, symObjAddr: 0xA30, symBinAddr: 0x100011130, symSize: 0x40 }
  - { offset: 0x2815E, size: 0x8, addend: 0x0, symName: __RINvNtCsieiGu2EXtoJ_4core3ptr13drop_in_placeINtNtB4_6option6OptionNtNtNtCslJiobkLta79_5alloc3ffi5c_str7CStringEECs3GcDDz6nV1P_7autocfg, symObjAddr: 0xA70, symBinAddr: 0x100011170, symSize: 0x40 }
  - { offset: 0x2818D, size: 0x8, addend: 0x0, symName: __RINvNtCsieiGu2EXtoJ_4core3ptr13drop_in_placeINtNtB4_6option6OptionNtNtNtNtNtCsHUR1vrdMJt_3std3sys7process4unix6common5StdioEECs3GcDDz6nV1P_7autocfg, symObjAddr: 0xAB0, symBinAddr: 0x1000111B0, symSize: 0x40 }
  - { offset: 0x281BC, size: 0x8, addend: 0x0, symName: __RINvNtCsieiGu2EXtoJ_4core3ptr13drop_in_placeINtNtB4_6result6ResultNtNtCs3GcDDz6nV1P_7autocfg7version7VersionNtNtB16_5error5ErrorEEB16_, symObjAddr: 0xAF0, symBinAddr: 0x1000111F0, symSize: 0x30 }
  - { offset: 0x281EB, size: 0x8, addend: 0x0, symName: __RINvNtCsieiGu2EXtoJ_4core3ptr13drop_in_placeINtNtB4_6result6ResultNtNtCslJiobkLta79_5alloc6string6StringNtNtCsHUR1vrdMJt_3std3env8VarErrorEECs3GcDDz6nV1P_7autocfg, symObjAddr: 0xB20, symBinAddr: 0x100011220, symSize: 0x40 }
  - { offset: 0x2821A, size: 0x8, addend: 0x0, symName: __RINvNtCsieiGu2EXtoJ_4core3ptr13drop_in_placeINtNtB4_6result6ResultuNtNtCs3GcDDz6nV1P_7autocfg5error5ErrorEEB17_, symObjAddr: 0xB60, symBinAddr: 0x100011260, symSize: 0x40 }
  - { offset: 0x28249, size: 0x8, addend: 0x0, symName: __RINvNtCsieiGu2EXtoJ_4core3ptr13drop_in_placeINtNtB4_6result6ResultuNtNtNtCsHUR1vrdMJt_3std2io5error5ErrorEECs3GcDDz6nV1P_7autocfg, symObjAddr: 0xBA0, symBinAddr: 0x1000112A0, symSize: 0x40 }
  - { offset: 0x28278, size: 0x8, addend: 0x0, symName: __RINvNtCsieiGu2EXtoJ_4core3ptr13drop_in_placeINtNtCsjK30CmJ87bX_9hashbrown10scopeguard10ScopeGuardNtNtBL_3raw13RawTableInnerNCINvMsa_B1z_B1x_14prepare_resizeNtNtCslJiobkLta79_5alloc5alloc6GlobalE0EECs3GcDDz6nV1P_7autocfg, symObjAddr: 0xBE0, symBinAddr: 0x1000112E0, symSize: 0x20 }
  - { offset: 0x282A7, size: 0x8, addend: 0x0, symName: __RINvNtCsieiGu2EXtoJ_4core3ptr13drop_in_placeINtNtCsjK30CmJ87bX_9hashbrown10scopeguard10ScopeGuardQNtNtBL_3raw13RawTableInnerNCNvMsa_B1A_B1y_15rehash_in_place0EECs3GcDDz6nV1P_7autocfg, symObjAddr: 0xC00, symBinAddr: 0x100011300, symSize: 0x20 }
  - { offset: 0x282D6, size: 0x8, addend: 0x0, symName: __RINvNtCsieiGu2EXtoJ_4core3ptr13drop_in_placeINtNtCsjK30CmJ87bX_9hashbrown3map7HashMapyuNtNtNtCsHUR1vrdMJt_3std4hash6random11RandomStateEECs3GcDDz6nV1P_7autocfg, symObjAddr: 0xC20, symBinAddr: 0x100011320, symSize: 0x20 }
  - { offset: 0x28305, size: 0x8, addend: 0x0, symName: __RINvNtCsieiGu2EXtoJ_4core3ptr13drop_in_placeINtNtCsjK30CmJ87bX_9hashbrown3map8IntoIteryuEECs3GcDDz6nV1P_7autocfg, symObjAddr: 0xC40, symBinAddr: 0x100011340, symSize: 0x20 }
  - { offset: 0x28334, size: 0x8, addend: 0x0, symName: __RINvNtCsieiGu2EXtoJ_4core3ptr13drop_in_placeINtNtCsjK30CmJ87bX_9hashbrown3raw11RawIntoIterTyuEEECs3GcDDz6nV1P_7autocfg, symObjAddr: 0xC60, symBinAddr: 0x100011360, symSize: 0x20 }
  - { offset: 0x28363, size: 0x8, addend: 0x0, symName: __RINvNtCsieiGu2EXtoJ_4core3ptr13drop_in_placeINtNtCsjK30CmJ87bX_9hashbrown3raw8RawTableTyuEEECs3GcDDz6nV1P_7autocfg, symObjAddr: 0xC80, symBinAddr: 0x100011380, symSize: 0x20 }
  - { offset: 0x28392, size: 0x8, addend: 0x0, symName: __RINvNtCsieiGu2EXtoJ_4core3ptr13drop_in_placeINtNtCsjK30CmJ87bX_9hashbrown3set7HashSetyNtNtNtCsHUR1vrdMJt_3std4hash6random11RandomStateEECs3GcDDz6nV1P_7autocfg, symObjAddr: 0xCA0, symBinAddr: 0x1000113A0, symSize: 0x20 }
  - { offset: 0x283C1, size: 0x8, addend: 0x0, symName: __RINvNtCsieiGu2EXtoJ_4core3ptr13drop_in_placeINtNtCsjK30CmJ87bX_9hashbrown3set8IntoIteryEECs3GcDDz6nV1P_7autocfg, symObjAddr: 0xCC0, symBinAddr: 0x1000113C0, symSize: 0x20 }
  - { offset: 0x283F0, size: 0x8, addend: 0x0, symName: __RINvNtCsieiGu2EXtoJ_4core3ptr13drop_in_placeINtNtCslJiobkLta79_5alloc3vec3VecINtNtBL_5boxed3BoxDINtNtNtB4_3ops8function5FnMutuEp6OutputINtNtB4_6result6ResultuNtNtNtCsHUR1vrdMJt_3std2io5error5ErrorENtNtB4_6marker4SyncNtB3b_4SendEL_EEECs3GcDDz6nV1P_7autocfg, symObjAddr: 0xCE0, symBinAddr: 0x1000113E0, symSize: 0x50 }
  - { offset: 0x2841F, size: 0x8, addend: 0x0, symName: __RINvNtCsieiGu2EXtoJ_4core3ptr13drop_in_placeINtNtCslJiobkLta79_5alloc3vec3VecNtNtBL_6string6StringEECs3GcDDz6nV1P_7autocfg, symObjAddr: 0xD30, symBinAddr: 0x100011430, symSize: 0x50 }
  - { offset: 0x2844E, size: 0x8, addend: 0x0, symName: __RINvNtCsieiGu2EXtoJ_4core3ptr13drop_in_placeINtNtCslJiobkLta79_5alloc3vec3VecPaEECs3GcDDz6nV1P_7autocfg, symObjAddr: 0xD80, symBinAddr: 0x100011480, symSize: 0x50 }
  - { offset: 0x2847D, size: 0x8, addend: 0x0, symName: __RINvNtCsieiGu2EXtoJ_4core3ptr13drop_in_placeINtNtCslJiobkLta79_5alloc3vec3VechEECs3GcDDz6nV1P_7autocfg, symObjAddr: 0xDD0, symBinAddr: 0x1000114D0, symSize: 0x50 }
  - { offset: 0x284AC, size: 0x8, addend: 0x0, symName: __RINvNtCsieiGu2EXtoJ_4core3ptr13drop_in_placeINtNtCslJiobkLta79_5alloc5boxed3BoxDINtNtNtB4_3ops8function5FnMutuEp6OutputINtNtB4_6result6ResultuNtNtNtCsHUR1vrdMJt_3std2io5error5ErrorENtNtB4_6marker4SyncNtB2V_4SendEL_EECs3GcDDz6nV1P_7autocfg, symObjAddr: 0xE20, symBinAddr: 0x100011520, symSize: 0x70 }
  - { offset: 0x284DB, size: 0x8, addend: 0x0, symName: __RINvNtCsieiGu2EXtoJ_4core3ptr13drop_in_placeINtNtCslJiobkLta79_5alloc5boxed3BoxDNtNtB4_5error5ErrorNtNtB4_6marker4SyncNtB1B_4SendEL_EECs3GcDDz6nV1P_7autocfg, symObjAddr: 0xE90, symBinAddr: 0x100011590, symSize: 0x70 }
  - { offset: 0x2850A, size: 0x8, addend: 0x0, symName: __RINvNtCsieiGu2EXtoJ_4core3ptr13drop_in_placeINtNtCslJiobkLta79_5alloc5boxed3BoxNtNtNtCsHUR1vrdMJt_3std2io5error6CustomEECs3GcDDz6nV1P_7autocfg, symObjAddr: 0xF00, symBinAddr: 0x100011600, symSize: 0x50 }
  - { offset: 0x28539, size: 0x8, addend: 0x0, symName: __RINvNtCsieiGu2EXtoJ_4core3ptr13drop_in_placeINtNtCslJiobkLta79_5alloc5boxed3BoxShEECs3GcDDz6nV1P_7autocfg, symObjAddr: 0xF50, symBinAddr: 0x100011650, symSize: 0x20 }
  - { offset: 0x28568, size: 0x8, addend: 0x0, symName: __RINvNtCsieiGu2EXtoJ_4core3ptr13drop_in_placeINtNtCslJiobkLta79_5alloc5boxed3BoxSmEECs3GcDDz6nV1P_7autocfg, symObjAddr: 0xF70, symBinAddr: 0x100011670, symSize: 0x20 }
  - { offset: 0x28597, size: 0x8, addend: 0x0, symName: __RINvNtCsieiGu2EXtoJ_4core3ptr13drop_in_placeINtNtCslJiobkLta79_5alloc7raw_vec6RawVecINtNtBL_5boxed3BoxDINtNtNtB4_3ops8function5FnMutuEp6OutputINtNtB4_6result6ResultuNtNtNtCsHUR1vrdMJt_3std2io5error5ErrorENtNtB4_6marker4SyncNtB3i_4SendEL_EEECs3GcDDz6nV1P_7autocfg, symObjAddr: 0xF90, symBinAddr: 0x100011690, symSize: 0x20 }
  - { offset: 0x285C6, size: 0x8, addend: 0x0, symName: __RINvNtCsieiGu2EXtoJ_4core3ptr13drop_in_placeINtNtCslJiobkLta79_5alloc7raw_vec6RawVecNtNtBL_6string6StringEECs3GcDDz6nV1P_7autocfg, symObjAddr: 0xFB0, symBinAddr: 0x1000116B0, symSize: 0x20 }
  - { offset: 0x285F5, size: 0x8, addend: 0x0, symName: __RINvNtCsieiGu2EXtoJ_4core3ptr13drop_in_placeINtNtCslJiobkLta79_5alloc7raw_vec6RawVecPaEECs3GcDDz6nV1P_7autocfg, symObjAddr: 0xFD0, symBinAddr: 0x1000116D0, symSize: 0x20 }
  - { offset: 0x28624, size: 0x8, addend: 0x0, symName: __RINvNtCsieiGu2EXtoJ_4core3ptr13drop_in_placeINtNtCslJiobkLta79_5alloc7raw_vec6RawVechEECs3GcDDz6nV1P_7autocfg, symObjAddr: 0xFF0, symBinAddr: 0x1000116F0, symSize: 0x20 }
  - { offset: 0x28653, size: 0x8, addend: 0x0, symName: __RINvNtCsieiGu2EXtoJ_4core3ptr13drop_in_placeINtNtNtCsHUR1vrdMJt_3std2io5error9ErrorDataINtNtCslJiobkLta79_5alloc5boxed3BoxNtBJ_6CustomEEECs3GcDDz6nV1P_7autocfg, symObjAddr: 0x1010, symBinAddr: 0x100011710, symSize: 0x30 }
  - { offset: 0x28682, size: 0x8, addend: 0x0, symName: __RINvNtCsieiGu2EXtoJ_4core3ptr13drop_in_placeINtNtNtNtCsHUR1vrdMJt_3std11collections4hash3set7HashSetyEECs3GcDDz6nV1P_7autocfg, symObjAddr: 0x1040, symBinAddr: 0x100011740, symSize: 0x20 }
  - { offset: 0x286B1, size: 0x8, addend: 0x0, symName: __RINvNtCsieiGu2EXtoJ_4core3ptr13drop_in_placeINtNtNtNtCsHUR1vrdMJt_3std11collections4hash3set8IntoIteryEECs3GcDDz6nV1P_7autocfg, symObjAddr: 0x1060, symBinAddr: 0x100011760, symSize: 0x20 }
  - { offset: 0x286E0, size: 0x8, addend: 0x0, symName: __RINvNtCsieiGu2EXtoJ_4core3ptr13drop_in_placeINtNtNtNtCslJiobkLta79_5alloc11collections5btree3map8BTreeMapNtNtNtCsHUR1vrdMJt_3std3ffi6os_str8OsStringINtNtB4_6option6OptionB1F_EEECs3GcDDz6nV1P_7autocfg, symObjAddr: 0x1080, symBinAddr: 0x100011780, symSize: 0x20 }
  - { offset: 0x2870F, size: 0x8, addend: 0x0, symName: __RINvNtCsieiGu2EXtoJ_4core3ptr13drop_in_placeINtNtNtNtCslJiobkLta79_5alloc11collections5btree3map8IntoIterNtNtNtCsHUR1vrdMJt_3std3ffi6os_str8OsStringINtNtB4_6option6OptionB1F_EEECs3GcDDz6nV1P_7autocfg, symObjAddr: 0x10A0, symBinAddr: 0x1000117A0, symSize: 0x20 }
  - { offset: 0x2873E, size: 0x8, addend: 0x0, symName: __RINvNtCsieiGu2EXtoJ_4core3ptr13drop_in_placeINtNvMsT_NtNtNtCslJiobkLta79_5alloc11collections5btree4nodeINtBP_6HandleINtBP_7NodeRefNtNtBP_6marker5DyingpppENtB26_2KVE12drop_key_val7DropperINtNtB4_6option6OptionNtNtNtCsHUR1vrdMJt_3std3ffi6os_str8OsStringEEECs3GcDDz6nV1P_7autocfg, symObjAddr: 0x10C0, symBinAddr: 0x1000117C0, symSize: 0x20 }
  - { offset: 0x2876D, size: 0x8, addend: 0x0, symName: __RINvNtCsieiGu2EXtoJ_4core3ptr13drop_in_placeINtNvNtCsHUR1vrdMJt_3std2io17default_write_fmt7AdapterNtNtBN_7process10ChildStdinEECs3GcDDz6nV1P_7autocfg, symObjAddr: 0x10E0, symBinAddr: 0x1000117E0, symSize: 0x20 }
  - { offset: 0x2879C, size: 0x8, addend: 0x0, symName: __RINvNtCsieiGu2EXtoJ_4core3ptr13drop_in_placeINtNvNtCsHUR1vrdMJt_3std2io17default_write_fmt7AdapterNtNtNtNtBN_3sys5stdio4unix6StderrEECs3GcDDz6nV1P_7autocfg, symObjAddr: 0x1100, symBinAddr: 0x100011800, symSize: 0x20 }
  - { offset: 0x287CB, size: 0x8, addend: 0x0, symName: __RINvNtCsieiGu2EXtoJ_4core3ptr13drop_in_placeINtNvXsw_NtNtNtCslJiobkLta79_5alloc11collections5btree3mapINtBP_8IntoIterpppENtNtNtB4_3ops4drop4Drop4drop9DropGuardNtNtNtCsHUR1vrdMJt_3std3ffi6os_str8OsStringINtNtB4_6option6OptionB2x_ENtNtBV_5alloc6GlobalEECs3GcDDz6nV1P_7autocfg, symObjAddr: 0x1120, symBinAddr: 0x100011820, symSize: 0x20 }
  - { offset: 0x287FA, size: 0x8, addend: 0x0, symName: __RINvNtCsieiGu2EXtoJ_4core3ptr13drop_in_placeNCNCNvCs3GcDDz6nV1P_7autocfg19dir_contains_target00EBM_, symObjAddr: 0x1140, symBinAddr: 0x100011840, symSize: 0x20 }
  - { offset: 0x28829, size: 0x8, addend: 0x0, symName: __RINvNtCsieiGu2EXtoJ_4core3ptr13drop_in_placeNCNvCs3GcDDz6nV1P_7autocfg19dir_contains_target0EBK_, symObjAddr: 0x1160, symBinAddr: 0x100011860, symSize: 0x20 }
  - { offset: 0x28858, size: 0x8, addend: 0x0, symName: __RINvNtCsieiGu2EXtoJ_4core3ptr13drop_in_placeNtCs3GcDDz6nV1P_7autocfg7AutoCfgEBI_, symObjAddr: 0x1180, symBinAddr: 0x100011880, symSize: 0xE0 }
  - { offset: 0x28887, size: 0x8, addend: 0x0, symName: __RINvNtCsieiGu2EXtoJ_4core3ptr13drop_in_placeNtNtCs3GcDDz6nV1P_7autocfg5error5ErrorEBK_, symObjAddr: 0x1260, symBinAddr: 0x100011960, symSize: 0x20 }
  - { offset: 0x288B6, size: 0x8, addend: 0x0, symName: __RINvNtCsieiGu2EXtoJ_4core3ptr13drop_in_placeNtNtCs3GcDDz6nV1P_7autocfg5error9ErrorKindEBK_, symObjAddr: 0x1280, symBinAddr: 0x100011980, symSize: 0x30 }
  - { offset: 0x288E5, size: 0x8, addend: 0x0, symName: __RINvNtCsieiGu2EXtoJ_4core3ptr13drop_in_placeNtNtCs3GcDDz6nV1P_7autocfg5rustc5RustcEBK_, symObjAddr: 0x12B0, symBinAddr: 0x1000119B0, symSize: 0x90 }
  - { offset: 0x28914, size: 0x8, addend: 0x0, symName: __RINvNtCsieiGu2EXtoJ_4core3ptr13drop_in_placeNtNtCsHUR1vrdMJt_3std3env8VarErrorECs3GcDDz6nV1P_7autocfg, symObjAddr: 0x1340, symBinAddr: 0x100011A40, symSize: 0x40 }
  - { offset: 0x28943, size: 0x8, addend: 0x0, symName: __RINvNtCsieiGu2EXtoJ_4core3ptr13drop_in_placeNtNtCsHUR1vrdMJt_3std4path7PathBufECs3GcDDz6nV1P_7autocfg, symObjAddr: 0x1380, symBinAddr: 0x100011A80, symSize: 0x20 }
  - { offset: 0x28972, size: 0x8, addend: 0x0, symName: __RINvNtCsieiGu2EXtoJ_4core3ptr13drop_in_placeNtNtCsHUR1vrdMJt_3std7process10ChildStdinECs3GcDDz6nV1P_7autocfg, symObjAddr: 0x13A0, symBinAddr: 0x100011AA0, symSize: 0x20 }
  - { offset: 0x289A1, size: 0x8, addend: 0x0, symName: __RINvNtCsieiGu2EXtoJ_4core3ptr13drop_in_placeNtNtCsHUR1vrdMJt_3std7process11ChildStderrECs3GcDDz6nV1P_7autocfg, symObjAddr: 0x13C0, symBinAddr: 0x100011AC0, symSize: 0x20 }
  - { offset: 0x289D0, size: 0x8, addend: 0x0, symName: __RINvNtCsieiGu2EXtoJ_4core3ptr13drop_in_placeNtNtCsHUR1vrdMJt_3std7process11ChildStdoutECs3GcDDz6nV1P_7autocfg, symObjAddr: 0x13E0, symBinAddr: 0x100011AE0, symSize: 0x20 }
  - { offset: 0x289FF, size: 0x8, addend: 0x0, symName: __RINvNtCsieiGu2EXtoJ_4core3ptr13drop_in_placeNtNtCsHUR1vrdMJt_3std7process5ChildECs3GcDDz6nV1P_7autocfg, symObjAddr: 0x1400, symBinAddr: 0x100011B00, symSize: 0x90 }
  - { offset: 0x28A2E, size: 0x8, addend: 0x0, symName: __RINvNtCsieiGu2EXtoJ_4core3ptr13drop_in_placeNtNtCsHUR1vrdMJt_3std7process6OutputECs3GcDDz6nV1P_7autocfg, symObjAddr: 0x1490, symBinAddr: 0x100011B90, symSize: 0x60 }
  - { offset: 0x28A5D, size: 0x8, addend: 0x0, symName: __RINvNtCsieiGu2EXtoJ_4core3ptr13drop_in_placeNtNtCsHUR1vrdMJt_3std7process7CommandECs3GcDDz6nV1P_7autocfg, symObjAddr: 0x14F0, symBinAddr: 0x100011BF0, symSize: 0x20 }
  - { offset: 0x28A8C, size: 0x8, addend: 0x0, symName: __RINvNtCsieiGu2EXtoJ_4core3ptr13drop_in_placeNtNtCslJiobkLta79_5alloc6string6StringECs3GcDDz6nV1P_7autocfg, symObjAddr: 0x1510, symBinAddr: 0x100011C10, symSize: 0x20 }
  - { offset: 0x28ABB, size: 0x8, addend: 0x0, symName: __RINvNtCsieiGu2EXtoJ_4core3ptr13drop_in_placeNtNtNtCsHUR1vrdMJt_3std2io5error5ErrorECs3GcDDz6nV1P_7autocfg, symObjAddr: 0x1530, symBinAddr: 0x100011C30, symSize: 0x20 }
  - { offset: 0x28AEA, size: 0x8, addend: 0x0, symName: __RINvNtCsieiGu2EXtoJ_4core3ptr13drop_in_placeNtNtNtCsHUR1vrdMJt_3std2io5error6CustomECs3GcDDz6nV1P_7autocfg, symObjAddr: 0x1550, symBinAddr: 0x100011C50, symSize: 0x20 }
  - { offset: 0x28B19, size: 0x8, addend: 0x0, symName: __RINvNtCsieiGu2EXtoJ_4core3ptr13drop_in_placeNtNtNtCsHUR1vrdMJt_3std3ffi6os_str8OsStringECs3GcDDz6nV1P_7autocfg, symObjAddr: 0x1570, symBinAddr: 0x100011C70, symSize: 0x20 }
  - { offset: 0x28B48, size: 0x8, addend: 0x0, symName: __RINvNtCsieiGu2EXtoJ_4core3ptr13drop_in_placeNtNtNtCslJiobkLta79_5alloc3ffi5c_str7CStringECs3GcDDz6nV1P_7autocfg, symObjAddr: 0x1590, symBinAddr: 0x100011C90, symSize: 0x50 }
  - { offset: 0x28B77, size: 0x8, addend: 0x0, symName: __RINvNtCsieiGu2EXtoJ_4core3ptr13drop_in_placeNtNtNtNtCsHUR1vrdMJt_3std2io5error14repr_bitpacked4ReprECs3GcDDz6nV1P_7autocfg, symObjAddr: 0x15E0, symBinAddr: 0x100011CE0, symSize: 0x20 }
  - { offset: 0x28BA6, size: 0x8, addend: 0x0, symName: __RINvNtCsieiGu2EXtoJ_4core3ptr13drop_in_placeNtNtNtNtCsHUR1vrdMJt_3std2os2fd5owned7OwnedFdECs3GcDDz6nV1P_7autocfg, symObjAddr: 0x1600, symBinAddr: 0x100011D00, symSize: 0x20 }
  - { offset: 0x28BD5, size: 0x8, addend: 0x0, symName: __RINvNtCsieiGu2EXtoJ_4core3ptr13drop_in_placeNtNtNtNtCsHUR1vrdMJt_3std3sys2fd4unix8FileDescECs3GcDDz6nV1P_7autocfg, symObjAddr: 0x1620, symBinAddr: 0x100011D20, symSize: 0x20 }
  - { offset: 0x28C04, size: 0x8, addend: 0x0, symName: __RINvNtCsieiGu2EXtoJ_4core3ptr13drop_in_placeNtNtNtNtCsHUR1vrdMJt_3std3sys6os_str5bytes3BufECs3GcDDz6nV1P_7autocfg, symObjAddr: 0x1640, symBinAddr: 0x100011D40, symSize: 0x20 }
  - { offset: 0x28C33, size: 0x8, addend: 0x0, symName: __RINvNtCsieiGu2EXtoJ_4core3ptr13drop_in_placeNtNtNtNtCsHUR1vrdMJt_3std3sys7process3env10CommandEnvECs3GcDDz6nV1P_7autocfg, symObjAddr: 0x1660, symBinAddr: 0x100011D60, symSize: 0x20 }
  - { offset: 0x28C62, size: 0x8, addend: 0x0, symName: __RINvNtCsieiGu2EXtoJ_4core3ptr13drop_in_placeNtNtNtNtNtCsHUR1vrdMJt_3std3sys3pal4unix4pipe8AnonPipeECs3GcDDz6nV1P_7autocfg, symObjAddr: 0x1680, symBinAddr: 0x100011D80, symSize: 0x20 }
  - { offset: 0x28C91, size: 0x8, addend: 0x0, symName: __RINvNtCsieiGu2EXtoJ_4core3ptr13drop_in_placeNtNtNtNtNtCsHUR1vrdMJt_3std3sys7process4unix6common5StdioECs3GcDDz6nV1P_7autocfg, symObjAddr: 0x16A0, symBinAddr: 0x100011DA0, symSize: 0x30 }
  - { offset: 0x28CC0, size: 0x8, addend: 0x0, symName: __RINvNtCsieiGu2EXtoJ_4core3ptr13drop_in_placeNtNtNtNtNtCsHUR1vrdMJt_3std3sys7process4unix6common7CommandECs3GcDDz6nV1P_7autocfg, symObjAddr: 0x16D0, symBinAddr: 0x100011DD0, symSize: 0x1D0 }
  - { offset: 0x28CEF, size: 0x8, addend: 0x0, symName: __RINvNtCsieiGu2EXtoJ_4core3ptr13drop_in_placeNtNtNtNtNtNtCsHUR1vrdMJt_3std3sys7process4unix6common13cstring_array12CStringArrayECs3GcDDz6nV1P_7autocfg, symObjAddr: 0x18A0, symBinAddr: 0x100011FA0, symSize: 0x50 }
  - { offset: 0x28D1E, size: 0x8, addend: 0x0, symName: __RINvNtCsieiGu2EXtoJ_4core3ptr13drop_in_placeNtNvNtNtNtCslJiobkLta79_5alloc11collections5btree3mem7replace10PanicGuardECs3GcDDz6nV1P_7autocfg, symObjAddr: 0x18F0, symBinAddr: 0x100011FF0, symSize: 0x20 }
  - { offset: 0x28D4D, size: 0x8, addend: 0x0, symName: __RINvNtCsieiGu2EXtoJ_4core3ptr13drop_in_placeSINtNtCslJiobkLta79_5alloc5boxed3BoxDINtNtNtB4_3ops8function5FnMutuEp6OutputINtNtB4_6result6ResultuNtNtNtCsHUR1vrdMJt_3std2io5error5ErrorENtNtB4_6marker4SyncNtB2W_4SendEL_EECs3GcDDz6nV1P_7autocfg, symObjAddr: 0x1910, symBinAddr: 0x100012010, symSize: 0xA0 }
  - { offset: 0x28D7C, size: 0x8, addend: 0x0, symName: __RINvNtCsieiGu2EXtoJ_4core3ptr13drop_in_placeSNtNtCslJiobkLta79_5alloc6string6StringECs3GcDDz6nV1P_7autocfg, symObjAddr: 0x19B0, symBinAddr: 0x1000120B0, symSize: 0xA0 }
  - { offset: 0x29AE5, size: 0x8, addend: 0x0, symName: __RNvXs6_NtCsieiGu2EXtoJ_4core6optionINtB5_6OptionRNtNtCsHUR1vrdMJt_3std4path7PathBufENtNtNtNtB7_4iter6traits7collect12IntoIterator9into_iterCs3GcDDz6nV1P_7autocfg, symObjAddr: 0x39A0, symBinAddr: 0x100013DB0, symSize: 0x10 }
  - { offset: 0x29B22, size: 0x8, addend: 0x0, symName: __RNvXsI_NtCsieiGu2EXtoJ_4core6optionINtB5_6OptionhENtNtB7_3fmt5Debug3fmtCs3GcDDz6nV1P_7autocfg, symObjAddr: 0x39B0, symBinAddr: 0x100013DC0, symSize: 0x80 }
  - { offset: 0x29B8C, size: 0x8, addend: 0x0, symName: __RNvXsd_NtCsieiGu2EXtoJ_4core6optionINtB5_6OptionNtNtNtCsHUR1vrdMJt_3std3ffi6os_str8OsStringENtNtB7_3cmp9PartialEq2eqCs3GcDDz6nV1P_7autocfg, symObjAddr: 0x3A30, symBinAddr: 0x100013E40, symSize: 0xC0 }
  - { offset: 0x29C42, size: 0x8, addend: 0x0, symName: __RNvXsl_NtCsieiGu2EXtoJ_4core6optionINtB5_4IterNtNtCsHUR1vrdMJt_3std4path7PathBufENtNtNtNtB7_4iter6traits8iterator8Iterator4nextCs3GcDDz6nV1P_7autocfg, symObjAddr: 0x3AF0, symBinAddr: 0x100013F00, symSize: 0x20 }
  - { offset: 0x29CC0, size: 0x8, addend: 0x0, symName: __RNvXsw_NtCsieiGu2EXtoJ_4core6optionINtB5_8IntoIterRNtNtCsHUR1vrdMJt_3std4path7PathBufENtNtNtNtB7_4iter6traits8iterator8Iterator4nextCs3GcDDz6nV1P_7autocfg, symObjAddr: 0x3B50, symBinAddr: 0x100013F60, symSize: 0x20 }
  - { offset: 0x2A2E3, size: 0x8, addend: 0x0, symName: __RINvXs0_NtNtNtCsieiGu2EXtoJ_4core4iter8adapters3mapINtB6_3MapINtNtNtBc_3ops5range5RangeyENCINvXs8_NtCsjK30CmJ87bX_9hashbrown3setINtB1y_7HashSetyNtNtNtCsHUR1vrdMJt_3std4hash6random11RandomStateEINtNtNtBa_6traits7collect6ExtendyE6extendBX_E0ENtNtB3a_8iterator8Iterator4folduNCINvNvB3Q_8for_each4callTyuENCINvXs1i_NtB1A_3mapINtB4Z_7HashMapyuB2i_EIB36_B4L_E6extendBN_E0E0ECs3GcDDz6nV1P_7autocfg, symObjAddr: 0x1A50, symBinAddr: 0x100012150, symSize: 0x20 }
  - { offset: 0x2A354, size: 0x8, addend: 0x0, symName: __RINvXs0_NtNtNtCsieiGu2EXtoJ_4core4iter8adapters3mapINtB6_3MapINtNtNtBc_3str4iter5SplitcENvMB12_e4trimENtNtNtBa_6traits8iterator8Iterator8try_folduNCINvNvB1C_4find5checkReQNCNvCs3GcDDz6nV1P_7autocfg9rustflags0E0INtNtNtBc_3ops12control_flow11ControlFlowB2G_EEB2N_, symObjAddr: 0x1A70, symBinAddr: 0x100012170, symSize: 0x30 }
  - { offset: 0x2A3D2, size: 0x8, addend: 0x0, symName: __RNvXs0_NtNtNtCsieiGu2EXtoJ_4core4iter8adapters3mapINtB5_3MapINtNtB7_6filter6FilterIBN_INtNtNtBb_3str4iter5SplitcENvMB1r_e4trimENCNvCs3GcDDz6nV1P_7autocfg9rustflags0ENvYeNtNtCslJiobkLta79_5alloc6string8ToString9to_stringENtNtNtB9_6traits8iterator8Iterator4nextB25_, symObjAddr: 0x35D0, symBinAddr: 0x100013A10, symSize: 0xC0 }
  - { offset: 0x2A47F, size: 0x8, addend: 0x0, symName: __RNvXs0_NtNtNtCsieiGu2EXtoJ_4core4iter8adapters3mapINtB5_3MapINtNtB7_6filter6FilterIBN_INtNtNtBb_3str4iter5SplitcENvMB1r_e4trimENCNvCs3GcDDz6nV1P_7autocfg9rustflags0ENvYeNtNtCslJiobkLta79_5alloc6string8ToString9to_stringENtNtNtB9_6traits8iterator8Iterator9size_hintB25_, symObjAddr: 0x3690, symBinAddr: 0x100013AD0, symSize: 0x30 }
  - { offset: 0x2A4C6, size: 0x8, addend: 0x0, symName: __RNvXs0_NtNtNtCsieiGu2EXtoJ_4core4iter8adapters3mapINtB5_3MapINtNtNtBb_3ops5range5RangeyENCINvXs8_NtCsjK30CmJ87bX_9hashbrown3setINtB1x_7HashSetyNtNtNtCsHUR1vrdMJt_3std4hash6random11RandomStateEINtNtNtB9_6traits7collect6ExtendyE6extendBW_E0ENtNtB39_8iterator8Iterator9size_hintCs3GcDDz6nV1P_7autocfg, symObjAddr: 0x36C0, symBinAddr: 0x100013B00, symSize: 0x30 }
  - { offset: 0x2A50D, size: 0x8, addend: 0x0, symName: __RNvXs0_NtNtNtCsieiGu2EXtoJ_4core4iter8adapters3mapINtB5_3MapINtNtNtBb_3str4iter14SplitInclusivecENtB11_8LinesMapENtNtNtB9_6traits8iterator8Iterator4nextCs3GcDDz6nV1P_7autocfg, symObjAddr: 0x36F0, symBinAddr: 0x100013B30, symSize: 0x90 }
  - { offset: 0x2A5B9, size: 0x8, addend: 0x0, symName: __RNvXs0_NtNtNtCsieiGu2EXtoJ_4core4iter8adapters3mapINtB5_3MapINtNtNtBb_3str4iter5SplitcENvMB11_e4trimENtNtNtB9_6traits8iterator8Iterator9size_hintCs3GcDDz6nV1P_7autocfg, symObjAddr: 0x3780, symBinAddr: 0x100013BC0, symSize: 0x30 }
  - { offset: 0x2A600, size: 0x8, addend: 0x0, symName: __RNvXs0_NtNtNtCsieiGu2EXtoJ_4core4iter8adapters3mapINtB5_3MapINtNtNtBb_3str4iter5SplitcENvYeNtNtCslJiobkLta79_5alloc6string8ToString9to_stringENtNtNtB9_6traits8iterator8Iterator4nextCs3GcDDz6nV1P_7autocfg, symObjAddr: 0x37B0, symBinAddr: 0x100013BF0, symSize: 0xC0 }
  - { offset: 0x2A6AD, size: 0x8, addend: 0x0, symName: __RNvXs0_NtNtNtCsieiGu2EXtoJ_4core4iter8adapters3mapINtB5_3MapINtNtNtBb_3str4iter5SplitcENvYeNtNtCslJiobkLta79_5alloc6string8ToString9to_stringENtNtNtB9_6traits8iterator8Iterator9size_hintCs3GcDDz6nV1P_7autocfg, symObjAddr: 0x3870, symBinAddr: 0x100013CB0, symSize: 0x30 }
  - { offset: 0x2A72D, size: 0x8, addend: 0x0, symName: __RNCINvNtNtNtCsieiGu2EXtoJ_4core4iter8adapters3map12map_try_foldReBZ_uINtNtNtBa_3ops12control_flow11ControlFlowBZ_ENvMNtBa_3stre4trimNCINvNvNtNtNtB8_6traits8iterator8Iterator4find5checkBZ_QNCNvCs3GcDDz6nV1P_7autocfg9rustflags0E0E0B34_, symObjAddr: 0x1D70, symBinAddr: 0x1000123E0, symSize: 0x80 }
  - { offset: 0x2A7C5, size: 0x8, addend: 0x0, symName: __RNCINvNtNtNtCsieiGu2EXtoJ_4core4iter8adapters3map8map_foldyTyuEuNCINvXs8_NtCsjK30CmJ87bX_9hashbrown3setINtB19_7HashSetyNtNtNtCsHUR1vrdMJt_3std4hash6random11RandomStateEINtNtNtB8_6traits7collect6ExtendyE6extendINtNtNtBa_3ops5range5RangeyEE0NCINvNvNtNtB2L_8iterator8Iterator8for_each4callBV_NCINvXs1i_NtB1b_3mapINtB4N_7HashMapyuB1T_EIB2H_BV_E6extendINtB4_3MapB3l_B10_EE0E0E0Cs3GcDDz6nV1P_7autocfg, symObjAddr: 0x1E50, symBinAddr: 0x100012460, symSize: 0x70 }
  - { offset: 0x2A98D, size: 0x8, addend: 0x0, symName: __RINvYINtNtCsieiGu2EXtoJ_4core6option4IterNtNtCsHUR1vrdMJt_3std4path7PathBufENtNtNtNtB8_4iter6traits8iterator8Iterator5chainB3_ECs3GcDDz6nV1P_7autocfg, symObjAddr: 0x1AC0, symBinAddr: 0x1000121A0, symSize: 0x80 }
  - { offset: 0x2AA02, size: 0x8, addend: 0x0, symName: __RINvYINtNtNtNtCsieiGu2EXtoJ_4core4iter8adapters3map3MapINtNtB8_6filter6FilterIB4_INtNtNtBc_3str4iter5SplitcENvMB1m_e4trimENCNvCs3GcDDz6nV1P_7autocfg9rustflags0ENvYeNtNtCslJiobkLta79_5alloc6string8ToString9to_stringENtNtNtBa_6traits8iterator8Iterator7collectINtNtB2G_3vec3VecNtB2E_6StringEEB20_, symObjAddr: 0x1B40, symBinAddr: 0x100012220, symSize: 0x70 }
  - { offset: 0x2AA98, size: 0x8, addend: 0x0, symName: __RINvYINtNtNtNtCsieiGu2EXtoJ_4core4iter8adapters3map3MapINtNtNtBc_3ops5range5RangeyENCINvXs8_NtCsjK30CmJ87bX_9hashbrown3setINtB1s_7HashSetyNtNtNtCsHUR1vrdMJt_3std4hash6random11RandomStateEINtNtNtBa_6traits7collect6ExtendyE6extendBR_E0ENtNtB34_8iterator8Iterator8for_eachNCINvXs1i_NtB1u_3mapINtB4t_7HashMapyuB2c_EIB30_TyuEE6extendB3_E0ECs3GcDDz6nV1P_7autocfg, symObjAddr: 0x1BB0, symBinAddr: 0x100012290, symSize: 0x20 }
  - { offset: 0x2AAE3, size: 0x8, addend: 0x0, symName: __RINvYINtNtNtNtCsieiGu2EXtoJ_4core4iter8adapters3map3MapINtNtNtBc_3str4iter5SplitcENvMBW_e4trimENtNtNtBa_6traits8iterator8Iterator4findQNCNvCs3GcDDz6nV1P_7autocfg9rustflags0EB2d_, symObjAddr: 0x1BD0, symBinAddr: 0x1000122B0, symSize: 0x90 }
  - { offset: 0x2AB62, size: 0x8, addend: 0x0, symName: __RINvYINtNtNtNtCsieiGu2EXtoJ_4core4iter8adapters3map3MapINtNtNtBc_3str4iter5SplitcENvMBW_e4trimENtNtNtBa_6traits8iterator8Iterator6filterNCNvCs3GcDDz6nV1P_7autocfg9rustflags0EB2e_, symObjAddr: 0x1C60, symBinAddr: 0x100012340, symSize: 0x30 }
  - { offset: 0x2ABC7, size: 0x8, addend: 0x0, symName: __RINvYINtNtNtNtCsieiGu2EXtoJ_4core4iter8adapters3map3MapINtNtNtBc_3str4iter5SplitcENvYeNtNtCslJiobkLta79_5alloc6string8ToString9to_stringENtNtNtBa_6traits8iterator8Iterator7collectINtNtB1q_3vec3VecNtB1o_6StringEECs3GcDDz6nV1P_7autocfg, symObjAddr: 0x1C90, symBinAddr: 0x100012370, symSize: 0x70 }
  - { offset: 0x2AC67, size: 0x8, addend: 0x0, symName: __RNCINvNvNtNtNtNtCsieiGu2EXtoJ_4core4iter6traits8iterator8Iterator3any5checkRShNCNvNtNtBe_3str7pattern13simd_containss_0E0Cs3GcDDz6nV1P_7autocfg, symObjAddr: 0x1EC0, symBinAddr: 0x1000124D0, symSize: 0x40 }
  - { offset: 0x2ACCF, size: 0x8, addend: 0x0, symName: __RNCINvNvNtNtNtNtCsieiGu2EXtoJ_4core4iter6traits8iterator8Iterator4find5checkReNCNvMNtCs3GcDDz6nV1P_7autocfg7versionNtB1j_7Version12from_command0E0B1l_, symObjAddr: 0x1F00, symBinAddr: 0x100012510, symSize: 0x70 }
  - { offset: 0x2AD2B, size: 0x8, addend: 0x0, symName: __RNCINvNvNtNtNtNtCsieiGu2EXtoJ_4core4iter6traits8iterator8Iterator4find5checkReQNCNvCs3GcDDz6nV1P_7autocfg9rustflags0E0B1j_, symObjAddr: 0x1F70, symBinAddr: 0x100012580, symSize: 0x70 }
  - { offset: 0x2ADA6, size: 0x8, addend: 0x0, symName: __RNCINvNvNtNtNtNtCsieiGu2EXtoJ_4core4iter6traits8iterator8Iterator8for_each4callTyuENCINvXs1i_NtCsjK30CmJ87bX_9hashbrown3mapINtB1t_7HashMapyuNtNtNtCsHUR1vrdMJt_3std4hash6random11RandomStateEINtNtBa_7collect6ExtendB1f_E6extendINtNtNtBc_8adapters3map3MapINtNtNtBe_3ops5range5RangeyENCINvXs8_NtB1v_3setINtB4C_7HashSetyB2e_EIB32_yE6extendB41_E0EE0E0Cs3GcDDz6nV1P_7autocfg, symObjAddr: 0x1FE0, symBinAddr: 0x1000125F0, symSize: 0x20 }
  - { offset: 0x2AE1F, size: 0x8, addend: 0x0, symName: __RNvXNtNtNtCsieiGu2EXtoJ_4core4iter6traits7collectINtNtB8_6option4IterNtNtCsHUR1vrdMJt_3std4path7PathBufENtB2_12IntoIterator9into_iterCs3GcDDz6nV1P_7autocfg, symObjAddr: 0x3520, symBinAddr: 0x100013980, symSize: 0x10 }
  - { offset: 0x2AE56, size: 0x8, addend: 0x0, symName: __RNvXNtNtNtCsieiGu2EXtoJ_4core4iter6traits7collectINtNtNtB6_8adapters3map3MapINtNtBQ_6filter6FilterIBM_INtNtNtB8_3str4iter5SplitcENvMB1H_e4trimENCNvCs3GcDDz6nV1P_7autocfg9rustflags0ENvYeNtNtCslJiobkLta79_5alloc6string8ToString9to_stringENtB2_12IntoIterator9into_iterB2l_, symObjAddr: 0x3530, symBinAddr: 0x100013990, symSize: 0x30 }
  - { offset: 0x2AE8E, size: 0x8, addend: 0x0, symName: __RNvXNtNtNtCsieiGu2EXtoJ_4core4iter6traits7collectINtNtNtB6_8adapters3map3MapINtNtNtB8_3ops5range5RangeyENCINvXs8_NtCsjK30CmJ87bX_9hashbrown3setINtB1N_7HashSetyNtNtNtCsHUR1vrdMJt_3std4hash6random11RandomStateEINtB2_6ExtendyE6extendB1c_E0ENtB2_12IntoIterator9into_iterCs3GcDDz6nV1P_7autocfg, symObjAddr: 0x3560, symBinAddr: 0x1000139C0, symSize: 0x20 }
  - { offset: 0x2AEC5, size: 0x8, addend: 0x0, symName: __RNvXNtNtNtCsieiGu2EXtoJ_4core4iter6traits7collectINtNtNtB6_8adapters3map3MapINtNtNtB8_3str4iter5SplitcENvYeNtNtCslJiobkLta79_5alloc6string8ToString9to_stringENtB2_12IntoIterator9into_iterCs3GcDDz6nV1P_7autocfg, symObjAddr: 0x3580, symBinAddr: 0x1000139E0, symSize: 0x30 }
  - { offset: 0x2B04E, size: 0x8, addend: 0x0, symName: __RNvXs3_NtNtCsieiGu2EXtoJ_4core3str7patternNvMNtNtB9_4char7methodsc13is_whitespaceNtB5_11MultiCharEq7matchesCs3GcDDz6nV1P_7autocfg, symObjAddr: 0x3980, symBinAddr: 0x100013D90, symSize: 0x20 }
  - { offset: 0x2B09A, size: 0x8, addend: 0x0, symName: __RNvXsr_NtNtCsieiGu2EXtoJ_4core3str7patternNvMNtNtB9_4char7methodsc13is_whitespaceNtB5_7Pattern13into_searcherCs3GcDDz6nV1P_7autocfg, symObjAddr: 0x3B10, symBinAddr: 0x100013F20, symSize: 0x40 }
  - { offset: 0x2B6EA, size: 0x8, addend: 0x0, symName: __RNvXs19_NtCsieiGu2EXtoJ_4core3fmtRINtNtB8_6option6OptionhENtB6_5Debug3fmtCs3GcDDz6nV1P_7autocfg, symObjAddr: 0x38D0, symBinAddr: 0x100013CE0, symSize: 0x20 }
  - { offset: 0x2B730, size: 0x8, addend: 0x0, symName: __RNvXs19_NtCsieiGu2EXtoJ_4core3fmtRNtNtNtCsHUR1vrdMJt_3std2io5error5ErrorNtB6_5Debug3fmtCs3GcDDz6nV1P_7autocfg, symObjAddr: 0x38F0, symBinAddr: 0x100013D00, symSize: 0x20 }
  - { offset: 0x2B776, size: 0x8, addend: 0x0, symName: __RNvXs19_NtCsieiGu2EXtoJ_4core3fmtRReNtB6_5Debug3fmtCs3GcDDz6nV1P_7autocfg, symObjAddr: 0x3910, symBinAddr: 0x100013D20, symSize: 0x20 }
  - { offset: 0x2B8F9, size: 0x8, addend: 0x0, symName: __RNSNvYNCINvMs6_NtCsjK30CmJ87bX_9hashbrown3rawINtBd_8RawTableTyuEE14reserve_rehashNCINvNtBf_3map11make_hasheryuNtNtNtCsHUR1vrdMJt_3std4hash6random11RandomStateE0E0INtNtNtCsieiGu2EXtoJ_4core3ops8function6FnOnceTQNtBd_13RawTableInnerjEE9call_once6vtableCs3GcDDz6nV1P_7autocfg, symObjAddr: 0x2060, symBinAddr: 0x100012650, symSize: 0x30 }
  - { offset: 0x2B93D, size: 0x8, addend: 0x0, symName: __RNSNvYNCINvMs6_NtCsjK30CmJ87bX_9hashbrown3rawINtBd_8RawTableTyuEE24find_or_find_insert_slotNCINvNtBf_3map14equivalent_keyyyuE0NCINvB1w_11make_hasheryuNtNtNtCsHUR1vrdMJt_3std4hash6random11RandomStateE0E0INtNtNtCsieiGu2EXtoJ_4core3ops8function6FnOnceTjEE9call_once6vtableCs3GcDDz6nV1P_7autocfg, symObjAddr: 0x2090, symBinAddr: 0x100012680, symSize: 0x30 }
  - { offset: 0x2B981, size: 0x8, addend: 0x0, symName: __RNvYNCINvMs6_NtCsjK30CmJ87bX_9hashbrown3rawINtBb_8RawTableTyuEE14reserve_rehashNCINvNtBd_3map11make_hasheryuNtNtNtCsHUR1vrdMJt_3std4hash6random11RandomStateE0E0INtNtNtCsieiGu2EXtoJ_4core3ops8function6FnOnceTQNtBb_13RawTableInnerjEE9call_onceCs3GcDDz6nV1P_7autocfg, symObjAddr: 0x3B90, symBinAddr: 0x100013FA0, symSize: 0x50 }
  - { offset: 0x2B9C5, size: 0x8, addend: 0x0, symName: __RNvYNCINvMs6_NtCsjK30CmJ87bX_9hashbrown3rawINtBb_8RawTableTyuEE24find_or_find_insert_slotNCINvNtBd_3map14equivalent_keyyyuE0NCINvB1u_11make_hasheryuNtNtNtCsHUR1vrdMJt_3std4hash6random11RandomStateE0E0INtNtNtCsieiGu2EXtoJ_4core3ops8function6FnOnceTjEE9call_onceCs3GcDDz6nV1P_7autocfg, symObjAddr: 0x3BE0, symBinAddr: 0x100013FF0, symSize: 0x50 }
  - { offset: 0x2BA09, size: 0x8, addend: 0x0, symName: __RNvYNCNkNvNvMNtNtCsHUR1vrdMJt_3std4hash6randomNtBb_11RandomState3new4KEYS0s_0INtNtNtCsieiGu2EXtoJ_4core3ops8function6FnOnceTINtNtB1k_6option6OptionQIB1Z_INtNtB1k_4cell4CellTyyEEEEEE9call_onceCs3GcDDz6nV1P_7autocfg, symObjAddr: 0x3C30, symBinAddr: 0x100014040, symSize: 0x40 }
  - { offset: 0x2BA4D, size: 0x8, addend: 0x0, symName: __RNvYNvNtCs3GcDDz6nV1P_7autocfg5error7from_ioINtNtNtCsieiGu2EXtoJ_4core3ops8function6FnOnceTNtNtNtCsHUR1vrdMJt_3std2io5error5ErrorEE9call_onceB6_, symObjAddr: 0x4180, symBinAddr: 0x100014520, symSize: 0x30 }
  - { offset: 0x2BA91, size: 0x8, addend: 0x0, symName: __RNvYNvNtCs3GcDDz6nV1P_7autocfg5error8from_numINtNtNtCsieiGu2EXtoJ_4core3ops8function6FnOnceTNtNtNtBO_3num5error13ParseIntErrorEE9call_onceB6_, symObjAddr: 0x41B0, symBinAddr: 0x100014550, symSize: 0x30 }
  - { offset: 0x2BAD5, size: 0x8, addend: 0x0, symName: __RNvYNvNtCs3GcDDz6nV1P_7autocfg5error9from_utf8INtNtNtCsieiGu2EXtoJ_4core3ops8function6FnOnceTNtNtNtBP_3str5error9Utf8ErrorEE9call_onceB6_, symObjAddr: 0x41E0, symBinAddr: 0x100014580, symSize: 0x40 }
  - { offset: 0x2BB19, size: 0x8, addend: 0x0, symName: __RNvYNvNvNvMNtNtCsHUR1vrdMJt_3std4hash6randomNtB9_11RandomState3new4KEYS6___initINtNtNtCsieiGu2EXtoJ_4core3ops8function6FnOnceuE9call_onceCs3GcDDz6nV1P_7autocfg, symObjAddr: 0x4220, symBinAddr: 0x1000145C0, symSize: 0x20 }
  - { offset: 0x2BB5D, size: 0x8, addend: 0x0, symName: __RNvYNvYINtNtCsieiGu2EXtoJ_4core6option4IterNtNtCsHUR1vrdMJt_3std4path7PathBufENtNtNtNtBa_4iter6traits8iterator8Iterator4nextINtNtNtBa_3ops8function6FnOnceTQB5_EE9call_onceCs3GcDDz6nV1P_7autocfg, symObjAddr: 0x4240, symBinAddr: 0x1000145E0, symSize: 0x20 }
  - { offset: 0x2BBA1, size: 0x8, addend: 0x0, symName: __RNvYNvYINtNtNtNtCsieiGu2EXtoJ_4core4iter8adapters5chain5ChainINtNtBe_6option4IterNtNtCsHUR1vrdMJt_3std4path7PathBufEBX_ENtNtNtBc_6traits8iterator8Iterator4nextINtNtNtBe_3ops8function6FnOnceTQB5_EE9call_onceCs3GcDDz6nV1P_7autocfg, symObjAddr: 0x4260, symBinAddr: 0x100014600, symSize: 0x20 }
  - { offset: 0x2BBE5, size: 0x8, addend: 0x0, symName: __RNvYNvYNtNtCsHUR1vrdMJt_3std4path7PathBufINtNtCsieiGu2EXtoJ_4core7convert4FromNtNtNtB9_3ffi6os_str8OsStringE4fromINtNtNtBI_3ops8function6FnOnceTB1e_EE9call_onceCs3GcDDz6nV1P_7autocfg, symObjAddr: 0x4280, symBinAddr: 0x100014620, symSize: 0x40 }
  - { offset: 0x2BC29, size: 0x8, addend: 0x0, symName: __RNvYNvYeNtNtCslJiobkLta79_5alloc6borrow7ToOwned8to_ownedINtNtNtCsieiGu2EXtoJ_4core3ops8function6FnOnceTReEE9call_onceCs3GcDDz6nV1P_7autocfg, symObjAddr: 0x42C0, symBinAddr: 0x100014660, symSize: 0x30 }
  - { offset: 0x2BD33, size: 0x8, addend: 0x0, symName: __RNvYNvMNtCsieiGu2EXtoJ_4core3stre4trimINtNtNtB7_3ops8function5FnMutTReEE8call_mutCs3GcDDz6nV1P_7autocfg, symObjAddr: 0x4130, symBinAddr: 0x1000144D0, symSize: 0x30 }
  - { offset: 0x2BD77, size: 0x8, addend: 0x0, symName: __RNvYNvMNtNtCsieiGu2EXtoJ_4core4char7methodsc13is_whitespaceINtNtNtB9_3ops8function5FnMutTcEE8call_mutCs3GcDDz6nV1P_7autocfg, symObjAddr: 0x4160, symBinAddr: 0x100014500, symSize: 0x20 }
  - { offset: 0x2BDBB, size: 0x8, addend: 0x0, symName: __RNvYNvYeNtNtCslJiobkLta79_5alloc6string8ToString9to_stringINtNtNtCsieiGu2EXtoJ_4core3ops8function5FnMutTReEE8call_mutCs3GcDDz6nV1P_7autocfg, symObjAddr: 0x42F0, symBinAddr: 0x100014690, symSize: 0x40 }
  - { offset: 0x2C000, size: 0x8, addend: 0x0, symName: __RNvMNtNtCsieiGu2EXtoJ_4core4char7methodsc13is_whitespaceCs3GcDDz6nV1P_7autocfg, symObjAddr: 0x2B00, symBinAddr: 0x1000130F0, symSize: 0x60 }
  - { offset: 0x2C044, size: 0x8, addend: 0x0, symName: __RNvMNtNtCsieiGu2EXtoJ_4core4char7methodsc8to_digitCs3GcDDz6nV1P_7autocfg, symObjAddr: 0x2B60, symBinAddr: 0x100013150, symSize: 0xF0 }
  - { offset: 0x2C144, size: 0x8, addend: 0x0, symName: __RNvNtNtCsieiGu2EXtoJ_4core4char7methods15encode_utf8_rawCs3GcDDz6nV1P_7autocfg, symObjAddr: 0x3120, symBinAddr: 0x100013580, symSize: 0xE0 }
  - { offset: 0x2C244, size: 0x8, addend: 0x0, symName: __RNvNtNtCsieiGu2EXtoJ_4core4char7methods25encode_utf8_raw_uncheckedCs3GcDDz6nV1P_7autocfg, symObjAddr: 0x3200, symBinAddr: 0x100013660, symSize: 0x140 }
  - { offset: 0x2C535, size: 0x8, addend: 0x0, symName: __RNvNtNtNtCsieiGu2EXtoJ_4core7unicode12unicode_data11white_space6lookupCs3GcDDz6nV1P_7autocfg, symObjAddr: 0x3340, symBinAddr: 0x1000137A0, symSize: 0x110 }
  - { offset: 0x2C594, size: 0x8, addend: 0x0, symName: __RNvNvNtCsieiGu2EXtoJ_4core9ub_checks23maybe_is_nonoverlapping7runtimeCs3GcDDz6nV1P_7autocfg, symObjAddr: 0x3450, symBinAddr: 0x1000138B0, symSize: 0xC0 }
  - { offset: 0x2C74C, size: 0x8, addend: 0x0, symName: __RNvXNtCsieiGu2EXtoJ_4core6borrowyINtB2_6BorrowyE6borrowCs3GcDDz6nV1P_7autocfg, symObjAddr: 0x3510, symBinAddr: 0x100013970, symSize: 0x10 }
  - { offset: 0x2C78D, size: 0x8, addend: 0x0, symName: __RNvYINtNtCsieiGu2EXtoJ_4core6option6OptionNtNtNtCsHUR1vrdMJt_3std3ffi6os_str8OsStringENtNtB7_3cmp9PartialEq2neCs3GcDDz6nV1P_7autocfg, symObjAddr: 0x3B70, symBinAddr: 0x100013F80, symSize: 0x20 }
  - { offset: 0x2D064, size: 0x8, addend: 0x0, symName: __RNCNvMNtCs3GcDDz6nV1P_7autocfg5rustcNtB4_5Rustc3new0B6_, symObjAddr: 0x2020, symBinAddr: 0x100012610, symSize: 0x40 }
  - { offset: 0x2D0F4, size: 0x8, addend: 0x0, symName: __RNvNtCs3GcDDz6nV1P_7autocfg5rustc17get_rustc_wrapper, symObjAddr: 0x2E50, symBinAddr: 0x1000132B0, symSize: 0x2C0 }
  - { offset: 0x2D358, size: 0x8, addend: 0x0, symName: __RINvMNtCsieiGu2EXtoJ_4core6optionINtB3_6OptionNtNtCsHUR1vrdMJt_3std4path7PathBufE14unwrap_or_elseNCNCNCNvCs3GcDDz6nV1P_7autocfg19dir_contains_target000EB1F_, symObjAddr: 0x0, symBinAddr: 0x1000107C0, symSize: 0x80 }
  - { offset: 0x2D3BB, size: 0x8, addend: 0x0, symName: __RINvMNtCsieiGu2EXtoJ_4core6optionINtB3_6OptionNtNtNtCsHUR1vrdMJt_3std3ffi6os_str8OsStringE14unwrap_or_elseNCNvMNtCs3GcDDz6nV1P_7autocfg5rustcNtB1L_5Rustc3new0EB1N_, symObjAddr: 0x80, symBinAddr: 0x100010840, symSize: 0x80 }
  - { offset: 0x2D436, size: 0x8, addend: 0x0, symName: __RINvMNtCsieiGu2EXtoJ_4core6optionINtB3_6OptionNtNtNtCsHUR1vrdMJt_3std3ffi6os_str8OsStringE3mapNtNtBO_4path7PathBufNvYB1u_INtNtB5_7convert4FromBI_E4fromECs3GcDDz6nV1P_7autocfg, symObjAddr: 0x100, symBinAddr: 0x1000108C0, symSize: 0xB0 }
  - { offset: 0x2D4BD, size: 0x8, addend: 0x0, symName: __RINvMNtCsieiGu2EXtoJ_4core6optionINtB3_6OptionRNtNtCsHUR1vrdMJt_3std4path7PathBufE7or_elseNCNvXs_NtNtNtB5_4iter8adapters5chainINtB1x_5ChainIB21_INtB3_4IterBJ_EB2i_EINtB3_8IntoIterBI_EENtNtNtB1B_6traits8iterator8Iterator4next0ECs3GcDDz6nV1P_7autocfg, symObjAddr: 0x1B0, symBinAddr: 0x100010970, symSize: 0x90 }
  - { offset: 0x2D52C, size: 0x8, addend: 0x0, symName: __RINvMNtCsieiGu2EXtoJ_4core6optionINtB3_6OptionRNtNtCsHUR1vrdMJt_3std4path7PathBufE7or_elseNCNvXs_NtNtNtB5_4iter8adapters5chainINtB1x_5ChainINtB3_4IterBJ_EB2d_ENtNtNtB1B_6traits8iterator8Iterator4next0ECs3GcDDz6nV1P_7autocfg, symObjAddr: 0x240, symBinAddr: 0x100010A00, symSize: 0x90 }
  - { offset: 0x2D5D6, size: 0x8, addend: 0x0, symName: __RINvMNtCsieiGu2EXtoJ_4core6optionINtB3_6OptionRNtNtNtCsHUR1vrdMJt_3std3ffi6os_str8OsStringE8and_thenbNCNvCs3GcDDz6nV1P_7autocfg19dir_contains_target0EB1F_, symObjAddr: 0x2D0, symBinAddr: 0x100010A90, symSize: 0x80 }
  - { offset: 0x2D6B2, size: 0x8, addend: 0x0, symName: __RINvMNtCsieiGu2EXtoJ_4core6optionINtB3_6OptionReE10ok_or_elseNtNtCs3GcDDz6nV1P_7autocfg5error5ErrorNCNvMNtB11_7versionNtB1E_7Version12from_commands0_0EB11_, symObjAddr: 0x350, symBinAddr: 0x100010B10, symSize: 0x90 }
  - { offset: 0x2D71D, size: 0x8, addend: 0x0, symName: __RINvMNtCsieiGu2EXtoJ_4core6optionINtB3_6OptionReE10ok_or_elseNtNtCs3GcDDz6nV1P_7autocfg5error5ErrorNCNvMNtB11_7versionNtB1E_7Version12from_commands1_0EB11_, symObjAddr: 0x3E0, symBinAddr: 0x100010BA0, symSize: 0x90 }
  - { offset: 0x2D788, size: 0x8, addend: 0x0, symName: __RINvMNtCsieiGu2EXtoJ_4core6optionINtB3_6OptionReE10ok_or_elseNtNtCs3GcDDz6nV1P_7autocfg5error5ErrorNCNvMNtB11_7versionNtB1E_7Version12from_commands_0EB11_, symObjAddr: 0x470, symBinAddr: 0x100010C30, symSize: 0x90 }
  - { offset: 0x2D913, size: 0x8, addend: 0x0, symName: __RINvMNtCsieiGu2EXtoJ_4core6optionINtB3_6OptionReE11map_or_elseNtNtCslJiobkLta79_5alloc6string6StringNCNvNtB12_3fmt6format0NvYeNtNtB12_6borrow7ToOwned8to_ownedECs3GcDDz6nV1P_7autocfg, symObjAddr: 0x500, symBinAddr: 0x100010CC0, symSize: 0xC0 }
  - { offset: 0x2D9A4, size: 0x8, addend: 0x0, symName: __RINvMNtCsieiGu2EXtoJ_4core6optionINtB3_6OptionReE3mapbNCNCNCNvCs3GcDDz6nV1P_7autocfg19dir_contains_target00s_0EBY_, symObjAddr: 0x5C0, symBinAddr: 0x100010D80, symSize: 0x60 }
  - { offset: 0x2DA1C, size: 0x8, addend: 0x0, symName: __RINvMNtCsieiGu2EXtoJ_4core6optionINtB3_6OptionReE8and_thenbNCNCNvCs3GcDDz6nV1P_7autocfg19dir_contains_target00EB11_, symObjAddr: 0x620, symBinAddr: 0x100010DE0, symSize: 0x90 }
  - { offset: 0x2DABD, size: 0x8, addend: 0x0, symName: __RINvMs_NtNtCsieiGu2EXtoJ_4core3fmt2rtNtB7_9Arguments6new_v1Kj1_KBW_ECs3GcDDz6nV1P_7autocfg, symObjAddr: 0x6B0, symBinAddr: 0x100010E70, symSize: 0x40 }
  - { offset: 0x2DB21, size: 0x8, addend: 0x0, symName: __RINvMs_NtNtCsieiGu2EXtoJ_4core3fmt2rtNtB7_9Arguments6new_v1Kj2_Kj1_ECs3GcDDz6nV1P_7autocfg, symObjAddr: 0x730, symBinAddr: 0x100010EB0, symSize: 0x40 }
  - { offset: 0x2DC33, size: 0x8, addend: 0x0, symName: __RNvMNtCs3GcDDz6nV1P_7autocfg5rustcNtB2_5Rustc3new, symObjAddr: 0x20C0, symBinAddr: 0x1000126B0, symSize: 0x140 }
  - { offset: 0x2DDB6, size: 0x8, addend: 0x0, symName: __RNvMNtCs3GcDDz6nV1P_7autocfg5rustcNtB2_5Rustc7command, symObjAddr: 0x2200, symBinAddr: 0x1000127F0, symSize: 0x200 }
  - { offset: 0x2DE4C, size: 0x8, addend: 0x0, symName: __RNvMNtCs3GcDDz6nV1P_7autocfg5rustcNtB2_5Rustc7version, symObjAddr: 0x2400, symBinAddr: 0x1000129F0, symSize: 0x510 }
  - { offset: 0x2DF3C, size: 0x8, addend: 0x0, symName: __RNvMNtCsieiGu2EXtoJ_4core6optionINtB2_6OptionNtNtCsHUR1vrdMJt_3std4path7PathBufE4iterCs3GcDDz6nV1P_7autocfg, symObjAddr: 0x2910, symBinAddr: 0x100012F00, symSize: 0x50 }
  - { offset: 0x2DFAD, size: 0x8, addend: 0x0, symName: __RNvMNtCsieiGu2EXtoJ_4core6optionINtB2_6OptionNtNtCsHUR1vrdMJt_3std7process10ChildStdinE4takeCs3GcDDz6nV1P_7autocfg, symObjAddr: 0x2960, symBinAddr: 0x100012F50, symSize: 0x20 }
  - { offset: 0x2DFF7, size: 0x8, addend: 0x0, symName: __RNvMNtCsieiGu2EXtoJ_4core6optionINtB2_6OptionNtNtCsHUR1vrdMJt_3std7process10ChildStdinE6expectCs3GcDDz6nV1P_7autocfg, symObjAddr: 0x2980, symBinAddr: 0x100012F70, symSize: 0x60 }
  - { offset: 0x2E04C, size: 0x8, addend: 0x0, symName: __RNvMNtCsieiGu2EXtoJ_4core6optionINtB2_6OptionNtNtCslJiobkLta79_5alloc6string6StringE6as_refCs3GcDDz6nV1P_7autocfg, symObjAddr: 0x29E0, symBinAddr: 0x100012FD0, symSize: 0x50 }
  - { offset: 0x2E0A3, size: 0x8, addend: 0x0, symName: __RNvMNtCsieiGu2EXtoJ_4core6optionINtB2_6OptionNtNtNtCsHUR1vrdMJt_3std3ffi6os_str8OsStringE6as_refCs3GcDDz6nV1P_7autocfg, symObjAddr: 0x2A30, symBinAddr: 0x100013020, symSize: 0x50 }
  - { offset: 0x2E109, size: 0x8, addend: 0x0, symName: __RNvMNtCsieiGu2EXtoJ_4core6optionINtB2_6OptionNtNtNtCsHUR1vrdMJt_3std3ffi6os_str8OsStringE7is_noneCs3GcDDz6nV1P_7autocfg, symObjAddr: 0x2A80, symBinAddr: 0x100013070, symSize: 0x30 }
  - { offset: 0x2E153, size: 0x8, addend: 0x0, symName: __RNvMNtCsieiGu2EXtoJ_4core6optionINtB2_6OptionbE9unwrap_orCs3GcDDz6nV1P_7autocfg, symObjAddr: 0x2AB0, symBinAddr: 0x1000130A0, symSize: 0x50 }
  - { offset: 0x2E1E0, size: 0x8, addend: 0x0, symName: __RNvMs10_NtNtCsieiGu2EXtoJ_4core9core_arch3x86NtB6_7___m128i8as_i8x16Cs3GcDDz6nV1P_7autocfg, symObjAddr: 0x2C50, symBinAddr: 0x100013240, symSize: 0x20 }
  - { offset: 0x2E203, size: 0x8, addend: 0x0, symName: __RNvMs_NtNtCsieiGu2EXtoJ_4core3fmt2rtNtB6_9Arguments16new_v1_formattedCs3GcDDz6nV1P_7autocfg, symObjAddr: 0x2E00, symBinAddr: 0x100013260, symSize: 0x50 }
  - { offset: 0x2E3A1, size: 0x8, addend: 0x0, symName: __RNvXs1_NtCsjK30CmJ87bX_9hashbrown10scopeguardINtB5_10ScopeGuardNtNtB7_3raw13RawTableInnerNCINvMsa_B11_BZ_14prepare_resizeNtNtCslJiobkLta79_5alloc5alloc6GlobalE0ENtNtNtCsieiGu2EXtoJ_4core3ops4drop4Drop4dropCs3GcDDz6nV1P_7autocfg, symObjAddr: 0x3930, symBinAddr: 0x100013D40, symSize: 0x20 }
  - { offset: 0x2E3DB, size: 0x8, addend: 0x0, symName: __RNvXs1_NtCsjK30CmJ87bX_9hashbrown10scopeguardINtB5_10ScopeGuardQNtNtB7_3raw13RawTableInnerNCNvMsa_B12_B10_15rehash_in_place0ENtNtNtCsieiGu2EXtoJ_4core3ops4drop4Drop4dropCs3GcDDz6nV1P_7autocfg, symObjAddr: 0x3950, symBinAddr: 0x100013D60, symSize: 0x30 }
  - { offset: 0x2F1B4, size: 0x8, addend: 0x0, symName: __RINvNtCsHUR1vrdMJt_3std2io17default_write_fmtNtNtB4_7process10ChildStdinECs3GcDDz6nV1P_7autocfg, symObjAddr: 0x0, symBinAddr: 0x1000146D0, symSize: 0x120 }
  - { offset: 0x2F244, size: 0x8, addend: 0x0, symName: __RNvXNvNtCsHUR1vrdMJt_3std2io17default_write_fmtINtB2_7AdapterNtNtB6_7process10ChildStdinENtNtCsieiGu2EXtoJ_4core3fmt5Write9write_strCs3GcDDz6nV1P_7autocfg, symObjAddr: 0x1460, symBinAddr: 0x100015B30, symSize: 0xA0 }
  - { offset: 0x2F2A0, size: 0x8, addend: 0x0, symName: __RNvXNvNtCsHUR1vrdMJt_3std2io17default_write_fmtINtB2_7AdapterNtNtNtNtB6_3sys5stdio4unix6StderrENtNtCsieiGu2EXtoJ_4core3fmt5Write9write_strCs3GcDDz6nV1P_7autocfg, symObjAddr: 0x1500, symBinAddr: 0x100015BD0, symSize: 0xA0 }
  - { offset: 0x2F550, size: 0x8, addend: 0x0, symName: __RINvNtCsHUR1vrdMJt_3std2io17default_write_fmtNtNtB4_7process10ChildStdinECs3GcDDz6nV1P_7autocfg, symObjAddr: 0x0, symBinAddr: 0x1000146D0, symSize: 0x120 }
  - { offset: 0x2F600, size: 0x8, addend: 0x0, symName: __RINvNtCsHUR1vrdMJt_3std2io17default_write_fmtNtNtNtNtB4_3sys5stdio4unix6StderrECs3GcDDz6nV1P_7autocfg, symObjAddr: 0x120, symBinAddr: 0x1000147F0, symSize: 0x120 }
  - { offset: 0x303DA, size: 0x8, addend: 0x0, symName: __RNvXsZ_NtNtCsieiGu2EXtoJ_4core3fmt3numjNtB7_5Debug3fmtCs3GcDDz6nV1P_7autocfg, symObjAddr: 0x2120, symBinAddr: 0x1000167F0, symSize: 0x80 }
  - { offset: 0x3045F, size: 0x8, addend: 0x0, symName: __RNvXs_NvNtNtCsieiGu2EXtoJ_4core3fmt5Write9write_fmtQINtNvNtCsHUR1vrdMJt_3std2io17default_write_fmt7AdapterNtNtBV_7process10ChildStdinENtB4_12SpecWriteFmt14spec_write_fmtCs3GcDDz6nV1P_7autocfg, symObjAddr: 0x21A0, symBinAddr: 0x100016870, symSize: 0x170 }
  - { offset: 0x30514, size: 0x8, addend: 0x0, symName: __RNvXs_NvNtNtCsieiGu2EXtoJ_4core3fmt5Write9write_fmtQINtNvNtCsHUR1vrdMJt_3std2io17default_write_fmt7AdapterNtNtNtNtBV_3sys5stdio4unix6StderrENtB4_12SpecWriteFmt14spec_write_fmtCs3GcDDz6nV1P_7autocfg, symObjAddr: 0x2310, symBinAddr: 0x1000169E0, symSize: 0x170 }
  - { offset: 0x305CB, size: 0x8, addend: 0x0, symName: __RNvYINtNvNtCsHUR1vrdMJt_3std2io17default_write_fmt7AdapterNtNtB9_7process10ChildStdinENtNtCsieiGu2EXtoJ_4core3fmt5Write10write_charCs3GcDDz6nV1P_7autocfg, symObjAddr: 0x2480, symBinAddr: 0x100016B50, symSize: 0x70 }
  - { offset: 0x30633, size: 0x8, addend: 0x0, symName: __RNvYINtNvNtCsHUR1vrdMJt_3std2io17default_write_fmt7AdapterNtNtB9_7process10ChildStdinENtNtCsieiGu2EXtoJ_4core3fmt5Write9write_fmtCs3GcDDz6nV1P_7autocfg, symObjAddr: 0x24F0, symBinAddr: 0x100016BC0, symSize: 0x20 }
  - { offset: 0x30677, size: 0x8, addend: 0x0, symName: __RNvYINtNvNtCsHUR1vrdMJt_3std2io17default_write_fmt7AdapterNtNtNtNtB9_3sys5stdio4unix6StderrENtNtCsieiGu2EXtoJ_4core3fmt5Write10write_charCs3GcDDz6nV1P_7autocfg, symObjAddr: 0x2510, symBinAddr: 0x100016BE0, symSize: 0x70 }
  - { offset: 0x306DF, size: 0x8, addend: 0x0, symName: __RNvYINtNvNtCsHUR1vrdMJt_3std2io17default_write_fmt7AdapterNtNtNtNtB9_3sys5stdio4unix6StderrENtNtCsieiGu2EXtoJ_4core3fmt5Write9write_fmtCs3GcDDz6nV1P_7autocfg, symObjAddr: 0x2580, symBinAddr: 0x100016C50, symSize: 0x20 }
  - { offset: 0x30C1D, size: 0x8, addend: 0x0, symName: __RINvNtNtCsieiGu2EXtoJ_4core3str11validations15next_code_pointINtNtNtB6_5slice4iter4IterhEECs3GcDDz6nV1P_7autocfg, symObjAddr: 0x240, symBinAddr: 0x100014910, symSize: 0x260 }
  - { offset: 0x30ED6, size: 0x8, addend: 0x0, symName: __RINvNtNtCsieiGu2EXtoJ_4core3str11validations23next_code_point_reverseINtNtNtB6_5slice4iter4IterhEECs3GcDDz6nV1P_7autocfg, symObjAddr: 0x4A0, symBinAddr: 0x100014B70, symSize: 0x290 }
  - { offset: 0x311A7, size: 0x8, addend: 0x0, symName: __RNvNvXs5_NtNtCsieiGu2EXtoJ_4core3str6traitsINtNtNtBb_3ops5range5RangejEINtNtNtBb_5slice5index10SliceIndexeE13get_unchecked18precondition_checkCs3GcDDz6nV1P_7autocfg, symObjAddr: 0x1350, symBinAddr: 0x100015A20, symSize: 0xC0 }
  - { offset: 0x31224, size: 0x8, addend: 0x0, symName: __RNvXs2_NtNtCsieiGu2EXtoJ_4core3str6traitseINtNtNtB9_3ops5index5IndexINtNtBJ_5range7RangeTojEE5indexCs3GcDDz6nV1P_7autocfg, symObjAddr: 0x15B0, symBinAddr: 0x100015C80, symSize: 0x30 }
  - { offset: 0x31267, size: 0x8, addend: 0x0, symName: __RNvXs2_NtNtCsieiGu2EXtoJ_4core3str6traitseINtNtNtB9_3ops5index5IndexINtNtBJ_5range9RangeFromjEE5indexCs3GcDDz6nV1P_7autocfg, symObjAddr: 0x15E0, symBinAddr: 0x100015CB0, symSize: 0x30 }
  - { offset: 0x31608, size: 0x8, addend: 0x0, symName: __RNvNtNtCsieiGu2EXtoJ_4core4hash3sip9u8to64_leCs3GcDDz6nV1P_7autocfg, symObjAddr: 0xCF0, symBinAddr: 0x1000153C0, symSize: 0x290 }
  - { offset: 0x317C5, size: 0x8, addend: 0x0, symName: __RNvXs3_NtNtCsieiGu2EXtoJ_4core4hash3sipINtB5_6HasherNtB5_11Sip13RoundsENtB7_6Hasher5writeCs3GcDDz6nV1P_7autocfg, symObjAddr: 0x1610, symBinAddr: 0x100015CE0, symSize: 0x260 }
  - { offset: 0x3193B, size: 0x8, addend: 0x0, symName: __RNvXs3_NtNtCsieiGu2EXtoJ_4core4hash3sipINtB5_6HasherNtB5_11Sip13RoundsENtB7_6Hasher6finishCs3GcDDz6nV1P_7autocfg, symObjAddr: 0x1870, symBinAddr: 0x100015F40, symSize: 0x90 }
  - { offset: 0x319B4, size: 0x8, addend: 0x0, symName: __RNvXs6_NtNtCsieiGu2EXtoJ_4core4hash3sipNtB5_11Sip13RoundsNtB5_3Sip8c_roundsCs3GcDDz6nV1P_7autocfg, symObjAddr: 0x1A60, symBinAddr: 0x100016130, symSize: 0x180 }
  - { offset: 0x31B30, size: 0x8, addend: 0x0, symName: __RNvXs6_NtNtCsieiGu2EXtoJ_4core4hash3sipNtB5_11Sip13RoundsNtB5_3Sip8d_roundsCs3GcDDz6nV1P_7autocfg, symObjAddr: 0x1BE0, symBinAddr: 0x1000162B0, symSize: 0x4C0 }
  - { offset: 0x323D2, size: 0x8, addend: 0x0, symName: __RNvNtNtNtCsieiGu2EXtoJ_4core9core_arch3x864sse212__mm_or_si128Cs3GcDDz6nV1P_7autocfg, symObjAddr: 0xF80, symBinAddr: 0x100015650, symSize: 0x20 }
  - { offset: 0x324E1, size: 0x8, addend: 0x0, symName: __RNvNtNtNtCsieiGu2EXtoJ_4core9core_arch3x864sse213__mm_set1_epi8Cs3GcDDz6nV1P_7autocfg, symObjAddr: 0xFA0, symBinAddr: 0x100015670, symSize: 0x90 }
  - { offset: 0x3263B, size: 0x8, addend: 0x0, symName: __RNvNtNtNtCsieiGu2EXtoJ_4core9core_arch3x864sse214__mm_cmpeq_epi8Cs3GcDDz6nV1P_7autocfg, symObjAddr: 0x1030, symBinAddr: 0x100015700, symSize: 0x80 }
  - { offset: 0x3267B, size: 0x8, addend: 0x0, symName: __RNvNtNtNtCsieiGu2EXtoJ_4core9core_arch3x864sse214__mm_cmpgt_epi8Cs3GcDDz6nV1P_7autocfg, symObjAddr: 0x10B0, symBinAddr: 0x100015780, symSize: 0x80 }
  - { offset: 0x326BB, size: 0x8, addend: 0x0, symName: __RNvNtNtNtCsieiGu2EXtoJ_4core9core_arch3x864sse214__mm_load_si128Cs3GcDDz6nV1P_7autocfg, symObjAddr: 0x1130, symBinAddr: 0x100015800, symSize: 0x20 }
  - { offset: 0x326FA, size: 0x8, addend: 0x0, symName: __RNvNtNtNtCsieiGu2EXtoJ_4core9core_arch3x864sse215__mm_loadu_si128Cs3GcDDz6nV1P_7autocfg, symObjAddr: 0x1150, symBinAddr: 0x100015820, symSize: 0x90 }
  - { offset: 0x32789, size: 0x8, addend: 0x0, symName: __RNvNtNtNtCsieiGu2EXtoJ_4core9core_arch3x864sse215__mm_store_si128Cs3GcDDz6nV1P_7autocfg, symObjAddr: 0x11E0, symBinAddr: 0x1000158B0, symSize: 0x20 }
  - { offset: 0x327C2, size: 0x8, addend: 0x0, symName: __RNvNtNtNtCsieiGu2EXtoJ_4core9core_arch3x864sse217__mm_movemask_epi8Cs3GcDDz6nV1P_7autocfg, symObjAddr: 0x1200, symBinAddr: 0x1000158D0, symSize: 0x50 }
  - { offset: 0x3282E, size: 0x8, addend: 0x0, symName: __RNvNtNtNtCsieiGu2EXtoJ_4core9core_arch3x864sse217__mm_setzero_si128Cs3GcDDz6nV1P_7autocfg, symObjAddr: 0x1250, symBinAddr: 0x100015920, symSize: 0x10 }
  - { offset: 0x3291F, size: 0x8, addend: 0x0, symName: __RNvNvNtNtCsieiGu2EXtoJ_4core4char7convert18from_u32_unchecked18precondition_checkCs3GcDDz6nV1P_7autocfg, symObjAddr: 0x1260, symBinAddr: 0x100015930, symSize: 0xF0 }
  - { offset: 0x32AFB, size: 0x8, addend: 0x0, symName: __RNvXs3_NtNtNtCsieiGu2EXtoJ_4core4iter8adapters3zipINtB5_3ZipINtNtNtBb_5slice4iter4IterhEBW_EINtB5_7ZipImplBW_BW_E3newCs3GcDDz6nV1P_7autocfg, symObjAddr: 0x1900, symBinAddr: 0x100015FD0, symSize: 0xC0 }
  - { offset: 0x32B8F, size: 0x8, addend: 0x0, symName: __RNvXs3_NtNtNtCsieiGu2EXtoJ_4core4iter8adapters3zipINtB5_3ZipINtNtNtBb_5slice4iter4IterhEBW_EINtB5_7ZipImplBW_BW_E4nextCs3GcDDz6nV1P_7autocfg, symObjAddr: 0x19C0, symBinAddr: 0x100016090, symSize: 0xA0 }
  - { offset: 0x33210, size: 0x8, addend: 0x0, symName: __RINvNtNtNtCslJiobkLta79_5alloc11collections5btree3mem7replaceINtNtB4_4node6HandleINtB10_7NodeRefNtNtB10_6marker5DyingNtNtNtCsHUR1vrdMJt_3std3ffi6os_str8OsStringINtNtCsieiGu2EXtoJ_4core6option6OptionB1R_ENtB1y_4LeafENtB1y_4EdgeEIBY_IB1i_B1w_B1R_B2y_NtB1y_14LeafOrInternalENtB1y_2KVENCINvMsm_NtB4_8navigateBX_27deallocating_next_uncheckedNtNtB8_5alloc6GlobalE0ECs3GcDDz6nV1P_7autocfg, symObjAddr: 0x730, symBinAddr: 0x100014E00, symSize: 0x110 }
  - { offset: 0x3330C, size: 0x8, addend: 0x0, symName: __RNvXNvNtNtNtCslJiobkLta79_5alloc11collections5btree3mem7replaceNtB2_10PanicGuardNtNtNtCsieiGu2EXtoJ_4core3ops4drop4Drop4dropCs3GcDDz6nV1P_7autocfg, symObjAddr: 0x15A0, symBinAddr: 0x100015C70, symSize: 0x10 }
  - { offset: 0x335B6, size: 0x8, addend: 0x0, symName: __RINvXs1i_NtCsjK30CmJ87bX_9hashbrown3mapINtB7_7HashMapyuNtNtNtCsHUR1vrdMJt_3std4hash6random11RandomStateEINtNtNtNtCsieiGu2EXtoJ_4core4iter6traits7collect6ExtendTyuEE6extendINtNtNtB1L_8adapters3map3MapINtNtNtB1N_3ops5range5RangeyENCINvXs8_NtB9_3setINtB3N_7HashSetyBR_EIB1F_yE6extendB3b_E0EECs3GcDDz6nV1P_7autocfg, symObjAddr: 0x840, symBinAddr: 0x100014F10, symSize: 0x110 }
  - { offset: 0x33675, size: 0x8, addend: 0x0, symName: __RNCINvXs1i_NtCsjK30CmJ87bX_9hashbrown3mapINtB9_7HashMapyuNtNtNtCsHUR1vrdMJt_3std4hash6random11RandomStateEINtNtNtNtCsieiGu2EXtoJ_4core4iter6traits7collect6ExtendTyuEE6extendINtNtNtB1N_8adapters3map3MapINtNtNtB1P_3ops5range5RangeyENCINvXs8_NtBb_3setINtB3P_7HashSetyBT_EIB1H_yE6extendB3d_E0EE0Cs3GcDDz6nV1P_7autocfg, symObjAddr: 0x9A0, symBinAddr: 0x100015070, symSize: 0x30 }
  - { offset: 0x33747, size: 0x8, addend: 0x0, symName: __RNCINvNtCsjK30CmJ87bX_9hashbrown3map11make_hasheryuNtNtNtCsHUR1vrdMJt_3std4hash6random11RandomStateE0Cs3GcDDz6nV1P_7autocfg, symObjAddr: 0x950, symBinAddr: 0x100015020, symSize: 0x30 }
  - { offset: 0x337C9, size: 0x8, addend: 0x0, symName: __RNCINvNtCsjK30CmJ87bX_9hashbrown3map14equivalent_keyyyuE0Cs3GcDDz6nV1P_7autocfg, symObjAddr: 0x980, symBinAddr: 0x100015050, symSize: 0x20 }
  - { offset: 0x3385F, size: 0x8, addend: 0x0, symName: __RNvXsE_NtCsjK30CmJ87bX_9hashbrown3mapINtB5_7HashMapyuNtNtNtCsHUR1vrdMJt_3std4hash6random11RandomStateENtNtNtNtCsieiGu2EXtoJ_4core4iter6traits7collect12IntoIterator9into_iterCs3GcDDz6nV1P_7autocfg, symObjAddr: 0x20A0, symBinAddr: 0x100016770, symSize: 0x80 }
  - { offset: 0x33A83, size: 0x8, addend: 0x0, symName: __RNvXCsjK30CmJ87bX_9hashbrownyINtB2_10EquivalentyE10equivalentCs3GcDDz6nV1P_7autocfg, symObjAddr: 0x1410, symBinAddr: 0x100015AE0, symSize: 0x50 }
  - { offset: 0x33BDA, size: 0x8, addend: 0x0, symName: __RNvMs0_NtNtCsieiGu2EXtoJ_4core4hash3sipINtB5_6HasherNtB5_11Sip13RoundsE5resetCs3GcDDz6nV1P_7autocfg, symObjAddr: 0x9D0, symBinAddr: 0x1000150A0, symSize: 0x70 }
  - { offset: 0x33CE5, size: 0x8, addend: 0x0, symName: __RNvMs1_NtCsjK30CmJ87bX_9hashbrown3mapINtB5_7HashMapyuNtNtNtCsHUR1vrdMJt_3std4hash6random11RandomStateE6insertCs3GcDDz6nV1P_7autocfg, symObjAddr: 0xA40, symBinAddr: 0x100015110, symSize: 0x1A0 }
  - { offset: 0x3406F, size: 0x8, addend: 0x0, symName: __RNvMs4_NtNtNtCsieiGu2EXtoJ_4core9core_simd5masks9mask_implINtB5_4MaskaKj10_E18to_bitmask_integerCs3GcDDz6nV1P_7autocfg, symObjAddr: 0xBE0, symBinAddr: 0x1000152B0, symSize: 0x110 }
  - { offset: 0x34655, size: 0x8, addend: 0x0, symName: __RINvMNtNtCsieiGu2EXtoJ_4core3fmt2rtNtB3_8Argument11new_displayNtB5_9ArgumentsECs3GcDDz6nV1P_7autocfg, symObjAddr: 0x0, symBinAddr: 0x100016C70, symSize: 0x30 }
  - { offset: 0x3528B, size: 0x8, addend: 0x0, symName: __RNvNvMs9_NtCsieiGu2EXtoJ_4core3numj13unchecked_add18precondition_checkCs3GcDDz6nV1P_7autocfg, symObjAddr: 0x1860, symBinAddr: 0x100018210, symSize: 0xA0 }
  - { offset: 0x35349, size: 0x8, addend: 0x0, symName: __RNvNvMs9_NtCsieiGu2EXtoJ_4core3numj13unchecked_sub18precondition_checkCs3GcDDz6nV1P_7autocfg, symObjAddr: 0x1900, symBinAddr: 0x1000182B0, symSize: 0xA0 }
  - { offset: 0x35498, size: 0x8, addend: 0x0, symName: __RNvMsu_NtCsieiGu2EXtoJ_4core3numj16from_ascii_radixCs3GcDDz6nV1P_7autocfg, symObjAddr: 0xF70, symBinAddr: 0x100017920, symSize: 0x610 }
  - { offset: 0x35733, size: 0x8, addend: 0x0, symName: __RNvNvMs3_NtCsieiGu2EXtoJ_4core3numi13unchecked_neg18precondition_checkCs3GcDDz6nV1P_7autocfg, symObjAddr: 0x1710, symBinAddr: 0x1000180C0, symSize: 0xB0 }
  - { offset: 0x357FF, size: 0x8, addend: 0x0, symName: __RNvNvMs7_NtCsieiGu2EXtoJ_4core3numy13unchecked_add18precondition_checkCs3GcDDz6nV1P_7autocfg, symObjAddr: 0x17C0, symBinAddr: 0x100018170, symSize: 0xA0 }
  - { offset: 0x35894, size: 0x8, addend: 0x0, symName: __RNvXst_NtCsieiGu2EXtoJ_4core3numjNtNtNtB7_3str6traits7FromStr8from_strCs3GcDDz6nV1P_7autocfg, symObjAddr: 0x27E0, symBinAddr: 0x100019190, symSize: 0x40 }
  - { offset: 0x3686C, size: 0x8, addend: 0x0, symName: __RNvXs1_NtNtNtCsieiGu2EXtoJ_4core4iter8adapters6filterINtB5_6FilterINtNtB7_3map3MapINtNtNtBb_3str4iter5SplitcENvMB1n_e4trimENCNvCs3GcDDz6nV1P_7autocfg9rustflags0ENtNtNtB9_6traits8iterator8Iterator4nextB21_, symObjAddr: 0x2280, symBinAddr: 0x100018C30, symSize: 0x20 }
  - { offset: 0x368AA, size: 0x8, addend: 0x0, symName: __RNvXs1_NtNtNtCsieiGu2EXtoJ_4core4iter8adapters6filterINtB5_6FilterINtNtB7_3map3MapINtNtNtBb_3str4iter5SplitcENvMB1n_e4trimENCNvCs3GcDDz6nV1P_7autocfg9rustflags0ENtNtNtB9_6traits8iterator8Iterator9size_hintB21_, symObjAddr: 0x22A0, symBinAddr: 0x100018C50, symSize: 0x50 }
  - { offset: 0x36917, size: 0x8, addend: 0x0, symName: __RINvYINtNtNtNtCsieiGu2EXtoJ_4core4iter8adapters6filter6FilterINtNtB8_3map3MapINtNtNtBc_3str4iter5SplitcENvMB1i_e4trimENCNvCs3GcDDz6nV1P_7autocfg9rustflags0ENtNtNtBa_6traits8iterator8Iterator3mapNtNtCslJiobkLta79_5alloc6string6StringNvYeNtB38_8ToString9to_stringEB1W_, symObjAddr: 0x990, symBinAddr: 0x100017340, symSize: 0x30 }
  - { offset: 0x3699B, size: 0x8, addend: 0x0, symName: __RNCINvNvNtNtNtNtCsieiGu2EXtoJ_4core4iter6traits12double_ended19DoubleEndedIterator5rfind5checkjNCNvNtNtBe_3str7pattern13simd_contains0E0Cs3GcDDz6nV1P_7autocfg, symObjAddr: 0x9C0, symBinAddr: 0x100017370, symSize: 0x70 }
  - { offset: 0x36B23, size: 0x8, addend: 0x0, symName: __RINvXs3_NtNtCsieiGu2EXtoJ_4core4hash5implsRyNtB8_4Hash4hashNtNtNtCsHUR1vrdMJt_3std4hash6random13DefaultHasherECs3GcDDz6nV1P_7autocfg, symObjAddr: 0x8C0, symBinAddr: 0x100017270, symSize: 0x20 }
  - { offset: 0x36B74, size: 0x8, addend: 0x0, symName: __RINvXsa_NtNtCsieiGu2EXtoJ_4core4hash5implsyNtB8_4Hash4hashNtNtNtCsHUR1vrdMJt_3std4hash6random13DefaultHasherECs3GcDDz6nV1P_7autocfg, symObjAddr: 0x8E0, symBinAddr: 0x100017290, symSize: 0x30 }
  - { offset: 0x36D03, size: 0x8, addend: 0x0, symName: __RNvXNtCsieiGu2EXtoJ_4core7convertRNtNtNtCsHUR1vrdMJt_3std3ffi6os_str5OsStrINtB2_5AsRefBw_E6as_refCs3GcDDz6nV1P_7autocfg, symObjAddr: 0x1A40, symBinAddr: 0x1000183F0, symSize: 0x30 }
  - { offset: 0x36D43, size: 0x8, addend: 0x0, symName: __RNvXNtCsieiGu2EXtoJ_4core7convertRNtNtNtCsHUR1vrdMJt_3std3ffi6os_str8OsStringINtB2_5AsRefNtBy_5OsStrE6as_refCs3GcDDz6nV1P_7autocfg, symObjAddr: 0x1A70, symBinAddr: 0x100018420, symSize: 0x20 }
  - { offset: 0x36D83, size: 0x8, addend: 0x0, symName: __RNvXNtCsieiGu2EXtoJ_4core7convertRNtNtNtCsHUR1vrdMJt_3std3ffi6os_str8OsStringINtB2_5AsRefNtNtBC_4path4PathE6as_refCs3GcDDz6nV1P_7autocfg, symObjAddr: 0x1A90, symBinAddr: 0x100018440, symSize: 0x20 }
  - { offset: 0x36DC9, size: 0x8, addend: 0x0, symName: __RNvXs1_NtCsieiGu2EXtoJ_4core7convertNtNtNtCsHUR1vrdMJt_3std3ffi6os_str8OsStringINtB5_4IntoNtNtBE_4path7PathBufE4intoCs3GcDDz6nV1P_7autocfg, symObjAddr: 0x2250, symBinAddr: 0x100018C00, symSize: 0x20 }
  - { offset: 0x36F95, size: 0x8, addend: 0x0, symName: __RNvNtNtCsieiGu2EXtoJ_4core5slice6memchr6memchrCs3GcDDz6nV1P_7autocfg, symObjAddr: 0x1580, symBinAddr: 0x100017F30, symSize: 0xE0 }
  - { offset: 0x3723C, size: 0x8, addend: 0x0, symName: __RNvYNtNtNtCsHUR1vrdMJt_3std3ffi6os_str8OsStringNtNtCsieiGu2EXtoJ_4core3cmp9PartialEq2neCs3GcDDz6nV1P_7autocfg, symObjAddr: 0x2820, symBinAddr: 0x1000191D0, symSize: 0x20 }
  - { offset: 0x373F4, size: 0x8, addend: 0x0, symName: __RINvMNtNtCsieiGu2EXtoJ_4core3fmt2rtNtB3_8Argument11new_displayNtB5_9ArgumentsECs3GcDDz6nV1P_7autocfg, symObjAddr: 0x0, symBinAddr: 0x100016C70, symSize: 0x30 }
  - { offset: 0x3773C, size: 0x8, addend: 0x0, symName: __RINvXsd_NtCslJiobkLta79_5alloc3vecINtB6_3VecNtNtB8_6string6StringEINtNtNtNtCsieiGu2EXtoJ_4core4iter6traits7collect12FromIteratorBG_E9from_iterINtNtNtB19_8adapters3map3MapINtNtB2l_6filter6FilterIB2h_INtNtNtB1b_3str4iter5SplitcENvMB3f_e4trimENCNvCs3GcDDz6nV1P_7autocfg9rustflags0ENvYeNtBI_8ToString9to_stringEEB3U_, symObjAddr: 0x910, symBinAddr: 0x1000172C0, symSize: 0x40 }
  - { offset: 0x3777D, size: 0x8, addend: 0x0, symName: __RINvXsd_NtCslJiobkLta79_5alloc3vecINtB6_3VecNtNtB8_6string6StringEINtNtNtNtCsieiGu2EXtoJ_4core4iter6traits7collect12FromIteratorBG_E9from_iterINtNtNtB19_8adapters3map3MapINtNtNtB1b_3str4iter5SplitcENvYeNtBI_8ToString9to_stringEECs3GcDDz6nV1P_7autocfg, symObjAddr: 0x950, symBinAddr: 0x100017300, symSize: 0x40 }
  - { offset: 0x377C9, size: 0x8, addend: 0x0, symName: __RNvNvMs_NtCslJiobkLta79_5alloc3vecINtB6_3VecppE7set_len18precondition_checkCs3GcDDz6nV1P_7autocfg, symObjAddr: 0x19A0, symBinAddr: 0x100018350, symSize: 0xA0 }
  - { offset: 0x3783D, size: 0x8, addend: 0x0, symName: __RNvXNtNtCslJiobkLta79_5alloc3vec11spec_extendINtB4_3VecNtNtB6_6string6StringEINtB2_10SpecExtendBR_INtNtNtNtCsieiGu2EXtoJ_4core4iter8adapters3map3MapINtNtB1D_6filter6FilterIB1z_INtNtNtB1H_3str4iter5SplitcENvMB2T_e4trimENCNvCs3GcDDz6nV1P_7autocfg9rustflags0ENvYeNtBT_8ToString9to_stringEE11spec_extendB3y_, symObjAddr: 0x1AB0, symBinAddr: 0x100018460, symSize: 0x20 }
  - { offset: 0x3788F, size: 0x8, addend: 0x0, symName: __RNvXNtNtCslJiobkLta79_5alloc3vec11spec_extendINtB4_3VecNtNtB6_6string6StringEINtB2_10SpecExtendBR_INtNtNtNtCsieiGu2EXtoJ_4core4iter8adapters3map3MapINtNtNtB1H_3str4iter5SplitcENvYeNtBT_8ToString9to_stringEE11spec_extendCs3GcDDz6nV1P_7autocfg, symObjAddr: 0x1AD0, symBinAddr: 0x100018480, symSize: 0x20 }
  - { offset: 0x378ED, size: 0x8, addend: 0x0, symName: __RNvXNtNtCslJiobkLta79_5alloc3vec14spec_from_iterINtB4_3VecNtNtB6_6string6StringEINtB2_12SpecFromIterBU_INtNtNtNtCsieiGu2EXtoJ_4core4iter8adapters3map3MapINtNtB1I_6filter6FilterIB1E_INtNtNtB1M_3str4iter5SplitcENvMB2Y_e4trimENCNvCs3GcDDz6nV1P_7autocfg9rustflags0ENvYeNtBW_8ToString9to_stringEE9from_iterB3D_, symObjAddr: 0x1AF0, symBinAddr: 0x1000184A0, symSize: 0x20 }
  - { offset: 0x3792C, size: 0x8, addend: 0x0, symName: __RNvXNtNtCslJiobkLta79_5alloc3vec14spec_from_iterINtB4_3VecNtNtB6_6string6StringEINtB2_12SpecFromIterBU_INtNtNtNtCsieiGu2EXtoJ_4core4iter8adapters3map3MapINtNtNtB1M_3str4iter5SplitcENvYeNtBW_8ToString9to_stringEE9from_iterCs3GcDDz6nV1P_7autocfg, symObjAddr: 0x1B10, symBinAddr: 0x1000184C0, symSize: 0x20 }
  - { offset: 0x37977, size: 0x8, addend: 0x0, symName: __RNvXNtNtCslJiobkLta79_5alloc3vec21spec_from_iter_nestedINtB4_3VecNtNtB6_6string6StringEINtB2_18SpecFromIterNestedB11_INtNtNtNtCsieiGu2EXtoJ_4core4iter8adapters3map3MapINtNtB1W_6filter6FilterIB1S_INtNtNtB20_3str4iter5SplitcENvMB3c_e4trimENCNvCs3GcDDz6nV1P_7autocfg9rustflags0ENvYeNtB13_8ToString9to_stringEE9from_iterB3R_, symObjAddr: 0x1B30, symBinAddr: 0x1000184E0, symSize: 0x340 }
  - { offset: 0x37C2C, size: 0x8, addend: 0x0, symName: __RNvXNtNtCslJiobkLta79_5alloc3vec21spec_from_iter_nestedINtB4_3VecNtNtB6_6string6StringEINtB2_18SpecFromIterNestedB11_INtNtNtNtCsieiGu2EXtoJ_4core4iter8adapters3map3MapINtNtNtB20_3str4iter5SplitcENvYeNtB13_8ToString9to_stringEE9from_iterCs3GcDDz6nV1P_7autocfg, symObjAddr: 0x1E70, symBinAddr: 0x100018820, symSize: 0x340 }
  - { offset: 0x37EE8, size: 0x8, addend: 0x0, symName: __RNvXs6_NtCslJiobkLta79_5alloc3vecINtB5_3VechENtNtNtCsieiGu2EXtoJ_4core3ops5deref5Deref5derefCs3GcDDz6nV1P_7autocfg, symObjAddr: 0x23F0, symBinAddr: 0x100018DA0, symSize: 0x20 }
  - { offset: 0x37F5E, size: 0x8, addend: 0x0, symName: __RNvXsf_NtCslJiobkLta79_5alloc3vecRINtB5_3VecNtNtB7_6string6StringENtNtNtNtCsieiGu2EXtoJ_4core4iter6traits7collect12IntoIterator9into_iterCs3GcDDz6nV1P_7autocfg, symObjAddr: 0x26E0, symBinAddr: 0x100019090, symSize: 0x80 }
  - { offset: 0x381EC, size: 0x8, addend: 0x0, symName: __RNvXsn_NtCslJiobkLta79_5alloc3vecINtB5_3VecINtNtB7_5boxed3BoxDINtNtNtCsieiGu2EXtoJ_4core3ops8function5FnMutuEp6OutputINtNtB15_6result6ResultuNtNtNtCsHUR1vrdMJt_3std2io5error5ErrorENtNtB15_6marker4SyncNtB2U_4SendEL_EENtNtB13_4drop4Drop4dropCs3GcDDz6nV1P_7autocfg, symObjAddr: 0x2760, symBinAddr: 0x100019110, symSize: 0x30 }
  - { offset: 0x3829C, size: 0x8, addend: 0x0, symName: __RNvXsn_NtCslJiobkLta79_5alloc3vecINtB5_3VecNtNtB7_6string6StringENtNtNtCsieiGu2EXtoJ_4core3ops4drop4Drop4dropCs3GcDDz6nV1P_7autocfg, symObjAddr: 0x2790, symBinAddr: 0x100019140, symSize: 0x30 }
  - { offset: 0x3834C, size: 0x8, addend: 0x0, symName: __RNvXsn_NtCslJiobkLta79_5alloc3vecINtB5_3VecPaENtNtNtCsieiGu2EXtoJ_4core3ops4drop4Drop4dropCs3GcDDz6nV1P_7autocfg, symObjAddr: 0x27C0, symBinAddr: 0x100019170, symSize: 0x20 }
  - { offset: 0x384C3, size: 0x8, addend: 0x0, symName: __RNvXs1_NtCslJiobkLta79_5alloc5allocNtB5_6GlobalNtNtCsieiGu2EXtoJ_4core5clone5Clone5cloneCs3GcDDz6nV1P_7autocfg, symObjAddr: 0x2270, symBinAddr: 0x100018C20, symSize: 0x10 }
  - { offset: 0x38514, size: 0x8, addend: 0x0, symName: __RNvXs_NtCslJiobkLta79_5alloc5allocNtB4_6GlobalNtNtCsieiGu2EXtoJ_4core5alloc9Allocator10deallocateCs3GcDDz6nV1P_7autocfg, symObjAddr: 0x2470, symBinAddr: 0x100018E20, symSize: 0x70 }
  - { offset: 0x385DC, size: 0x8, addend: 0x0, symName: __RNvXs_NtCslJiobkLta79_5alloc5allocNtB4_6GlobalNtNtCsieiGu2EXtoJ_4core5alloc9Allocator8allocateCs3GcDDz6nV1P_7autocfg, symObjAddr: 0x24E0, symBinAddr: 0x100018E90, symSize: 0x30 }
  - { offset: 0x38B18, size: 0x8, addend: 0x0, symName: __RNvXs2_NtCslJiobkLta79_5alloc3streNtNtB7_6borrow7ToOwned8to_ownedCs3GcDDz6nV1P_7autocfg, symObjAddr: 0x2310, symBinAddr: 0x100018CC0, symSize: 0x50 }
  - { offset: 0x38D92, size: 0x8, addend: 0x0, symName: __RINvXNtNtNtNtCsHUR1vrdMJt_3std3sys12thread_local6native4lazyzNtB3_14DestroyedState13register_dtorINtNtCsieiGu2EXtoJ_4core4cell4CellTyyEEECs3GcDDz6nV1P_7autocfg, symObjAddr: 0x8B0, symBinAddr: 0x100017260, symSize: 0x10 }
  - { offset: 0x38E7A, size: 0x8, addend: 0x0, symName: __RNvNtNtNtCsHUR1vrdMJt_3std3sys2fs4unix23debug_assert_fd_is_openCs3GcDDz6nV1P_7autocfg, symObjAddr: 0x1660, symBinAddr: 0x100018010, symSize: 0xB0 }
  - { offset: 0x38F96, size: 0x8, addend: 0x0, symName: __RNvXNvXs2_NtNtCsHUR1vrdMJt_3std3ffi6os_strNtB8_8OsStringINtNtCsieiGu2EXtoJ_4core7convert4FromRpE4fromReNtB2_14SpecToOsString17spec_to_os_stringCs3GcDDz6nV1P_7autocfg, symObjAddr: 0x21B0, symBinAddr: 0x100018B60, symSize: 0xA0 }
  - { offset: 0x3904F, size: 0x8, addend: 0x0, symName: __RNvXs2_NtNtCsHUR1vrdMJt_3std3ffi6os_strNtB5_8OsStringINtNtCsieiGu2EXtoJ_4core7convert4FromReE4fromCs3GcDDz6nV1P_7autocfg, symObjAddr: 0x2360, symBinAddr: 0x100018D10, symSize: 0x30 }
  - { offset: 0x3910A, size: 0x8, addend: 0x0, symName: __RNvXsV_NtNtCsHUR1vrdMJt_3std3ffi6os_strNtB5_8OsStringINtNtCsieiGu2EXtoJ_4core7convert5AsRefNtB5_5OsStrE6as_refCs3GcDDz6nV1P_7autocfg, symObjAddr: 0x2430, symBinAddr: 0x100018DE0, symSize: 0x20 }
  - { offset: 0x3915C, size: 0x8, addend: 0x0, symName: __RNvXs3_NtNtCsHUR1vrdMJt_3std3ffi6os_strNtB5_8OsStringINtNtNtCsieiGu2EXtoJ_4core3ops5index5IndexNtNtBU_5range9RangeFullE5indexCs3GcDDz6nV1P_7autocfg, symObjAddr: 0x2390, symBinAddr: 0x100018D40, symSize: 0x60 }
  - { offset: 0x39296, size: 0x8, addend: 0x0, symName: __RNvXsU_NtNtCsHUR1vrdMJt_3std3ffi6os_strNtB5_5OsStrINtNtCsieiGu2EXtoJ_4core7convert5AsRefBB_E6as_refCs3GcDDz6nV1P_7autocfg, symObjAddr: 0x2410, symBinAddr: 0x100018DC0, symSize: 0x20 }
  - { offset: 0x392CA, size: 0x8, addend: 0x0, symName: __RNvXsW_NtNtCsHUR1vrdMJt_3std3ffi6os_streINtNtCsieiGu2EXtoJ_4core7convert5AsRefNtB5_5OsStrE6as_refCs3GcDDz6nV1P_7autocfg, symObjAddr: 0x2450, symBinAddr: 0x100018E00, symSize: 0x20 }
  - { offset: 0x3932E, size: 0x8, addend: 0x0, symName: __RNvXsa_NtNtCsHUR1vrdMJt_3std3ffi6os_strNtB5_8OsStringNtNtCsieiGu2EXtoJ_4core3cmp9PartialEq2eqCs3GcDDz6nV1P_7autocfg, symObjAddr: 0x2510, symBinAddr: 0x100018EC0, symSize: 0x1D0 }
  - { offset: 0x397AC, size: 0x8, addend: 0x0, symName: __RNvXs1o_NtCsHUR1vrdMJt_3std4pathNtNtNtB8_3ffi6os_str8OsStringINtNtCsieiGu2EXtoJ_4core7convert5AsRefNtB6_4PathE6as_refCs3GcDDz6nV1P_7autocfg, symObjAddr: 0x22F0, symBinAddr: 0x100018CA0, symSize: 0x20 }
  - { offset: 0x3988E, size: 0x8, addend: 0x0, symName: __RINvMNtNtCsieiGu2EXtoJ_4core3fmt2rtNtB3_8Argument11new_displayReECs3GcDDz6nV1P_7autocfg, symObjAddr: 0x90, symBinAddr: 0x100016CA0, symSize: 0x30 }
  - { offset: 0x398C6, size: 0x8, addend: 0x0, symName: __RINvMNtNtCsieiGu2EXtoJ_4core3fmt2rtNtB3_8Argument11new_displayjECs3GcDDz6nV1P_7autocfg, symObjAddr: 0xC0, symBinAddr: 0x100016CD0, symSize: 0x30 }
  - { offset: 0x398FE, size: 0x8, addend: 0x0, symName: __RINvMNtNtCsieiGu2EXtoJ_4core3fmt2rtNtB3_8Argument13new_lower_hexyECs3GcDDz6nV1P_7autocfg, symObjAddr: 0xF0, symBinAddr: 0x100016D00, symSize: 0x30 }
  - { offset: 0x399E6, size: 0x8, addend: 0x0, symName: __RINvMs0_NtNtNtNtCsHUR1vrdMJt_3std3sys12thread_local6native4lazyINtB6_7StorageINtNtCsieiGu2EXtoJ_4core4cell4CellTyyEEzE11get_or_initNvNvNvMNtNtBe_4hash6randomNtB2c_11RandomState3new4KEYS6___initECs3GcDDz6nV1P_7autocfg, symObjAddr: 0x120, symBinAddr: 0x100016D30, symSize: 0x90 }
  - { offset: 0x39BF1, size: 0x8, addend: 0x0, symName: __RINvMs0_NtNtNtNtCsHUR1vrdMJt_3std3sys12thread_local6native4lazyINtB6_7StorageINtNtCsieiGu2EXtoJ_4core4cell4CellTyyEEzE16get_or_init_slowNvNvNvMNtNtBe_4hash6randomNtB2h_11RandomState3new4KEYS6___initECs3GcDDz6nV1P_7autocfg, symObjAddr: 0x1B0, symBinAddr: 0x1000648E0, symSize: 0x260 }
  - { offset: 0x3A0C5, size: 0x8, addend: 0x0, symName: __RINvMsi_NtCslJiobkLta79_5alloc3vecINtB6_3VecNtNtB8_6string6StringE16extend_desugaredINtNtNtNtCsieiGu2EXtoJ_4core4iter8adapters3map3MapINtNtB1p_6filter6FilterIB1l_INtNtNtB1t_3str4iter5SplitcENvMB2F_e4trimENCNvCs3GcDDz6nV1P_7autocfg9rustflags0ENvYeNtBI_8ToString9to_stringEEB3k_, symObjAddr: 0x410, symBinAddr: 0x100016DC0, symSize: 0x250 }
  - { offset: 0x3A4D9, size: 0x8, addend: 0x0, symName: __RINvMsi_NtCslJiobkLta79_5alloc3vecINtB6_3VecNtNtB8_6string6StringE16extend_desugaredINtNtNtNtCsieiGu2EXtoJ_4core4iter8adapters3map3MapINtNtNtB1t_3str4iter5SplitcENvYeNtBI_8ToString9to_stringEECs3GcDDz6nV1P_7autocfg, symObjAddr: 0x660, symBinAddr: 0x100017010, symSize: 0x250 }
  - { offset: 0x3A7AC, size: 0x8, addend: 0x0, symName: __RNvMNtCslJiobkLta79_5alloc3vecINtB2_3VecNtNtB4_6string6StringE3newCs3GcDDz6nV1P_7autocfg, symObjAddr: 0xA30, symBinAddr: 0x1000173E0, symSize: 0x30 }
  - { offset: 0x3A956, size: 0x8, addend: 0x0, symName: __RNvMNtCslJiobkLta79_5alloc5allocNtB2_6Global10alloc_implCs3GcDDz6nV1P_7autocfg, symObjAddr: 0xA60, symBinAddr: 0x100017410, symSize: 0x290 }
  - { offset: 0x3AD6A, size: 0x8, addend: 0x0, symName: __RNvMNtNtCsieiGu2EXtoJ_4core9core_simd6vectorINtB2_4SimdaKj1_E4loadCs3GcDDz6nV1P_7autocfg, symObjAddr: 0xCF0, symBinAddr: 0x1000176A0, symSize: 0x90 }
  - { offset: 0x3AF1B, size: 0x8, addend: 0x0, symName: __RNvMNtNtCsieiGu2EXtoJ_4core9core_simd6vectorINtB2_4SimdhKj1_E4loadCs3GcDDz6nV1P_7autocfg, symObjAddr: 0xD80, symBinAddr: 0x100017730, symSize: 0x90 }
  - { offset: 0x3B055, size: 0x8, addend: 0x0, symName: __RNvMs0_NtNtCsHUR1vrdMJt_3std3ffi6os_strNtB5_8OsString3newCs3GcDDz6nV1P_7autocfg, symObjAddr: 0xE10, symBinAddr: 0x1000177C0, symSize: 0x60 }
  - { offset: 0x3B1CA, size: 0x8, addend: 0x0, symName: __RNvMs_NtCslJiobkLta79_5alloc3vecINtB4_3VecNtNtB6_6string6StringE7reserveCs3GcDDz6nV1P_7autocfg, symObjAddr: 0xE70, symBinAddr: 0x100017820, symSize: 0xB0 }
  - { offset: 0x3B3DF, size: 0x8, addend: 0x0, symName: __RNvMs_NtCslJiobkLta79_5alloc3vecINtB4_3VechE8as_sliceCs3GcDDz6nV1P_7autocfg, symObjAddr: 0xF20, symBinAddr: 0x1000178D0, symSize: 0x50 }
  - { offset: 0x3C020, size: 0x8, addend: 0x0, symName: __RINvMNtCsieiGu2EXtoJ_4core6resultINtB3_6ResultNtNtCsHUR1vrdMJt_3std2fs8MetadataNtNtNtBM_2io5error5ErrorE7map_errNtNtCs3GcDDz6nV1P_7autocfg5error5ErrorNvB1O_7from_ioEB1Q_, symObjAddr: 0x0, symBinAddr: 0x1000191F0, symSize: 0xC0 }
  - { offset: 0x3C77C, size: 0x8, addend: 0x0, symName: __RINvNtCsieiGu2EXtoJ_4core3ptr10swap_chunkKj1_ECs3GcDDz6nV1P_7autocfg, symObjAddr: 0x960, symBinAddr: 0x100019B00, symSize: 0x30 }
  - { offset: 0x3C7B5, size: 0x8, addend: 0x0, symName: __RINvNtCsieiGu2EXtoJ_4core3ptr10swap_chunkKj2_ECs3GcDDz6nV1P_7autocfg, symObjAddr: 0x990, symBinAddr: 0x100019B30, symSize: 0x30 }
  - { offset: 0x3C7EE, size: 0x8, addend: 0x0, symName: __RINvNtCsieiGu2EXtoJ_4core3ptr10swap_chunkKj4_ECs3GcDDz6nV1P_7autocfg, symObjAddr: 0x9C0, symBinAddr: 0x100019B60, symSize: 0x30 }
  - { offset: 0x3C827, size: 0x8, addend: 0x0, symName: __RINvNtCsieiGu2EXtoJ_4core3ptr10swap_chunkKj8_ECs3GcDDz6nV1P_7autocfg, symObjAddr: 0x9F0, symBinAddr: 0x100019B90, symSize: 0x30 }
  - { offset: 0x3CC10, size: 0x8, addend: 0x0, symName: __RINvNtCsieiGu2EXtoJ_4core3ptr14read_unalignedINtNtNtB4_9core_simd6vector4SimdhKj10_EECs3GcDDz6nV1P_7autocfg, symObjAddr: 0xA20, symBinAddr: 0x100019BC0, symSize: 0xA0 }
  - { offset: 0x3CD84, size: 0x8, addend: 0x0, symName: __RINvNtCsieiGu2EXtoJ_4core3ptr14read_unalignedmECs3GcDDz6nV1P_7autocfg, symObjAddr: 0xAC0, symBinAddr: 0x100019C60, symSize: 0x80 }
  - { offset: 0x3CF86, size: 0x8, addend: 0x0, symName: __RNvNvNtCsieiGu2EXtoJ_4core3ptr19swap_nonoverlapping18precondition_checkCs3GcDDz6nV1P_7autocfg, symObjAddr: 0x1DB0, symBinAddr: 0x10001ABE0, symSize: 0x4E0 }
  - { offset: 0x3D2C6, size: 0x8, addend: 0x0, symName: __RINvNtCsieiGu2EXtoJ_4core3ptr19swap_nonoverlappinghECs3GcDDz6nV1P_7autocfg, symObjAddr: 0xBF0, symBinAddr: 0x100019CE0, symSize: 0xB0 }
  - { offset: 0x3D4B9, size: 0x8, addend: 0x0, symName: __RINvNvNtCsieiGu2EXtoJ_4core3ptr25swap_nonoverlapping_bytes26swap_nonoverlapping_chunksKj8_ECs3GcDDz6nV1P_7autocfg, symObjAddr: 0xCA0, symBinAddr: 0x100019D90, symSize: 0x110 }
  - { offset: 0x3D65E, size: 0x8, addend: 0x0, symName: __RNvNvNtCsieiGu2EXtoJ_4core3ptr25swap_nonoverlapping_bytes25swap_nonoverlapping_shortCs3GcDDz6nV1P_7autocfg, symObjAddr: 0x2290, symBinAddr: 0x10001B0C0, symSize: 0x160 }
  - { offset: 0x3D899, size: 0x8, addend: 0x0, symName: __RNvNtCsieiGu2EXtoJ_4core3ptr25swap_nonoverlapping_bytesCs3GcDDz6nV1P_7autocfg, symObjAddr: 0x1830, symBinAddr: 0x10001A660, symSize: 0xD0 }
  - { offset: 0x3DA42, size: 0x8, addend: 0x0, symName: __RNvNvNtCsieiGu2EXtoJ_4core3ptr19copy_nonoverlapping18precondition_checkCs3GcDDz6nV1P_7autocfg, symObjAddr: 0x1900, symBinAddr: 0x10001A730, symSize: 0x4B0 }
  - { offset: 0x3DD53, size: 0x8, addend: 0x0, symName: __RNvNvNtCsieiGu2EXtoJ_4core3ptr7replace18precondition_checkCs3GcDDz6nV1P_7autocfg, symObjAddr: 0x23F0, symBinAddr: 0x10001B220, symSize: 0x1E0 }
  - { offset: 0x3F76E, size: 0x8, addend: 0x0, symName: __RINvNtCsieiGu2EXtoJ_4core3mem4dropNtNtCsHUR1vrdMJt_3std7process10ChildStdinECs3GcDDz6nV1P_7autocfg, symObjAddr: 0x940, symBinAddr: 0x100019AE0, symSize: 0x20 }
  - { offset: 0x3F96C, size: 0x8, addend: 0x0, symName: __RINvXsn_NtNtCsieiGu2EXtoJ_4core9core_simd5masksaNtNtB6_6sealed6Sealed5validKj10_ECs3GcDDz6nV1P_7autocfg, symObjAddr: 0x1280, symBinAddr: 0x10001A220, symSize: 0x140 }
  - { offset: 0x3FB4B, size: 0x8, addend: 0x0, symName: __RNvXsF_NtNtCsieiGu2EXtoJ_4core4iter5rangejNtB5_4Step18backward_uncheckedCs3GcDDz6nV1P_7autocfg, symObjAddr: 0x2D20, symBinAddr: 0x10001BB30, symSize: 0x40 }
  - { offset: 0x3FC19, size: 0x8, addend: 0x0, symName: __RNvXsD_NtNtCsieiGu2EXtoJ_4core4iter5rangeyNtB5_4Step13steps_betweenCs3GcDDz6nV1P_7autocfg, symObjAddr: 0x2C50, symBinAddr: 0x10001BA60, symSize: 0x80 }
  - { offset: 0x3FC74, size: 0x8, addend: 0x0, symName: __RNvXsD_NtNtCsieiGu2EXtoJ_4core4iter5rangeyNtB5_4Step17forward_uncheckedCs3GcDDz6nV1P_7autocfg, symObjAddr: 0x2CD0, symBinAddr: 0x10001BAE0, symSize: 0x50 }
  - { offset: 0x3FE39, size: 0x8, addend: 0x0, symName: __RNvNvNtNtCsieiGu2EXtoJ_4core5slice3raw14from_raw_parts18precondition_checkCs3GcDDz6nV1P_7autocfg, symObjAddr: 0x25D0, symBinAddr: 0x10001B400, symSize: 0x260 }
  - { offset: 0x40007, size: 0x8, addend: 0x0, symName: __RNvNvNtNtCsieiGu2EXtoJ_4core5slice3raw18from_raw_parts_mut18precondition_checkCs3GcDDz6nV1P_7autocfg, symObjAddr: 0x2830, symBinAddr: 0x10001B660, symSize: 0x260 }
  - { offset: 0x4039D, size: 0x8, addend: 0x0, symName: __RNvXNtCsieiGu2EXtoJ_4core7convertRNtNtCslJiobkLta79_5alloc6string6StringINtB2_5AsRefNtNtNtCsHUR1vrdMJt_3std3ffi6os_str5OsStrE6as_refCs3GcDDz6nV1P_7autocfg, symObjAddr: 0x2A90, symBinAddr: 0x10001B8C0, symSize: 0x20 }
  - { offset: 0x403E3, size: 0x8, addend: 0x0, symName: __RNvXs1_NtCsieiGu2EXtoJ_4core7convertNtNtCsHUR1vrdMJt_3std7process5StdioINtB5_4IntoBy_E4intoCs3GcDDz6nV1P_7autocfg, symObjAddr: 0x2BA0, symBinAddr: 0x10001B9D0, symSize: 0x20 }
  - { offset: 0x4062C, size: 0x8, addend: 0x0, symName: __RNvXs19_NtCsieiGu2EXtoJ_4core3fmtRNtNtCsHUR1vrdMJt_3std7process10ExitStatusNtB6_5Debug3fmtCs3GcDDz6nV1P_7autocfg, symObjAddr: 0x2B10, symBinAddr: 0x10001B940, symSize: 0x20 }
  - { offset: 0x40672, size: 0x8, addend: 0x0, symName: __RNvXs19_NtCsieiGu2EXtoJ_4core3fmtRNtNtNtNtNtCsHUR1vrdMJt_3std3sys7process4unix4unix10ExitStatusNtB6_5Debug3fmtCs3GcDDz6nV1P_7autocfg, symObjAddr: 0x2B30, symBinAddr: 0x10001B960, symSize: 0x20 }
  - { offset: 0x41103, size: 0x8, addend: 0x0, symName: __RNvYNtNtCsHUR1vrdMJt_3std7process10ChildStdinNtNtB6_2io5Write9write_allCs3GcDDz6nV1P_7autocfg, symObjAddr: 0x2F70, symBinAddr: 0x10001BD10, symSize: 0x2E0 }
  - { offset: 0x412A9, size: 0x8, addend: 0x0, symName: __RNvYNtNtCsHUR1vrdMJt_3std7process10ChildStdinNtNtB6_2io5Write9write_fmtCs3GcDDz6nV1P_7autocfg, symObjAddr: 0x3250, symBinAddr: 0x10001BFF0, symSize: 0x170 }
  - { offset: 0x41612, size: 0x8, addend: 0x0, symName: __RNvXs1e_NtCsHUR1vrdMJt_3std7processNtB6_10ExitStatusNtNtCsieiGu2EXtoJ_4core3fmt5Debug3fmtCs3GcDDz6nV1P_7autocfg, symObjAddr: 0x2BE0, symBinAddr: 0x10001B9F0, symSize: 0x50 }
  - { offset: 0x416D2, size: 0x8, addend: 0x0, symName: __RNvXsX_NtNtCsHUR1vrdMJt_3std3ffi6os_strNtNtCslJiobkLta79_5alloc6string6StringINtNtCsieiGu2EXtoJ_4core7convert5AsRefNtB5_5OsStrE6as_refCs3GcDDz6nV1P_7autocfg, symObjAddr: 0x2D60, symBinAddr: 0x10001BB70, symSize: 0x70 }
  - { offset: 0x41896, size: 0x8, addend: 0x0, symName: __RNvXs1q_NtCsHUR1vrdMJt_3std4pathNtNtCslJiobkLta79_5alloc6string6StringINtNtCsieiGu2EXtoJ_4core7convert5AsRefNtB6_4PathE6as_refCs3GcDDz6nV1P_7autocfg, symObjAddr: 0x2C30, symBinAddr: 0x10001BA40, symSize: 0x20 }
  - { offset: 0x419BB, size: 0x8, addend: 0x0, symName: __RINvXs5_NtNtNtCsHUR1vrdMJt_3std11collections4hash3setINtB6_7HashSetyEINtNtNtNtCsieiGu2EXtoJ_4core4iter6traits7collect12FromIteratoryE9from_iterINtNtNtB1e_3ops5range5RangeyEECs3GcDDz6nV1P_7autocfg, symObjAddr: 0xE50, symBinAddr: 0x100019EA0, symSize: 0x210 }
  - { offset: 0x41AA7, size: 0x8, addend: 0x0, symName: __RNvXsh_NtNtNtCsHUR1vrdMJt_3std11collections4hash3setINtB5_7HashSetyENtNtNtNtCsieiGu2EXtoJ_4core4iter6traits7collect12IntoIterator9into_iterCs3GcDDz6nV1P_7autocfg, symObjAddr: 0x2DD0, symBinAddr: 0x10001BBE0, symSize: 0x80 }
  - { offset: 0x41B0C, size: 0x8, addend: 0x0, symName: __RNvXsn_NtNtNtCsHUR1vrdMJt_3std11collections4hash3setINtB5_8IntoIteryENtNtNtNtCsieiGu2EXtoJ_4core4iter6traits8iterator8Iterator4nextCs3GcDDz6nV1P_7autocfg, symObjAddr: 0x2EC0, symBinAddr: 0x10001BC60, symSize: 0x60 }
  - { offset: 0x41EAA, size: 0x8, addend: 0x0, symName: __RINvMNtCsieiGu2EXtoJ_4core6resultINtB3_6ResultNtNtCsHUR1vrdMJt_3std2fs8MetadataNtNtNtBM_2io5error5ErrorE7map_errNtNtCs3GcDDz6nV1P_7autocfg5error5ErrorNvB1O_7from_ioEB1Q_, symObjAddr: 0x0, symBinAddr: 0x1000191F0, symSize: 0xC0 }
  - { offset: 0x41F3E, size: 0x8, addend: 0x0, symName: __RINvMNtCsieiGu2EXtoJ_4core6resultINtB3_6ResultNtNtCsHUR1vrdMJt_3std7process5ChildNtNtNtBM_2io5error5ErrorE7map_errNtNtCs3GcDDz6nV1P_7autocfg5error5ErrorNvB1Q_7from_ioEB1S_, symObjAddr: 0xC0, symBinAddr: 0x1000192B0, symSize: 0xB0 }
  - { offset: 0x42414, size: 0x8, addend: 0x0, symName: __RNvXs0_NtNtCslJiobkLta79_5alloc3ffi5c_strNtB5_7CStringNtNtNtCsieiGu2EXtoJ_4core3ops4drop4Drop4dropCs3GcDDz6nV1P_7autocfg, symObjAddr: 0x2AB0, symBinAddr: 0x10001B8E0, symSize: 0x60 }
  - { offset: 0x426C7, size: 0x8, addend: 0x0, symName: __RNvXs1V_NtCslJiobkLta79_5alloc6stringeNtB6_12SpecToString14spec_to_stringCs3GcDDz6nV1P_7autocfg, symObjAddr: 0x2B50, symBinAddr: 0x10001B980, symSize: 0x50 }
  - { offset: 0x4280E, size: 0x8, addend: 0x0, symName: __RNvXss_NtCslJiobkLta79_5alloc6stringNtB5_6StringNtNtNtCsieiGu2EXtoJ_4core3ops5deref5Deref5derefCs3GcDDz6nV1P_7autocfg, symObjAddr: 0x2F20, symBinAddr: 0x10001BCC0, symSize: 0x20 }
  - { offset: 0x42842, size: 0x8, addend: 0x0, symName: __RNvXsw_NtCslJiobkLta79_5alloc6stringeNtB5_8ToString9to_stringCs3GcDDz6nV1P_7autocfg, symObjAddr: 0x2F40, symBinAddr: 0x10001BCE0, symSize: 0x30 }
  - { offset: 0x4288F, size: 0x8, addend: 0x0, symName: __RINvXs_NvMNtCslJiobkLta79_5alloc5sliceSp9to_vec_inhNtB5_10ConvertVec6to_vecNtNtBa_5alloc6GlobalECs3GcDDz6nV1P_7autocfg, symObjAddr: 0x1060, symBinAddr: 0x10001A0B0, symSize: 0x170 }
  - { offset: 0x42BC8, size: 0x8, addend: 0x0, symName: __RINvMNtCsieiGu2EXtoJ_4core6resultINtB3_6ResultNtNtCsHUR1vrdMJt_3std7process6OutputNtNtNtBM_2io5error5ErrorE7map_errNtNtCs3GcDDz6nV1P_7autocfg5error5ErrorNvB1R_7from_ioEB1T_, symObjAddr: 0x170, symBinAddr: 0x100019360, symSize: 0xB0 }
  - { offset: 0x42C74, size: 0x8, addend: 0x0, symName: __RINvMNtCsieiGu2EXtoJ_4core6resultINtB3_6ResultReNtNtNtB5_3str5error9Utf8ErrorE7map_errNtNtCs3GcDDz6nV1P_7autocfg5error5ErrorNvB1o_9from_utf8EB1q_, symObjAddr: 0x220, symBinAddr: 0x100019410, symSize: 0xA0 }
  - { offset: 0x42D20, size: 0x8, addend: 0x0, symName: __RINvMNtCsieiGu2EXtoJ_4core6resultINtB3_6ResultjNtNtNtB5_3num5error13ParseIntErrorE7map_errNtNtCs3GcDDz6nV1P_7autocfg5error5ErrorNvB1s_8from_numEB1u_, symObjAddr: 0x2C0, symBinAddr: 0x1000194B0, symSize: 0x80 }
  - { offset: 0x42DB3, size: 0x8, addend: 0x0, symName: __RINvMNtCsieiGu2EXtoJ_4core6resultINtB3_6ResultuNtNtNtCsHUR1vrdMJt_3std2io5error5ErrorE7map_errNtNtCs3GcDDz6nV1P_7autocfg5error5ErrorNvB1w_7from_ioEB1y_, symObjAddr: 0x340, symBinAddr: 0x100019530, symSize: 0x70 }
  - { offset: 0x42F9E, size: 0x8, addend: 0x0, symName: __RINvMsk_NtCsHUR1vrdMJt_3std7processNtB6_7Command3argRNtNtB8_4path7PathBufECs3GcDDz6nV1P_7autocfg, symObjAddr: 0x3B0, symBinAddr: 0x1000195A0, symSize: 0x60 }
  - { offset: 0x42FE6, size: 0x8, addend: 0x0, symName: __RINvMsk_NtCsHUR1vrdMJt_3std7processNtB6_7Command3argRNtNtCslJiobkLta79_5alloc6string6StringECs3GcDDz6nV1P_7autocfg, symObjAddr: 0x410, symBinAddr: 0x100019600, symSize: 0x60 }
  - { offset: 0x43048, size: 0x8, addend: 0x0, symName: __RINvMsk_NtCsHUR1vrdMJt_3std7processNtB6_7Command3argRNtNtNtB8_3ffi6os_str5OsStrECs3GcDDz6nV1P_7autocfg, symObjAddr: 0x470, symBinAddr: 0x100019660, symSize: 0x60 }
  - { offset: 0x43090, size: 0x8, addend: 0x0, symName: __RINvMsk_NtCsHUR1vrdMJt_3std7processNtB6_7Command3argRNtNtNtB8_3ffi6os_str8OsStringECs3GcDDz6nV1P_7autocfg, symObjAddr: 0x4D0, symBinAddr: 0x1000196C0, symSize: 0x60 }
  - { offset: 0x430CB, size: 0x8, addend: 0x0, symName: __RINvMsk_NtCsHUR1vrdMJt_3std7processNtB6_7Command3argReECs3GcDDz6nV1P_7autocfg, symObjAddr: 0x530, symBinAddr: 0x100019720, symSize: 0x60 }
  - { offset: 0x43106, size: 0x8, addend: 0x0, symName: __RINvMsk_NtCsHUR1vrdMJt_3std7processNtB6_7Command3newRNtNtB8_4path7PathBufECs3GcDDz6nV1P_7autocfg, symObjAddr: 0x590, symBinAddr: 0x100019780, symSize: 0xA0 }
  - { offset: 0x4315A, size: 0x8, addend: 0x0, symName: __RINvMsk_NtCsHUR1vrdMJt_3std7processNtB6_7Command4argsRARNtNtB8_4path7PathBufj2_RBR_ECs3GcDDz6nV1P_7autocfg, symObjAddr: 0x630, symBinAddr: 0x100019820, symSize: 0xD0 }
  - { offset: 0x431F1, size: 0x8, addend: 0x0, symName: __RINvMsk_NtCsHUR1vrdMJt_3std7processNtB6_7Command4argsRARej2_RBR_ECs3GcDDz6nV1P_7autocfg, symObjAddr: 0x700, symBinAddr: 0x1000198F0, symSize: 0xD0 }
  - { offset: 0x4326E, size: 0x8, addend: 0x0, symName: __RINvMsk_NtCsHUR1vrdMJt_3std7processNtB6_7Command4argsRINtNtCslJiobkLta79_5alloc3vec3VecNtNtBV_6string6StringERB1n_ECs3GcDDz6nV1P_7autocfg, symObjAddr: 0x7D0, symBinAddr: 0x1000199C0, symSize: 0xD0 }
  - { offset: 0x432DE, size: 0x8, addend: 0x0, symName: __RINvMsk_NtCsHUR1vrdMJt_3std7processNtB6_7Command5stdinNtB6_5StdioECs3GcDDz6nV1P_7autocfg, symObjAddr: 0x8A0, symBinAddr: 0x100019A90, symSize: 0x50 }
  - { offset: 0x43AE4, size: 0x8, addend: 0x0, symName: __RNvMNtCsieiGu2EXtoJ_4core6resultINtB2_6ResulthNtNtNtB4_3num5error15TryFromIntErrorE6expectCs3GcDDz6nV1P_7autocfg, symObjAddr: 0x13F0, symBinAddr: 0x10001A360, symSize: 0x80 }
  - { offset: 0x43B53, size: 0x8, addend: 0x0, symName: __RNvMNtCsieiGu2EXtoJ_4core6resultINtB2_6ResultuNtNtCs3GcDDz6nV1P_7autocfg5error5ErrorE5is_okBM_, symObjAddr: 0x1470, symBinAddr: 0x10001A3E0, symSize: 0x30 }
  - { offset: 0x43BAD, size: 0x8, addend: 0x0, symName: __RNvMNtCsieiGu2EXtoJ_4core6resultINtB2_6ResultuNtNtCs3GcDDz6nV1P_7autocfg5error5ErrorE6is_errBM_, symObjAddr: 0x14A0, symBinAddr: 0x10001A410, symSize: 0x30 }
  - { offset: 0x43C00, size: 0x8, addend: 0x0, symName: __RNvMNtCsieiGu2EXtoJ_4core6resultINtB2_6ResultuNtNtNtCsHUR1vrdMJt_3std2io5error5ErrorE2okCs3GcDDz6nV1P_7autocfg, symObjAddr: 0x14D0, symBinAddr: 0x10001A440, symSize: 0x60 }
  - { offset: 0x43CEF, size: 0x8, addend: 0x0, symName: __RNvMNtCslJiobkLta79_5alloc6stringNtB2_6String6as_strCs3GcDDz6nV1P_7autocfg, symObjAddr: 0x1660, symBinAddr: 0x10001A4A0, symSize: 0x60 }
  - { offset: 0x43E24, size: 0x8, addend: 0x0, symName: __RNvMNtCslJiobkLta79_5alloc6stringNtB2_6String8is_emptyCs3GcDDz6nV1P_7autocfg, symObjAddr: 0x16C0, symBinAddr: 0x10001A500, symSize: 0x20 }
  - { offset: 0x43EBD, size: 0x8, addend: 0x0, symName: __RNvMs1G_NtNtCsieiGu2EXtoJ_4core4sync6atomicNtB6_11AtomicUsize9fetch_addCs3GcDDz6nV1P_7autocfg, symObjAddr: 0x16E0, symBinAddr: 0x10001A520, symSize: 0xC0 }
  - { offset: 0x44008, size: 0x8, addend: 0x0, symName: __RNvMsI_NtCsHUR1vrdMJt_3std7processNtB5_10ExitStatus7successCs3GcDDz6nV1P_7autocfg, symObjAddr: 0x17A0, symBinAddr: 0x10001A5E0, symSize: 0x60 }
  - { offset: 0x440E3, size: 0x8, addend: 0x0, symName: __RNvMsv_NtCsHUR1vrdMJt_3std7processNtB5_5Stdio5pipedCs3GcDDz6nV1P_7autocfg, symObjAddr: 0x1800, symBinAddr: 0x10001A640, symSize: 0x20 }
  - { offset: 0x44688, size: 0x8, addend: 0x0, symName: ___llvm_profile_get_magic, symObjAddr: 0x20, symBinAddr: 0x10001C160, symSize: 0x10 }
  - { offset: 0x446A9, size: 0x8, addend: 0x0, symName: ___llvm_profile_get_num_padding_bytes, symObjAddr: 0x40, symBinAddr: 0x10001C170, symSize: 0x10 }
  - { offset: 0x446DA, size: 0x8, addend: 0x0, symName: ___llvm_profile_get_version, symObjAddr: 0x50, symBinAddr: 0x10001C180, symSize: 0x10 }
  - { offset: 0x4474F, size: 0x8, addend: 0x0, symName: ___llvm_profile_is_continuous_mode_enabled, symObjAddr: 0x0, symBinAddr: 0x10001C190, symSize: 0x20 }
  - { offset: 0x4476C, size: 0x8, addend: 0x0, symName: _ContinuouslySyncProfile, symObjAddr: 0x40E0, symBinAddr: 0x1000807C8, symSize: 0x0 }
  - { offset: 0x4478E, size: 0x8, addend: 0x0, symName: _PageSize, symObjAddr: 0x40E4, symBinAddr: 0x1000807CC, symSize: 0x0 }
  - { offset: 0x447BC, size: 0x8, addend: 0x0, symName: ___llvm_profile_is_continuous_mode_enabled, symObjAddr: 0x0, symBinAddr: 0x10001C190, symSize: 0x20 }
  - { offset: 0x447DD, size: 0x8, addend: 0x0, symName: ___llvm_profile_enable_continuous_mode, symObjAddr: 0x20, symBinAddr: 0x10001C1B0, symSize: 0x10 }
  - { offset: 0x447FA, size: 0x8, addend: 0x0, symName: ___llvm_profile_disable_continuous_mode, symObjAddr: 0x30, symBinAddr: 0x10001C1C0, symSize: 0x10 }
  - { offset: 0x44817, size: 0x8, addend: 0x0, symName: ___llvm_profile_set_page_size, symObjAddr: 0x40, symBinAddr: 0x10001C1D0, symSize: 0x10 }
  - { offset: 0x44842, size: 0x8, addend: 0x0, symName: ___llvm_profile_get_size_for_buffer, symObjAddr: 0x50, symBinAddr: 0x10001C1E0, symSize: 0xD0 }
  - { offset: 0x44C90, size: 0x8, addend: 0x0, symName: ___llvm_profile_get_size_for_buffer_internal, symObjAddr: 0x120, symBinAddr: 0x10001C2B0, symSize: 0x210 }
  - { offset: 0x4503C, size: 0x8, addend: 0x0, symName: ___llvm_profile_get_num_data, symObjAddr: 0x330, symBinAddr: 0x10001C4C0, symSize: 0x10 }
  - { offset: 0x45076, size: 0x8, addend: 0x0, symName: ___llvm_profile_get_data_size, symObjAddr: 0x340, symBinAddr: 0x10001C4D0, symSize: 0x10 }
  - { offset: 0x450A2, size: 0x8, addend: 0x0, symName: ___llvm_profile_get_data_size, symObjAddr: 0x340, symBinAddr: 0x10001C4D0, symSize: 0x10 }
  - { offset: 0x450D8, size: 0x8, addend: 0x0, symName: ___llvm_profile_get_num_vtable, symObjAddr: 0x350, symBinAddr: 0x10001C4E0, symSize: 0x20 }
  - { offset: 0x45131, size: 0x8, addend: 0x0, symName: ___llvm_profile_get_vtable_section_size, symObjAddr: 0x370, symBinAddr: 0x10001C500, symSize: 0x10 }
  - { offset: 0x45158, size: 0x8, addend: 0x0, symName: ___llvm_profile_counter_entry_size, symObjAddr: 0x380, symBinAddr: 0x10001C510, symSize: 0x20 }
  - { offset: 0x45171, size: 0x8, addend: 0x0, symName: ___llvm_profile_get_num_counters, symObjAddr: 0x3A0, symBinAddr: 0x10001C530, symSize: 0x50 }
  - { offset: 0x451C7, size: 0x8, addend: 0x0, symName: ___llvm_profile_get_counters_size, symObjAddr: 0x3F0, symBinAddr: 0x10001C580, symSize: 0x60 }
  - { offset: 0x4525D, size: 0x8, addend: 0x0, symName: ___llvm_profile_get_num_bitmap_bytes, symObjAddr: 0x450, symBinAddr: 0x10001C5E0, symSize: 0x10 }
  - { offset: 0x45285, size: 0x8, addend: 0x0, symName: ___llvm_profile_get_name_size, symObjAddr: 0x460, symBinAddr: 0x10001C5F0, symSize: 0x10 }
  - { offset: 0x452AD, size: 0x8, addend: 0x0, symName: ___llvm_profile_get_padding_sizes_for_counters, symObjAddr: 0x470, symBinAddr: 0x10001C600, symSize: 0x1B0 }
  - { offset: 0x453CE, size: 0x8, addend: 0x0, symName: _initBufferWriter, symObjAddr: 0x620, symBinAddr: 0x10001C7B0, symSize: 0x10 }
  - { offset: 0x4553D, size: 0x8, addend: 0x0, symName: _lprofCurFilename, symObjAddr: 0xA6F8, symBinAddr: 0x1000807D0, symSize: 0x0 }
  - { offset: 0x45669, size: 0x8, addend: 0x0, symName: _ProfileFile, symObjAddr: 0xA7C8, symBinAddr: 0x1000808A0, symSize: 0x0 }
  - { offset: 0x4589E, size: 0x8, addend: 0x0, symName: _ProfileMergeRequested, symObjAddr: 0xA7D0, symBinAddr: 0x1000808A8, symSize: 0x0 }
  - { offset: 0x45A48, size: 0x8, addend: 0x0, symName: _getCurFilenameLength, symObjAddr: 0x180, symBinAddr: 0x10001C7C0, symSize: 0xE0 }
  - { offset: 0x45AD3, size: 0x8, addend: 0x0, symName: _getCurFilename, symObjAddr: 0x260, symBinAddr: 0x10001C8A0, symSize: 0x380 }
  - { offset: 0x45D63, size: 0x8, addend: 0x0, symName: _parseAndSetFilename, symObjAddr: 0x6B0, symBinAddr: 0x10001CC20, symSize: 0x590 }
  - { offset: 0x45F81, size: 0x8, addend: 0x0, symName: ___llvm_profile_initialize, symObjAddr: 0xC40, symBinAddr: 0x10001D1B0, symSize: 0x90 }
  - { offset: 0x45FFD, size: 0x8, addend: 0x0, symName: ___llvm_profile_write_file, symObjAddr: 0xD30, symBinAddr: 0x10001D240, symSize: 0x160 }
  - { offset: 0x461D0, size: 0x8, addend: 0x0, symName: _writeFile, symObjAddr: 0xE90, symBinAddr: 0x10001D3A0, symSize: 0x2B0 }
  - { offset: 0x46379, size: 0x8, addend: 0x0, symName: _writeFileWithoutReturn, symObjAddr: 0x1190, symBinAddr: 0x10001D650, symSize: 0x10 }
  - { offset: 0x463B0, size: 0x8, addend: 0x0, symName: _getProfileFileSizeForMerging, symObjAddr: 0x13C0, symBinAddr: 0x10001D660, symSize: 0xC0 }
  - { offset: 0x463F5, size: 0x8, addend: 0x0, symName: _mmapForContinuousMode, symObjAddr: 0x1480, symBinAddr: 0x10001D720, symSize: 0x2D0 }
  - { offset: 0x465B4, size: 0x8, addend: 0x0, symName: _fileWriter, symObjAddr: 0x1750, symBinAddr: 0x10001D9F0, symSize: 0x150 }
  - { offset: 0x46684, size: 0x8, addend: 0x0, symName: _binaryIdsStringWriter, symObjAddr: 0x18A0, symBinAddr: 0x10001DB40, symSize: 0xA0 }
  - { offset: 0x46725, size: 0x8, addend: 0x0, symName: _truncateCurrentFile, symObjAddr: 0x1940, symBinAddr: 0x10001DBE0, symSize: 0xB0 }
  - { offset: 0x467CB, size: 0x8, addend: 0x0, symName: _initializeProfileForContinuousMode, symObjAddr: 0x19F0, symBinAddr: 0x10001DC90, symSize: 0x2C0 }
  - { offset: 0x469BA, size: 0x8, addend: 0x0, symName: _createProfileDir, symObjAddr: 0x1CB0, symBinAddr: 0x10001DF50, symSize: 0x7F }
  - { offset: 0x46B2B, size: 0x8, addend: 0x0, symName: _lprofProfileDumped, symObjAddr: 0x0, symBinAddr: 0x10001DFD0, symSize: 0x10 }
  - { offset: 0x46B48, size: 0x8, addend: 0x0, symName: _ProfileDumped, symObjAddr: 0x4E0, symBinAddr: 0x1000808AC, symSize: 0x0 }
  - { offset: 0x46B58, size: 0x8, addend: 0x0, symName: _lprofProfileDumped, symObjAddr: 0x0, symBinAddr: 0x10001DFD0, symSize: 0x10 }
  - { offset: 0x46BA0, size: 0x8, addend: 0x0, symName: _lprofGetLoadModuleSignature, symObjAddr: 0x0, symBinAddr: 0x10001DFE0, symSize: 0xE0 }
  - { offset: 0x46BCD, size: 0x8, addend: 0x0, symName: _VPMergeHook, symObjAddr: 0x2AA0, symBinAddr: 0x100082AA0, symSize: 0x0 }
  - { offset: 0x46E36, size: 0x8, addend: 0x0, symName: _lprofGetLoadModuleSignature, symObjAddr: 0x0, symBinAddr: 0x10001DFE0, symSize: 0xE0 }
  - { offset: 0x46EAA, size: 0x8, addend: 0x0, symName: ___llvm_profile_check_compatibility, symObjAddr: 0xE0, symBinAddr: 0x10001E0C0, symSize: 0x190 }
  - { offset: 0x46F8A, size: 0x8, addend: 0x0, symName: ___llvm_profile_merge_from_buffer, symObjAddr: 0x270, symBinAddr: 0x10001E250, symSize: 0x4D8 }
  - { offset: 0x471EA, size: 0x8, addend: 0x0, symName: _lprofMergeValueProfData, symObjAddr: 0x0, symBinAddr: 0x10001E730, symSize: 0xF1 }
  - { offset: 0x471FB, size: 0x8, addend: 0x0, symName: _lprofMergeValueProfData, symObjAddr: 0x0, symBinAddr: 0x10001E730, symSize: 0xF1 }
  - { offset: 0x474C6, size: 0x8, addend: 0x0, symName: ___llvm_profile_begin_data, symObjAddr: 0x0, symBinAddr: 0x10001E830, symSize: 0x10 }
  - { offset: 0x474E5, size: 0x8, addend: 0x0, symName: _CurrentVNode, symObjAddr: 0xE8, symBinAddr: 0x10007FC70, symSize: 0x0 }
  - { offset: 0x47562, size: 0x8, addend: 0x0, symName: _EndVNode, symObjAddr: 0xF0, symBinAddr: 0x10007FC78, symSize: 0x0 }
  - { offset: 0x4756B, size: 0x8, addend: 0x0, symName: ___llvm_profile_begin_data, symObjAddr: 0x0, symBinAddr: 0x10001E830, symSize: 0x10 }
  - { offset: 0x4758C, size: 0x8, addend: 0x0, symName: ___llvm_profile_end_data, symObjAddr: 0x10, symBinAddr: 0x10001E840, symSize: 0x10 }
  - { offset: 0x475AD, size: 0x8, addend: 0x0, symName: ___llvm_profile_begin_names, symObjAddr: 0x20, symBinAddr: 0x10001E850, symSize: 0x10 }
  - { offset: 0x475CE, size: 0x8, addend: 0x0, symName: ___llvm_profile_end_names, symObjAddr: 0x30, symBinAddr: 0x10001E860, symSize: 0x10 }
  - { offset: 0x475EF, size: 0x8, addend: 0x0, symName: ___llvm_profile_begin_counters, symObjAddr: 0x40, symBinAddr: 0x10001E870, symSize: 0x10 }
  - { offset: 0x47610, size: 0x8, addend: 0x0, symName: ___llvm_profile_end_counters, symObjAddr: 0x50, symBinAddr: 0x10001E880, symSize: 0x10 }
  - { offset: 0x47631, size: 0x8, addend: 0x0, symName: ___llvm_profile_begin_bitmap, symObjAddr: 0x60, symBinAddr: 0x10001E890, symSize: 0x10 }
  - { offset: 0x47652, size: 0x8, addend: 0x0, symName: ___llvm_profile_end_bitmap, symObjAddr: 0x70, symBinAddr: 0x10001E8A0, symSize: 0x10 }
  - { offset: 0x47673, size: 0x8, addend: 0x0, symName: ___llvm_profile_begin_vtables, symObjAddr: 0x80, symBinAddr: 0x10001E8B0, symSize: 0x10 }
  - { offset: 0x47694, size: 0x8, addend: 0x0, symName: ___llvm_profile_end_vtables, symObjAddr: 0x90, symBinAddr: 0x10001E8C0, symSize: 0x10 }
  - { offset: 0x476B5, size: 0x8, addend: 0x0, symName: ___llvm_profile_begin_vtabnames, symObjAddr: 0xA0, symBinAddr: 0x10001E8D0, symSize: 0x10 }
  - { offset: 0x476D6, size: 0x8, addend: 0x0, symName: ___llvm_profile_end_vtabnames, symObjAddr: 0xB0, symBinAddr: 0x10001E8E0, symSize: 0x10 }
  - { offset: 0x476F7, size: 0x8, addend: 0x0, symName: ___llvm_profile_begin_vnodes, symObjAddr: 0xC0, symBinAddr: 0x10001E8F0, symSize: 0x10 }
  - { offset: 0x47718, size: 0x8, addend: 0x0, symName: ___llvm_profile_end_vnodes, symObjAddr: 0xD0, symBinAddr: 0x10001E900, symSize: 0x10 }
  - { offset: 0x47739, size: 0x8, addend: 0x0, symName: ___llvm_write_binary_ids, symObjAddr: 0xE0, symBinAddr: 0x10001E910, symSize: 0x3 }
  - { offset: 0x479C1, size: 0x8, addend: 0x0, symName: __GLOBAL__sub_I_InstrProfilingRuntime.cpp, symObjAddr: 0x0, symBinAddr: 0x10001E920, symSize: 0x12 }
  - { offset: 0x479E4, size: 0x8, addend: 0x0, symName: ___llvm_profile_runtime, symObjAddr: 0x580, symBinAddr: 0x100082AA8, symSize: 0x0 }
  - { offset: 0x47A15, size: 0x8, addend: 0x0, symName: __GLOBAL__sub_I_InstrProfilingRuntime.cpp, symObjAddr: 0x0, symBinAddr: 0x10001E920, symSize: 0x12 }
  - { offset: 0x47A91, size: 0x8, addend: 0x0, symName: ___llvm_profile_recursive_mkdir, symObjAddr: 0x0, symBinAddr: 0x10001E940, symSize: 0x40 }
  - { offset: 0x47AB0, size: 0x8, addend: 0x0, symName: _lprofDirMode, symObjAddr: 0x6F8, symBinAddr: 0x10007FC80, symSize: 0x0 }
  - { offset: 0x47B1C, size: 0x8, addend: 0x0, symName: ___llvm_profile_recursive_mkdir, symObjAddr: 0x0, symBinAddr: 0x10001E940, symSize: 0x40 }
  - { offset: 0x47B9C, size: 0x8, addend: 0x0, symName: _lprofGetHostName, symObjAddr: 0x60, symBinAddr: 0x10001E980, symSize: 0x70 }
  - { offset: 0x47CD2, size: 0x8, addend: 0x0, symName: _lprofLockFileHandle, symObjAddr: 0x1B0, symBinAddr: 0x10001E9F0, symSize: 0x70 }
  - { offset: 0x47D60, size: 0x8, addend: 0x0, symName: _lprofUnlockFileHandle, symObjAddr: 0x220, symBinAddr: 0x10001EA60, symSize: 0x70 }
  - { offset: 0x47DC8, size: 0x8, addend: 0x0, symName: _lprofOpenFileEx, symObjAddr: 0x290, symBinAddr: 0x10001EAD0, symSize: 0xB0 }
  - { offset: 0x47E5A, size: 0x8, addend: 0x0, symName: _lprofGetFileContentBuffer, symObjAddr: 0x340, symBinAddr: 0x10001EB80, symSize: 0x1B0 }
  - { offset: 0x47EE9, size: 0x8, addend: 0x0, symName: _lprofReleaseBuffer, symObjAddr: 0x4F0, symBinAddr: 0x10001ED30, symSize: 0x70 }
  - { offset: 0x47F2B, size: 0x8, addend: 0x0, symName: _lprofFindFirstDirSeparator, symObjAddr: 0x660, symBinAddr: 0x10001EDA0, symSize: 0x10 }
  - { offset: 0x47F6B, size: 0x8, addend: 0x0, symName: _lprofSuspendSigKill, symObjAddr: 0x680, symBinAddr: 0x10001EDB0, symSize: 0x10 }
  - { offset: 0x47F8E, size: 0x8, addend: 0x0, symName: _lprofRestoreSigKill, symObjAddr: 0x690, symBinAddr: 0x10001EDC0, symSize: 0x10 }
  - { offset: 0x47FAD, size: 0x8, addend: 0x0, symName: _lprofAtExit, symObjAddr: 0x6F0, symBinAddr: 0x10001EDD0, symSize: 0x5 }
  - { offset: 0x482C5, size: 0x8, addend: 0x0, symName: _getValueProfRecordHeaderSize, symObjAddr: 0x0, symBinAddr: 0x10001EDE0, symSize: 0x10 }
  - { offset: 0x482E4, size: 0x8, addend: 0x0, symName: _VPMaxNumValsPerSite, symObjAddr: 0x1468, symBinAddr: 0x10007FC88, symSize: 0x0 }
  - { offset: 0x4837A, size: 0x8, addend: 0x0, symName: _hasNonDefaultValsPerSite, symObjAddr: 0xEE78, symBinAddr: 0x1000808B0, symSize: 0x0 }
  - { offset: 0x483A1, size: 0x8, addend: 0x0, symName: _OutOfNodesWarnings, symObjAddr: 0xEE80, symBinAddr: 0x1000808B8, symSize: 0x0 }
  - { offset: 0x483B6, size: 0x8, addend: 0x0, symName: _hasStaticCounters, symObjAddr: 0xEE7C, symBinAddr: 0x1000808B4, symSize: 0x0 }
  - { offset: 0x483D4, size: 0x8, addend: 0x0, symName: _TheVPDataReader, symObjAddr: 0x1470, symBinAddr: 0x10007FC90, symSize: 0x0 }
  - { offset: 0x4867B, size: 0x8, addend: 0x0, symName: _RTRecord, symObjAddr: 0xEE88, symBinAddr: 0x1000808C0, symSize: 0x0 }
  - { offset: 0x48876, size: 0x8, addend: 0x0, symName: _getValueProfRecordHeaderSize, symObjAddr: 0x0, symBinAddr: 0x10001EDE0, symSize: 0x10 }
  - { offset: 0x488CB, size: 0x8, addend: 0x0, symName: _getValueProfRecordValueData, symObjAddr: 0x20, symBinAddr: 0x10001EDF0, symSize: 0x10 }
  - { offset: 0x48978, size: 0x8, addend: 0x0, symName: _getValueProfRecordNext, symObjAddr: 0x130, symBinAddr: 0x10001EE00, symSize: 0x100 }
  - { offset: 0x48980, size: 0x8, addend: 0x0, symName: _getFirstValueProfRecord, symObjAddr: 0x230, symBinAddr: 0x10001EF00, symSize: 0x10 }
  - { offset: 0x48A07, size: 0x8, addend: 0x0, symName: _getFirstValueProfRecord, symObjAddr: 0x230, symBinAddr: 0x10001EF00, symSize: 0x10 }
  - { offset: 0x48AE7, size: 0x8, addend: 0x0, symName: _lprofSetupValueProfiler, symObjAddr: 0x8C0, symBinAddr: 0x10001EF10, symSize: 0x50 }
  - { offset: 0x48BF9, size: 0x8, addend: 0x0, symName: ___llvm_profile_instrument_target_value, symObjAddr: 0xB90, symBinAddr: 0x10001EF60, symSize: 0x240 }
  - { offset: 0x48D17, size: 0x8, addend: 0x0, symName: _lprofGetVPDataReader, symObjAddr: 0xE20, symBinAddr: 0x10001F1A0, symSize: 0x10 }
  - { offset: 0x48D3A, size: 0x8, addend: 0x0, symName: _initializeValueProfRuntimeRecord, symObjAddr: 0xE30, symBinAddr: 0x10001F1B0, symSize: 0x390 }
  - { offset: 0x48E5F, size: 0x8, addend: 0x0, symName: _getNumValueDataForSiteWrapper, symObjAddr: 0x11C0, symBinAddr: 0x10001F540, symSize: 0x20 }
  - { offset: 0x48EA3, size: 0x8, addend: 0x0, symName: _getNumValueDataForSiteWrapper, symObjAddr: 0x11C0, symBinAddr: 0x10001F540, symSize: 0x20 }
  - { offset: 0x48EC9, size: 0x8, addend: 0x0, symName: _getValueProfDataSizeWrapper, symObjAddr: 0x11E0, symBinAddr: 0x10001F560, symSize: 0xB0 }
  - { offset: 0x48EEF, size: 0x8, addend: 0x0, symName: _getValueProfDataSizeWrapper, symObjAddr: 0x11E0, symBinAddr: 0x10001F560, symSize: 0xB0 }
  - { offset: 0x48F20, size: 0x8, addend: 0x0, symName: _getValueProfDataSizeWrapper, symObjAddr: 0x11E0, symBinAddr: 0x10001F560, symSize: 0xB0 }
  - { offset: 0x48F7D, size: 0x8, addend: 0x0, symName: _getNextNValueData, symObjAddr: 0x1290, symBinAddr: 0x10001F610, symSize: 0xC0 }
  - { offset: 0x49017, size: 0x8, addend: 0x0, symName: _getNumValueSitesRT, symObjAddr: 0x1350, symBinAddr: 0x10001F6D0, symSize: 0x10 }
  - { offset: 0x49058, size: 0x8, addend: 0x0, symName: _getNumValueDataRT, symObjAddr: 0x1360, symBinAddr: 0x10001F6E0, symSize: 0x101 }
  - { offset: 0x49110, size: 0x8, addend: 0x0, symName: ___llvm_profile_raw_version, symObjAddr: 0x0, symBinAddr: 0x10007FCC0, symSize: 0x0 }
  - { offset: 0x49152, size: 0x8, addend: 0x0, symName: _lprofBufferWriter, symObjAddr: 0x0, symBinAddr: 0x10001F7F0, symSize: 0x60 }
  - { offset: 0x49171, size: 0x8, addend: 0x0, symName: _FreeHook, symObjAddr: 0x55B0, symBinAddr: 0x100082AB0, symSize: 0x0 }
  - { offset: 0x49197, size: 0x8, addend: 0x0, symName: _DynamicBufferIOBuffer, symObjAddr: 0x55B8, symBinAddr: 0x100082AB8, symSize: 0x0 }
  - { offset: 0x491C5, size: 0x8, addend: 0x0, symName: _VPBufferSize, symObjAddr: 0x55C0, symBinAddr: 0x100082AC0, symSize: 0x0 }
  - { offset: 0x491EC, size: 0x8, addend: 0x0, symName: _TheBufferIO, symObjAddr: 0x75D0, symBinAddr: 0x1000828F0, symSize: 0x0 }
  - { offset: 0x4933B, size: 0x8, addend: 0x0, symName: _BufferIOBuffer, symObjAddr: 0x55D0, symBinAddr: 0x1000808F0, symSize: 0x0 }
  - { offset: 0x49365, size: 0x8, addend: 0x0, symName: _VPDataArray, symObjAddr: 0x75F0, symBinAddr: 0x100082910, symSize: 0x0 }
  - { offset: 0x493E0, size: 0x8, addend: 0x0, symName: _lprofBufferWriter, symObjAddr: 0x0, symBinAddr: 0x10001F7F0, symSize: 0x60 }
  - { offset: 0x494F9, size: 0x8, addend: 0x0, symName: _lprofBufferIOWrite, symObjAddr: 0x100, symBinAddr: 0x10001F850, symSize: 0x110 }
  - { offset: 0x49615, size: 0x8, addend: 0x0, symName: _lprofWriteData, symObjAddr: 0x2A0, symBinAddr: 0x10001F960, symSize: 0x120 }
  - { offset: 0x49A5C, size: 0x8, addend: 0x0, symName: _lprofWriteDataImpl, symObjAddr: 0x3C0, symBinAddr: 0x10001FA80, symSize: 0x6E0 }
  - { offset: 0x49DB8, size: 0x8, addend: 0x0, symName: _writeOneValueProfData, symObjAddr: 0xB40, symBinAddr: 0x100020160, symSize: 0x438 }
  - { offset: 0x4A078, size: 0x8, addend: 0x0, symName: __RNvCskdKJRKLKjqM_7___rustc10rust_panic, symObjAddr: 0x0, symBinAddr: 0x100064B40, symSize: 0x70 }
  - { offset: 0x4A40E, size: 0x8, addend: 0x0, symName: '__ZN42_$LT$$RF$T$u20$as$u20$core..fmt..Debug$GT$3fmt17h4fdfc8dc92b8280eE', symObjAddr: 0x27870, symBinAddr: 0x1000342C0, symSize: 0x20 }
  - { offset: 0x4A43F, size: 0x8, addend: 0x0, symName: '__ZN42_$LT$$RF$T$u20$as$u20$core..fmt..Debug$GT$3fmt17h611062ea6589b381E', symObjAddr: 0x27920, symBinAddr: 0x1000342E0, symSize: 0x30 }
  - { offset: 0x4A485, size: 0x8, addend: 0x0, symName: '__ZN42_$LT$$RF$T$u20$as$u20$core..fmt..Debug$GT$3fmt17h67462dcd352e9f70E', symObjAddr: 0x27A20, symBinAddr: 0x100034310, symSize: 0x30 }
  - { offset: 0x4A4D9, size: 0x8, addend: 0x0, symName: '__ZN42_$LT$$RF$T$u20$as$u20$core..fmt..Debug$GT$3fmt17h7225122a94cfb215E', symObjAddr: 0x27AB0, symBinAddr: 0x100034340, symSize: 0x80 }
  - { offset: 0x4A574, size: 0x8, addend: 0x0, symName: '__ZN42_$LT$$RF$T$u20$as$u20$core..fmt..Debug$GT$3fmt17h94e75b9b1a04870cE', symObjAddr: 0x27C70, symBinAddr: 0x1000343C0, symSize: 0xA0 }
  - { offset: 0x4A603, size: 0x8, addend: 0x0, symName: '__ZN42_$LT$$RF$T$u20$as$u20$core..fmt..Debug$GT$3fmt17ha3f9e4fd80ade547E', symObjAddr: 0x27D30, symBinAddr: 0x100034460, symSize: 0x20 }
  - { offset: 0x4A617, size: 0x8, addend: 0x0, symName: '__ZN42_$LT$$RF$T$u20$as$u20$core..fmt..Debug$GT$3fmt17hd6b383e11abcf534E', symObjAddr: 0x27FB0, symBinAddr: 0x100034480, symSize: 0x20 }
  - { offset: 0x4A648, size: 0x8, addend: 0x0, symName: '__ZN42_$LT$$RF$T$u20$as$u20$core..fmt..Debug$GT$3fmt17hedcae28885211270E', symObjAddr: 0x28060, symBinAddr: 0x1000344A0, symSize: 0x80 }
  - { offset: 0x4A788, size: 0x8, addend: 0x0, symName: '__ZN44_$LT$$RF$T$u20$as$u20$core..fmt..Display$GT$3fmt17h2befab159451fc05E', symObjAddr: 0x28130, symBinAddr: 0x100034520, symSize: 0x20 }
  - { offset: 0x4A7A3, size: 0x8, addend: 0x0, symName: '__ZN44_$LT$$RF$T$u20$as$u20$core..fmt..Display$GT$3fmt17had011a6e3beb8b51E', symObjAddr: 0x28150, symBinAddr: 0x100034540, symSize: 0x90 }
  - { offset: 0x4A861, size: 0x8, addend: 0x0, symName: '__ZN4core3fmt3num50_$LT$impl$u20$core..fmt..Debug$u20$for$u20$i32$GT$3fmt17h0317b62489790191E', symObjAddr: 0x284D0, symBinAddr: 0x100034620, symSize: 0x30 }
  - { offset: 0x4A890, size: 0x8, addend: 0x0, symName: '__ZN4core3fmt3num52_$LT$impl$u20$core..fmt..Debug$u20$for$u20$usize$GT$3fmt17h4806199c82f902ceE', symObjAddr: 0x28590, symBinAddr: 0x100034650, symSize: 0x30 }
  - { offset: 0x4A8E1, size: 0x8, addend: 0x0, symName: __ZN4core3fmt5Write10write_char17h2203fddc9d642afeE, symObjAddr: 0x285C0, symBinAddr: 0x100034680, symSize: 0xF0 }
  - { offset: 0x4AA28, size: 0x8, addend: 0x0, symName: __ZN4core3fmt5Write10write_char17h80d2a9496aca00b0E, symObjAddr: 0x28810, symBinAddr: 0x100034770, symSize: 0xE0 }
  - { offset: 0x4AAAC, size: 0x8, addend: 0x0, symName: __ZN4core3fmt5Write10write_char17hc46b6f7c3c3194cbE, symObjAddr: 0x288F0, symBinAddr: 0x100034850, symSize: 0x130 }
  - { offset: 0x4AC4E, size: 0x8, addend: 0x0, symName: __ZN4core3fmt5Write10write_char17hdac7d1ed87bd809bE, symObjAddr: 0x28B00, symBinAddr: 0x100034980, symSize: 0x160 }
  - { offset: 0x4AE01, size: 0x8, addend: 0x0, symName: __ZN4core3fmt5Write9write_fmt17hd3928726ab1abb27E, symObjAddr: 0x28D00, symBinAddr: 0x100034AE0, symSize: 0x50 }
  - { offset: 0x4AE30, size: 0x8, addend: 0x0, symName: __ZN4core3fmt5Write9write_fmt17he343009274951ef4E, symObjAddr: 0x28D50, symBinAddr: 0x100034B30, symSize: 0x50 }
  - { offset: 0x4AE5F, size: 0x8, addend: 0x0, symName: __ZN4core3fmt5Write9write_fmt17he408d8c37cd4c2c5E, symObjAddr: 0x28DA0, symBinAddr: 0x100034B80, symSize: 0x50 }
  - { offset: 0x4AE8E, size: 0x8, addend: 0x0, symName: __ZN4core3fmt5Write9write_fmt17hec70cb0fc9ef19e4E, symObjAddr: 0x28DF0, symBinAddr: 0x100034BD0, symSize: 0x50 }
  - { offset: 0x4AEBD, size: 0x8, addend: 0x0, symName: __ZN4core3fmt5Write9write_fmt17hfbfca6c33e82dca5E, symObjAddr: 0x28E40, symBinAddr: 0x100034C20, symSize: 0x50 }
  - { offset: 0x4AF1A, size: 0x8, addend: 0x0, symName: '__ZN50_$LT$$BP$mut$u20$T$u20$as$u20$core..fmt..Debug$GT$3fmt17h461ef72b23c2334dE', symObjAddr: 0x3AB30, symBinAddr: 0x1000417F0, symSize: 0x10 }
  - { offset: 0x4AF67, size: 0x8, addend: 0x0, symName: '__ZN52_$LT$$RF$mut$u20$T$u20$as$u20$core..fmt..Display$GT$3fmt17he99623082ea1fa3dE', symObjAddr: 0x3B1B0, symBinAddr: 0x100041800, symSize: 0x20 }
  - { offset: 0x4D675, size: 0x8, addend: 0x0, symName: '__ZN4core3ptr107drop_in_place$LT$core..pin..Pin$LT$alloc..boxed..Box$LT$std..sys..pal..unix..sync..mutex..Mutex$GT$$GT$$GT$17he4bee0bcfb03f75fE', symObjAddr: 0x294F0, symBinAddr: 0x100034F50, symSize: 0x30 }
  - { offset: 0x4D70C, size: 0x8, addend: 0x0, symName: '__ZN4core3ptr109drop_in_place$LT$alloc..sync..Arc$LT$std..sync..poison..mutex..Mutex$LT$alloc..vec..Vec$LT$u8$GT$$GT$$GT$$GT$17he5b3c9d5553080edE', symObjAddr: 0x29520, symBinAddr: 0x100034F80, symSize: 0x20 }
  - { offset: 0x4D78D, size: 0x8, addend: 0x0, symName: '__ZN4core3ptr119drop_in_place$LT$std..io..default_write_fmt..Adapter$LT$std..io..cursor..Cursor$LT$$RF$mut$u20$$u5b$u8$u5d$$GT$$GT$$GT$17h8ef58680b6ede286E', symObjAddr: 0x295C0, symBinAddr: 0x100034FA0, symSize: 0x20 }
  - { offset: 0x4D7B0, size: 0x8, addend: 0x0, symName: '__ZN4core3ptr123drop_in_place$LT$addr2line..Context$LT$gimli..read..endian_slice..EndianSlice$LT$gimli..endianity..LittleEndian$GT$$GT$$GT$17h4096ebf47a84add1E', symObjAddr: 0x295E0, symBinAddr: 0x100034FC0, symSize: 0x60 }
  - { offset: 0x4D855, size: 0x8, addend: 0x0, symName: '__ZN4core3ptr128drop_in_place$LT$core..result..Result$LT$$RF$std..thread..Thread$C$$LP$$RF$std..thread..Thread$C$std..thread..Thread$RP$$GT$$GT$17h5b35dce14f68d27eE', symObjAddr: 0x29640, symBinAddr: 0x100035020, symSize: 0x20 }
  - { offset: 0x4D977, size: 0x8, addend: 0x0, symName: '__ZN4core3ptr129drop_in_place$LT$addr2line..unit..ResUnit$LT$gimli..read..endian_slice..EndianSlice$LT$gimli..endianity..LittleEndian$GT$$GT$$GT$17h5b41b59ec8c6acd1E', symObjAddr: 0x29660, symBinAddr: 0x100035040, symSize: 0x100 }
  - { offset: 0x4DB85, size: 0x8, addend: 0x0, symName: '__ZN4core3ptr129drop_in_place$LT$addr2line..unit..SupUnit$LT$gimli..read..endian_slice..EndianSlice$LT$gimli..endianity..LittleEndian$GT$$GT$$GT$17h7745e598093ea497E', symObjAddr: 0x29760, symBinAddr: 0x100035140, symSize: 0x50 }
  - { offset: 0x4DC30, size: 0x8, addend: 0x0, symName: '__ZN4core3ptr130drop_in_place$LT$addr2line..unit..ResUnits$LT$gimli..read..endian_slice..EndianSlice$LT$gimli..endianity..LittleEndian$GT$$GT$$GT$17h8ac001c378159224E', symObjAddr: 0x297B0, symBinAddr: 0x100035190, symSize: 0xE0 }
  - { offset: 0x4DDD9, size: 0x8, addend: 0x0, symName: '__ZN4core3ptr130drop_in_place$LT$addr2line..unit..SupUnits$LT$gimli..read..endian_slice..EndianSlice$LT$gimli..endianity..LittleEndian$GT$$GT$$GT$17hf4d4e85b8cf1677eE', symObjAddr: 0x29890, symBinAddr: 0x100035270, symSize: 0xE0 }
  - { offset: 0x4DF75, size: 0x8, addend: 0x0, symName: '__ZN4core3ptr130drop_in_place$LT$gimli..read..dwarf..Dwarf$LT$gimli..read..endian_slice..EndianSlice$LT$gimli..endianity..LittleEndian$GT$$GT$$GT$17h00351692336cc8a5E', symObjAddr: 0x29970, symBinAddr: 0x100035350, symSize: 0x60 }
  - { offset: 0x4DFDF, size: 0x8, addend: 0x0, symName: '__ZN4core3ptr131drop_in_place$LT$$u5b$core..option..Option$LT$core..option..Option$LT$std..backtrace_rs..symbolize..gimli..Mapping$GT$$GT$$u5d$$GT$17h5e49fcba991e0fefE', symObjAddr: 0x299D0, symBinAddr: 0x1000353B0, symSize: 0xE0 }
  - { offset: 0x4E089, size: 0x8, addend: 0x0, symName: '__ZN4core3ptr131drop_in_place$LT$alloc..boxed..Box$LT$dyn$u20$core..ops..function..FnOnce$LT$$LP$$RP$$GT$$u2b$Output$u20$$u3d$$u20$$LP$$RP$$GT$$GT$17h34dfa6de81a90f60E', symObjAddr: 0x29AB0, symBinAddr: 0x100035490, symSize: 0x70 }
  - { offset: 0x4E174, size: 0x8, addend: 0x0, symName: '__ZN4core3ptr137drop_in_place$LT$gimli..read..dwarf..Unit$LT$gimli..read..endian_slice..EndianSlice$LT$gimli..endianity..LittleEndian$GT$$C$usize$GT$$GT$17h8a3dedf63945c7ffE', symObjAddr: 0x29B20, symBinAddr: 0x100035500, symSize: 0x50 }
  - { offset: 0x4E25D, size: 0x8, addend: 0x0, symName: '__ZN4core3ptr138drop_in_place$LT$addr2line..function..LazyFunction$LT$gimli..read..endian_slice..EndianSlice$LT$gimli..endianity..LittleEndian$GT$$GT$$GT$17h0f8e66548b648d63E', symObjAddr: 0x29B70, symBinAddr: 0x100035550, symSize: 0x60 }
  - { offset: 0x4E274, size: 0x8, addend: 0x0, symName: '__ZN4core3ptr138drop_in_place$LT$addr2line..function..LazyFunction$LT$gimli..read..endian_slice..EndianSlice$LT$gimli..endianity..LittleEndian$GT$$GT$$GT$17h0f8e66548b648d63E', symObjAddr: 0x29B70, symBinAddr: 0x100035550, symSize: 0x60 }
  - { offset: 0x4E289, size: 0x8, addend: 0x0, symName: '__ZN4core3ptr138drop_in_place$LT$addr2line..function..LazyFunction$LT$gimli..read..endian_slice..EndianSlice$LT$gimli..endianity..LittleEndian$GT$$GT$$GT$17h0f8e66548b648d63E', symObjAddr: 0x29B70, symBinAddr: 0x100035550, symSize: 0x60 }
  - { offset: 0x4E29E, size: 0x8, addend: 0x0, symName: '__ZN4core3ptr138drop_in_place$LT$addr2line..function..LazyFunction$LT$gimli..read..endian_slice..EndianSlice$LT$gimli..endianity..LittleEndian$GT$$GT$$GT$17h0f8e66548b648d63E', symObjAddr: 0x29B70, symBinAddr: 0x100035550, symSize: 0x60 }
  - { offset: 0x4E3D2, size: 0x8, addend: 0x0, symName: '__ZN4core3ptr144drop_in_place$LT$alloc..vec..Vec$LT$core..option..Option$LT$core..option..Option$LT$std..backtrace_rs..symbolize..gimli..Mapping$GT$$GT$$GT$$GT$17hd133ee3f082661a3E', symObjAddr: 0x29BD0, symBinAddr: 0x1000355B0, symSize: 0x80 }
  - { offset: 0x4E52C, size: 0x8, addend: 0x0, symName: '__ZN4core3ptr152drop_in_place$LT$alloc..vec..Vec$LT$addr2line..unit..ResUnit$LT$gimli..read..endian_slice..EndianSlice$LT$gimli..endianity..LittleEndian$GT$$GT$$GT$$GT$17h687eea1ef8e4dccbE', symObjAddr: 0x29D40, symBinAddr: 0x100035630, symSize: 0xD0 }
  - { offset: 0x4E69B, size: 0x8, addend: 0x0, symName: '__ZN4core3ptr152drop_in_place$LT$alloc..vec..Vec$LT$addr2line..unit..SupUnit$LT$gimli..read..endian_slice..EndianSlice$LT$gimli..endianity..LittleEndian$GT$$GT$$GT$$GT$17h43b55f1c1ec40770E', symObjAddr: 0x29E10, symBinAddr: 0x100035700, symSize: 0x100 }
  - { offset: 0x4E89F, size: 0x8, addend: 0x0, symName: '__ZN4core3ptr156drop_in_place$LT$alloc..boxed..Box$LT$$u5b$core..option..Option$LT$core..option..Option$LT$std..backtrace_rs..symbolize..gimli..Mapping$GT$$GT$$u5d$$GT$$GT$17h64285ccbe01a68bbE', symObjAddr: 0x29F10, symBinAddr: 0x100035800, symSize: 0xF0 }
  - { offset: 0x4E9C9, size: 0x8, addend: 0x0, symName: '__ZN4core3ptr159drop_in_place$LT$alloc..sync..ArcInner$LT$gimli..read..dwarf..Dwarf$LT$gimli..read..endian_slice..EndianSlice$LT$gimli..endianity..LittleEndian$GT$$GT$$GT$$GT$17ha7d070261ff0f422E', symObjAddr: 0x2A0A0, symBinAddr: 0x1000358F0, symSize: 0x60 }
  - { offset: 0x4EA7A, size: 0x8, addend: 0x0, symName: '__ZN4core3ptr161drop_in_place$LT$alloc..vec..Vec$LT$addr2line..function..LazyFunction$LT$gimli..read..endian_slice..EndianSlice$LT$gimli..endianity..LittleEndian$GT$$GT$$GT$$GT$17h224d020c77f1c5c5E', symObjAddr: 0x2A100, symBinAddr: 0x100035950, symSize: 0xC0 }
  - { offset: 0x4ECB7, size: 0x8, addend: 0x0, symName: '__ZN4core3ptr172drop_in_place$LT$core..result..Result$LT$addr2line..Context$LT$gimli..read..endian_slice..EndianSlice$LT$gimli..endianity..LittleEndian$GT$$GT$$C$gimli..read..Error$GT$$GT$17h9689e9d3357a2b29E', symObjAddr: 0x2A270, symBinAddr: 0x100035A10, symSize: 0x70 }
  - { offset: 0x4ED38, size: 0x8, addend: 0x0, symName: '__ZN4core3ptr173drop_in_place$LT$alloc..boxed..Box$LT$$u5b$addr2line..function..LazyFunction$LT$gimli..read..endian_slice..EndianSlice$LT$gimli..endianity..LittleEndian$GT$$GT$$u5d$$GT$$GT$17h854691247aa87af0E', symObjAddr: 0x2A2E0, symBinAddr: 0x100035A80, symSize: 0xA0 }
  - { offset: 0x4ED4F, size: 0x8, addend: 0x0, symName: '__ZN4core3ptr173drop_in_place$LT$alloc..boxed..Box$LT$$u5b$addr2line..function..LazyFunction$LT$gimli..read..endian_slice..EndianSlice$LT$gimli..endianity..LittleEndian$GT$$GT$$u5d$$GT$$GT$17h854691247aa87af0E', symObjAddr: 0x2A2E0, symBinAddr: 0x100035A80, symSize: 0xA0 }
  - { offset: 0x4EF24, size: 0x8, addend: 0x0, symName: '__ZN4core3ptr181drop_in_place$LT$core..option..Option$LT$gimli..read..line..IncompleteLineProgram$LT$gimli..read..endian_slice..EndianSlice$LT$gimli..endianity..LittleEndian$GT$$C$usize$GT$$GT$$GT$17ha2da1af52ac50966E', symObjAddr: 0x2A3F0, symBinAddr: 0x100035B20, symSize: 0xA0 }
  - { offset: 0x4F17D, size: 0x8, addend: 0x0, symName: '__ZN4core3ptr181drop_in_place$LT$core..result..Result$LT$addr2line..frame..FrameIter$LT$gimli..read..endian_slice..EndianSlice$LT$gimli..endianity..LittleEndian$GT$$GT$$C$gimli..read..Error$GT$$GT$17hb41a886cf8fb4359E', symObjAddr: 0x2A490, symBinAddr: 0x100035BC0, symSize: 0x40 }
  - { offset: 0x4F2BB, size: 0x8, addend: 0x0, symName: '__ZN4core3ptr184drop_in_place$LT$core..result..Result$LT$addr2line..function..Functions$LT$gimli..read..endian_slice..EndianSlice$LT$gimli..endianity..LittleEndian$GT$$GT$$C$gimli..read..Error$GT$$GT$17h16817f6f8b785913E', symObjAddr: 0x2A4D0, symBinAddr: 0x100035C00, symSize: 0xE0 }
  - { offset: 0x4F54B, size: 0x8, addend: 0x0, symName: '__ZN4core3ptr194drop_in_place$LT$core..result..Result$LT$std..sync..poison..mutex..MutexGuard$LT$$LP$$RP$$GT$$C$std..sync..poison..PoisonError$LT$std..sync..poison..mutex..MutexGuard$LT$$LP$$RP$$GT$$GT$$GT$$GT$17h05108be9b923664fE', symObjAddr: 0x2A620, symBinAddr: 0x100035CE0, symSize: 0x50 }
  - { offset: 0x4F589, size: 0x8, addend: 0x0, symName: '__ZN4core3ptr231drop_in_place$LT$core..result..Result$LT$core..option..Option$LT$alloc..boxed..Box$LT$addr2line..unit..DwoUnit$LT$gimli..read..endian_slice..EndianSlice$LT$gimli..endianity..LittleEndian$GT$$GT$$GT$$GT$$C$gimli..read..Error$GT$$GT$17h77faee68108766d7E', symObjAddr: 0x2A670, symBinAddr: 0x100035D30, symSize: 0xB0 }
  - { offset: 0x4F753, size: 0x8, addend: 0x0, symName: '__ZN4core3ptr238drop_in_place$LT$alloc..boxed..convert..$LT$impl$u20$core..convert..From$LT$alloc..string..String$GT$$u20$for$u20$alloc..boxed..Box$LT$dyn$u20$core..error..Error$u2b$core..marker..Sync$u2b$core..marker..Send$GT$$GT$..from..StringError$GT$17h77c71369405e109cE', symObjAddr: 0x2A720, symBinAddr: 0x100035DE0, symSize: 0x20 }
  - { offset: 0x4F7FE, size: 0x8, addend: 0x0, symName: '__ZN4core3ptr275drop_in_place$LT$gimli..read..line..LineRows$LT$gimli..read..endian_slice..EndianSlice$LT$gimli..endianity..LittleEndian$GT$$C$gimli..read..line..IncompleteLineProgram$LT$gimli..read..endian_slice..EndianSlice$LT$gimli..endianity..LittleEndian$GT$$C$usize$GT$$C$usize$GT$$GT$17hadd9cd2441f7544fE', symObjAddr: 0x2A740, symBinAddr: 0x100035E00, symSize: 0xA0 }
  - { offset: 0x4FA73, size: 0x8, addend: 0x0, symName: '__ZN4core3ptr280drop_in_place$LT$$LT$alloc..collections..btree..map..IntoIter$LT$K$C$V$C$A$GT$$u20$as$u20$core..ops..drop..Drop$GT$..drop..DropGuard$LT$u64$C$core..result..Result$LT$alloc..sync..Arc$LT$gimli..read..abbrev..Abbreviations$GT$$C$gimli..read..Error$GT$$C$alloc..alloc..Global$GT$$GT$17h12b50f4912f8d053E', symObjAddr: 0x2A7E0, symBinAddr: 0x100035EA0, symSize: 0x80 }
  - { offset: 0x4FB9F, size: 0x8, addend: 0x0, symName: '__ZN4core3ptr284drop_in_place$LT$core..result..Result$LT$$RF$core..result..Result$LT$addr2line..line..Lines$C$gimli..read..Error$GT$$C$$LP$$RF$core..result..Result$LT$addr2line..line..Lines$C$gimli..read..Error$GT$$C$core..result..Result$LT$addr2line..line..Lines$C$gimli..read..Error$GT$$RP$$GT$$GT$17h10f406cda706aac9E', symObjAddr: 0x2A860, symBinAddr: 0x100035F20, symSize: 0x20 }
  - { offset: 0x4FBD0, size: 0x8, addend: 0x0, symName: '__ZN4core3ptr37drop_in_place$LT$std..env..VarsOs$GT$17h46b78f62b627aed3E', symObjAddr: 0x2A880, symBinAddr: 0x100035F40, symSize: 0xB0 }
  - { offset: 0x4FE95, size: 0x8, addend: 0x0, symName: '__ZN4core3ptr42drop_in_place$LT$alloc..string..String$GT$17h13a2c872d6de9b78E', symObjAddr: 0x2AA20, symBinAddr: 0x100035FF0, symSize: 0x20 }
  - { offset: 0x4FF2A, size: 0x8, addend: 0x0, symName: '__ZN4core3ptr42drop_in_place$LT$std..io..error..Error$GT$17hf3cc5d9531ccf1c0E', symObjAddr: 0x2AA40, symBinAddr: 0x100036010, symSize: 0xA0 }
  - { offset: 0x50148, size: 0x8, addend: 0x0, symName: '__ZN4core3ptr44drop_in_place$LT$object..read..ObjectMap$GT$17h9dfc9bd6f6ee5a53E', symObjAddr: 0x2AAE0, symBinAddr: 0x1000360B0, symSize: 0x50 }
  - { offset: 0x50277, size: 0x8, addend: 0x0, symName: '__ZN4core3ptr46drop_in_place$LT$alloc..vec..Vec$LT$u8$GT$$GT$17h50cadf63df0efd66E', symObjAddr: 0x2AB90, symBinAddr: 0x100036100, symSize: 0x20 }
  - { offset: 0x502F6, size: 0x8, addend: 0x0, symName: '__ZN4core3ptr46drop_in_place$LT$std..io..stdio..StdinLock$GT$17h859807256c432efeE', symObjAddr: 0x2ABB0, symBinAddr: 0x100036120, symSize: 0x50 }
  - { offset: 0x5030D, size: 0x8, addend: 0x0, symName: '__ZN4core3ptr46drop_in_place$LT$std..io..stdio..StdinLock$GT$17h859807256c432efeE', symObjAddr: 0x2ABB0, symBinAddr: 0x100036120, symSize: 0x50 }
  - { offset: 0x50322, size: 0x8, addend: 0x0, symName: '__ZN4core3ptr46drop_in_place$LT$std..io..stdio..StdinLock$GT$17h859807256c432efeE', symObjAddr: 0x2ABB0, symBinAddr: 0x100036120, symSize: 0x50 }
  - { offset: 0x50406, size: 0x8, addend: 0x0, symName: '__ZN4core3ptr48drop_in_place$LT$alloc..ffi..c_str..NulError$GT$17h05fdddfd5dec9957E', symObjAddr: 0x2AD00, symBinAddr: 0x100036170, symSize: 0x20 }
  - { offset: 0x504A9, size: 0x8, addend: 0x0, symName: '__ZN4core3ptr557drop_in_place$LT$core..result..Result$LT$$RF$core..result..Result$LT$addr2line..function..Function$LT$gimli..read..endian_slice..EndianSlice$LT$gimli..endianity..LittleEndian$GT$$GT$$C$gimli..read..Error$GT$$C$$LP$$RF$core..result..Result$LT$addr2line..function..Function$LT$gimli..read..endian_slice..EndianSlice$LT$gimli..endianity..LittleEndian$GT$$GT$$C$gimli..read..Error$GT$$C$core..result..Result$LT$addr2line..function..Function$LT$gimli..read..endian_slice..EndianSlice$LT$gimli..endianity..LittleEndian$GT$$GT$$C$gimli..read..Error$GT$$RP$$GT$$GT$17hc44de9d152e84349E', symObjAddr: 0x2AFE0, symBinAddr: 0x100036190, symSize: 0x60 }
  - { offset: 0x50693, size: 0x8, addend: 0x0, symName: '__ZN4core3ptr55drop_in_place$LT$gimli..read..abbrev..Abbreviations$GT$17h650fa2a70ecf9e05E', symObjAddr: 0x2B040, symBinAddr: 0x1000361F0, symSize: 0x130 }
  - { offset: 0x509DC, size: 0x8, addend: 0x0, symName: '__ZN4core3ptr560drop_in_place$LT$core..result..Result$LT$$RF$core..result..Result$LT$addr2line..function..Functions$LT$gimli..read..endian_slice..EndianSlice$LT$gimli..endianity..LittleEndian$GT$$GT$$C$gimli..read..Error$GT$$C$$LP$$RF$core..result..Result$LT$addr2line..function..Functions$LT$gimli..read..endian_slice..EndianSlice$LT$gimli..endianity..LittleEndian$GT$$GT$$C$gimli..read..Error$GT$$C$core..result..Result$LT$addr2line..function..Functions$LT$gimli..read..endian_slice..EndianSlice$LT$gimli..endianity..LittleEndian$GT$$GT$$C$gimli..read..Error$GT$$RP$$GT$$GT$17h6cf82f479787438aE', symObjAddr: 0x2B270, symBinAddr: 0x100036320, symSize: 0x20 }
  - { offset: 0x50A37, size: 0x8, addend: 0x0, symName: '__ZN4core3ptr60drop_in_place$LT$gimli..read..abbrev..AbbreviationsCache$GT$17h8ea9413fce52b0aeE', symObjAddr: 0x2B290, symBinAddr: 0x100036340, symSize: 0xE0 }
  - { offset: 0x50B9E, size: 0x8, addend: 0x0, symName: '__ZN4core3ptr64drop_in_place$LT$std..sys..pal..unix..sync..mutex..AttrGuard$GT$17h07975ffc5879c9b3E', symObjAddr: 0x2B3E0, symBinAddr: 0x100036420, symSize: 0x40 }
  - { offset: 0x50BC1, size: 0x8, addend: 0x0, symName: '__ZN4core3ptr64drop_in_place$LT$std..sys..process..unix..common..ChildPipes$GT$17h8a41ca136ef85558E', symObjAddr: 0x2B420, symBinAddr: 0x100036460, symSize: 0x50 }
  - { offset: 0x50CC3, size: 0x8, addend: 0x0, symName: '__ZN4core3ptr64drop_in_place$LT$std..sys..process..unix..common..StdioPipes$GT$17h923111f52d7e035aE', symObjAddr: 0x2B470, symBinAddr: 0x1000364B0, symSize: 0x40 }
  - { offset: 0x50E3B, size: 0x8, addend: 0x0, symName: '__ZN4core3ptr65drop_in_place$LT$alloc..vec..Vec$LT$alloc..string..String$GT$$GT$17h7048242ed88ea37eE', symObjAddr: 0x2B4B0, symBinAddr: 0x1000364F0, symSize: 0x90 }
  - { offset: 0x50FA1, size: 0x8, addend: 0x0, symName: '__ZN4core3ptr65drop_in_place$LT$std..backtrace_rs..symbolize..gimli..Context$GT$17hc7e1db2a9c32a85bE', symObjAddr: 0x2B540, symBinAddr: 0x100036580, symSize: 0x100 }
  - { offset: 0x5121F, size: 0x8, addend: 0x0, symName: '__ZN4core3ptr66drop_in_place$LT$std..backtrace_rs..backtrace..libunwind..Bomb$GT$17hd5948bcabaf539edE', symObjAddr: 0x2B640, symBinAddr: 0x100036680, symSize: 0x50 }
  - { offset: 0x5126B, size: 0x8, addend: 0x0, symName: '__ZN4core3ptr701drop_in_place$LT$core..result..Result$LT$$RF$core..result..Result$LT$core..option..Option$LT$alloc..boxed..Box$LT$addr2line..unit..DwoUnit$LT$gimli..read..endian_slice..EndianSlice$LT$gimli..endianity..LittleEndian$GT$$GT$$GT$$GT$$C$gimli..read..Error$GT$$C$$LP$$RF$core..result..Result$LT$core..option..Option$LT$alloc..boxed..Box$LT$addr2line..unit..DwoUnit$LT$gimli..read..endian_slice..EndianSlice$LT$gimli..endianity..LittleEndian$GT$$GT$$GT$$GT$$C$gimli..read..Error$GT$$C$core..result..Result$LT$core..option..Option$LT$alloc..boxed..Box$LT$addr2line..unit..DwoUnit$LT$gimli..read..endian_slice..EndianSlice$LT$gimli..endianity..LittleEndian$GT$$GT$$GT$$GT$$C$gimli..read..Error$GT$$RP$$GT$$GT$17h4c871d662e9baba8E', symObjAddr: 0x2B690, symBinAddr: 0x1000366D0, symSize: 0x20 }
  - { offset: 0x5130C, size: 0x8, addend: 0x0, symName: '__ZN4core3ptr70drop_in_place$LT$std..backtrace_rs..symbolize..gimli..stash..Stash$GT$17h9192affd8a73d22bE', symObjAddr: 0x2B6B0, symBinAddr: 0x1000366F0, symSize: 0xE0 }
  - { offset: 0x515B2, size: 0x8, addend: 0x0, symName: '__ZN4core3ptr71drop_in_place$LT$std..backtrace_rs..symbolize..gimli..macho..Object$GT$17he8bfbbbc576ba26bE', symObjAddr: 0x2B790, symBinAddr: 0x1000367D0, symSize: 0xD0 }
  - { offset: 0x51877, size: 0x8, addend: 0x0, symName: '__ZN4core3ptr71drop_in_place$LT$std..panicking..panic_handler..FormatStringPayload$GT$17he2832ae2b85e7af7E', symObjAddr: 0x2B860, symBinAddr: 0x1000368A0, symSize: 0x30 }
  - { offset: 0x51933, size: 0x8, addend: 0x0, symName: '__ZN4core3ptr72drop_in_place$LT$core..option..Option$LT$object..read..ObjectMap$GT$$GT$17hfcefd03af094224dE', symObjAddr: 0x2B890, symBinAddr: 0x1000368D0, symSize: 0x60 }
  - { offset: 0x51AB0, size: 0x8, addend: 0x0, symName: '__ZN4core3ptr73drop_in_place$LT$alloc..vec..Vec$LT$addr2line..line..LineSequence$GT$$GT$17ha6ada6d850d6bfd7E', symObjAddr: 0x2B8F0, symBinAddr: 0x100036930, symSize: 0x90 }
  - { offset: 0x51C08, size: 0x8, addend: 0x0, symName: '__ZN4core3ptr77drop_in_place$LT$alloc..boxed..Box$LT$$u5b$alloc..string..String$u5d$$GT$$GT$17hb3442e265eb8e1dcE', symObjAddr: 0x2B9D0, symBinAddr: 0x1000369C0, symSize: 0x60 }
  - { offset: 0x51C1F, size: 0x8, addend: 0x0, symName: '__ZN4core3ptr77drop_in_place$LT$alloc..boxed..Box$LT$$u5b$alloc..string..String$u5d$$GT$$GT$17hb3442e265eb8e1dcE', symObjAddr: 0x2B9D0, symBinAddr: 0x1000369C0, symSize: 0x60 }
  - { offset: 0x51D1D, size: 0x8, addend: 0x0, symName: '__ZN4core3ptr78drop_in_place$LT$core..result..Result$LT$usize$C$std..io..error..Error$GT$$GT$17h5cf9dfd69ab55d35E', symObjAddr: 0x2BA30, symBinAddr: 0x100036A20, symSize: 0x20 }
  - { offset: 0x51D31, size: 0x8, addend: 0x0, symName: '__ZN4core3ptr79drop_in_place$LT$std..sync..poison..rwlock..RwLockReadGuard$LT$$LP$$RP$$GT$$GT$17h4fa0e4fa5e15bd74E', symObjAddr: 0x2BA50, symBinAddr: 0x100036A40, symSize: 0x50 }
  - { offset: 0x51DCD, size: 0x8, addend: 0x0, symName: '__ZN4core3ptr81drop_in_place$LT$core..result..Result$LT$$LP$$RP$$C$std..io..error..Error$GT$$GT$17h1c1edd567460b3feE', symObjAddr: 0x2BB50, symBinAddr: 0x100036A90, symSize: 0x20 }
  - { offset: 0x51DFD, size: 0x8, addend: 0x0, symName: '__ZN4core3ptr81drop_in_place$LT$std..sys..process..unix..common..cstring_array..CStringArray$GT$17h1ce3a250115cbe70E', symObjAddr: 0x2BB70, symBinAddr: 0x100036AB0, symSize: 0xD0 }
  - { offset: 0x52145, size: 0x8, addend: 0x0, symName: '__ZN4core3ptr82drop_in_place$LT$alloc..sync..ArcInner$LT$std..sys..fs..unix..InnerReadDir$GT$$GT$17ha8fbff3aaada4fb8E', symObjAddr: 0x2BC40, symBinAddr: 0x100036B80, symSize: 0x60 }
  - { offset: 0x522E8, size: 0x8, addend: 0x0, symName: '__ZN4core3ptr84drop_in_place$LT$$LP$std..ffi..os_str..OsString$C$std..ffi..os_str..OsString$RP$$GT$17hbc09269b3e4ede67E', symObjAddr: 0x2BCA0, symBinAddr: 0x100036BE0, symSize: 0x50 }
  - { offset: 0x52435, size: 0x8, addend: 0x0, symName: '__ZN4core3ptr90drop_in_place$LT$std..io..buffered..bufwriter..BufWriter$LT$W$GT$..flush_buf..BufGuard$GT$17he4170abc552595a7E', symObjAddr: 0x2BD40, symBinAddr: 0x100036C30, symSize: 0x50 }
  - { offset: 0x525BC, size: 0x8, addend: 0x0, symName: '__ZN4core3ptr92drop_in_place$LT$core..result..Result$LT$addr2line..line..Lines$C$gimli..read..Error$GT$$GT$17h2e8e0626d3a84d8eE', symObjAddr: 0x2BDF0, symBinAddr: 0x100036C80, symSize: 0xE0 }
  - { offset: 0x52802, size: 0x8, addend: 0x0, symName: '__ZN4core3ptr93drop_in_place$LT$core..option..Option$LT$std..backtrace_rs..symbolize..gimli..Mapping$GT$$GT$17h136f8c1ae5619cc2E', symObjAddr: 0x2BED0, symBinAddr: 0x100036D60, symSize: 0x70 }
  - { offset: 0x52891, size: 0x8, addend: 0x0, symName: '__ZN4core3ptr95drop_in_place$LT$std..io..buffered..linewriter..LineWriter$LT$std..io..stdio..StdoutRaw$GT$$GT$17h9eac947b14297a02E', symObjAddr: 0x2BF40, symBinAddr: 0x100036DD0, symSize: 0x100 }
  - { offset: 0x54C9F, size: 0x8, addend: 0x0, symName: __ZN4core5panic12PanicPayload6as_str17h0a0af93859b241b1E, symObjAddr: 0x302B0, symBinAddr: 0x100037030, symSize: 0x10 }
  - { offset: 0x5554C, size: 0x8, addend: 0x0, symName: '__ZN70_$LT$core..num..error..TryFromIntError$u20$as$u20$core..fmt..Debug$GT$3fmt17hf51a2ad22619e644E', symObjAddr: 0x54380, symBinAddr: 0x1000518D0, symSize: 0x40 }
  - { offset: 0x573A6, size: 0x8, addend: 0x0, symName: __ZN4core5slice4sort8unstable7ipnsort17h2b4a537af7352546E, symObjAddr: 0x39850, symBinAddr: 0x1000405D0, symSize: 0x1A0 }
  - { offset: 0x5764E, size: 0x8, addend: 0x0, symName: __ZN4core5slice4sort8unstable7ipnsort17h52ef4485ec8e6977E, symObjAddr: 0x399F0, symBinAddr: 0x100040770, symSize: 0xE0 }
  - { offset: 0x57810, size: 0x8, addend: 0x0, symName: __ZN4core5slice4sort8unstable8heapsort8heapsort17h4b4721c6bb82e1c1E, symObjAddr: 0x39AD0, symBinAddr: 0x100040850, symSize: 0x120 }
  - { offset: 0x57A56, size: 0x8, addend: 0x0, symName: __ZN4core5slice4sort8unstable8heapsort8heapsort17hab9566a01254ecddE, symObjAddr: 0x39BF0, symBinAddr: 0x100040970, symSize: 0x1D0 }
  - { offset: 0x57E08, size: 0x8, addend: 0x0, symName: __ZN4core5slice4sort8unstable9quicksort9quicksort17h0b8d9e0f156a468cE, symObjAddr: 0x39DC0, symBinAddr: 0x100040B40, symSize: 0x540 }
  - { offset: 0x586A8, size: 0x8, addend: 0x0, symName: __ZN4core5slice4sort8unstable9quicksort9quicksort17h5a50d5c9a636cab4E, symObjAddr: 0x3A300, symBinAddr: 0x100041080, symSize: 0x761 }
  - { offset: 0x5930B, size: 0x8, addend: 0x0, symName: __ZN4core5slice4sort6stable14driftsort_main17h3220260173ca707fE, symObjAddr: 0x31FD0, symBinAddr: 0x100038D50, symSize: 0x150 }
  - { offset: 0x595E3, size: 0x8, addend: 0x0, symName: __ZN4core5slice4sort6stable14driftsort_main17h4699f0e78e45ec48E, symObjAddr: 0x32120, symBinAddr: 0x100038EA0, symSize: 0x150 }
  - { offset: 0x598BB, size: 0x8, addend: 0x0, symName: __ZN4core5slice4sort6stable14driftsort_main17h9e6c77f5f42fb271E, symObjAddr: 0x32270, symBinAddr: 0x100038FF0, symSize: 0x160 }
  - { offset: 0x59BE9, size: 0x8, addend: 0x0, symName: __ZN4core5slice4sort6stable14driftsort_main17ha76b3f8bfe5161d7E, symObjAddr: 0x323D0, symBinAddr: 0x100039150, symSize: 0x160 }
  - { offset: 0x59F17, size: 0x8, addend: 0x0, symName: __ZN4core5slice4sort6stable14driftsort_main17hdb3cc37e344db5cdE, symObjAddr: 0x32530, symBinAddr: 0x1000392B0, symSize: 0x150 }
  - { offset: 0x5A1EF, size: 0x8, addend: 0x0, symName: __ZN4core5slice4sort6stable14driftsort_main17hf9b576397ab84e46E, symObjAddr: 0x32680, symBinAddr: 0x100039400, symSize: 0x160 }
  - { offset: 0x5A659, size: 0x8, addend: 0x0, symName: __ZN4core5slice4sort6stable5drift4sort17h0344cd1179273fdfE, symObjAddr: 0x327E0, symBinAddr: 0x100039560, symSize: 0x6E0 }
  - { offset: 0x5AE01, size: 0x8, addend: 0x0, symName: __ZN4core5slice4sort6stable5drift4sort17h5d73a28370e736e7E, symObjAddr: 0x32EC0, symBinAddr: 0x100039C40, symSize: 0x690 }
  - { offset: 0x5B5B8, size: 0x8, addend: 0x0, symName: __ZN4core5slice4sort6stable5drift4sort17h7d35ffbcc89f38d4E, symObjAddr: 0x33550, symBinAddr: 0x10003A2D0, symSize: 0x6D0 }
  - { offset: 0x5BD75, size: 0x8, addend: 0x0, symName: __ZN4core5slice4sort6stable5drift4sort17h8e4dd7b37e0e34b5E, symObjAddr: 0x33C20, symBinAddr: 0x10003A9A0, symSize: 0x6E0 }
  - { offset: 0x5C507, size: 0x8, addend: 0x0, symName: __ZN4core5slice4sort6stable5drift4sort17hd3daeb0e07815f37E, symObjAddr: 0x34300, symBinAddr: 0x10003B080, symSize: 0x690 }
  - { offset: 0x5CCBE, size: 0x8, addend: 0x0, symName: __ZN4core5slice4sort6stable5drift4sort17hdee5488c31b7bf79E, symObjAddr: 0x34990, symBinAddr: 0x10003B710, symSize: 0x6B0 }
  - { offset: 0x5D6FF, size: 0x8, addend: 0x0, symName: __ZN4core5slice4sort6stable9quicksort9quicksort17h49e735213ea776e8E, symObjAddr: 0x35040, symBinAddr: 0x10003BDC0, symSize: 0xC20 }
  - { offset: 0x5E478, size: 0x8, addend: 0x0, symName: __ZN4core5slice4sort6stable9quicksort9quicksort17h4e0f96bb5e50204eE, symObjAddr: 0x35C60, symBinAddr: 0x10003C9E0, symSize: 0xD60 }
  - { offset: 0x5F227, size: 0x8, addend: 0x0, symName: __ZN4core5slice4sort6stable9quicksort9quicksort17h5039615b86acfb17E, symObjAddr: 0x369C0, symBinAddr: 0x10003D740, symSize: 0xB50 }
  - { offset: 0x60021, size: 0x8, addend: 0x0, symName: __ZN4core5slice4sort6stable9quicksort9quicksort17h54d5655b54e85608E, symObjAddr: 0x37510, symBinAddr: 0x10003E290, symSize: 0xC40 }
  - { offset: 0x60DAA, size: 0x8, addend: 0x0, symName: __ZN4core5slice4sort6stable9quicksort9quicksort17h563ccb161c809bb9E, symObjAddr: 0x38150, symBinAddr: 0x10003EED0, symSize: 0xB50 }
  - { offset: 0x61682, size: 0x8, addend: 0x0, symName: __ZN4core5slice4sort6stable9quicksort9quicksort17ha4eccc1b33417963E, symObjAddr: 0x38CA0, symBinAddr: 0x10003FA20, symSize: 0xBB0 }
  - { offset: 0x62BAD, size: 0x8, addend: 0x0, symName: __ZN4core5slice4sort6shared9smallsort12sort4_stable17h429c53b39c3949acE, symObjAddr: 0x30980, symBinAddr: 0x100037700, symSize: 0x1B0 }
  - { offset: 0x62D84, size: 0x8, addend: 0x0, symName: __ZN4core5slice4sort6shared9smallsort12sort4_stable17h8e40b2e7e5f636d6E, symObjAddr: 0x30B30, symBinAddr: 0x1000378B0, symSize: 0x1F0 }
  - { offset: 0x6318F, size: 0x8, addend: 0x0, symName: __ZN4core5slice4sort6shared9smallsort12sort8_stable17hd86b794b574b633cE, symObjAddr: 0x30D20, symBinAddr: 0x100037AA0, symSize: 0x3E0 }
  - { offset: 0x63847, size: 0x8, addend: 0x0, symName: __ZN4core5slice4sort6shared9smallsort18small_sort_general17h0ffd90b03ee23f71E, symObjAddr: 0x31100, symBinAddr: 0x100037E80, symSize: 0x510 }
  - { offset: 0x63D64, size: 0x8, addend: 0x0, symName: __ZN4core5slice4sort6shared9smallsort18small_sort_general17h7a2a4ab0b4034136E, symObjAddr: 0x31610, symBinAddr: 0x100038390, symSize: 0x600 }
  - { offset: 0x64567, size: 0x8, addend: 0x0, symName: __ZN4core5slice4sort6shared9smallsort25insertion_sort_shift_left17h0b99a1dace0461e0E, symObjAddr: 0x31C10, symBinAddr: 0x100038990, symSize: 0x120 }
  - { offset: 0x6472C, size: 0x8, addend: 0x0, symName: __ZN4core5slice4sort6shared9smallsort25insertion_sort_shift_left17h1aa889efeb4092c1E, symObjAddr: 0x31D30, symBinAddr: 0x100038AB0, symSize: 0xF0 }
  - { offset: 0x6485A, size: 0x8, addend: 0x0, symName: __ZN4core5slice4sort6shared9smallsort25insertion_sort_shift_left17h39fda689822c34e3E, symObjAddr: 0x31E20, symBinAddr: 0x100038BA0, symSize: 0xF0 }
  - { offset: 0x64989, size: 0x8, addend: 0x0, symName: __ZN4core5slice4sort6shared9smallsort25insertion_sort_shift_left17h519a67896e46d7b4E, symObjAddr: 0x31F10, symBinAddr: 0x100038C90, symSize: 0xC0 }
  - { offset: 0x64CA9, size: 0x8, addend: 0x0, symName: __ZN4core5slice4sort6shared5pivot11median3_rec17h0bad552e41eb9dc6E, symObjAddr: 0x302C0, symBinAddr: 0x100037040, symSize: 0xC0 }
  - { offset: 0x64DB0, size: 0x8, addend: 0x0, symName: __ZN4core5slice4sort6shared5pivot11median3_rec17h69042159816e04f4E, symObjAddr: 0x30380, symBinAddr: 0x100037100, symSize: 0xC0 }
  - { offset: 0x64EB9, size: 0x8, addend: 0x0, symName: __ZN4core5slice4sort6shared5pivot11median3_rec17h6b39c5ff16384b97E, symObjAddr: 0x30440, symBinAddr: 0x1000371C0, symSize: 0xB0 }
  - { offset: 0x64FEC, size: 0x8, addend: 0x0, symName: __ZN4core5slice4sort6shared5pivot11median3_rec17h78bc361aba28d375E, symObjAddr: 0x304F0, symBinAddr: 0x100037270, symSize: 0x140 }
  - { offset: 0x65221, size: 0x8, addend: 0x0, symName: __ZN4core5slice4sort6shared5pivot11median3_rec17h864e4c2ed0405f91E, symObjAddr: 0x30630, symBinAddr: 0x1000373B0, symSize: 0xC0 }
  - { offset: 0x65328, size: 0x8, addend: 0x0, symName: __ZN4core5slice4sort6shared5pivot11median3_rec17h9ee77f2cab2d4c5dE, symObjAddr: 0x306F0, symBinAddr: 0x100037470, symSize: 0xC0 }
  - { offset: 0x6542F, size: 0x8, addend: 0x0, symName: __ZN4core5slice4sort6shared5pivot11median3_rec17ha14fc07cd9e49161E, symObjAddr: 0x307B0, symBinAddr: 0x100037530, symSize: 0xC0 }
  - { offset: 0x65536, size: 0x8, addend: 0x0, symName: __ZN4core5slice4sort6shared5pivot11median3_rec17hfa048ff775602914E, symObjAddr: 0x30870, symBinAddr: 0x1000375F0, symSize: 0x110 }
  - { offset: 0x65742, size: 0x8, addend: 0x0, symName: '__ZN55_$LT$$RF$str$u20$as$u20$core..str..pattern..Pattern$GT$15is_contained_in17hc8794a96b582b38aE', symObjAddr: 0x3B790, symBinAddr: 0x100041820, symSize: 0x860 }
  - { offset: 0x65EDD, size: 0x8, addend: 0x0, symName: '__ZN4core3str7pattern13simd_contains28_$u7b$$u7b$closure$u7d$$u7d$17ha6d539c15f4ab7c0E', symObjAddr: 0x2C040, symBinAddr: 0x100065890, symSize: 0x100 }
  - { offset: 0x67A0E, size: 0x8, addend: 0x0, symName: '__ZN4core3ops8function6FnOnce40call_once$u7b$$u7b$vtable.shim$u7d$$u7d$17h0d3238feb6ae2c7dE', symObjAddr: 0x29150, symBinAddr: 0x100034D40, symSize: 0x10 }
  - { offset: 0x67A4A, size: 0x8, addend: 0x0, symName: '__ZN4core3ops8function6FnOnce40call_once$u7b$$u7b$vtable.shim$u7d$$u7d$17h3292d6654d591370E', symObjAddr: 0x29160, symBinAddr: 0x100034D50, symSize: 0x90 }
  - { offset: 0x67B2E, size: 0x8, addend: 0x0, symName: '__ZN4core3ops8function6FnOnce40call_once$u7b$$u7b$vtable.shim$u7d$$u7d$17h59b44727da8ea4adE', symObjAddr: 0x29280, symBinAddr: 0x100034DE0, symSize: 0x90 }
  - { offset: 0x67C98, size: 0x8, addend: 0x0, symName: '__ZN4core3ops8function6FnOnce40call_once$u7b$$u7b$vtable.shim$u7d$$u7d$17h8ff5d8d366cb3dcdE', symObjAddr: 0x29350, symBinAddr: 0x100034E70, symSize: 0x90 }
  - { offset: 0x67DDE, size: 0x8, addend: 0x0, symName: '__ZN4core3ops8function6FnOnce40call_once$u7b$$u7b$vtable.shim$u7d$$u7d$17h994b7e277a3827ddE', symObjAddr: 0x293E0, symBinAddr: 0x100034F00, symSize: 0x10 }
  - { offset: 0x67E2F, size: 0x8, addend: 0x0, symName: '__ZN4core3ops8function6FnOnce40call_once$u7b$$u7b$vtable.shim$u7d$$u7d$17h9e6dbb12aa376ac1E', symObjAddr: 0x29400, symBinAddr: 0x100034F10, symSize: 0x10 }
  - { offset: 0x67E6B, size: 0x8, addend: 0x0, symName: '__ZN4core3ops8function6FnOnce40call_once$u7b$$u7b$vtable.shim$u7d$$u7d$17hdb0d13364863d228E', symObjAddr: 0x29420, symBinAddr: 0x100034F20, symSize: 0x20 }
  - { offset: 0x67EA7, size: 0x8, addend: 0x0, symName: '__ZN4core3ops8function6FnOnce40call_once$u7b$$u7b$vtable.shim$u7d$$u7d$17hf1524fee5c53f54cE', symObjAddr: 0x294E0, symBinAddr: 0x100034F40, symSize: 0x10 }
  - { offset: 0x68016, size: 0x8, addend: 0x0, symName: __ZN4core3ops8function2Fn4call17h338481cfccfcf83dE, symObjAddr: 0x28EA0, symBinAddr: 0x100034C70, symSize: 0xA0 }
  - { offset: 0x68126, size: 0x8, addend: 0x0, symName: __ZN4core3ops8function2Fn4call17hc37bf41f1a522bbdE, symObjAddr: 0x29110, symBinAddr: 0x100034D10, symSize: 0x30 }
  - { offset: 0x68ECD, size: 0x8, addend: 0x0, symName: '__ZN36_$LT$T$u20$as$u20$core..any..Any$GT$7type_id17hf38d30a50d909875E', symObjAddr: 0x1250, symBinAddr: 0x100020AD0, symSize: 0x30 }
  - { offset: 0x68EFC, size: 0x8, addend: 0x0, symName: '__ZN36_$LT$T$u20$as$u20$core..any..Any$GT$7type_id17hfe9fbb449010764eE', symObjAddr: 0x1280, symBinAddr: 0x100020B00, symSize: 0x30 }
  - { offset: 0x69E29, size: 0x8, addend: 0x0, symName: '__ZN4core5array69_$LT$impl$u20$core..fmt..Debug$u20$for$u20$$u5b$T$u3b$$u20$N$u5d$$GT$3fmt17h374d7be30a463273E', symObjAddr: 0x300E0, symBinAddr: 0x100036ED0, symSize: 0xF0 }
  - { offset: 0x6A0B3, size: 0x8, addend: 0x0, symName: '__ZN4core4cell4once17OnceCell$LT$T$GT$8try_init17h164ad122d3fdde11E', symObjAddr: 0x2C140, symBinAddr: 0x100065990, symSize: 0x70 }
  - { offset: 0x6A0D1, size: 0x8, addend: 0x0, symName: '__ZN4core4cell4once17OnceCell$LT$T$GT$8try_init17h164ad122d3fdde11E', symObjAddr: 0x2C140, symBinAddr: 0x100065990, symSize: 0x70 }
  - { offset: 0x6A0E6, size: 0x8, addend: 0x0, symName: '__ZN4core4cell4once17OnceCell$LT$T$GT$8try_init17h164ad122d3fdde11E', symObjAddr: 0x2C140, symBinAddr: 0x100065990, symSize: 0x70 }
  - { offset: 0x6A0FA, size: 0x8, addend: 0x0, symName: '__ZN4core4cell4once17OnceCell$LT$T$GT$8try_init17h164ad122d3fdde11E', symObjAddr: 0x2C140, symBinAddr: 0x100065990, symSize: 0x70 }
  - { offset: 0x6A151, size: 0x8, addend: 0x0, symName: '__ZN4core4cell4once17OnceCell$LT$T$GT$8try_init17h5eaa6e42f622c98bE', symObjAddr: 0x2C1B0, symBinAddr: 0x100065A00, symSize: 0x80 }
  - { offset: 0x6A204, size: 0x8, addend: 0x0, symName: '__ZN4core4cell4once17OnceCell$LT$T$GT$8try_init17h8d9b52977b5ff1b0E', symObjAddr: 0x2C230, symBinAddr: 0x100065A80, symSize: 0x8B0 }
  - { offset: 0x6ADC1, size: 0x8, addend: 0x0, symName: '__ZN4core4cell4once17OnceCell$LT$T$GT$8try_init17h963735826f59da1dE', symObjAddr: 0x2CAE0, symBinAddr: 0x100066330, symSize: 0x110 }
  - { offset: 0x6B021, size: 0x8, addend: 0x0, symName: '__ZN4core4cell4once17OnceCell$LT$T$GT$8try_init17hbb32d690264a29aeE', symObjAddr: 0x2CBF0, symBinAddr: 0x100066440, symSize: 0x25C0 }
  - { offset: 0x6E1CD, size: 0x8, addend: 0x0, symName: '__ZN4core4cell4once17OnceCell$LT$T$GT$8try_init17he85fbe2a3a1ae7fbE', symObjAddr: 0x2F1B0, symBinAddr: 0x100068A00, symSize: 0xF30 }
  - { offset: 0x6FDCE, size: 0x8, addend: 0x0, symName: __ZN4core5error5Error11description17ha6a6a08fd0b06ebcE, symObjAddr: 0x301F0, symBinAddr: 0x100036FC0, symSize: 0x20 }
  - { offset: 0x6FDE8, size: 0x8, addend: 0x0, symName: __ZN4core5error5Error5cause17h5b5fd61b0af24bd8E, symObjAddr: 0x30210, symBinAddr: 0x100036FE0, symSize: 0x10 }
  - { offset: 0x6FE02, size: 0x8, addend: 0x0, symName: __ZN4core5error5Error7provide17hcf50e4f5391fe1b4E, symObjAddr: 0x30240, symBinAddr: 0x100036FF0, symSize: 0x10 }
  - { offset: 0x6FE1C, size: 0x8, addend: 0x0, symName: __ZN4core5error5Error7type_id17h1548aa106e60bc02E, symObjAddr: 0x30250, symBinAddr: 0x100037000, symSize: 0x30 }
  - { offset: 0x6FE52, size: 0x8, addend: 0x0, symName: __ZN4core9panicking13assert_failed17h65a30f1e9a91e300E, symObjAddr: 0x3AA61, symBinAddr: 0x100069931, symSize: 0x33 }
  - { offset: 0x6FE6E, size: 0x8, addend: 0x0, symName: __ZN4core9panicking13assert_failed17hd751ab4adab24333E, symObjAddr: 0x3AAF2, symBinAddr: 0x100069972, symSize: 0x3E }
  - { offset: 0x6FF53, size: 0x8, addend: 0x0, symName: __RNvCskdKJRKLKjqM_7___rustc10rust_panic, symObjAddr: 0x0, symBinAddr: 0x100064B40, symSize: 0x70 }
  - { offset: 0x6FF84, size: 0x8, addend: 0x0, symName: __RNvCskdKJRKLKjqM_7___rustc17___rust_drop_panic, symObjAddr: 0x1D0, symBinAddr: 0x1000206F0, symSize: 0xD0 }
  - { offset: 0x701CF, size: 0x8, addend: 0x0, symName: __RNvCskdKJRKLKjqM_7___rustc17rust_begin_unwind, symObjAddr: 0x2A0, symBinAddr: 0x1000207C0, symSize: 0x30 }
  - { offset: 0x70215, size: 0x8, addend: 0x0, symName: __RNvCskdKJRKLKjqM_7___rustc24___rust_foreign_exception, symObjAddr: 0x360, symBinAddr: 0x100020880, symSize: 0xD0 }
  - { offset: 0x704DE, size: 0x8, addend: 0x0, symName: __ZN3std9panicking11panic_count17is_zero_slow_path17hc9cf2ba853cb1a44E, symObjAddr: 0x26310, symBinAddr: 0x100065870, symSize: 0x20 }
  - { offset: 0x7058D, size: 0x8, addend: 0x0, symName: __ZN3std9panicking11panic_count8increase17hf57f6317579ad19bE, symObjAddr: 0x26370, symBinAddr: 0x1000335F0, symSize: 0x40 }
  - { offset: 0x705A4, size: 0x8, addend: 0x0, symName: __ZN3std9panicking11panic_count8increase17hf57f6317579ad19bE, symObjAddr: 0x26370, symBinAddr: 0x1000335F0, symSize: 0x40 }
  - { offset: 0x705B9, size: 0x8, addend: 0x0, symName: __ZN3std9panicking11panic_count8increase17hf57f6317579ad19bE, symObjAddr: 0x26370, symBinAddr: 0x1000335F0, symSize: 0x40 }
  - { offset: 0x7076F, size: 0x8, addend: 0x0, symName: __ZN3std9panicking12default_hook17hfd692237a6812b4aE, symObjAddr: 0x263EB, symBinAddr: 0x10003363B, symSize: 0x12B }
  - { offset: 0x70906, size: 0x8, addend: 0x0, symName: '__ZN3std9panicking12default_hook28_$u7b$$u7b$closure$u7d$$u7d$17h4c39689ecd8341bfE', symObjAddr: 0x26516, symBinAddr: 0x100033766, symSize: 0x18A }
  - { offset: 0x70ACD, size: 0x8, addend: 0x0, symName: '__ZN3std9panicking12default_hook28_$u7b$$u7b$closure$u7d$$u7d$28_$u7b$$u7b$closure$u7d$$u7d$17h141942b3ab6b1748E', symObjAddr: 0x266A0, symBinAddr: 0x1000338F0, symSize: 0x380 }
  - { offset: 0x711FD, size: 0x8, addend: 0x0, symName: __ZN3std9panicking13panic_handler19FormatStringPayload4fill17hd583736f0adc2b9eE, symObjAddr: 0x26A20, symBinAddr: 0x100033C70, symSize: 0xC0 }
  - { offset: 0x7131A, size: 0x8, addend: 0x0, symName: '__ZN3std9panicking13panic_handler28_$u7b$$u7b$closure$u7d$$u7d$17h0449b52d62cc4acdE', symObjAddr: 0x26AE0, symBinAddr: 0x100033D30, symSize: 0xD0 }
  - { offset: 0x71476, size: 0x8, addend: 0x0, symName: '__ZN86_$LT$std..panicking..panic_handler..StaticStrPayload$u20$as$u20$core..fmt..Display$GT$3fmt17h611d737e25d39e04E', symObjAddr: 0x58C20, symBinAddr: 0x100052150, symSize: 0x20 }
  - { offset: 0x71497, size: 0x8, addend: 0x0, symName: '__ZN89_$LT$std..panicking..panic_handler..FormatStringPayload$u20$as$u20$core..fmt..Display$GT$3fmt17h2c418704e9a80b67E', symObjAddr: 0x59030, symBinAddr: 0x100052170, symSize: 0x70 }
  - { offset: 0x7158B, size: 0x8, addend: 0x0, symName: '__ZN93_$LT$std..panicking..panic_handler..StaticStrPayload$u20$as$u20$core..panic..PanicPayload$GT$3get17h54b2dcb3b150a54cE', symObjAddr: 0x59900, symBinAddr: 0x100052300, symSize: 0x10 }
  - { offset: 0x715A6, size: 0x8, addend: 0x0, symName: '__ZN93_$LT$std..panicking..panic_handler..StaticStrPayload$u20$as$u20$core..panic..PanicPayload$GT$6as_str17h5a1a7c38fda21c29E', symObjAddr: 0x59910, symBinAddr: 0x100052310, symSize: 0x10 }
  - { offset: 0x715C1, size: 0x8, addend: 0x0, symName: '__ZN93_$LT$std..panicking..panic_handler..StaticStrPayload$u20$as$u20$core..panic..PanicPayload$GT$8take_box17hdf5e7dcb860e8869E', symObjAddr: 0x59920, symBinAddr: 0x100052320, symSize: 0x50 }
  - { offset: 0x7163E, size: 0x8, addend: 0x0, symName: '__ZN96_$LT$std..panicking..panic_handler..FormatStringPayload$u20$as$u20$core..panic..PanicPayload$GT$3get17he619996a915dba5aE', symObjAddr: 0x5A150, symBinAddr: 0x100052790, symSize: 0x20 }
  - { offset: 0x71659, size: 0x8, addend: 0x0, symName: '__ZN96_$LT$std..panicking..panic_handler..FormatStringPayload$u20$as$u20$core..panic..PanicPayload$GT$8take_box17h1d68480d8bee4f17E', symObjAddr: 0x5A170, symBinAddr: 0x1000527B0, symSize: 0xA0 }
  - { offset: 0x717AB, size: 0x8, addend: 0x0, symName: __ZN3std9panicking14payload_as_str17h7b83b1c48b989ea0E, symObjAddr: 0x26C50, symBinAddr: 0x100033E00, symSize: 0x7D }
  - { offset: 0x718F0, size: 0x8, addend: 0x0, symName: __ZN3std9panicking15panic_with_hook17he1033abc98626357E, symObjAddr: 0x26CCD, symBinAddr: 0x100033E7D, symSize: 0x43D }
  - { offset: 0x72201, size: 0x8, addend: 0x0, symName: '__ZN102_$LT$std..sys..process..unix..common..cstring_array..CStringArray$u20$as$u20$core..ops..drop..Drop$GT$4drop17he5543c9769e7fd90E', symObjAddr: 0x450, symBinAddr: 0x100020950, symSize: 0x80 }
  - { offset: 0x723F0, size: 0x8, addend: 0x0, symName: '__ZN3std3sys7process4unix4unix58_$LT$impl$u20$std..sys..process..unix..common..Command$GT$5spawn17h46e68499be7c758aE', symObjAddr: 0x1C540, symBinAddr: 0x10002EA20, symSize: 0xB40 }
  - { offset: 0x73528, size: 0x8, addend: 0x0, symName: '__ZN3std3sys7process4unix4unix58_$LT$impl$u20$std..sys..process..unix..common..Command$GT$7do_exec17hc77e9106886026bdE', symObjAddr: 0x1D080, symBinAddr: 0x10002F560, symSize: 0x300 }
  - { offset: 0x73E3A, size: 0x8, addend: 0x0, symName: __ZN3std3sys7process4unix6common7Command11capture_env17hd300f48339f72723E, symObjAddr: 0x1D560, symBinAddr: 0x10002FA40, symSize: 0x1340 }
  - { offset: 0x76273, size: 0x8, addend: 0x0, symName: __ZN3std3sys7process4unix6common7Command3arg17h2290bede5cd0c511E, symObjAddr: 0x1E8A0, symBinAddr: 0x100030D80, symSize: 0xE0 }
  - { offset: 0x7658B, size: 0x8, addend: 0x0, symName: __ZN3std3sys7process4unix6common7Command3new17h8c9a3e952b3e1597E, symObjAddr: 0x1EA50, symBinAddr: 0x100030E60, symSize: 0x2C0 }
  - { offset: 0x76B0A, size: 0x8, addend: 0x0, symName: __ZN3std3sys7process4unix6common7Command5stdin17hebb2fc5afb4d22bdE, symObjAddr: 0x1ED10, symBinAddr: 0x100031120, symSize: 0x40 }
  - { offset: 0x76B93, size: 0x8, addend: 0x0, symName: __ZN3std3sys7process4unix6common7Command8setup_io17h44d01f140f181a7bE, symObjAddr: 0x1EF40, symBinAddr: 0x100031160, symSize: 0x2C0 }
  - { offset: 0x76FDB, size: 0x8, addend: 0x0, symName: __ZN3std3sys7process4unix6common5Stdio14to_child_stdio17h71e11b2b2a755fcfE, symObjAddr: 0x1D410, symBinAddr: 0x10002F8F0, symSize: 0x150 }
  - { offset: 0x771A9, size: 0x8, addend: 0x0, symName: __ZN3std3sys7process4unix4unix7Process4wait17h0b44ee4aeb74829cE, symObjAddr: 0x1D380, symBinAddr: 0x10002F860, symSize: 0x90 }
  - { offset: 0x772AC, size: 0x8, addend: 0x0, symName: '__ZN78_$LT$std..sys..process..unix..unix..ExitStatus$u20$as$u20$core..fmt..Debug$GT$3fmt17hacfc17ac817dffbaE', symObjAddr: 0x56A70, symBinAddr: 0x100051910, symSize: 0x50 }
  - { offset: 0x773D6, size: 0x8, addend: 0x0, symName: __ZN3std3sys3pal6common14small_c_string24run_with_cstr_allocating17h5cc89072fa4ee439E, symObjAddr: 0x19EE0, symBinAddr: 0x100064E60, symSize: 0x90 }
  - { offset: 0x77545, size: 0x8, addend: 0x0, symName: __ZN3std3sys3pal6common14small_c_string24run_with_cstr_allocating17h65d9406162e2b0deE, symObjAddr: 0x19F70, symBinAddr: 0x100064EF0, symSize: 0xB0 }
  - { offset: 0x77721, size: 0x8, addend: 0x0, symName: __ZN3std3sys3pal6common14small_c_string24run_with_cstr_allocating17hc579900339e23d19E, symObjAddr: 0x1A190, symBinAddr: 0x100064FA0, symSize: 0xB0 }
  - { offset: 0x778FD, size: 0x8, addend: 0x0, symName: __ZN3std3sys3pal6common14small_c_string24run_with_cstr_allocating17he476d4c4f028b54aE, symObjAddr: 0x1A240, symBinAddr: 0x100065050, symSize: 0xB0 }
  - { offset: 0x77AD9, size: 0x8, addend: 0x0, symName: __ZN3std3sys3pal6common14small_c_string24run_with_cstr_allocating17he4af3d6cbd61cc52E, symObjAddr: 0x1A2F0, symBinAddr: 0x100065100, symSize: 0xB0 }
  - { offset: 0x77CFA, size: 0x8, addend: 0x0, symName: __ZN3std3sys3pal4unix14stack_overflow11thread_info16set_current_info17h9c07c7c3f5a792f2E, symObjAddr: 0x17860, symBinAddr: 0x10002C410, symSize: 0xEA0 }
  - { offset: 0x78FEC, size: 0x8, addend: 0x0, symName: __ZN3std3sys3pal4unix14stack_overflow3imp12drop_handler17h10e97a4f0d9b05d8E, symObjAddr: 0x18700, symBinAddr: 0x10002D2B0, symSize: 0x520 }
  - { offset: 0x7986D, size: 0x8, addend: 0x0, symName: __ZN3std3sys3pal4unix14stack_overflow3imp12make_handler17h7ea0af42963bc428E, symObjAddr: 0x18C20, symBinAddr: 0x10002D7D0, symSize: 0x290 }
  - { offset: 0x79C40, size: 0x8, addend: 0x0, symName: __ZN3std3sys3pal4unix14stack_overflow3imp14signal_handler17ha77e123931615aa3E, symObjAddr: 0x18EB0, symBinAddr: 0x10002DA60, symSize: 0x380 }
  - { offset: 0x7A33E, size: 0x8, addend: 0x0, symName: __ZN3std3sys3pal4unix4sync5mutex5Mutex4init17hc0cd42f50e15ec42E, symObjAddr: 0x199B0, symBinAddr: 0x10002E3D0, symSize: 0x160 }
  - { offset: 0x7A3FA, size: 0x8, addend: 0x0, symName: __ZN3std3sys3pal4unix4sync5mutex5Mutex4lock4fail17ha33bd018f471c78aE, symObjAddr: 0x19B30, symBinAddr: 0x100064D60, symSize: 0x100 }
  - { offset: 0x7A722, size: 0x8, addend: 0x0, symName: __ZN3std3sys3pal4unix14abort_internal17h2d7ebcba1920d509E, symObjAddr: 0x17850, symBinAddr: 0x100064D50, symSize: 0x10 }
  - { offset: 0x7A73D, size: 0x8, addend: 0x0, symName: __ZN3std3sys3pal4unix17decode_error_kind17h447b85d7b88dc1dcE, symObjAddr: 0x19230, symBinAddr: 0x10002DDE0, symSize: 0x250 }
  - { offset: 0x7A78F, size: 0x8, addend: 0x0, symName: __ZN3std3sys3pal4unix4pipe5read217ha7a4612c351c75ceE, symObjAddr: 0x19610, symBinAddr: 0x10002E030, symSize: 0x240 }
  - { offset: 0x7AC85, size: 0x8, addend: 0x0, symName: __ZN3std3sys3pal4unix4pipe8AnonPipe5write17h03f32ade1d6c5c2bE, symObjAddr: 0x19850, symBinAddr: 0x10002E270, symSize: 0x50 }
  - { offset: 0x7AD75, size: 0x8, addend: 0x0, symName: __ZN3std3sys3pal4unix4pipe9anon_pipe17h32c3626b874411c6E, symObjAddr: 0x198A0, symBinAddr: 0x10002E2C0, symSize: 0x110 }
  - { offset: 0x7B138, size: 0x8, addend: 0x0, symName: __ZN3std3sys12thread_local6native5eager7destroy17h52ab99797ee9e6c0E, symObjAddr: 0x122C0, symBinAddr: 0x10002B880, symSize: 0x20 }
  - { offset: 0x7B2BA, size: 0x8, addend: 0x0, symName: __ZN3std3sys12thread_local5guard5apple6enable9run_dtors17h38edc9b0697859adE, symObjAddr: 0x121D0, symBinAddr: 0x10002B790, symSize: 0xF0 }
  - { offset: 0x7B758, size: 0x8, addend: 0x0, symName: __ZN3std3sys12thread_local11destructors4list8register17h1d9ec60dd9886de7E, symObjAddr: 0x120E0, symBinAddr: 0x10002B6A0, symSize: 0xF0 }
  - { offset: 0x7BA34, size: 0x8, addend: 0x0, symName: __ZN3std3sys3env4unix13env_read_lock17h6b780f3777072ce3E, symObjAddr: 0x165B0, symBinAddr: 0x10002C070, symSize: 0x280 }
  - { offset: 0x7C0FB, size: 0x8, addend: 0x0, symName: '__ZN3std3sys3env4unix6getenv28_$u7b$$u7b$closure$u7d$$u7d$17hbced0c0771611cafE', symObjAddr: 0x16830, symBinAddr: 0x10002C2F0, symSize: 0x120 }
  - { offset: 0x7C3E4, size: 0x8, addend: 0x0, symName: __ZN3std3sys2fs4unix4File6open_c17he05b2f9a6cd0c0a5E, symObjAddr: 0x14FB0, symBinAddr: 0x10002BBF0, symSize: 0x180 }
  - { offset: 0x7C5BB, size: 0x8, addend: 0x0, symName: '__ZN65_$LT$std..sys..fs..unix..Dir$u20$as$u20$core..ops..drop..Drop$GT$4drop17h00566fb81437571eE', symObjAddr: 0x531C0, symBinAddr: 0x1000513D0, symSize: 0xD0 }
  - { offset: 0x7C6B1, size: 0x8, addend: 0x0, symName: __ZN3std3sys2fs11remove_file17h61ad28dfa4e0cb99E, symObjAddr: 0x13FF0, symBinAddr: 0x10002BB40, symSize: 0xB0 }
  - { offset: 0x7C7F1, size: 0x8, addend: 0x0, symName: __ZN3std3sys2fs8metadata17h617daaed5ed58250E, symObjAddr: 0x15FD0, symBinAddr: 0x10002BD70, symSize: 0x100 }
  - { offset: 0x7C96D, size: 0x8, addend: 0x0, symName: __ZN3std3sys2fs8read_dir17he96197a45d71fcd1E, symObjAddr: 0x160D0, symBinAddr: 0x10002BE70, symSize: 0x200 }
  - { offset: 0x7CD6A, size: 0x8, addend: 0x0, symName: __ZN3std3sys6os_str5bytes5Slice21check_public_boundary9slow_path17h892b62a585bfb945E, symObjAddr: 0x1B740, symBinAddr: 0x10002E840, symSize: 0x160 }
  - { offset: 0x7CF4F, size: 0x8, addend: 0x0, symName: __ZN3std3sys2fd4unix8FileDesc11read_to_end17h9d33e58bea107262E, symObjAddr: 0x137D0, symBinAddr: 0x10002B8A0, symSize: 0x2A0 }
  - { offset: 0x7D3FD, size: 0x8, addend: 0x0, symName: '__ZN64_$LT$std..sys..stdio..unix..Stderr$u20$as$u20$std..io..Write$GT$14write_vectored17h2dbb79a2e8dce948E', symObjAddr: 0x52F00, symBinAddr: 0x100051310, symSize: 0x50 }
  - { offset: 0x7D4CC, size: 0x8, addend: 0x0, symName: '__ZN64_$LT$std..sys..stdio..unix..Stderr$u20$as$u20$std..io..Write$GT$17is_write_vectored17h9d9019aa34dca71eE', symObjAddr: 0x52F50, symBinAddr: 0x100051360, symSize: 0x10 }
  - { offset: 0x7D4E6, size: 0x8, addend: 0x0, symName: '__ZN64_$LT$std..sys..stdio..unix..Stderr$u20$as$u20$std..io..Write$GT$5flush17haca374bc2fb40ebcE', symObjAddr: 0x52F60, symBinAddr: 0x100051370, symSize: 0x10 }
  - { offset: 0x7D500, size: 0x8, addend: 0x0, symName: '__ZN64_$LT$std..sys..stdio..unix..Stderr$u20$as$u20$std..io..Write$GT$5write17h4b5035fe5e5f2032E', symObjAddr: 0x52F70, symBinAddr: 0x100051380, symSize: 0x50 }
  - { offset: 0x7D64D, size: 0x8, addend: 0x0, symName: '__ZN3std3sys4sync8once_box16OnceBox$LT$T$GT$10initialize17h6aa2ce4cfc78c157E', symObjAddr: 0x1B490, symBinAddr: 0x100065450, symSize: 0x120 }
  - { offset: 0x7D929, size: 0x8, addend: 0x0, symName: __ZN3std3sys4sync4once5queue4Once4call17h8e466067d86cbcb3E, symObjAddr: 0x1A7E0, symBinAddr: 0x1000651B0, symSize: 0x210 }
  - { offset: 0x7DBE3, size: 0x8, addend: 0x0, symName: '__ZN82_$LT$std..sys..sync..once..queue..WaiterQueue$u20$as$u20$core..ops..drop..Drop$GT$4drop17h17a27c240e6095eaE', symObjAddr: 0x586D0, symBinAddr: 0x100052080, symSize: 0xD0 }
  - { offset: 0x7DD98, size: 0x8, addend: 0x0, symName: __ZN3std3sys4sync4once5queue4wait17hcf137e24f8369e0fE, symObjAddr: 0x1ABE0, symBinAddr: 0x10002E530, symSize: 0x160 }
  - { offset: 0x7E27B, size: 0x8, addend: 0x0, symName: __ZN3std3sys4sync6rwlock5queue6RwLock12unlock_queue17h2b38c5d2f4e14db6E, symObjAddr: 0x1AD60, symBinAddr: 0x10002E690, symSize: 0x180 }
  - { offset: 0x7E89A, size: 0x8, addend: 0x0, symName: __ZN3std3sys4sync6rwlock5queue6RwLock16unlock_contended17h434533e27b51e3a9E, symObjAddr: 0x1B1F0, symBinAddr: 0x1000653C0, symSize: 0x40 }
  - { offset: 0x7E976, size: 0x8, addend: 0x0, symName: __ZN3std3sys4sync6rwlock5queue6RwLock21read_unlock_contended17ha0f88a0fd7df0d66E, symObjAddr: 0x1B230, symBinAddr: 0x100065400, symSize: 0x50 }
  - { offset: 0x7EBCE, size: 0x8, addend: 0x0, symName: __ZN3std3sys4sync6rwlock5queue9read_lock17h5e2659437ef5e87cE, symObjAddr: 0x1B280, symBinAddr: 0x10002E810, symSize: 0x30 }
  - { offset: 0x7EBE7, size: 0x8, addend: 0x0, symName: '__ZN83_$LT$std..sys..sync..rwlock..queue..PanicGuard$u20$as$u20$core..ops..drop..Drop$GT$4drop17h9abf048048014633E', symObjAddr: 0x58950, symBinAddr: 0x100069B00, symSize: 0x60 }
  - { offset: 0x7ECAC, size: 0x8, addend: 0x0, symName: '__ZN3std3sys11personality3gcc14find_eh_action28_$u7b$$u7b$closure$u7d$$u7d$17h71a716f7697f7c23E', symObjAddr: 0x120C0, symBinAddr: 0x10002B680, symSize: 0x10 }
  - { offset: 0x7ECC0, size: 0x8, addend: 0x0, symName: '__ZN3std3sys11personality3gcc14find_eh_action28_$u7b$$u7b$closure$u7d$$u7d$17hf3d297c424dd88bbE', symObjAddr: 0x120D0, symBinAddr: 0x10002B690, symSize: 0x10 }
  - { offset: 0x7ED0C, size: 0x8, addend: 0x0, symName: _rust_eh_personality, symObjAddr: 0x5D880, symBinAddr: 0x100055C20, symSize: 0x640 }
  - { offset: 0x7F809, size: 0x8, addend: 0x0, symName: __ZN3std3sys6random19hashmap_random_keys17hdf0d5c6761cd11c1E, symObjAddr: 0x1B8A0, symBinAddr: 0x10002E9A0, symSize: 0x80 }
  - { offset: 0x7F8BE, size: 0x8, addend: 0x0, symName: '__ZN3std3sys9backtrace10_print_fmt28_$u7b$$u7b$closure$u7d$$u7d$17h240c89470c2fecd8E', symObjAddr: 0x1F310, symBinAddr: 0x100031420, symSize: 0x130 }
  - { offset: 0x7F9A6, size: 0x8, addend: 0x0, symName: '__ZN3std3sys9backtrace10_print_fmt28_$u7b$$u7b$closure$u7d$$u7d$17h32646e4212c9eef0E', symObjAddr: 0x1F440, symBinAddr: 0x100031550, symSize: 0x20 }
  - { offset: 0x7F9E7, size: 0x8, addend: 0x0, symName: '__ZN3std3sys9backtrace10_print_fmt28_$u7b$$u7b$closure$u7d$$u7d$28_$u7b$$u7b$closure$u7d$$u7d$17h9218d583d276298aE', symObjAddr: 0x1F460, symBinAddr: 0x100031570, symSize: 0x2A0 }
  - { offset: 0x7FBDA, size: 0x8, addend: 0x0, symName: __ZN3std3sys9backtrace13BacktraceLock5print17h5e73de0c808691a4E, symObjAddr: 0x1F700, symBinAddr: 0x100031810, symSize: 0x60 }
  - { offset: 0x7FC0B, size: 0x8, addend: 0x0, symName: __ZN3std3sys9backtrace15output_filename17ha87664c578f770efE, symObjAddr: 0x1F760, symBinAddr: 0x100031870, symSize: 0x120 }
  - { offset: 0x7FD77, size: 0x8, addend: 0x0, symName: __ZN3std3sys9backtrace26__rust_end_short_backtrace17h3fc1fab9d4b6800aE, symObjAddr: 0x1F880, symBinAddr: 0x100031990, symSize: 0x10 }
  - { offset: 0x7FD91, size: 0x8, addend: 0x0, symName: __ZN3std3sys9backtrace4lock17h2bb35fe2884a3a88E, symObjAddr: 0x1F8A0, symBinAddr: 0x1000319A0, symSize: 0x80 }
  - { offset: 0x7FEE7, size: 0x8, addend: 0x0, symName: '__ZN98_$LT$std..sys..backtrace..BacktraceLock..print..DisplayBacktrace$u20$as$u20$core..fmt..Display$GT$3fmt17hbb4f642dcc320b1dE', symObjAddr: 0x5A3B0, symBinAddr: 0x100052850, symSize: 0x280 }
  - { offset: 0x80446, size: 0x8, addend: 0x0, symName: __RNvCskdKJRKLKjqM_7___rustc11___rdl_alloc, symObjAddr: 0x70, symBinAddr: 0x1000205A0, symSize: 0x70 }
  - { offset: 0x804C4, size: 0x8, addend: 0x0, symName: __RNvCskdKJRKLKjqM_7___rustc13___rdl_dealloc, symObjAddr: 0xF0, symBinAddr: 0x100020610, symSize: 0x10 }
  - { offset: 0x804F5, size: 0x8, addend: 0x0, symName: __RNvCskdKJRKLKjqM_7___rustc13___rdl_realloc, symObjAddr: 0x100, symBinAddr: 0x100020620, symSize: 0xD0 }
  - { offset: 0x805D9, size: 0x8, addend: 0x0, symName: __RNvCskdKJRKLKjqM_7___rustc18___rdl_alloc_zeroed, symObjAddr: 0x2D0, symBinAddr: 0x1000207F0, symSize: 0x90 }
  - { offset: 0x8067E, size: 0x8, addend: 0x0, symName: __RNvCskdKJRKLKjqM_7___rustc8___rg_oom, symObjAddr: 0x430, symBinAddr: 0x100064BB0, symSize: 0x20 }
  - { offset: 0x8069A, size: 0x8, addend: 0x0, symName: __ZN3std5alloc24default_alloc_error_hook17h037631a9e9542696E, symObjAddr: 0x23AD0, symBinAddr: 0x100032DA0, symSize: 0x160 }
  - { offset: 0x80927, size: 0x8, addend: 0x0, symName: __ZN3std5alloc8rust_oom17he6554ab5e3e4bfbfE, symObjAddr: 0x23C30, symBinAddr: 0x100065630, symSize: 0x20 }
  - { offset: 0x80974, size: 0x8, addend: 0x0, symName: __ZN3std2rt15handle_rt_panic17hc19cb4ec1bf553a3E, symObjAddr: 0xF090, symBinAddr: 0x100064CF0, symSize: 0x60 }
  - { offset: 0x80A04, size: 0x8, addend: 0x0, symName: __ZN3std2rt19lang_start_internal17he54b1e510ff92df3E, symObjAddr: 0xF0F0, symBinAddr: 0x10002A7B0, symSize: 0x6C0 }
  - { offset: 0x81610, size: 0x8, addend: 0x0, symName: __ZN3std2io5error14repr_bitpacked11decode_repr17ha713e1d9a867e6ffE, symObjAddr: 0xC820, symBinAddr: 0x100029880, symSize: 0x60 }
  - { offset: 0x816A4, size: 0x8, addend: 0x0, symName: __ZN3std2io5error5Error3new17hca09cf106a8bb92bE, symObjAddr: 0xC960, symBinAddr: 0x1000298E0, symSize: 0x120 }
  - { offset: 0x81AA1, size: 0x8, addend: 0x0, symName: '__ZN3std2io5error83_$LT$impl$u20$core..fmt..Debug$u20$for$u20$std..io..error..repr_bitpacked..Repr$GT$3fmt17h0c2c47996b5c8151E', symObjAddr: 0xCB00, symBinAddr: 0x100029A00, symSize: 0x300 }
  - { offset: 0x81CF9, size: 0x8, addend: 0x0, symName: '__ZN58_$LT$std..io..error..Error$u20$as$u20$core..fmt..Debug$GT$3fmt17h4e87839884dfef9aE', symObjAddr: 0x3D080, symBinAddr: 0x1000422B0, symSize: 0x10 }
  - { offset: 0x81D13, size: 0x8, addend: 0x0, symName: '__ZN60_$LT$std..io..error..Error$u20$as$u20$core..fmt..Display$GT$3fmt17hb9b71bb9d61087ecE', symObjAddr: 0x4F030, symBinAddr: 0x100050910, symSize: 0x280 }
  - { offset: 0x81F46, size: 0x8, addend: 0x0, symName: '__ZN62_$LT$std..io..error..ErrorKind$u20$as$u20$core..fmt..Debug$GT$3fmt17hd88fc964aff56ab8E', symObjAddr: 0x51C40, symBinAddr: 0x1000511C0, symSize: 0x30 }
  - { offset: 0x81FD9, size: 0x8, addend: 0x0, symName: '__ZN3std2io8buffered9bufwriter18BufWriter$LT$W$GT$14write_all_cold17h4cf021826987ea15E', symObjAddr: 0xDCD0, symBinAddr: 0x100064BD0, symSize: 0x120 }
  - { offset: 0x82218, size: 0x8, addend: 0x0, symName: '__ZN3std2io8buffered9bufwriter18BufWriter$LT$W$GT$9flush_buf17h223037aba0b50117E', symObjAddr: 0xDDF0, symBinAddr: 0x10002A570, symSize: 0x240 }
  - { offset: 0x82830, size: 0x8, addend: 0x0, symName: __ZN3std2io5Write18write_all_vectored17hc2fed901070b4d06E, symObjAddr: 0xC160, symBinAddr: 0x1000291C0, symSize: 0x1D0 }
  - { offset: 0x82A75, size: 0x8, addend: 0x0, symName: __ZN3std2io5Write9write_all17ha0278d11ab8e55b7E, symObjAddr: 0xC330, symBinAddr: 0x100029390, symSize: 0xA0 }
  - { offset: 0x82B65, size: 0x8, addend: 0x0, symName: __ZN3std2io5Write9write_fmt17h0157f34dfbceefe5E, symObjAddr: 0xC3D0, symBinAddr: 0x100029430, symSize: 0x170 }
  - { offset: 0x82E3F, size: 0x8, addend: 0x0, symName: __ZN3std2io5Write9write_fmt17h24b62528f4d1168aE, symObjAddr: 0xC540, symBinAddr: 0x1000295A0, symSize: 0x170 }
  - { offset: 0x83119, size: 0x8, addend: 0x0, symName: __ZN3std2io5Write9write_fmt17h5e34a6300392fe22E, symObjAddr: 0xC6B0, symBinAddr: 0x100029710, symSize: 0x170 }
  - { offset: 0x8345E, size: 0x8, addend: 0x0, symName: __ZN3std2io5stdio22try_set_output_capture17hb613035c20b6d0f1E, symObjAddr: 0xD2C0, symBinAddr: 0x10002A0F0, symSize: 0xB0 }
  - { offset: 0x836D0, size: 0x8, addend: 0x0, symName: '__ZN57_$LT$std..io..stdio..Stderr$u20$as$u20$std..io..Write$GT$9write_all17hb70a3db13b1cf2bbE', symObjAddr: 0x3CA40, symBinAddr: 0x100042080, symSize: 0x80 }
  - { offset: 0x838F9, size: 0x8, addend: 0x0, symName: __ZN3std2io5stdio31print_to_buffer_if_capture_used17hde0c84d24b5006f1E, symObjAddr: 0xD440, symBinAddr: 0x10002A1A0, symSize: 0x220 }
  - { offset: 0x8400B, size: 0x8, addend: 0x0, symName: __ZN3std2io5stdio6Stderr4lock17h9794f8e40f87e1fdE, symObjAddr: 0xD8C0, symBinAddr: 0x10002A3C0, symSize: 0xC0 }
  - { offset: 0x842DA, size: 0x8, addend: 0x0, symName: __ZN3std2io5stdio6_print17he5f702afc7c35b8cE, symObjAddr: 0xD980, symBinAddr: 0x10002A480, symSize: 0xF0 }
  - { offset: 0x84463, size: 0x8, addend: 0x0, symName: '__ZN61_$LT$std..io..stdio..StderrLock$u20$as$u20$std..io..Write$GT$9write_all17h468845e2c0726439E', symObjAddr: 0x509B0, symBinAddr: 0x100050D50, symSize: 0x100 }
  - { offset: 0x846E3, size: 0x8, addend: 0x0, symName: '__ZN61_$LT$$RF$std..io..stdio..Stdout$u20$as$u20$std..io..Write$GT$9write_fmt17h0eee9ce97af14d23E', symObjAddr: 0x50590, symBinAddr: 0x100050B90, symSize: 0x1C0 }
  - { offset: 0x84B87, size: 0x8, addend: 0x0, symName: '__ZN61_$LT$std..io..stdio..StdoutLock$u20$as$u20$std..io..Write$GT$9write_all17h054337cb99b92b16E', symObjAddr: 0x51070, symBinAddr: 0x100050E50, symSize: 0x260 }
  - { offset: 0x85209, size: 0x8, addend: 0x0, symName: '__ZN3std2io5impls74_$LT$impl$u20$std..io..Write$u20$for$u20$alloc..vec..Vec$LT$u8$C$A$GT$$GT$14write_vectored17h396066abfc006fcaE', symObjAddr: 0xCE00, symBinAddr: 0x100029D00, symSize: 0x180 }
  - { offset: 0x8540B, size: 0x8, addend: 0x0, symName: '__ZN3std2io5impls74_$LT$impl$u20$std..io..Write$u20$for$u20$alloc..vec..Vec$LT$u8$C$A$GT$$GT$17is_write_vectored17h473fffb9382bf9c6E', symObjAddr: 0xCF80, symBinAddr: 0x100029E80, symSize: 0x10 }
  - { offset: 0x85434, size: 0x8, addend: 0x0, symName: '__ZN3std2io5impls74_$LT$impl$u20$std..io..Write$u20$for$u20$alloc..vec..Vec$LT$u8$C$A$GT$$GT$18write_all_vectored17hcfe81a52ebadbc0bE', symObjAddr: 0xCF90, symBinAddr: 0x100029E90, symSize: 0x170 }
  - { offset: 0x8545F, size: 0x8, addend: 0x0, symName: '__ZN3std2io5impls74_$LT$impl$u20$std..io..Write$u20$for$u20$alloc..vec..Vec$LT$u8$C$A$GT$$GT$18write_all_vectored17hcfe81a52ebadbc0bE', symObjAddr: 0xCF90, symBinAddr: 0x100029E90, symSize: 0x170 }
  - { offset: 0x85474, size: 0x8, addend: 0x0, symName: '__ZN3std2io5impls74_$LT$impl$u20$std..io..Write$u20$for$u20$alloc..vec..Vec$LT$u8$C$A$GT$$GT$18write_all_vectored17hcfe81a52ebadbc0bE', symObjAddr: 0xCF90, symBinAddr: 0x100029E90, symSize: 0x170 }
  - { offset: 0x85489, size: 0x8, addend: 0x0, symName: '__ZN3std2io5impls74_$LT$impl$u20$std..io..Write$u20$for$u20$alloc..vec..Vec$LT$u8$C$A$GT$$GT$18write_all_vectored17hcfe81a52ebadbc0bE', symObjAddr: 0xCF90, symBinAddr: 0x100029E90, symSize: 0x170 }
  - { offset: 0x8549D, size: 0x8, addend: 0x0, symName: '__ZN3std2io5impls74_$LT$impl$u20$std..io..Write$u20$for$u20$alloc..vec..Vec$LT$u8$C$A$GT$$GT$18write_all_vectored17hcfe81a52ebadbc0bE', symObjAddr: 0xCF90, symBinAddr: 0x100029E90, symSize: 0x170 }
  - { offset: 0x854B1, size: 0x8, addend: 0x0, symName: '__ZN3std2io5impls74_$LT$impl$u20$std..io..Write$u20$for$u20$alloc..vec..Vec$LT$u8$C$A$GT$$GT$18write_all_vectored17hcfe81a52ebadbc0bE', symObjAddr: 0xCF90, symBinAddr: 0x100029E90, symSize: 0x170 }
  - { offset: 0x8566B, size: 0x8, addend: 0x0, symName: '__ZN3std2io5impls74_$LT$impl$u20$std..io..Write$u20$for$u20$alloc..vec..Vec$LT$u8$C$A$GT$$GT$5flush17hc83d241489517b1fE', symObjAddr: 0xD100, symBinAddr: 0x10002A000, symSize: 0x10 }
  - { offset: 0x85686, size: 0x8, addend: 0x0, symName: '__ZN3std2io5impls74_$LT$impl$u20$std..io..Write$u20$for$u20$alloc..vec..Vec$LT$u8$C$A$GT$$GT$5write17h0e0da068fc5acedeE', symObjAddr: 0xD110, symBinAddr: 0x10002A010, symSize: 0x70 }
  - { offset: 0x8576C, size: 0x8, addend: 0x0, symName: '__ZN3std2io5impls74_$LT$impl$u20$std..io..Write$u20$for$u20$alloc..vec..Vec$LT$u8$C$A$GT$$GT$9write_all17h7bccd6e9d3e19e7fE', symObjAddr: 0xD180, symBinAddr: 0x10002A080, symSize: 0x70 }
  - { offset: 0x85874, size: 0x8, addend: 0x0, symName: __ZN3std2io19default_read_to_end16small_probe_read17hed37023dae20d6feE, symObjAddr: 0xB720, symBinAddr: 0x1000290D0, symSize: 0xF0 }
  - { offset: 0x85B4D, size: 0x8, addend: 0x0, symName: '__ZN81_$LT$std..io..default_write_fmt..Adapter$LT$T$GT$$u20$as$u20$core..fmt..Write$GT$9write_str17h1649a3991f2ea191E', symObjAddr: 0x57A70, symBinAddr: 0x100051E50, symSize: 0xD0 }
  - { offset: 0x85C59, size: 0x8, addend: 0x0, symName: '__ZN81_$LT$std..io..default_write_fmt..Adapter$LT$T$GT$$u20$as$u20$core..fmt..Write$GT$9write_str17h65288afb60bc4b22E', symObjAddr: 0x57C60, symBinAddr: 0x100051F20, symSize: 0x70 }
  - { offset: 0x85D46, size: 0x8, addend: 0x0, symName: '__ZN81_$LT$std..io..default_write_fmt..Adapter$LT$T$GT$$u20$as$u20$core..fmt..Write$GT$9write_str17h9ddd3fd8700ebc6eE', symObjAddr: 0x57CD0, symBinAddr: 0x100051F90, symSize: 0x50 }
  - { offset: 0x85D70, size: 0x8, addend: 0x0, symName: '__ZN81_$LT$std..io..default_write_fmt..Adapter$LT$T$GT$$u20$as$u20$core..fmt..Write$GT$9write_str17hf60e64c5a7fc0711E', symObjAddr: 0x57D20, symBinAddr: 0x100051FE0, symSize: 0xA0 }
  - { offset: 0x85FC1, size: 0x8, addend: 0x0, symName: __ZN3std4path4Path13_strip_prefix17h57206cfe16291a76E, symObjAddr: 0x20BD0, symBinAddr: 0x100032060, symSize: 0x3C0 }
  - { offset: 0x860D1, size: 0x8, addend: 0x0, symName: __ZN3std4path4Path5_join17hf8c84868fde1d922E, symObjAddr: 0x21720, symBinAddr: 0x100032420, symSize: 0x190 }
  - { offset: 0x867D6, size: 0x8, addend: 0x0, symName: __ZN3std4path10Components15len_before_body17hc0c9c8c5c44312a5E, symObjAddr: 0x1F920, symBinAddr: 0x100031A20, symSize: 0x170 }
  - { offset: 0x867ED, size: 0x8, addend: 0x0, symName: __ZN3std4path10Components15len_before_body17hc0c9c8c5c44312a5E, symObjAddr: 0x1F920, symBinAddr: 0x100031A20, symSize: 0x170 }
  - { offset: 0x86802, size: 0x8, addend: 0x0, symName: __ZN3std4path10Components15len_before_body17hc0c9c8c5c44312a5E, symObjAddr: 0x1F920, symBinAddr: 0x100031A20, symSize: 0x170 }
  - { offset: 0x869DA, size: 0x8, addend: 0x0, symName: __ZN3std4path10Components25parse_next_component_back17h39a0247b7cda8e0bE, symObjAddr: 0x1FA90, symBinAddr: 0x100031B90, symSize: 0xF0 }
  - { offset: 0x86B79, size: 0x8, addend: 0x0, symName: __ZN3std4path10Components7as_path17h069c6a5a65b7ff44E, symObjAddr: 0x1FB80, symBinAddr: 0x100031C80, symSize: 0x3E0 }
  - { offset: 0x86EB6, size: 0x8, addend: 0x0, symName: __ZN3std4path7PathBuf14_set_extension17hb0d27cfd3c0b97d9E, symObjAddr: 0x22170, symBinAddr: 0x1000325B0, symSize: 0x340 }
  - { offset: 0x8760E, size: 0x8, addend: 0x0, symName: __ZN3std4path7PathBuf5_push17hf777a1c0eafe318fE, symObjAddr: 0x22800, symBinAddr: 0x1000328F0, symSize: 0xE0 }
  - { offset: 0x87AB7, size: 0x8, addend: 0x0, symName: '__ZN61_$LT$std..path..Component$u20$as$u20$core..cmp..PartialEq$GT$2eq17h491fa3e2db060d13E', symObjAddr: 0x512F0, symBinAddr: 0x1000510B0, symSize: 0xE0 }
  - { offset: 0x87B71, size: 0x8, addend: 0x0, symName: '__ZN80_$LT$std..path..Components$u20$as$u20$core..iter..traits..iterator..Iterator$GT$4next17hee0b9dd08b602416E', symObjAddr: 0x57330, symBinAddr: 0x100051A40, symSize: 0x410 }
  - { offset: 0x87F12, size: 0x8, addend: 0x0, symName: '__ZN95_$LT$std..path..Components$u20$as$u20$core..iter..traits..double_ended..DoubleEndedIterator$GT$9next_back17h714e7cb7d2d85f84E', symObjAddr: 0x59CE0, symBinAddr: 0x100052370, symSize: 0x420 }
  - { offset: 0x88131, size: 0x8, addend: 0x0, symName: __ZN3std7process5Child4wait17h62bfdf55cdfbeff6E, symObjAddr: 0x252A0, symBinAddr: 0x100033190, symSize: 0xB0 }
  - { offset: 0x882C3, size: 0x8, addend: 0x0, symName: __ZN3std7process5abort17h0d4477327f66e8fbE, symObjAddr: 0x25400, symBinAddr: 0x100065860, symSize: 0x10 }
  - { offset: 0x882E3, size: 0x8, addend: 0x0, symName: __ZN3std7process7Command5spawn17hfa7eba3b73efd1e3E, symObjAddr: 0x254F0, symBinAddr: 0x100033240, symSize: 0x60 }
  - { offset: 0x88314, size: 0x8, addend: 0x0, symName: __ZN3std7process7Command6output17hff2e6d5f551a1910E, symObjAddr: 0x25550, symBinAddr: 0x1000332A0, symSize: 0x350 }
  - { offset: 0x888C3, size: 0x8, addend: 0x0, symName: '__ZN118_$LT$std..thread..thread_name_string..ThreadNameString$u20$as$u20$core..convert..From$LT$alloc..string..String$GT$$GT$4from17h61e83cd51d9b6e6aE', symObjAddr: 0x10C0, symBinAddr: 0x1000209D0, symSize: 0x100 }
  - { offset: 0x88B55, size: 0x8, addend: 0x0, symName: __ZN3std6thread5local18panic_access_error17h1e9c6bd8f0d440e3E, symObjAddr: 0x24040, symBinAddr: 0x100065650, symSize: 0x60 }
  - { offset: 0x88B8A, size: 0x8, addend: 0x0, symName: '__ZN68_$LT$std..thread..local..AccessError$u20$as$u20$core..fmt..Debug$GT$3fmt17h19d84e0a8b904c5cE', symObjAddr: 0x53E10, symBinAddr: 0x1000514A0, symSize: 0x30 }
  - { offset: 0x88CCB, size: 0x8, addend: 0x0, symName: __ZN3std6thread7current12init_current17h90dce586534f49cdE, symObjAddr: 0x245B0, symBinAddr: 0x1000656B0, symSize: 0x160 }
  - { offset: 0x88FE3, size: 0x8, addend: 0x0, symName: __ZN3std6thread7current13current_os_id17h7dd262076b74b984E, symObjAddr: 0x24710, symBinAddr: 0x100033110, symSize: 0x80 }
  - { offset: 0x891F6, size: 0x8, addend: 0x0, symName: __ZN3std6thread6Thread3new17haba3f9a731f34843E, symObjAddr: 0x241F0, symBinAddr: 0x100032FD0, symSize: 0x140 }
  - { offset: 0x8953D, size: 0x8, addend: 0x0, symName: __ZN3std6thread8ThreadId3new9exhausted17h406b0b054c541c40E, symObjAddr: 0x248A0, symBinAddr: 0x100065810, symSize: 0x50 }
  - { offset: 0x895BD, size: 0x8, addend: 0x0, symName: __ZN3std12backtrace_rs5print17BacktraceFrameFmt21print_raw_with_column17h124737e9f41c54b0E, symObjAddr: 0x12B0, symBinAddr: 0x100020B30, symSize: 0x560 }
  - { offset: 0x897B3, size: 0x8, addend: 0x0, symName: __ZN3std12backtrace_rs9backtrace9libunwind5trace8trace_fn17hc5d3caa7e26e2d87E, symObjAddr: 0x1810, symBinAddr: 0x100021090, symSize: 0x50 }
  - { offset: 0x8986E, size: 0x8, addend: 0x0, symName: __ZN3std12backtrace_rs9symbolize5gimli4mmap17h12ebabe808a68383E, symObjAddr: 0x1860, symBinAddr: 0x1000210E0, symSize: 0x210 }
  - { offset: 0x89D5B, size: 0x8, addend: 0x0, symName: __ZN3std12backtrace_rs9symbolize5gimli5macho11find_header17hde9f2a87e444cec9E, symObjAddr: 0x1A70, symBinAddr: 0x1000212F0, symSize: 0x190 }
  - { offset: 0x8A439, size: 0x8, addend: 0x0, symName: __ZN3std12backtrace_rs9symbolize5gimli5macho6Object5parse17h400ac0874d941337E, symObjAddr: 0x1C00, symBinAddr: 0x100021480, symSize: 0x1040 }
  - { offset: 0x8C360, size: 0x8, addend: 0x0, symName: __ZN3std12backtrace_rs9symbolize5gimli5macho6Object7section17hf53b9a42818e2c3dE, symObjAddr: 0x2C40, symBinAddr: 0x1000224C0, symSize: 0x180 }
  - { offset: 0x8C79A, size: 0x8, addend: 0x0, symName: __ZN3std12backtrace_rs9symbolize5gimli7Context11find_frames17h15418eb91b7e6263E, symObjAddr: 0x2DC0, symBinAddr: 0x100022640, symSize: 0x3D0 }
  - { offset: 0x8CB7A, size: 0x8, addend: 0x0, symName: __ZN3std12backtrace_rs9symbolize5gimli7Context3new17hb329d27e4d696e6aE, symObjAddr: 0x3190, symBinAddr: 0x100022A10, symSize: 0x3050 }
  - { offset: 0x90CD8, size: 0x8, addend: 0x0, symName: __ZN3std12backtrace_rs9symbolize5gimli7resolve17h34165e1bf34eef53E, symObjAddr: 0x61E0, symBinAddr: 0x100025A60, symSize: 0x3560 }
  - { offset: 0x96D64, size: 0x8, addend: 0x0, symName: __ZN3std12backtrace_rs9symbolize6Symbol4name17hd612854ad8f0ffd0E, symObjAddr: 0x9780, symBinAddr: 0x100028FC0, symSize: 0x110 }
  - { offset: 0x96E9D, size: 0x8, addend: 0x0, symName: '__ZN79_$LT$std..backtrace_rs..symbolize..SymbolName$u20$as$u20$core..fmt..Display$GT$3fmt17hdc33297e1ed74ca2E', symObjAddr: 0x56AE0, symBinAddr: 0x100051960, symSize: 0xE0 }
  - { offset: 0x97049, size: 0x8, addend: 0x0, symName: '__ZN48_$LT$std..fs..File$u20$as$u20$std..io..Write$GT$5write17h6aa997d699243505E', symObjAddr: 0x28450, symBinAddr: 0x1000345D0, symSize: 0x50 }
  - { offset: 0x973E4, size: 0x8, addend: 0x0, symName: '__ZN62_$LT$std..ffi..os_str..Display$u20$as$u20$core..fmt..Debug$GT$3fmt17he54547e559788b5fE', symObjAddr: 0x51C10, symBinAddr: 0x100051190, symSize: 0x30 }
  - { offset: 0x97455, size: 0x8, addend: 0x0, symName: '__ZN64_$LT$std..ffi..os_str..Display$u20$as$u20$core..fmt..Display$GT$3fmt17hc3b4edbdc1de5d2aE', symObjAddr: 0x52BC0, symBinAddr: 0x100051240, symSize: 0xD0 }
  - { offset: 0x974DA, size: 0x8, addend: 0x0, symName: '__ZN3std4sync6poison5mutex14Mutex$LT$T$GT$4lock17hc2ce4f843db9b8deE', symObjAddr: 0x23070, symBinAddr: 0x100032D30, symSize: 0x70 }
  - { offset: 0x97739, size: 0x8, addend: 0x0, symName: '__ZN3std4sync6poison4once4Once15call_once_force28_$u7b$$u7b$closure$u7d$$u7d$17h3fd27ef06f442f06E', symObjAddr: 0x22AF0, symBinAddr: 0x1000329D0, symSize: 0x90 }
  - { offset: 0x977F0, size: 0x8, addend: 0x0, symName: '__ZN3std4sync6poison4once4Once15call_once_force28_$u7b$$u7b$closure$u7d$$u7d$17hcef2943343630694E', symObjAddr: 0x22D80, symBinAddr: 0x100032A60, symSize: 0x90 }
  - { offset: 0x9794D, size: 0x8, addend: 0x0, symName: '__ZN3std4sync6poison4once4Once9call_once28_$u7b$$u7b$closure$u7d$$u7d$17h5c617ced4614c08fE', symObjAddr: 0x22E30, symBinAddr: 0x100032AF0, symSize: 0x240 }
  - { offset: 0x980F0, size: 0x8, addend: 0x0, symName: '__ZN3std4sync9once_lock17OnceLock$LT$T$GT$10initialize17h9ad90c5bfd166a66E', symObjAddr: 0x23793, symBinAddr: 0x100065573, symSize: 0x59 }
  - { offset: 0x9811B, size: 0x8, addend: 0x0, symName: '__ZN3std4sync9once_lock17OnceLock$LT$T$GT$10initialize17h9ad90c5bfd166a66E', symObjAddr: 0x23793, symBinAddr: 0x100065573, symSize: 0x59 }
  - { offset: 0x9812F, size: 0x8, addend: 0x0, symName: '__ZN3std4sync9once_lock17OnceLock$LT$T$GT$10initialize17h9ad90c5bfd166a66E', symObjAddr: 0x23793, symBinAddr: 0x100065573, symSize: 0x59 }
  - { offset: 0x98143, size: 0x8, addend: 0x0, symName: '__ZN3std4sync9once_lock17OnceLock$LT$T$GT$10initialize17h9ad90c5bfd166a66E', symObjAddr: 0x23793, symBinAddr: 0x100065573, symSize: 0x59 }
  - { offset: 0x98159, size: 0x8, addend: 0x0, symName: '__ZN3std4sync9once_lock17OnceLock$LT$T$GT$10initialize17hdc61a2003d8acd11E', symObjAddr: 0x23841, symBinAddr: 0x1000655D1, symSize: 0x5F }
  - { offset: 0x98184, size: 0x8, addend: 0x0, symName: '__ZN3std4sync9once_lock17OnceLock$LT$T$GT$10initialize17hdc61a2003d8acd11E', symObjAddr: 0x23841, symBinAddr: 0x1000655D1, symSize: 0x5F }
  - { offset: 0x98198, size: 0x8, addend: 0x0, symName: '__ZN3std4sync9once_lock17OnceLock$LT$T$GT$10initialize17hdc61a2003d8acd11E', symObjAddr: 0x23841, symBinAddr: 0x1000655D1, symSize: 0x5F }
  - { offset: 0x981AC, size: 0x8, addend: 0x0, symName: '__ZN3std4sync9once_lock17OnceLock$LT$T$GT$10initialize17hdc61a2003d8acd11E', symObjAddr: 0x23841, symBinAddr: 0x1000655D1, symSize: 0x5F }
  - { offset: 0x98357, size: 0x8, addend: 0x0, symName: __ZN3std5panic19get_backtrace_style17h4c7362303865842eE, symObjAddr: 0x23C60, symBinAddr: 0x100032F00, symSize: 0xD0 }
  - { offset: 0x98375, size: 0x8, addend: 0x0, symName: __ZN3std5panic19get_backtrace_style17h4c7362303865842eE, symObjAddr: 0x23C60, symBinAddr: 0x100032F00, symSize: 0xD0 }
  - { offset: 0x9838A, size: 0x8, addend: 0x0, symName: __ZN3std5panic19get_backtrace_style17h4c7362303865842eE, symObjAddr: 0x23C60, symBinAddr: 0x100032F00, symSize: 0xD0 }
  - { offset: 0x985F7, size: 0x8, addend: 0x0, symName: __ZN3std3env11current_dir17h09876c9b4b89060dE, symObjAddr: 0xF800, symBinAddr: 0x10002AE70, symSize: 0x1C0 }
  - { offset: 0x98A34, size: 0x8, addend: 0x0, symName: __ZN3std3env4_var17h75d65b34efbdced7E, symObjAddr: 0xFAA0, symBinAddr: 0x10002B030, symSize: 0xA0 }
  - { offset: 0x98B30, size: 0x8, addend: 0x0, symName: __ZN3std3env7_var_os17ha90d6152c34619e1E, symObjAddr: 0xFB80, symBinAddr: 0x10002B0D0, symSize: 0x170 }
  - { offset: 0x98DF0, size: 0x8, addend: 0x0, symName: __ZN3std3env7vars_os17hc4844c317b828c1aE, symObjAddr: 0xFF30, symBinAddr: 0x10002B240, symSize: 0x440 }
  - { offset: 0x99B6D, size: 0x8, addend: 0x0, symName: __ZN5alloc5alloc15exchange_malloc17hdc54b6ad35f557b1E, symObjAddr: 0x452D0, symBinAddr: 0x100047140, symSize: 0x40 }
  - { offset: 0x9AE5F, size: 0x8, addend: 0x0, symName: '__ZN64_$LT$alloc..ffi..c_str..NulError$u20$as$u20$core..fmt..Debug$GT$3fmt17h42a8844572b8105bE', symObjAddr: 0x524F0, symBinAddr: 0x1000511F0, symSize: 0x50 }
  - { offset: 0x9C013, size: 0x8, addend: 0x0, symName: '__ZN5alloc11collections5btree4node208Handle$LT$alloc..collections..btree..node..NodeRef$LT$alloc..collections..btree..node..marker..Mut$C$K$C$V$C$alloc..collections..btree..node..marker..Leaf$GT$$C$alloc..collections..btree..node..marker..KV$GT$5split17h2e0ddf5cd10d99d6E', symObjAddr: 0x40F70, symBinAddr: 0x100043C50, symSize: 0x1C0 }
  - { offset: 0x9C3EF, size: 0x8, addend: 0x0, symName: '__ZN5alloc11collections5btree4node208Handle$LT$alloc..collections..btree..node..NodeRef$LT$alloc..collections..btree..node..marker..Mut$C$K$C$V$C$alloc..collections..btree..node..marker..Leaf$GT$$C$alloc..collections..btree..node..marker..KV$GT$5split17hb1ffacf0e82edab8E', symObjAddr: 0x41330, symBinAddr: 0x100043E10, symSize: 0x1F0 }
  - { offset: 0x9C8A1, size: 0x8, addend: 0x0, symName: '__ZN5alloc11collections5btree4node212Handle$LT$alloc..collections..btree..node..NodeRef$LT$alloc..collections..btree..node..marker..Mut$C$K$C$V$C$alloc..collections..btree..node..marker..Internal$GT$$C$alloc..collections..btree..node..marker..KV$GT$5split17h17c643d4c82620a0E', symObjAddr: 0x41820, symBinAddr: 0x100044000, symSize: 0x280 }
  - { offset: 0x9CDEB, size: 0x8, addend: 0x0, symName: '__ZN5alloc11collections5btree4node212Handle$LT$alloc..collections..btree..node..NodeRef$LT$alloc..collections..btree..node..marker..Mut$C$K$C$V$C$alloc..collections..btree..node..marker..Internal$GT$$C$alloc..collections..btree..node..marker..KV$GT$5split17hce29b28e134d751bE', symObjAddr: 0x41AA0, symBinAddr: 0x100044280, symSize: 0x2F0 }
  - { offset: 0x9D4FE, size: 0x8, addend: 0x0, symName: '__ZN5alloc11collections5btree6remove259_$LT$impl$u20$alloc..collections..btree..node..Handle$LT$alloc..collections..btree..node..NodeRef$LT$alloc..collections..btree..node..marker..Mut$C$K$C$V$C$alloc..collections..btree..node..marker..Leaf$GT$$C$alloc..collections..btree..node..marker..KV$GT$$GT$14remove_leaf_kv17h2a34ebe0da4333d8E', symObjAddr: 0x434D0, symBinAddr: 0x100045CB0, symSize: 0x8C0 }
  - { offset: 0x9E13F, size: 0x8, addend: 0x0, symName: '__ZN5alloc11collections5btree6remove259_$LT$impl$u20$alloc..collections..btree..node..Handle$LT$alloc..collections..btree..node..NodeRef$LT$alloc..collections..btree..node..marker..Mut$C$K$C$V$C$alloc..collections..btree..node..marker..Leaf$GT$$C$alloc..collections..btree..node..marker..KV$GT$$GT$14remove_leaf_kv17hc8882eb65a8263c2E', symObjAddr: 0x43D90, symBinAddr: 0x100046570, symSize: 0x900 }
  - { offset: 0x9EF3E, size: 0x8, addend: 0x0, symName: '__ZN5alloc11collections5btree4node29BalancingContext$LT$K$C$V$GT$15bulk_steal_left17h3b899cdacc6f7634E', symObjAddr: 0x41D90, symBinAddr: 0x100044570, symSize: 0x400 }
  - { offset: 0x9F404, size: 0x8, addend: 0x0, symName: '__ZN5alloc11collections5btree4node29BalancingContext$LT$K$C$V$GT$15bulk_steal_left17h66a91518f6da12fdE', symObjAddr: 0x42190, symBinAddr: 0x100044970, symSize: 0x370 }
  - { offset: 0x9F8E8, size: 0x8, addend: 0x0, symName: '__ZN5alloc11collections5btree4node29BalancingContext$LT$K$C$V$GT$16bulk_steal_right17h4e21d715a5e05da5E', symObjAddr: 0x42500, symBinAddr: 0x100044CE0, symSize: 0x3C0 }
  - { offset: 0x9FF02, size: 0x8, addend: 0x0, symName: '__ZN5alloc11collections5btree4node29BalancingContext$LT$K$C$V$GT$16bulk_steal_right17ha9d1e50b5a62421eE', symObjAddr: 0x428C0, symBinAddr: 0x1000450A0, symSize: 0x440 }
  - { offset: 0xA0490, size: 0x8, addend: 0x0, symName: '__ZN5alloc11collections5btree4node29BalancingContext$LT$K$C$V$GT$8do_merge17h23068df04fc85f6cE', symObjAddr: 0x42D00, symBinAddr: 0x1000454E0, symSize: 0x400 }
  - { offset: 0xA09E7, size: 0x8, addend: 0x0, symName: '__ZN5alloc11collections5btree4node29BalancingContext$LT$K$C$V$GT$8do_merge17h59e33ac8b4f1aedbE', symObjAddr: 0x43100, symBinAddr: 0x1000458E0, symSize: 0x3D0 }
  - { offset: 0xA124A, size: 0x8, addend: 0x0, symName: '__ZN5alloc11collections5btree3map25BTreeMap$LT$K$C$V$C$A$GT$6insert17h573ce44374f5ebb6E', symObjAddr: 0x3E760, symBinAddr: 0x1000422C0, symSize: 0xE50 }
  - { offset: 0xA282C, size: 0x8, addend: 0x0, symName: '__ZN5alloc11collections5btree3map25IntoIter$LT$K$C$V$C$A$GT$10dying_next17h0137cfdaf279346fE', symObjAddr: 0x40430, symBinAddr: 0x100043110, symSize: 0x3C0 }
  - { offset: 0xA2B98, size: 0x8, addend: 0x0, symName: '__ZN5alloc11collections5btree3map25IntoIter$LT$K$C$V$C$A$GT$10dying_next17h74ba4dc90cd3bd84E', symObjAddr: 0x407F0, symBinAddr: 0x1000434D0, symSize: 0x3C0 }
  - { offset: 0xA2F04, size: 0x8, addend: 0x0, symName: '__ZN5alloc11collections5btree3map25IntoIter$LT$K$C$V$C$A$GT$10dying_next17h786570e0d2d29ee1E', symObjAddr: 0x40BB0, symBinAddr: 0x100043890, symSize: 0x3C0 }
  - { offset: 0xA3F16, size: 0x8, addend: 0x0, symName: '__ZN5alloc7raw_vec19RawVec$LT$T$C$A$GT$8grow_one17h1578391f1dd2c7daE', symObjAddr: 0x45380, symBinAddr: 0x100047180, symSize: 0xC0 }
  - { offset: 0xA402C, size: 0x8, addend: 0x0, symName: '__ZN5alloc7raw_vec19RawVec$LT$T$C$A$GT$8grow_one17h1a8e605a6c9c7a9cE', symObjAddr: 0x45440, symBinAddr: 0x100047240, symSize: 0xC0 }
  - { offset: 0xA4157, size: 0x8, addend: 0x0, symName: '__ZN5alloc7raw_vec19RawVec$LT$T$C$A$GT$8grow_one17h496d6c99f941dcd8E', symObjAddr: 0x45500, symBinAddr: 0x100047300, symSize: 0xB0 }
  - { offset: 0xA426D, size: 0x8, addend: 0x0, symName: '__ZN5alloc7raw_vec19RawVec$LT$T$C$A$GT$8grow_one17h62d92001f5fd4088E', symObjAddr: 0x455B0, symBinAddr: 0x1000473B0, symSize: 0xC0 }
  - { offset: 0xA4383, size: 0x8, addend: 0x0, symName: '__ZN5alloc7raw_vec19RawVec$LT$T$C$A$GT$8grow_one17h882f0afd17fb4cf1E', symObjAddr: 0x45670, symBinAddr: 0x100047470, symSize: 0xC0 }
  - { offset: 0xA44AE, size: 0x8, addend: 0x0, symName: '__ZN5alloc7raw_vec19RawVec$LT$T$C$A$GT$8grow_one17h9215a3a3eddacbe8E', symObjAddr: 0x45730, symBinAddr: 0x100047530, symSize: 0xC0 }
  - { offset: 0xA45C4, size: 0x8, addend: 0x0, symName: '__ZN5alloc7raw_vec19RawVec$LT$T$C$A$GT$8grow_one17h944deff35e2917e9E', symObjAddr: 0x457F0, symBinAddr: 0x1000475F0, symSize: 0xC0 }
  - { offset: 0xA46EF, size: 0x8, addend: 0x0, symName: '__ZN5alloc7raw_vec19RawVec$LT$T$C$A$GT$8grow_one17h9e141b6ec2b6b304E', symObjAddr: 0x458B0, symBinAddr: 0x1000476B0, symSize: 0xB0 }
  - { offset: 0xA4805, size: 0x8, addend: 0x0, symName: '__ZN5alloc7raw_vec19RawVec$LT$T$C$A$GT$8grow_one17haba969b9d90e429dE', symObjAddr: 0x45960, symBinAddr: 0x100047760, symSize: 0xC0 }
  - { offset: 0xA4930, size: 0x8, addend: 0x0, symName: '__ZN5alloc7raw_vec19RawVec$LT$T$C$A$GT$8grow_one17hea102eabff85231dE', symObjAddr: 0x45AD0, symBinAddr: 0x100047820, symSize: 0xB0 }
  - { offset: 0xA4A46, size: 0x8, addend: 0x0, symName: '__ZN5alloc7raw_vec19RawVec$LT$T$C$A$GT$8grow_one17hf1b3041c36e8ca25E', symObjAddr: 0x45B80, symBinAddr: 0x1000478D0, symSize: 0xB0 }
  - { offset: 0xA4DBC, size: 0x8, addend: 0x0, symName: __ZN5alloc7raw_vec11finish_grow17h446b951c64c58a29E, symObjAddr: 0x45310, symBinAddr: 0x1000699B0, symSize: 0x70 }
  - { offset: 0xA4E48, size: 0x8, addend: 0x0, symName: '__ZN5alloc7raw_vec20RawVecInner$LT$A$GT$7reserve21do_reserve_and_handle17ha31d691a92aa6984E', symObjAddr: 0x45C30, symBinAddr: 0x100069A20, symSize: 0xE0 }
  - { offset: 0xA5100, size: 0x8, addend: 0x0, symName: '__ZN58_$LT$alloc..string..String$u20$as$u20$core..fmt..Debug$GT$3fmt17hc75db25d6de527ebE', symObjAddr: 0x3CEA0, symBinAddr: 0x100042100, symSize: 0x20 }
  - { offset: 0xA51BB, size: 0x8, addend: 0x0, symName: '__ZN58_$LT$alloc..string..String$u20$as$u20$core..fmt..Write$GT$10write_char17hba3be11e36d4a54fE', symObjAddr: 0x3CEC0, symBinAddr: 0x100042120, symSize: 0x120 }
  - { offset: 0xA5341, size: 0x8, addend: 0x0, symName: '__ZN58_$LT$alloc..string..String$u20$as$u20$core..fmt..Write$GT$9write_str17h0e3a6c0844845614E', symObjAddr: 0x3CFE0, symBinAddr: 0x100042240, symSize: 0x70 }
  - { offset: 0xA543B, size: 0x8, addend: 0x0, symName: '__ZN60_$LT$alloc..string..String$u20$as$u20$core..fmt..Display$GT$3fmt17h3ce6768c6f20d89dE', symObjAddr: 0x4EC80, symBinAddr: 0x1000508F0, symSize: 0x20 }
  - { offset: 0xA58E6, size: 0x8, addend: 0x0, symName: '__ZN5alloc4sync16Arc$LT$T$C$A$GT$9drop_slow17h165e22aa5ecb5c14E', symObjAddr: 0x44F90, symBinAddr: 0x100046E70, symSize: 0x90 }
  - { offset: 0xA5BE2, size: 0x8, addend: 0x0, symName: '__ZN5alloc4sync16Arc$LT$T$C$A$GT$9drop_slow17h1b88c69b37654d90E', symObjAddr: 0x45020, symBinAddr: 0x100046F00, symSize: 0xA0 }
  - { offset: 0xA5DEB, size: 0x8, addend: 0x0, symName: '__ZN5alloc4sync16Arc$LT$T$C$A$GT$9drop_slow17h38a2709360a70488E', symObjAddr: 0x450C0, symBinAddr: 0x100046FA0, symSize: 0x60 }
  - { offset: 0xA5FB3, size: 0x8, addend: 0x0, symName: '__ZN5alloc4sync16Arc$LT$T$C$A$GT$9drop_slow17h4fe547a59c8e5f5cE', symObjAddr: 0x45120, symBinAddr: 0x100047000, symSize: 0x30 }
  - { offset: 0xA6094, size: 0x8, addend: 0x0, symName: '__ZN5alloc4sync16Arc$LT$T$C$A$GT$9drop_slow17h5dbc3385cf3806bdE', symObjAddr: 0x45150, symBinAddr: 0x100047030, symSize: 0x70 }
  - { offset: 0xA623A, size: 0x8, addend: 0x0, symName: '__ZN5alloc4sync16Arc$LT$T$C$A$GT$9drop_slow17h6f3c55e925f13c23E', symObjAddr: 0x451C0, symBinAddr: 0x1000470A0, symSize: 0xA0 }
  - { offset: 0xA6E0C, size: 0x8, addend: 0x0, symName: __ZN6object4read7archive13ArchiveMember5parse17hd3e51da29e5488c1E, symObjAddr: 0x53F80, symBinAddr: 0x1000514D0, symSize: 0x350 }
  - { offset: 0xA7563, size: 0x8, addend: 0x0, symName: __ZN6object4read7archive23parse_bsd_extended_name17h1aeb333c92faa5e9E, symObjAddr: 0x542D0, symBinAddr: 0x100051820, symSize: 0xB0 }
  - { offset: 0xA7977, size: 0x8, addend: 0x0, symName: '__ZN9addr2line4unit16ResUnit$LT$R$GT$25find_function_or_location28_$u7b$$u7b$closure$u7d$$u7d$17h74f8b46b09233272E', symObjAddr: 0x5B2C0, symBinAddr: 0x100053760, symSize: 0x2F0 }
  - { offset: 0xA7D1D, size: 0x8, addend: 0x0, symName: '__ZN9addr2line4unit16ResUnit$LT$R$GT$25find_function_or_location17h779b8cc8975ca827E', symObjAddr: 0x5AE20, symBinAddr: 0x1000532C0, symSize: 0x4A0 }
  - { offset: 0xA8248, size: 0x8, addend: 0x0, symName: '__ZN9addr2line16Context$LT$R$GT$9find_unit17hafe5c4000e4dcc90E', symObjAddr: 0x5A630, symBinAddr: 0x100052AD0, symSize: 0x150 }
  - { offset: 0xA842D, size: 0x8, addend: 0x0, symName: '__ZN9addr2line6lookup30LoopingLookup$LT$T$C$L$C$F$GT$10new_lookup17hcb3afea57a5db3abE', symObjAddr: 0x5B900, symBinAddr: 0x100053DA0, symSize: 0x530 }
  - { offset: 0xA8955, size: 0x8, addend: 0x0, symName: __ZN9addr2line4line11render_file17h1c7a4084725a11a9E, symObjAddr: 0x5A780, symBinAddr: 0x100052C20, symSize: 0x6A0 }
  - { offset: 0xA92EB, size: 0x8, addend: 0x0, symName: '__ZN9addr2line8function17Function$LT$R$GT$14parse_children17h1b46ddfba7fb182cE', symObjAddr: 0x5C240, symBinAddr: 0x1000546E0, symSize: 0x1390 }
  - { offset: 0xAA907, size: 0x8, addend: 0x0, symName: __ZN9addr2line8function10name_entry17h5deb9017d935ead1E, symObjAddr: 0x5BE30, symBinAddr: 0x1000542D0, symSize: 0x410 }
  - { offset: 0xAAD63, size: 0x8, addend: 0x0, symName: __ZN9addr2line8function9name_attr17hc5ba8693362fa215E, symObjAddr: 0x5D5D0, symBinAddr: 0x100055A70, symSize: 0x1B0 }
  - { offset: 0xAAF88, size: 0x8, addend: 0x0, symName: '__ZN9addr2line5frame18FrameIter$LT$R$GT$4next17h7dae5ed4e94f9885E', symObjAddr: 0x5B5B0, symBinAddr: 0x100053A50, symSize: 0x350 }
  - { offset: 0xAB83B, size: 0x8, addend: 0x0, symName: '__ZN5gimli4read5dwarf14Dwarf$LT$R$GT$11attr_string17hc5d4d70dcc99f435E', symObjAddr: 0x4CCF0, symBinAddr: 0x10004E960, symSize: 0x210 }
  - { offset: 0xAC058, size: 0x8, addend: 0x0, symName: '__ZN5gimli4read5dwarf13Unit$LT$R$GT$3new17h575ffe3f9752d03fE', symObjAddr: 0x4A4A0, symBinAddr: 0x10004C110, symSize: 0x2850 }
  - { offset: 0xAF5D3, size: 0x8, addend: 0x0, symName: '__ZN5gimli4read7aranges30ArangeHeader$LT$R$C$Offset$GT$5parse17h9e159263f6fe8401E', symObjAddr: 0x4DA20, symBinAddr: 0x10004F690, symSize: 0x2A0 }
  - { offset: 0xB00D6, size: 0x8, addend: 0x0, symName: '__ZN5gimli4read4unit18Attribute$LT$R$GT$5value17h523c462abedaae9bE', symObjAddr: 0x492D0, symBinAddr: 0x10004AF40, symSize: 0x7C0 }
  - { offset: 0xB04E1, size: 0x8, addend: 0x0, symName: '__ZN90_$LT$gimli..read..unit..AttributeValue$LT$R$C$Offset$GT$$u20$as$u20$core..clone..Clone$GT$5clone17h098c211905b07158E', symObjAddr: 0x590A0, symBinAddr: 0x1000521E0, symSize: 0x120 }
  - { offset: 0xB0541, size: 0x8, addend: 0x0, symName: '__ZN5gimli4read4unit32AttributeValue$LT$R$C$Offset$GT$11udata_value17h684c5d824dd1bde2E', symObjAddr: 0x49DC0, symBinAddr: 0x10004BA30, symSize: 0x80 }
  - { offset: 0xB059C, size: 0x8, addend: 0x0, symName: __ZN5gimli4read4unit15parse_attribute17h3d2d3a95c0efe23eE, symObjAddr: 0x47250, symBinAddr: 0x100048EC0, symSize: 0x1960 }
  - { offset: 0xB3937, size: 0x8, addend: 0x0, symName: __ZN5gimli4read4unit15skip_attributes17h92846bd14a53eed5E, symObjAddr: 0x48BB0, symBinAddr: 0x10004A820, symSize: 0x720 }
  - { offset: 0xB4305, size: 0x8, addend: 0x0, symName: '__ZN5gimli4read4unit22EntriesCursor$LT$R$GT$10next_entry17hd847dc3188d94e5bE', symObjAddr: 0x49A90, symBinAddr: 0x10004B700, symSize: 0x330 }
  - { offset: 0xB484C, size: 0x8, addend: 0x0, symName: '__ZN5gimli4read4unit33DebugInfoUnitHeadersIter$LT$R$GT$4next17hed0a8460df0391bfE', symObjAddr: 0x49E40, symBinAddr: 0x10004BAB0, symSize: 0x660 }
  - { offset: 0xB5A29, size: 0x8, addend: 0x0, symName: __ZN5gimli4read6reader6Reader11read_offset17h5a1a189216526f37E, symObjAddr: 0x4D790, symBinAddr: 0x10004F400, symSize: 0xB0 }
  - { offset: 0xB5C66, size: 0x8, addend: 0x0, symName: __ZN5gimli4read6reader6Reader12read_uleb12817hf97552d5eed3df2dE, symObjAddr: 0x4D840, symBinAddr: 0x10004F4B0, symSize: 0xB0 }
  - { offset: 0xB5D14, size: 0x8, addend: 0x0, symName: __ZN5gimli4read6reader6Reader17read_sized_offset17h97b79870f9951699E, symObjAddr: 0x4D8F0, symBinAddr: 0x10004F560, symSize: 0x130 }
  - { offset: 0xB63E4, size: 0x8, addend: 0x0, symName: '__ZN5gimli4read8rnglists20RngListIter$LT$R$GT$4next17h8b60fae141bf2d6cE', symObjAddr: 0x4DCC0, symBinAddr: 0x10004F930, symSize: 0xFC0 }
  - { offset: 0xB8AAC, size: 0x8, addend: 0x0, symName: '__ZN5gimli4read5index18UnitIndex$LT$R$GT$5parse17h95a74f9af645c1edE', symObjAddr: 0x4CF00, symBinAddr: 0x10004EB70, symSize: 0x890 }
  - { offset: 0xB8AC9, size: 0x8, addend: 0x0, symName: '__ZN5gimli4read5index18UnitIndex$LT$R$GT$5parse17h95a74f9af645c1edE', symObjAddr: 0x4CF00, symBinAddr: 0x10004EB70, symSize: 0x890 }
  - { offset: 0xB8ADD, size: 0x8, addend: 0x0, symName: '__ZN5gimli4read5index18UnitIndex$LT$R$GT$5parse17h95a74f9af645c1edE', symObjAddr: 0x4CF00, symBinAddr: 0x10004EB70, symSize: 0x890 }
  - { offset: 0xB91A2, size: 0x8, addend: 0x0, symName: '__ZN5gimli4read4line27FileEntry$LT$R$C$Offset$GT$5parse17hd9bc2270faf33decE', symObjAddr: 0x46FF0, symBinAddr: 0x100048C60, symSize: 0x260 }
  - { offset: 0xB93EE, size: 0x8, addend: 0x0, symName: __ZN5gimli4read4line13parse_file_v517hd02b9988ac8f9c5bE, symObjAddr: 0x45D10, symBinAddr: 0x100047980, symSize: 0x350 }
  - { offset: 0xB9567, size: 0x8, addend: 0x0, symName: __ZN5gimli4read4line15FileEntryFormat5parse17h2a60ff0d29a79605E, symObjAddr: 0x46060, symBinAddr: 0x100047CD0, symSize: 0x3B0 }
  - { offset: 0xB9D01, size: 0x8, addend: 0x0, symName: __ZN5gimli4read4line15parse_attribute17h7d59469e6c7378d7E, symObjAddr: 0x46410, symBinAddr: 0x100048080, symSize: 0xAD0 }
  - { offset: 0xBB706, size: 0x8, addend: 0x0, symName: __ZN5gimli4read4line18parse_directory_v517hb56c57b85d13b5daE, symObjAddr: 0x46EE0, symBinAddr: 0x100048B50, symSize: 0x110 }
  - { offset: 0xBB9BA, size: 0x8, addend: 0x0, symName: __RNvCskdKJRKLKjqM_7___rustc18___rust_start_panic, symObjAddr: 0x0, symBinAddr: 0x100056260, symSize: 0xB0 }
  - { offset: 0xBBA95, size: 0x8, addend: 0x0, symName: __ZN12panic_unwind3imp5panic17exception_cleanup17hb98a4cfa7a07ae95E, symObjAddr: 0x100, symBinAddr: 0x100056360, symSize: 0x20 }
  - { offset: 0xBBAB1, size: 0x8, addend: 0x0, symName: __RNvCskdKJRKLKjqM_7___rustc18___rust_start_panic, symObjAddr: 0x0, symBinAddr: 0x100056260, symSize: 0xB0 }
  - { offset: 0xBBB3B, size: 0x8, addend: 0x0, symName: __RNvCskdKJRKLKjqM_7___rustc20___rust_panic_cleanup, symObjAddr: 0xB0, symBinAddr: 0x100056310, symSize: 0x50 }
  - { offset: 0xBBBDE, size: 0x8, addend: 0x0, symName: '__ZN4core3ptr49drop_in_place$LT$panic_unwind..imp..Exception$GT$17h0f7b2fc4f2fea7f1E', symObjAddr: 0x120, symBinAddr: 0x100056380, symSize: 0x70 }
  - { offset: 0xBBCE5, size: 0x8, addend: 0x0, symName: '__ZN4core3ptr74drop_in_place$LT$alloc..boxed..Box$LT$panic_unwind..imp..Exception$GT$$GT$17hcd43110ac76b9736E', symObjAddr: 0x190, symBinAddr: 0x1000563F0, symSize: 0x89 }
  - { offset: 0xBC12F, size: 0x8, addend: 0x0, symName: __ZN6memchr4arch6x86_646memchr10memchr_raw6detect17h2099730146b20b08E, symObjAddr: 0xF90, symBinAddr: 0x1000567A0, symSize: 0x1C0 }
  - { offset: 0xBC6E4, size: 0x8, addend: 0x0, symName: __ZN6memchr4arch6x86_646memchr10memchr_raw9find_sse217ha1fdf339af5e94d5E, symObjAddr: 0x1150, symBinAddr: 0x100056960, symSize: 0x1B0 }
  - { offset: 0xBCC6F, size: 0x8, addend: 0x0, symName: __ZN6memchr4arch6x86_646memchr11memchr2_raw6detect17h84a70ada683e86a1E, symObjAddr: 0x1300, symBinAddr: 0x100056B10, symSize: 0x1A0 }
  - { offset: 0xBD302, size: 0x8, addend: 0x0, symName: __ZN6memchr4arch6x86_646memchr11memchr2_raw9find_sse217hc70ae4e2a27bbbefE, symObjAddr: 0x14A0, symBinAddr: 0x100056CB0, symSize: 0x1A0 }
  - { offset: 0xBDA63, size: 0x8, addend: 0x0, symName: __ZN9hashbrown3raw11Fallibility17capacity_overflow17hc92e32d4ab7d6e63E, symObjAddr: 0x170, symBinAddr: 0x10005E2E0, symSize: 0x50 }
  - { offset: 0xBDA92, size: 0x8, addend: 0x0, symName: __ZN9hashbrown3raw11Fallibility9alloc_err17h8d4ad82e4949f018E, symObjAddr: 0x1C0, symBinAddr: 0x10005E330, symSize: 0x20 }
  - { offset: 0xBDB24, size: 0x8, addend: 0x0, symName: __ZN4core3fmt5Write9write_fmt17hde1139b32b86906dE, symObjAddr: 0x1A0, symBinAddr: 0x10005E410, symSize: 0x50 }
  - { offset: 0xBDB66, size: 0x8, addend: 0x0, symName: '__ZN53_$LT$core..fmt..Error$u20$as$u20$core..fmt..Debug$GT$3fmt17hc4ce8d9026949125E', symObjAddr: 0x5A0, symBinAddr: 0x10005E480, symSize: 0x20 }
  - { offset: 0xBDCB1, size: 0x8, addend: 0x0, symName: '__ZN69_$LT$core..alloc..layout..LayoutError$u20$as$u20$core..fmt..Debug$GT$3fmt17hb904d59a11340822E', symObjAddr: 0x57F0, symBinAddr: 0x10005EC40, symSize: 0x20 }
  - { offset: 0xBDD26, size: 0x8, addend: 0x0, symName: '__ZN4core3ptr42drop_in_place$LT$alloc..string..String$GT$17hb78d7b2b342e8423E', symObjAddr: 0x210, symBinAddr: 0x10005E460, symSize: 0x20 }
  - { offset: 0xBE0D0, size: 0x8, addend: 0x0, symName: __ZN5alloc5alloc18handle_alloc_error17h3762db9dd870b9a9E, symObjAddr: 0x35BA, symBinAddr: 0x100069C0A, symSize: 0x16 }
  - { offset: 0xBE3A4, size: 0x8, addend: 0x0, symName: __ZN5alloc7raw_vec11finish_grow17h3ef34721aec5e3b7E, symObjAddr: 0x52C0, symBinAddr: 0x100069C20, symSize: 0x6E }
  - { offset: 0xBE419, size: 0x8, addend: 0x0, symName: __ZN5alloc7raw_vec12handle_error17h937a4fa340d4a4b8E, symObjAddr: 0x532E, symBinAddr: 0x100069C8E, symSize: 0x22 }
  - { offset: 0xBE458, size: 0x8, addend: 0x0, symName: __ZN5alloc7raw_vec17capacity_overflow17hfafd9746150329d6E, symObjAddr: 0x5350, symBinAddr: 0x100069CB0, symSize: 0x40 }
  - { offset: 0xBE491, size: 0x8, addend: 0x0, symName: '__ZN5alloc7raw_vec20RawVecInner$LT$A$GT$7reserve21do_reserve_and_handle17h05c0f4d79cdd84bfE', symObjAddr: 0x5430, symBinAddr: 0x100069CF0, symSize: 0xB0 }
  - { offset: 0xBE61D, size: 0x8, addend: 0x0, symName: '__ZN254_$LT$alloc..boxed..convert..$LT$impl$u20$core..convert..From$LT$alloc..string..String$GT$$u20$for$u20$alloc..boxed..Box$LT$dyn$u20$core..error..Error$u2b$core..marker..Sync$u2b$core..marker..Send$GT$$GT$..from..StringError$u20$as$u20$core..fmt..Debug$GT$3fmt17hcf569323b84bf267E', symObjAddr: 0x140, symBinAddr: 0x10005E3D0, symSize: 0x20 }
  - { offset: 0xBE6EE, size: 0x8, addend: 0x0, symName: '__ZN256_$LT$alloc..boxed..convert..$LT$impl$u20$core..convert..From$LT$alloc..string..String$GT$$u20$for$u20$alloc..boxed..Box$LT$dyn$u20$core..error..Error$u2b$core..marker..Sync$u2b$core..marker..Send$GT$$GT$..from..StringError$u20$as$u20$core..fmt..Display$GT$3fmt17h1b1a69dfec465030E', symObjAddr: 0x160, symBinAddr: 0x10005E3F0, symSize: 0x20 }
  - { offset: 0xBE7E1, size: 0x8, addend: 0x0, symName: '__ZN100_$LT$alloc..ffi..c_str..CString$u20$as$u20$core..convert..From$LT$$RF$core..ffi..c_str..CStr$GT$$GT$4from17hc090e98bd546633bE', symObjAddr: 0xC0, symBinAddr: 0x10005E350, symSize: 0x80 }
  - { offset: 0xBE951, size: 0x8, addend: 0x0, symName: __ZN5alloc3ffi5c_str7CString19_from_vec_unchecked17ha526334e500b1abdE, symObjAddr: 0xC50, symBinAddr: 0x10005E610, symSize: 0x120 }
  - { offset: 0xBECA1, size: 0x8, addend: 0x0, symName: __ZN5alloc3ffi5c_str7CString8from_raw17h143e54ce9e8a4932E, symObjAddr: 0xE20, symBinAddr: 0x10005E730, symSize: 0x20 }
  - { offset: 0xBECDA, size: 0x8, addend: 0x0, symName: '__ZN72_$LT$$RF$str$u20$as$u20$alloc..ffi..c_str..CString..new..SpecNewImpl$GT$13spec_new_impl17h86c6e2e3ca147532E', symObjAddr: 0x5810, symBinAddr: 0x10005EC60, symSize: 0x120 }
  - { offset: 0xBF18A, size: 0x8, addend: 0x0, symName: __ZN5alloc6string6String15from_utf8_lossy17h0471d885b3e9b3ebE, symObjAddr: 0x4790, symBinAddr: 0x10005E9D0, symSize: 0x270 }
  - { offset: 0xBF828, size: 0x8, addend: 0x0, symName: '__ZN58_$LT$alloc..string..String$u20$as$u20$core..fmt..Write$GT$10write_char17hba3be11e36d4a54fE', symObjAddr: 0x620, symBinAddr: 0x10005E4A0, symSize: 0x110 }
  - { offset: 0xBF9AE, size: 0x8, addend: 0x0, symName: '__ZN58_$LT$alloc..string..String$u20$as$u20$core..fmt..Write$GT$9write_str17h0e3a6c0844845614E', symObjAddr: 0x730, symBinAddr: 0x10005E5B0, symSize: 0x60 }
  - { offset: 0xBFAB6, size: 0x8, addend: 0x0, symName: '__ZN98_$LT$alloc..string..String$u20$as$u20$core..convert..From$LT$alloc..borrow..Cow$LT$str$GT$$GT$$GT$4from17h1463175ae5508b78E', symObjAddr: 0x61F0, symBinAddr: 0x10005ED80, symSize: 0xAB }
  - { offset: 0xBFCA2, size: 0x8, addend: 0x0, symName: __ZN5alloc3fmt6format12format_inner17h3a5f8b83fd90200fE, symObjAddr: 0xE40, symBinAddr: 0x10005E750, symSize: 0x210 }
  - { offset: 0xBFF19, size: 0x8, addend: 0x0, symName: __ZN5alloc4sync32arcinner_layout_for_value_layout17h6aceeaaa01c07cfaE, symObjAddr: 0x2690, symBinAddr: 0x10005E960, symSize: 0x70 }
  - { offset: 0xBFF30, size: 0x8, addend: 0x0, symName: __ZN5alloc4sync32arcinner_layout_for_value_layout17h6aceeaaa01c07cfaE, symObjAddr: 0x2690, symBinAddr: 0x10005E960, symSize: 0x70 }
  - { offset: 0xBFF45, size: 0x8, addend: 0x0, symName: __ZN5alloc4sync32arcinner_layout_for_value_layout17h6aceeaaa01c07cfaE, symObjAddr: 0x2690, symBinAddr: 0x10005E960, symSize: 0x70 }
  - { offset: 0xC006E, size: 0x8, addend: 0x0, symName: '__ZN71_$LT$core..ops..range..Range$LT$Idx$GT$$u20$as$u20$core..fmt..Debug$GT$3fmt17hc330239f60cc9eb3E', symObjAddr: 0x1F4B0, symBinAddr: 0x100063780, symSize: 0x50 }
  - { offset: 0xC0322, size: 0x8, addend: 0x0, symName: '__ZN4core4char7methods22_$LT$impl$u20$char$GT$16escape_debug_ext17hb449749641e3affeE', symObjAddr: 0x176B0, symBinAddr: 0x100062760, symSize: 0x2D0 }
  - { offset: 0xC0536, size: 0x8, addend: 0x0, symName: __ZN4core4char7methods15encode_utf8_raw8do_panic7runtime17hb720cf973e12fcdfE, symObjAddr: 0x17590, symBinAddr: 0x100069E90, symSize: 0x90 }
  - { offset: 0xC0722, size: 0x8, addend: 0x0, symName: __ZN4core3num22from_ascii_radix_panic8do_panic7runtime17hf55c31c541c87b43E, symObjAddr: 0xD980, symBinAddr: 0x100069DB0, symSize: 0x60 }
  - { offset: 0xC0755, size: 0x8, addend: 0x0, symName: __ZN4core3num22from_ascii_radix_panic17h56065ab58d046821E, symObjAddr: 0xD970, symBinAddr: 0x100069DA0, symSize: 0x10 }
  - { offset: 0xC0A14, size: 0x8, addend: 0x0, symName: __ZN4core6option13expect_failed17h1ec281f12b35982eE, symObjAddr: 0x18040, symBinAddr: 0x10006A100, symSize: 0x60 }
  - { offset: 0xC0A5C, size: 0x8, addend: 0x0, symName: __ZN4core6option13unwrap_failed17hd0abc7d118070f58E, symObjAddr: 0x180A0, symBinAddr: 0x10006A160, symSize: 0x20 }
  - { offset: 0xC0F93, size: 0x8, addend: 0x0, symName: __ZN4core5slice5index16slice_index_fail8do_panic7runtime17h41282b038f05ddfaE, symObjAddr: 0x17D00, symBinAddr: 0x100069FB0, symSize: 0x70 }
  - { offset: 0xC0FC4, size: 0x8, addend: 0x0, symName: __ZN4core5slice5index16slice_index_fail8do_panic7runtime17haaf49c781c78a5c0E, symObjAddr: 0x17D70, symBinAddr: 0x10006A020, symSize: 0x70 }
  - { offset: 0xC0FF5, size: 0x8, addend: 0x0, symName: __ZN4core5slice5index16slice_index_fail8do_panic7runtime17hae4da62edc07a39fE, symObjAddr: 0x17DE0, symBinAddr: 0x10006A090, symSize: 0x70 }
  - { offset: 0xC1028, size: 0x8, addend: 0x0, symName: __ZN4core5slice5index16slice_index_fail17h1a065c4e1a1e0b41E, symObjAddr: 0x17CC0, symBinAddr: 0x100069F70, symSize: 0x40 }
  - { offset: 0xC10D4, size: 0x8, addend: 0x0, symName: __ZN4core5slice6memchr14memchr_aligned17hbe324882bd8e8f20E, symObjAddr: 0x17E50, symBinAddr: 0x100062A90, symSize: 0xE0 }
  - { offset: 0xC11CE, size: 0x8, addend: 0x0, symName: __ZN4core5slice6memchr7memrchr17h3060eb51c807ecd7E, symObjAddr: 0x17F30, symBinAddr: 0x100062B70, symSize: 0x110 }
  - { offset: 0xC13BE, size: 0x8, addend: 0x0, symName: __ZN4core5slice4sort6shared9smallsort22panic_on_ord_violation17hd9a4c3c4a8ebe09aE, symObjAddr: 0x17BA0, symBinAddr: 0x100069F20, symSize: 0x50 }
  - { offset: 0xC13FB, size: 0x8, addend: 0x0, symName: __ZN4core5slice4sort6stable5drift11sqrt_approx17h5b54c8126d8482dbE, symObjAddr: 0x17BF0, symBinAddr: 0x100062A60, symSize: 0x30 }
  - { offset: 0xC14F0, size: 0x8, addend: 0x0, symName: __ZN4core3fmt9Formatter10debug_list17h9d2456a350d67ad8E, symObjAddr: 0xA1C0, symBinAddr: 0x100060700, symSize: 0x40 }
  - { offset: 0xC1530, size: 0x8, addend: 0x0, symName: __ZN4core3fmt9Formatter11debug_tuple17hdcc53271f394ac41E, symObjAddr: 0xA200, symBinAddr: 0x100060740, symSize: 0x50 }
  - { offset: 0xC1585, size: 0x8, addend: 0x0, symName: __ZN4core3fmt9Formatter12debug_struct17h8c9b9889fabaa42eE, symObjAddr: 0xA250, symBinAddr: 0x100060790, symSize: 0x40 }
  - { offset: 0xC15EE, size: 0x8, addend: 0x0, symName: __ZN4core3fmt9Formatter12pad_integral17h5b6fb6906b7fe010E, symObjAddr: 0xA2F0, symBinAddr: 0x100060830, symSize: 0x4A0 }
  - { offset: 0xC187D, size: 0x8, addend: 0x0, symName: __ZN4core3fmt9Formatter25debug_tuple_field1_finish17hc108d765633dc1f9E, symObjAddr: 0xACB0, symBinAddr: 0x100060CD0, symSize: 0x140 }
  - { offset: 0xC1A85, size: 0x8, addend: 0x0, symName: __ZN4core3fmt9Formatter25debug_tuple_field2_finish17h3020954311064adeE, symObjAddr: 0xADF0, symBinAddr: 0x100060E10, symSize: 0x1A0 }
  - { offset: 0xC1D7D, size: 0x8, addend: 0x0, symName: __ZN4core3fmt9Formatter26debug_struct_field1_finish17h161bc6caec1550cdE, symObjAddr: 0xBA70, symBinAddr: 0x100060FB0, symSize: 0xB0 }
  - { offset: 0xC1E54, size: 0x8, addend: 0x0, symName: __ZN4core3fmt9Formatter26debug_struct_field2_finish17h9392189e9ab00f59E, symObjAddr: 0xBB20, symBinAddr: 0x100061060, symSize: 0xD0 }
  - { offset: 0xC1F2B, size: 0x8, addend: 0x0, symName: __ZN4core3fmt9Formatter3pad17h37b5dfd85e2b0428E, symObjAddr: 0xC000, symBinAddr: 0x100061130, symSize: 0x3D0 }
  - { offset: 0xC219D, size: 0x8, addend: 0x0, symName: __ZN4core3fmt9Formatter9write_str17h532155584af4b419E, symObjAddr: 0xC460, symBinAddr: 0x100061500, symSize: 0x20 }
  - { offset: 0xC220D, size: 0x8, addend: 0x0, symName: __ZN4core3fmt8builders11DebugStruct5field17h99bfe0cd343e038aE, symObjAddr: 0x97F0, symBinAddr: 0x1000603B0, symSize: 0x190 }
  - { offset: 0xC2421, size: 0x8, addend: 0x0, symName: __ZN4core3fmt8builders11DebugStruct6finish17h759eca09f088587cE, symObjAddr: 0x9980, symBinAddr: 0x100060540, symSize: 0x60 }
  - { offset: 0xC2549, size: 0x8, addend: 0x0, symName: __ZN4core3fmt8builders10DebugTuple5field17hcff3261d35d211e6E, symObjAddr: 0x9550, symBinAddr: 0x1000601F0, symSize: 0x130 }
  - { offset: 0xC26B7, size: 0x8, addend: 0x0, symName: __ZN4core3fmt8builders10DebugTuple6finish17hee865a46ed84494bE, symObjAddr: 0x9680, symBinAddr: 0x100060320, symSize: 0x90 }
  - { offset: 0xC27F2, size: 0x8, addend: 0x0, symName: __ZN4core3fmt8builders8DebugSet5entry17h9ad4bd41e6760f90E, symObjAddr: 0x9F60, symBinAddr: 0x1000605A0, symSize: 0x120 }
  - { offset: 0xC29D3, size: 0x8, addend: 0x0, symName: __ZN4core3fmt8builders9DebugList6finish17he5544af857123449E, symObjAddr: 0xA180, symBinAddr: 0x1000606C0, symSize: 0x40 }
  - { offset: 0xC2A50, size: 0x8, addend: 0x0, symName: '__ZN68_$LT$core..fmt..builders..PadAdapter$u20$as$u20$core..fmt..Write$GT$10write_char17h8781eb8fef702588E', symObjAddr: 0x1E270, symBinAddr: 0x1000634A0, symSize: 0x60 }
  - { offset: 0xC2A79, size: 0x8, addend: 0x0, symName: '__ZN68_$LT$core..fmt..builders..PadAdapter$u20$as$u20$core..fmt..Write$GT$9write_str17h3ac9bf90fc6b2989E', symObjAddr: 0x1E2D0, symBinAddr: 0x100063500, symSize: 0x280 }
  - { offset: 0xC2CDB, size: 0x8, addend: 0x0, symName: '__ZN57_$LT$core..fmt..Formatter$u20$as$u20$core..fmt..Write$GT$10write_char17h4978b0c667a9d8b0E', symObjAddr: 0x1A5E0, symBinAddr: 0x100063010, symSize: 0x20 }
  - { offset: 0xC2D17, size: 0x8, addend: 0x0, symName: '__ZN40_$LT$str$u20$as$u20$core..fmt..Debug$GT$3fmt17h3cbb4b7bcf7be3d7E', symObjAddr: 0x240, symBinAddr: 0x10005EE30, symSize: 0x3A0 }
  - { offset: 0xC317A, size: 0x8, addend: 0x0, symName: '__ZN41_$LT$char$u20$as$u20$core..fmt..Debug$GT$3fmt17h4e11ed1b5452e387E', symObjAddr: 0x5E0, symBinAddr: 0x10005F1D0, symSize: 0xA0 }
  - { offset: 0xC32A3, size: 0x8, addend: 0x0, symName: '__ZN42_$LT$$RF$T$u20$as$u20$core..fmt..Debug$GT$3fmt17h0f40b67a922b1ec5E', symObjAddr: 0x680, symBinAddr: 0x10005F270, symSize: 0x10 }
  - { offset: 0xC32BE, size: 0x8, addend: 0x0, symName: '__ZN42_$LT$$RF$T$u20$as$u20$core..fmt..Debug$GT$3fmt17h7680cd2a2d1e04fdE', symObjAddr: 0x6B0, symBinAddr: 0x10005F280, symSize: 0x20 }
  - { offset: 0xC32E0, size: 0x8, addend: 0x0, symName: '__ZN42_$LT$$RF$T$u20$as$u20$core..fmt..Debug$GT$3fmt17he2aa20ce460ddad7E', symObjAddr: 0x860, symBinAddr: 0x10005F2A0, symSize: 0x10 }
  - { offset: 0xC3308, size: 0x8, addend: 0x0, symName: '__ZN42_$LT$str$u20$as$u20$core..fmt..Display$GT$3fmt17h83ec9ba80990d67aE', symObjAddr: 0x870, symBinAddr: 0x10005F2B0, symSize: 0x20 }
  - { offset: 0xC3330, size: 0x8, addend: 0x0, symName: '__ZN43_$LT$char$u20$as$u20$core..fmt..Display$GT$3fmt17ha887c9494bff9603E', symObjAddr: 0x8D0, symBinAddr: 0x10005F2D0, symSize: 0xC0 }
  - { offset: 0xC339F, size: 0x8, addend: 0x0, symName: '__ZN44_$LT$$RF$T$u20$as$u20$core..fmt..Display$GT$3fmt17h1fb02a4f1d7d14b9E', symObjAddr: 0x990, symBinAddr: 0x10005F390, symSize: 0x20 }
  - { offset: 0xC3473, size: 0x8, addend: 0x0, symName: '__ZN4core3fmt3num3imp51_$LT$impl$u20$core..fmt..Display$u20$for$u20$u8$GT$3fmt17h1a13e7c6295dbb75E', symObjAddr: 0x2630, symBinAddr: 0x10005F570, symSize: 0xA0 }
  - { offset: 0xC3558, size: 0x8, addend: 0x0, symName: '__ZN4core3fmt3num3imp52_$LT$impl$u20$core..fmt..Display$u20$for$u20$i32$GT$3fmt17h4add2573f547cd42E', symObjAddr: 0x27D0, symBinAddr: 0x10005F610, symSize: 0x120 }
  - { offset: 0xC3678, size: 0x8, addend: 0x0, symName: '__ZN4core3fmt3num3imp52_$LT$impl$u20$core..fmt..Display$u20$for$u20$u32$GT$3fmt17haa57ce01fac3917eE', symObjAddr: 0x2B00, symBinAddr: 0x10005F730, symSize: 0x110 }
  - { offset: 0xC3785, size: 0x8, addend: 0x0, symName: '__ZN4core3fmt3num3imp52_$LT$impl$u20$core..fmt..Display$u20$for$u20$u64$GT$3fmt17h8b8600c70b3a3ac8E', symObjAddr: 0x2C10, symBinAddr: 0x10005F840, symSize: 0x110 }
  - { offset: 0xC38C0, size: 0x8, addend: 0x0, symName: '__ZN4core3fmt3num52_$LT$impl$u20$core..fmt..LowerHex$u20$for$u20$u8$GT$3fmt17h39a52b6e10cf70aeE', symObjAddr: 0x4AE0, symBinAddr: 0x10005FCA0, symSize: 0x70 }
  - { offset: 0xC3951, size: 0x8, addend: 0x0, symName: '__ZN4core3fmt3num52_$LT$impl$u20$core..fmt..UpperHex$u20$for$u20$u8$GT$3fmt17h865b83e01c77f87fE', symObjAddr: 0x4BC0, symBinAddr: 0x10005FD10, symSize: 0x70 }
  - { offset: 0xC39F5, size: 0x8, addend: 0x0, symName: '__ZN4core3fmt3num53_$LT$impl$u20$core..fmt..UpperHex$u20$for$u20$u32$GT$3fmt17he24323287b2084c2E', symObjAddr: 0x5170, symBinAddr: 0x10005FED0, symSize: 0x70 }
  - { offset: 0xC3A86, size: 0x8, addend: 0x0, symName: '__ZN4core3fmt3num53_$LT$impl$u20$core..fmt..LowerHex$u20$for$u20$u64$GT$3fmt17h3112ef8c0abad7d1E', symObjAddr: 0x4F40, symBinAddr: 0x10005FDF0, symSize: 0x70 }
  - { offset: 0xC3B17, size: 0x8, addend: 0x0, symName: '__ZN4core3fmt3num53_$LT$impl$u20$core..fmt..UpperHex$u20$for$u20$u64$GT$3fmt17hf363a6f2e4cad34eE', symObjAddr: 0x51E0, symBinAddr: 0x10005FF40, symSize: 0x70 }
  - { offset: 0xC3B9B, size: 0x8, addend: 0x0, symName: '__ZN4core3fmt3num50_$LT$impl$u20$core..fmt..Debug$u20$for$u20$u64$GT$3fmt17h376bce9b57b8a762E', symObjAddr: 0x3E60, symBinAddr: 0x10005F950, symSize: 0x1A0 }
  - { offset: 0xC3D2F, size: 0x8, addend: 0x0, symName: '__ZN4core3fmt3num52_$LT$impl$u20$core..fmt..Debug$u20$for$u20$usize$GT$3fmt17h4806199c82f902ceE', symObjAddr: 0x48C0, symBinAddr: 0x10005FAF0, symSize: 0x1B0 }
  - { offset: 0xC3EB0, size: 0x8, addend: 0x0, symName: '__ZN4core3fmt3num53_$LT$impl$u20$core..fmt..LowerHex$u20$for$u20$i32$GT$3fmt17hfee837de970427b1E', symObjAddr: 0x4D80, symBinAddr: 0x10005FD80, symSize: 0x70 }
  - { offset: 0xC3F56, size: 0x8, addend: 0x0, symName: '__ZN4core3fmt3num53_$LT$impl$u20$core..fmt..UpperHex$u20$for$u20$i32$GT$3fmt17h26acf60f65152f77E', symObjAddr: 0x5020, symBinAddr: 0x10005FE60, symSize: 0x70 }
  - { offset: 0xC4184, size: 0x8, addend: 0x0, symName: __ZN4core3fmt17pointer_fmt_inner17h97023b135e02a0e7E, symObjAddr: 0x1240, symBinAddr: 0x10005F4D0, symSize: 0xA0 }
  - { offset: 0xC4275, size: 0x8, addend: 0x0, symName: __ZN4core3fmt5Write9write_fmt17h852655db2bea3a71E, symObjAddr: 0x6270, symBinAddr: 0x10005FFB0, symSize: 0x20 }
  - { offset: 0xC42F4, size: 0x8, addend: 0x0, symName: __ZN4core3fmt5write17h32d512c5550f2c71E, symObjAddr: 0x9280, symBinAddr: 0x10005FFD0, symSize: 0x220 }
  - { offset: 0xC44A2, size: 0x8, addend: 0x0, symName: __ZN4core3fmt9Formatter12pad_integral12write_prefix17he3bb54c358307d3fE, symObjAddr: 0xA290, symBinAddr: 0x1000607D0, symSize: 0x60 }
  - { offset: 0xC450A, size: 0x8, addend: 0x0, symName: '__ZN59_$LT$core..fmt..Arguments$u20$as$u20$core..fmt..Display$GT$3fmt17hfd1b80e04662b19aE', symObjAddr: 0x1B480, symBinAddr: 0x100063030, symSize: 0x20 }
  - { offset: 0xC462D, size: 0x8, addend: 0x0, symName: __ZN4core6result13unwrap_failed17h5b5681f5bd639151E, symObjAddr: 0x180C0, symBinAddr: 0x10006A180, symSize: 0x80 }
  - { offset: 0xC48BB, size: 0x8, addend: 0x0, symName: __ZN4core3str5count14do_count_chars17hc493e781e0338f55E, symObjAddr: 0x16370, symBinAddr: 0x1000618C0, symSize: 0x5A0 }
  - { offset: 0xC4D03, size: 0x8, addend: 0x0, symName: __ZN4core3str5count23char_count_general_case17h45b75eff409d0732E, symObjAddr: 0x16910, symBinAddr: 0x100061E60, symSize: 0xB0 }
  - { offset: 0xC4D57, size: 0x8, addend: 0x0, symName: __ZN4core3str5count23char_count_general_case17h45b75eff409d0732E, symObjAddr: 0x16910, symBinAddr: 0x100061E60, symSize: 0xB0 }
  - { offset: 0xC4DD4, size: 0x8, addend: 0x0, symName: __ZN4core3str16slice_error_fail17h7ebf3d4aa8bf503fE, symObjAddr: 0x15DF0, symBinAddr: 0x100069E10, symSize: 0x10 }
  - { offset: 0xC4DEE, size: 0x8, addend: 0x0, symName: __ZN4core3str19slice_error_fail_rt17hfa55243860877ddbE, symObjAddr: 0x15E40, symBinAddr: 0x100061520, symSize: 0x3A0 }
  - { offset: 0xC4FD5, size: 0x8, addend: 0x0, symName: __ZN4core3str7pattern11StrSearcher3new17hfab9aab88f91478aE, symObjAddr: 0x16A00, symBinAddr: 0x100061F10, symSize: 0x640 }
  - { offset: 0xC5295, size: 0x8, addend: 0x0, symName: __ZN4core3str8converts9from_utf817hab685de2f5c40023E, symObjAddr: 0x17250, symBinAddr: 0x100062550, symSize: 0x210 }
  - { offset: 0xC52F0, size: 0x8, addend: 0x0, symName: '__ZN60_$LT$core..str..lossy..Debug$u20$as$u20$core..fmt..Debug$GT$3fmt17h0efb8d0ae8c168dfE', symObjAddr: 0x1BBD0, symBinAddr: 0x100063050, symSize: 0x430 }
  - { offset: 0xC5691, size: 0x8, addend: 0x0, symName: '__ZN87_$LT$core..str..lossy..Utf8Chunks$u20$as$u20$core..iter..traits..iterator..Iterator$GT$4next17hc6bf0146e235ca7cE', symObjAddr: 0x217F0, symBinAddr: 0x1000637D0, symSize: 0x1A0 }
  - { offset: 0xC58A5, size: 0x8, addend: 0x0, symName: __ZN4core3ffi5c_str4CStr19from_bytes_with_nul17h663354f457718412E, symObjAddr: 0xFF0, symBinAddr: 0x10005F3B0, symSize: 0x120 }
  - { offset: 0xC59BB, size: 0x8, addend: 0x0, symName: __ZN4core4cell22panic_already_borrowed8do_panic7runtime17hb02334c284ba6668E, symObjAddr: 0x17470, symBinAddr: 0x100069E30, symSize: 0x60 }
  - { offset: 0xC59EE, size: 0x8, addend: 0x0, symName: __ZN4core4cell22panic_already_borrowed17h380a7ae12b05c21bE, symObjAddr: 0x17460, symBinAddr: 0x100069E20, symSize: 0x10 }
  - { offset: 0xC5A23, size: 0x8, addend: 0x0, symName: '__ZN65_$LT$core..cell..BorrowMutError$u20$as$u20$core..fmt..Display$GT$3fmt17hbdc0278247eb0cacE', symObjAddr: 0x1C610, symBinAddr: 0x100063480, symSize: 0x20 }
  - { offset: 0xC5A73, size: 0x8, addend: 0x0, symName: __ZN4core7unicode12unicode_data15grapheme_extend11lookup_slow17hdcf8fe3bcaa288d6E, symObjAddr: 0x185E0, symBinAddr: 0x100062C80, symSize: 0x100 }
  - { offset: 0xC5C8E, size: 0x8, addend: 0x0, symName: __ZN4core7unicode9printable12is_printable17hc67588a861ee36a9E, symObjAddr: 0x18AB0, symBinAddr: 0x100062D80, symSize: 0x290 }
  - { offset: 0xC5FBF, size: 0x8, addend: 0x0, symName: __ZN4core5alloc6layout6Layout19is_size_align_valid17h9b309ba4c67ddf6eE, symObjAddr: 0x17A30, symBinAddr: 0x100062A30, symSize: 0x30 }
  - { offset: 0xC6009, size: 0x8, addend: 0x0, symName: __ZN4core9panicking11panic_const23panic_const_div_by_zero17h1817bf4a5c63dcf1E, symObjAddr: 0x18D40, symBinAddr: 0x10006A200, symSize: 0x40 }
  - { offset: 0xC6038, size: 0x8, addend: 0x0, symName: __ZN4core9panicking11panic_const23panic_const_rem_by_zero17h66d921d73263a198E, symObjAddr: 0x18DC0, symBinAddr: 0x10006A240, symSize: 0x40 }
  - { offset: 0xC6067, size: 0x8, addend: 0x0, symName: __ZN4core9panicking11panic_const24panic_const_add_overflow17hbc5e9fcbe302c148E, symObjAddr: 0x18E00, symBinAddr: 0x10006A280, symSize: 0x40 }
  - { offset: 0xC6097, size: 0x8, addend: 0x0, symName: __ZN4core9panicking13assert_failed17haff998095acd4f8eE, symObjAddr: 0x192EE, symBinAddr: 0x10006A2CE, symSize: 0x2F }
  - { offset: 0xC60B2, size: 0x8, addend: 0x0, symName: __ZN4core9panicking13assert_failed17hf790c8989ead8b5cE, symObjAddr: 0x1931D, symBinAddr: 0x10006A2FD, symSize: 0x33 }
  - { offset: 0xC60CD, size: 0x8, addend: 0x0, symName: __ZN4core9panicking14panic_nounwind17h4e71c9dba73fe19eE, symObjAddr: 0x19350, symBinAddr: 0x10006A330, symSize: 0x50 }
  - { offset: 0xC60FC, size: 0x8, addend: 0x0, symName: __ZN4core9panicking16panic_in_cleanup17h278dcedb7b834eecE, symObjAddr: 0x19418, symBinAddr: 0x10006A388, symSize: 0x13 }
  - { offset: 0xC6117, size: 0x8, addend: 0x0, symName: __ZN4core9panicking18panic_bounds_check17hd6c879668b498650E, symObjAddr: 0x1942B, symBinAddr: 0x10006A39B, symSize: 0x65 }
  - { offset: 0xC6156, size: 0x8, addend: 0x0, symName: __ZN4core9panicking18panic_nounwind_fmt17h13cf4419fe26bc7eE, symObjAddr: 0x19490, symBinAddr: 0x10006A400, symSize: 0x5B }
  - { offset: 0xC619B, size: 0x8, addend: 0x0, symName: __ZN4core9panicking19assert_failed_inner17h4305f0dee9388e3cE, symObjAddr: 0x194EB, symBinAddr: 0x10006A45B, symSize: 0x127 }
  - { offset: 0xC61D5, size: 0x8, addend: 0x0, symName: __ZN4core9panicking19panic_cannot_unwind17ha66eab6f79487262E, symObjAddr: 0x19612, symBinAddr: 0x10006A582, symSize: 0x1E }
  - { offset: 0xC61F0, size: 0x8, addend: 0x0, symName: __ZN4core9panicking26panic_nounwind_nobacktrace17hb4fbf937932f35e4E, symObjAddr: 0x19630, symBinAddr: 0x10006A5A0, symSize: 0x4D }
  - { offset: 0xC621F, size: 0x8, addend: 0x0, symName: __ZN4core9panicking5panic17hea69a7d4c28c810cE, symObjAddr: 0x19780, symBinAddr: 0x10006A5F0, symSize: 0x50 }
  - { offset: 0xC624E, size: 0x8, addend: 0x0, symName: __ZN4core9panicking9panic_fmt17h46fb0d6076d2bd77E, symObjAddr: 0x197D0, symBinAddr: 0x10006A640, symSize: 0x20 }
...
