---
triple:          'x86_64-apple-darwin'
binary-path:     '/Users/kema/git/rust-serv/target/debug/deps/libdisplaydoc-e8e99e192d0dfe96.dylib'
relocations:
  - { offset: 0x1E, size: 0x8, addend: 0x0, symName: __RINvMs6_NtCsjK30CmJ87bX_9hashbrown3rawINtB6_8RawTableTNtCsaKzlTDPUHDb_11proc_macro25IdentINtNtCslJiobkLta79_5alloc3vec3VecNtNtCsdGrGZaRBwMb_3syn8generics10TraitBoundEEE14reserve_rehashNCINvNtB8_3map11make_hasherBQ_B1p_NtNtNtCsHUR1vrdMJt_3std4hash6random11RandomStateE0ECs3cuHK5hCpJL_10displaydoc, symObjAddr: 0x0, symBinAddr: 0x19FA80, symSize: 0xD50 }
  - { offset: 0x5A, size: 0x8, addend: 0x0, symName: __RNCINvMs6_NtCsjK30CmJ87bX_9hashbrown3rawINtB8_8RawTableTNtCsaKzlTDPUHDb_11proc_macro25IdentINtNtCslJiobkLta79_5alloc3vec3VecNtNtCsdGrGZaRBwMb_3syn8generics10TraitBoundEEE14reserve_rehashNCINvNtBa_3map11make_hasherBS_B1r_NtNtNtCsHUR1vrdMJt_3std4hash6random11RandomStateE0E0Cs3cuHK5hCpJL_10displaydoc, symObjAddr: 0x1B60, symBinAddr: 0x19E0, symSize: 0xB0 }
  - { offset: 0x220, size: 0x8, addend: 0x0, symName: __RNCINvMs6_NtCsjK30CmJ87bX_9hashbrown3rawINtB8_8RawTableTNtCsaKzlTDPUHDb_11proc_macro25IdentINtNtCslJiobkLta79_5alloc3vec3VecNtNtCsdGrGZaRBwMb_3syn8generics10TraitBoundEEE14reserve_rehashNCINvNtBa_3map11make_hasherBS_B1r_NtNtNtCsHUR1vrdMJt_3std4hash6random11RandomStateE0Es_0Cs3cuHK5hCpJL_10displaydoc, symObjAddr: 0x1C10, symBinAddr: 0x1A90, symSize: 0x30 }
  - { offset: 0x27D, size: 0x8, addend: 0x0, symName: __RNCINvMs6_NtCsjK30CmJ87bX_9hashbrown3rawINtB8_8RawTableTNtCsaKzlTDPUHDb_11proc_macro25IdentINtNtCslJiobkLta79_5alloc3vec3VecNtNtCsdGrGZaRBwMb_3syn8generics10TraitBoundEEE24find_or_find_insert_slotNCINvNtBa_3map14equivalent_keyBS_BS_B1r_E0NCINvB3d_11make_hasherBS_B1r_NtNtNtCsHUR1vrdMJt_3std4hash6random11RandomStateE0E0Cs3cuHK5hCpJL_10displaydoc, symObjAddr: 0x1C40, symBinAddr: 0x1AC0, symSize: 0xB0 }
  - { offset: 0xBB5, size: 0x8, addend: 0x0, symName: __RNCINvMsa_NtCsjK30CmJ87bX_9hashbrown3rawNtB8_13RawTableInner14prepare_resizeNtNtCslJiobkLta79_5alloc5alloc6GlobalE0Cs3cuHK5hCpJL_10displaydoc, symObjAddr: 0x1CF0, symBinAddr: 0x1B70, symSize: 0xD0 }
  - { offset: 0xD83, size: 0x8, addend: 0x0, symName: __RNCNvMsa_NtCsjK30CmJ87bX_9hashbrown3rawNtB7_13RawTableInner15rehash_in_place0Cs3cuHK5hCpJL_10displaydoc, symObjAddr: 0x1DC0, symBinAddr: 0x1C40, symSize: 0x250 }
  - { offset: 0x144B, size: 0x8, addend: 0x0, symName: __RNvNtCsjK30CmJ87bX_9hashbrown3raw19capacity_to_bucketsCs3cuHK5hCpJL_10displaydoc, symObjAddr: 0x39B0, symBinAddr: 0x3830, symSize: 0x280 }
  - { offset: 0x1661, size: 0x8, addend: 0x0, symName: __RNvXsB_NtCsjK30CmJ87bX_9hashbrown3rawINtB5_11RawIntoIterTNtCsaKzlTDPUHDb_11proc_macro25IdentINtNtCslJiobkLta79_5alloc3vec3VecNtNtCsdGrGZaRBwMb_3syn8generics10TraitBoundEEENtNtNtCsieiGu2EXtoJ_4core3ops4drop4Drop4dropCs3cuHK5hCpJL_10displaydoc, symObjAddr: 0x3C30, symBinAddr: 0x3AB0, symSize: 0x70 }
  - { offset: 0x16E1, size: 0x8, addend: 0x0, symName: __RNvXsD_NtCsjK30CmJ87bX_9hashbrown3rawINtB5_11RawIntoIterTNtCsaKzlTDPUHDb_11proc_macro25IdentINtNtCslJiobkLta79_5alloc3vec3VecNtNtCsdGrGZaRBwMb_3syn8generics10TraitBoundEEENtNtNtNtCsieiGu2EXtoJ_4core4iter6traits8iterator8Iterator4nextCs3cuHK5hCpJL_10displaydoc, symObjAddr: 0x3CA0, symBinAddr: 0x3B20, symSize: 0x130 }
  - { offset: 0x1878, size: 0x8, addend: 0x0, symName: __RNvXsg_NtCsjK30CmJ87bX_9hashbrown3rawINtB5_8RawTableTNtCsaKzlTDPUHDb_11proc_macro25IdentINtNtCslJiobkLta79_5alloc3vec3VecNtNtCsdGrGZaRBwMb_3syn8generics10TraitBoundEEENtNtNtCsieiGu2EXtoJ_4core3ops4drop4Drop4dropCs3cuHK5hCpJL_10displaydoc, symObjAddr: 0x3DD0, symBinAddr: 0x3C50, symSize: 0x30 }
  - { offset: 0x18BA, size: 0x8, addend: 0x0, symName: __RNvXsh_NtCsjK30CmJ87bX_9hashbrown3rawINtB5_8RawTableTNtCsaKzlTDPUHDb_11proc_macro25IdentINtNtCslJiobkLta79_5alloc3vec3VecNtNtCsdGrGZaRBwMb_3syn8generics10TraitBoundEEENtNtNtNtCsieiGu2EXtoJ_4core4iter6traits7collect12IntoIterator9into_iterCs3cuHK5hCpJL_10displaydoc, symObjAddr: 0x3E00, symBinAddr: 0x3C80, symSize: 0x180 }
  - { offset: 0xD7BD, size: 0x8, addend: 0x0, symName: __RINvMs6_NtCsjK30CmJ87bX_9hashbrown3rawINtB6_8RawTableTNtCsaKzlTDPUHDb_11proc_macro25IdentINtNtCslJiobkLta79_5alloc3vec3VecNtNtCsdGrGZaRBwMb_3syn8generics10TraitBoundEEE14reserve_rehashNCINvNtB8_3map11make_hasherBQ_B1p_NtNtNtCsHUR1vrdMJt_3std4hash6random11RandomStateE0ECs3cuHK5hCpJL_10displaydoc, symObjAddr: 0x0, symBinAddr: 0x19FA80, symSize: 0xD50 }
  - { offset: 0xE290, size: 0x8, addend: 0x0, symName: __RINvMs6_NtCsjK30CmJ87bX_9hashbrown3rawINtB6_8RawTableTNtCsaKzlTDPUHDb_11proc_macro25IdentINtNtCslJiobkLta79_5alloc3vec3VecNtNtCsdGrGZaRBwMb_3syn8generics10TraitBoundEEE24find_or_find_insert_slotNCINvNtB8_3map14equivalent_keyBQ_BQ_B1p_E0NCINvB3b_11make_hasherBQ_B1p_NtNtNtCsHUR1vrdMJt_3std4hash6random11RandomStateE0ECs3cuHK5hCpJL_10displaydoc, symObjAddr: 0xD50, symBinAddr: 0xBD0, symSize: 0x160 }
  - { offset: 0xE485, size: 0x8, addend: 0x0, symName: __RINvMs6_NtCsjK30CmJ87bX_9hashbrown3rawINtB6_8RawTableTNtCsaKzlTDPUHDb_11proc_macro25IdentINtNtCslJiobkLta79_5alloc3vec3VecNtNtCsdGrGZaRBwMb_3syn8generics10TraitBoundEEE7reserveNCINvNtB8_3map11make_hasherBQ_B1p_NtNtNtCsHUR1vrdMJt_3std4hash6random11RandomStateE0ECs3cuHK5hCpJL_10displaydoc, symObjAddr: 0xEB0, symBinAddr: 0xD30, symSize: 0xC0 }
  - { offset: 0xE677, size: 0x8, addend: 0x0, symName: __RINvMsa_NtCsjK30CmJ87bX_9hashbrown3rawNtB6_13RawTableInner13drop_elementsTNtCsaKzlTDPUHDb_11proc_macro25IdentINtNtCslJiobkLta79_5alloc3vec3VecNtNtCsdGrGZaRBwMb_3syn8generics10TraitBoundEEECs3cuHK5hCpJL_10displaydoc, symObjAddr: 0xF70, symBinAddr: 0xDF0, symSize: 0x1D0 }
  - { offset: 0xE9DA, size: 0x8, addend: 0x0, symName: __RINvMsa_NtCsjK30CmJ87bX_9hashbrown3rawNtB6_13RawTableInner16drop_inner_tableTNtCsaKzlTDPUHDb_11proc_macro25IdentINtNtCslJiobkLta79_5alloc3vec3VecNtNtCsdGrGZaRBwMb_3syn8generics10TraitBoundEENtNtB1R_5alloc6GlobalECs3cuHK5hCpJL_10displaydoc, symObjAddr: 0x1140, symBinAddr: 0xFC0, symSize: 0xD0 }
  - { offset: 0xEBD6, size: 0x8, addend: 0x0, symName: __RINvMsa_NtCsjK30CmJ87bX_9hashbrown3rawNtB6_13RawTableInner17new_uninitializedNtNtCslJiobkLta79_5alloc5alloc6GlobalECs3cuHK5hCpJL_10displaydoc, symObjAddr: 0x1210, symBinAddr: 0x1090, symSize: 0x290 }
  - { offset: 0xEE2A, size: 0x8, addend: 0x0, symName: __RINvMsa_NtCsjK30CmJ87bX_9hashbrown3rawNtB6_13RawTableInner22fallible_with_capacityNtNtCslJiobkLta79_5alloc5alloc6GlobalECs3cuHK5hCpJL_10displaydoc, symObjAddr: 0x14A0, symBinAddr: 0x1320, symSize: 0x430 }
  - { offset: 0xF2F3, size: 0x8, addend: 0x0, symName: __RINvMsi_NtCsjK30CmJ87bX_9hashbrown3rawINtB6_12RawIterRangeTNtCsaKzlTDPUHDb_11proc_macro25IdentINtNtCslJiobkLta79_5alloc3vec3VecNtNtCsdGrGZaRBwMb_3syn8generics10TraitBoundEEE9next_implKb0_ECs3cuHK5hCpJL_10displaydoc, symObjAddr: 0x18D0, symBinAddr: 0x1750, symSize: 0x290 }
  - { offset: 0xFAE4, size: 0x8, addend: 0x0, symName: __RNvMs1_NtCsjK30CmJ87bX_9hashbrown3rawNtB5_11TableLayout20calculate_layout_forCs3cuHK5hCpJL_10displaydoc, symObjAddr: 0x2010, symBinAddr: 0x1E90, symSize: 0x2F0 }
  - { offset: 0xFF87, size: 0x8, addend: 0x0, symName: __RNvMs6_NtCsjK30CmJ87bX_9hashbrown3rawINtB5_8RawTableTNtCsaKzlTDPUHDb_11proc_macro25IdentINtNtCslJiobkLta79_5alloc3vec3VecNtNtCsdGrGZaRBwMb_3syn8generics10TraitBoundEEE14insert_in_slotCs3cuHK5hCpJL_10displaydoc, symObjAddr: 0x2300, symBinAddr: 0x2180, symSize: 0x140 }
  - { offset: 0x10310, size: 0x8, addend: 0x0, symName: __RNvMs6_NtCsjK30CmJ87bX_9hashbrown3rawINtB5_8RawTableTNtCsaKzlTDPUHDb_11proc_macro25IdentINtNtCslJiobkLta79_5alloc3vec3VecNtNtCsdGrGZaRBwMb_3syn8generics10TraitBoundEEE14into_iter_fromCs3cuHK5hCpJL_10displaydoc, symObjAddr: 0x2440, symBinAddr: 0x22C0, symSize: 0xA0 }
  - { offset: 0x103EA, size: 0x8, addend: 0x0, symName: __RNvMs6_NtCsjK30CmJ87bX_9hashbrown3rawINtB5_8RawTableTNtCsaKzlTDPUHDb_11proc_macro25IdentINtNtCslJiobkLta79_5alloc3vec3VecNtNtCsdGrGZaRBwMb_3syn8generics10TraitBoundEEE15into_allocationCs3cuHK5hCpJL_10displaydoc, symObjAddr: 0x24E0, symBinAddr: 0x2360, symSize: 0x1A0 }
  - { offset: 0x10613, size: 0x8, addend: 0x0, symName: __RNvMsa_NtCsjK30CmJ87bX_9hashbrown3rawNtB5_13RawTableInner15fix_insert_slotCs3cuHK5hCpJL_10displaydoc, symObjAddr: 0x2680, symBinAddr: 0x2500, symSize: 0x140 }
  - { offset: 0x109AC, size: 0x8, addend: 0x0, symName: __RNvMsa_NtCsjK30CmJ87bX_9hashbrown3rawNtB5_13RawTableInner15rehash_in_placeCs3cuHK5hCpJL_10displaydoc, symObjAddr: 0x27C0, symBinAddr: 0x2640, symSize: 0x5B0 }
  - { offset: 0x11185, size: 0x8, addend: 0x0, symName: __RNvMsa_NtCsjK30CmJ87bX_9hashbrown3rawNtB5_13RawTableInner16find_insert_slotCs3cuHK5hCpJL_10displaydoc, symObjAddr: 0x2D70, symBinAddr: 0x2BF0, symSize: 0x130 }
  - { offset: 0x11384, size: 0x8, addend: 0x0, symName: __RNvMsa_NtCsjK30CmJ87bX_9hashbrown3rawNtB5_13RawTableInner19prepare_insert_slotCs3cuHK5hCpJL_10displaydoc, symObjAddr: 0x2EA0, symBinAddr: 0x2D20, symSize: 0x60 }
  - { offset: 0x11675, size: 0x8, addend: 0x0, symName: __RNvMsa_NtCsjK30CmJ87bX_9hashbrown3rawNtB5_13RawTableInner23prepare_rehash_in_placeCs3cuHK5hCpJL_10displaydoc, symObjAddr: 0x2F00, symBinAddr: 0x2D80, symSize: 0x340 }
  - { offset: 0x11D9C, size: 0x8, addend: 0x0, symName: __RNvMsa_NtCsjK30CmJ87bX_9hashbrown3rawNtB5_13RawTableInner25find_insert_slot_in_groupCs3cuHK5hCpJL_10displaydoc, symObjAddr: 0x3240, symBinAddr: 0x30C0, symSize: 0x160 }
  - { offset: 0x120E2, size: 0x8, addend: 0x0, symName: __RNvMsa_NtCsjK30CmJ87bX_9hashbrown3rawNtB5_13RawTableInner30find_or_find_insert_slot_innerCs3cuHK5hCpJL_10displaydoc, symObjAddr: 0x33A0, symBinAddr: 0x3220, symSize: 0x410 }
  - { offset: 0x12571, size: 0x8, addend: 0x0, symName: __RNvMsi_NtCsjK30CmJ87bX_9hashbrown3rawINtB5_12RawIterRangeTNtCsaKzlTDPUHDb_11proc_macro25IdentINtNtCslJiobkLta79_5alloc3vec3VecNtNtCsdGrGZaRBwMb_3syn8generics10TraitBoundEEE3newCs3cuHK5hCpJL_10displaydoc, symObjAddr: 0x37B0, symBinAddr: 0x3630, symSize: 0x120 }
  - { offset: 0x1286D, size: 0x8, addend: 0x0, symName: __RNvMso_NtCsjK30CmJ87bX_9hashbrown3rawINtB5_7RawIterTNtCsaKzlTDPUHDb_11proc_macro25IdentINtNtCslJiobkLta79_5alloc3vec3VecNtNtCsdGrGZaRBwMb_3syn8generics10TraitBoundEEE13drop_elementsCs3cuHK5hCpJL_10displaydoc, symObjAddr: 0x38D0, symBinAddr: 0x3750, symSize: 0xE0 }
  - { offset: 0x12B1C, size: 0x8, addend: 0x0, symName: __RINvMNtCsieiGu2EXtoJ_4core6optionINtB3_6OptionNtNtCs3cuHK5hCpJL_10displaydoc4attr14VariantDisplayE10ok_or_elseNtNtCsdGrGZaRBwMb_3syn5error5ErrorNCNCNvNtBM_6expand9impl_enums_00EBM_, symObjAddr: 0x0, symBinAddr: 0x3E00, symSize: 0xC0 }
  - { offset: 0x16437, size: 0x8, addend: 0x0, symName: __RNvXs6_NtCsieiGu2EXtoJ_4core6optionINtB5_6OptionQNtNtCsdGrGZaRBwMb_3syn8generics13PredicateTypeENtNtNtNtB7_4iter6traits7collect12IntoIterator9into_iterCs3cuHK5hCpJL_10displaydoc, symObjAddr: 0x36A0, symBinAddr: 0x74A0, symSize: 0x10 }
  - { offset: 0x1646E, size: 0x8, addend: 0x0, symName: __RNvXs6_NtCsieiGu2EXtoJ_4core6optionINtB5_6OptionQNtNtCsdGrGZaRBwMb_3syn8generics14WherePredicateENtNtNtNtB7_4iter6traits7collect12IntoIterator9into_iterCs3cuHK5hCpJL_10displaydoc, symObjAddr: 0x36B0, symBinAddr: 0x74B0, symSize: 0x10 }
  - { offset: 0x164A5, size: 0x8, addend: 0x0, symName: __RNvXs6_NtCsieiGu2EXtoJ_4core6optionINtB5_6OptionRNtNtCsdGrGZaRBwMb_3syn8generics10TraitBoundENtNtNtNtB7_4iter6traits7collect12IntoIterator9into_iterCs3cuHK5hCpJL_10displaydoc, symObjAddr: 0x36C0, symBinAddr: 0x74C0, symSize: 0x10 }
  - { offset: 0x164E2, size: 0x8, addend: 0x0, symName: __RNvXsC_NtCsieiGu2EXtoJ_4core6optionINtB5_6OptionjENtNtNtB7_3ops9try_trait3Try11from_outputCs3cuHK5hCpJL_10displaydoc, symObjAddr: 0x3750, symBinAddr: 0x7550, symSize: 0x20 }
  - { offset: 0x16519, size: 0x8, addend: 0x0, symName: __RNvXsC_NtCsieiGu2EXtoJ_4core6optionINtB5_6OptionjENtNtNtB7_3ops9try_trait3Try6branchCs3cuHK5hCpJL_10displaydoc, symObjAddr: 0x3770, symBinAddr: 0x7570, symSize: 0x40 }
  - { offset: 0x16574, size: 0x8, addend: 0x0, symName: __RNvXsD_NtCsieiGu2EXtoJ_4core6optionINtB5_6OptionjEINtNtNtB7_3ops9try_trait12FromResidualIBy_NtNtB7_7convert10InfallibleEE13from_residualCs3cuHK5hCpJL_10displaydoc, symObjAddr: 0x37B0, symBinAddr: 0x75B0, symSize: 0x10 }
  - { offset: 0x16673, size: 0x8, addend: 0x0, symName: __RNvXsP_NtCsieiGu2EXtoJ_4core6optionINtB5_8IntoIterRNtNtCsdGrGZaRBwMb_3syn4data7VariantENtNtB7_5clone5Clone5cloneCs3cuHK5hCpJL_10displaydoc, symObjAddr: 0x37C0, symBinAddr: 0x75C0, symSize: 0x60 }
  - { offset: 0x1671E, size: 0x8, addend: 0x0, symName: __RNvXsP_NtCsieiGu2EXtoJ_4core6optionINtB5_8IntoIterRNtNtCsdGrGZaRBwMb_3syn8generics14WherePredicateENtNtB7_5clone5Clone5cloneCs3cuHK5hCpJL_10displaydoc, symObjAddr: 0x3820, symBinAddr: 0x7620, symSize: 0x60 }
  - { offset: 0x167CF, size: 0x8, addend: 0x0, symName: __RNvXsd_NtCsieiGu2EXtoJ_4core6optionINtB5_6OptionRNtCsaKzlTDPUHDb_11proc_macro25IdentENtNtB7_3cmp9PartialEq2eqCs3cuHK5hCpJL_10displaydoc, symObjAddr: 0x3AF0, symBinAddr: 0x78F0, symSize: 0xB0 }
  - { offset: 0x16A5E, size: 0x8, addend: 0x0, symName: __RNvXsw_NtCsieiGu2EXtoJ_4core6optionINtB5_8IntoIterQNtNtCsdGrGZaRBwMb_3syn8generics13PredicateTypeENtNtNtNtB7_4iter6traits8iterator8Iterator4nextCs3cuHK5hCpJL_10displaydoc, symObjAddr: 0x4070, symBinAddr: 0x7E70, symSize: 0x20 }
  - { offset: 0x16AD6, size: 0x8, addend: 0x0, symName: __RNvXsw_NtCsieiGu2EXtoJ_4core6optionINtB5_8IntoIterQNtNtCsdGrGZaRBwMb_3syn8generics14WherePredicateENtNtNtNtB7_4iter6traits8iterator8Iterator4nextCs3cuHK5hCpJL_10displaydoc, symObjAddr: 0x4090, symBinAddr: 0x7E90, symSize: 0x20 }
  - { offset: 0x16B4E, size: 0x8, addend: 0x0, symName: __RNvXsw_NtCsieiGu2EXtoJ_4core6optionINtB5_8IntoIterQNtNtCsdGrGZaRBwMb_3syn8generics14WherePredicateENtNtNtNtB7_4iter6traits8iterator8Iterator9size_hintCs3cuHK5hCpJL_10displaydoc, symObjAddr: 0x40B0, symBinAddr: 0x7EB0, symSize: 0x30 }
  - { offset: 0x16BC6, size: 0x8, addend: 0x0, symName: __RNvXsw_NtCsieiGu2EXtoJ_4core6optionINtB5_8IntoIterRNtNtCsdGrGZaRBwMb_3syn4data7VariantENtNtNtNtB7_4iter6traits8iterator8Iterator9size_hintCs3cuHK5hCpJL_10displaydoc, symObjAddr: 0x40E0, symBinAddr: 0x7EE0, symSize: 0x30 }
  - { offset: 0x16C3E, size: 0x8, addend: 0x0, symName: __RNvXsw_NtCsieiGu2EXtoJ_4core6optionINtB5_8IntoIterRNtNtCsdGrGZaRBwMb_3syn8generics10TraitBoundENtNtNtNtB7_4iter6traits8iterator8Iterator4nextCs3cuHK5hCpJL_10displaydoc, symObjAddr: 0x4110, symBinAddr: 0x7F10, symSize: 0x20 }
  - { offset: 0x16CB6, size: 0x8, addend: 0x0, symName: __RNvXsw_NtCsieiGu2EXtoJ_4core6optionINtB5_8IntoIterRNtNtCsdGrGZaRBwMb_3syn8generics14WherePredicateENtNtNtNtB7_4iter6traits8iterator8Iterator9size_hintCs3cuHK5hCpJL_10displaydoc, symObjAddr: 0x4130, symBinAddr: 0x7F30, symSize: 0x30 }
  - { offset: 0x17841, size: 0x8, addend: 0x0, symName: __RNvMNtCsieiGu2EXtoJ_4core5sliceSINtNtB4_6option6OptionNtNtCs3cuHK5hCpJL_10displaydoc4attr14VariantDisplayE4iterBU_, symObjAddr: 0x1620, symBinAddr: 0x5420, symSize: 0x20 }
  - { offset: 0x17EC4, size: 0x8, addend: 0x0, symName: __RNvXsn_NtNtNtCsieiGu2EXtoJ_4core4iter8adapters7flattenINtNtBb_6option6OptionRNtNtCsdGrGZaRBwMb_3syn8generics10TraitBoundENtB5_21ConstSizeIntoIterator4sizeCs3cuHK5hCpJL_10displaydoc, symObjAddr: 0x3EC0, symBinAddr: 0x7CC0, symSize: 0x20 }
  - { offset: 0x17F81, size: 0x8, addend: 0x0, symName: __RNvYINtNtCsieiGu2EXtoJ_4core6option8IntoIterQNtNtCsdGrGZaRBwMb_3syn8generics14WherePredicateENtNtNtNtB7_4iter6traits10exact_size17ExactSizeIterator3lenCs3cuHK5hCpJL_10displaydoc, symObjAddr: 0x4160, symBinAddr: 0x7F60, symSize: 0xE0 }
  - { offset: 0x18081, size: 0x8, addend: 0x0, symName: __RNvYINtNtCsieiGu2EXtoJ_4core6option8IntoIterRNtNtCsdGrGZaRBwMb_3syn4data7VariantENtNtNtNtB7_4iter6traits10exact_size17ExactSizeIterator3lenCs3cuHK5hCpJL_10displaydoc, symObjAddr: 0x4240, symBinAddr: 0x8040, symSize: 0xE0 }
  - { offset: 0x18181, size: 0x8, addend: 0x0, symName: __RNvYINtNtCsieiGu2EXtoJ_4core6option8IntoIterRNtNtCsdGrGZaRBwMb_3syn8generics14WherePredicateENtNtNtNtB7_4iter6traits10exact_size17ExactSizeIterator3lenCs3cuHK5hCpJL_10displaydoc, symObjAddr: 0x4320, symBinAddr: 0x8120, symSize: 0xE0 }
  - { offset: 0x1865A, size: 0x8, addend: 0x0, symName: __RNvNvMNtNtCsieiGu2EXtoJ_4core5alloc6layoutNtB4_6Layout25from_size_align_unchecked18precondition_checkCs3cuHK5hCpJL_10displaydoc, symObjAddr: 0x21F0, symBinAddr: 0x5FF0, symSize: 0xB0 }
  - { offset: 0x188E1, size: 0x8, addend: 0x0, symName: __RNvNvNtCsieiGu2EXtoJ_4core9ub_checks23maybe_is_nonoverlapping7runtimeCs3cuHK5hCpJL_10displaydoc, symObjAddr: 0x2340, symBinAddr: 0x6140, symSize: 0xC0 }
  - { offset: 0x19036, size: 0x8, addend: 0x0, symName: __RNvXNtNtCscKtU6MdFI5n_10proc_macro6bridge3rpcuINtB2_6EncodeuE6encodeCs3cuHK5hCpJL_10displaydoc, symObjAddr: 0x2430, symBinAddr: 0x6230, symSize: 0x10 }
  - { offset: 0x1910F, size: 0x8, addend: 0x0, symName: __RNvXsa_NtNtCscKtU6MdFI5n_10proc_macro6bridge3rpcRShINtB5_6EncodeuE6encodeCs3cuHK5hCpJL_10displaydoc, symObjAddr: 0x39F0, symBinAddr: 0x77F0, symSize: 0xD0 }
  - { offset: 0x19217, size: 0x8, addend: 0x0, symName: __RNvXsc_NtNtCscKtU6MdFI5n_10proc_macro6bridge3rpcReINtB5_6EncodeuE6encodeCs3cuHK5hCpJL_10displaydoc, symObjAddr: 0x3AC0, symBinAddr: 0x78C0, symSize: 0x30 }
  - { offset: 0x192FF, size: 0x8, addend: 0x0, symName: __RNvXsl_NtNtCscKtU6MdFI5n_10proc_macro6bridge3rpcNtB5_12PanicMessageINtB5_6EncodeuE6encodeCs3cuHK5hCpJL_10displaydoc, symObjAddr: 0x3CE0, symBinAddr: 0x7AE0, symSize: 0x130 }
  - { offset: 0x194CF, size: 0x8, addend: 0x0, symName: __RNvXso_NtNtCscKtU6MdFI5n_10proc_macro6bridge3rpcmINtB5_9DecodeMutuE6decodeCs3cuHK5hCpJL_10displaydoc, symObjAddr: 0x3EE0, symBinAddr: 0x7CE0, symSize: 0x140 }
  - { offset: 0x196B5, size: 0x8, addend: 0x0, symName: __RNvXsR_NtCscKtU6MdFI5n_10proc_macro6bridgeINtNtCsieiGu2EXtoJ_4core6option6OptionNtNtB5_6client11TokenStreamEINtNtB5_3rpc6EncodeuE6encodeCs3cuHK5hCpJL_10displaydoc, symObjAddr: 0x3880, symBinAddr: 0x7680, symSize: 0xB0 }
  - { offset: 0x1975B, size: 0x8, addend: 0x0, symName: __RNvXsR_NtCscKtU6MdFI5n_10proc_macro6bridgeINtNtCsieiGu2EXtoJ_4core6option6OptionReEINtNtB5_3rpc6EncodeuE6encodeCs3cuHK5hCpJL_10displaydoc, symObjAddr: 0x3930, symBinAddr: 0x7730, symSize: 0xC0 }
  - { offset: 0x1F043, size: 0x8, addend: 0x0, symName: __RNvXss_NtCslJiobkLta79_5alloc6stringNtB5_6StringNtNtNtCsieiGu2EXtoJ_4core3ops5deref5Deref5derefCs3cuHK5hCpJL_10displaydoc, symObjAddr: 0x4050, symBinAddr: 0x7E50, symSize: 0x20 }
  - { offset: 0x1F077, size: 0x8, addend: 0x0, symName: __RINvXsn_NtCslJiobkLta79_5alloc6stringNtB6_6StringNtNtCsieiGu2EXtoJ_4core4hash4Hash4hashNtNtNtCsHUR1vrdMJt_3std4hash6random13DefaultHasherECs3cuHK5hCpJL_10displaydoc, symObjAddr: 0x15A0, symBinAddr: 0x53A0, symSize: 0x80 }
  - { offset: 0x1F228, size: 0x8, addend: 0x0, symName: __RNvXsp_NtCslJiobkLta79_5alloc6stringNtB5_6StringINtNtNtCsieiGu2EXtoJ_4core3ops5arith9AddAssignReE10add_assignCs3cuHK5hCpJL_10displaydoc, symObjAddr: 0x4020, symBinAddr: 0x7E20, symSize: 0x30 }
  - { offset: 0x20413, size: 0x8, addend: 0x0, symName: __RINvXsd_NtCslJiobkLta79_5alloc3vecINtB6_3VecINtNtCsieiGu2EXtoJ_4core6option6OptionNtNtCs3cuHK5hCpJL_10displaydoc4attr14VariantDisplayEEINtNtNtNtBL_4iter6traits7collect12FromIteratorBG_E9from_iterINtNtB2g_8adapters12GenericShuntINtNtB3a_3map3MapINtNtCsdGrGZaRBwMb_3syn10punctuated4IterNtNtB3Z_4data7VariantENCNvNtB1m_6expand9impl_enum0EINtNtBL_6result6ResultNtNtBL_7convert10InfallibleNtNtB3Z_5error5ErrorEEEB1m_, symObjAddr: 0x1440, symBinAddr: 0x5240, symSize: 0x40 }
  - { offset: 0x20454, size: 0x8, addend: 0x0, symName: __RINvXsd_NtCslJiobkLta79_5alloc3vecINtB6_3VecNtCsaKzlTDPUHDb_11proc_macro211TokenStreamEINtNtNtNtCsieiGu2EXtoJ_4core4iter6traits7collect12FromIteratorBG_E9from_iterINtNtB1u_8adapters12GenericShuntINtNtB2E_3map3MapINtNtB2E_3zip3ZipINtNtCsdGrGZaRBwMb_3syn10punctuated4IterNtNtB3K_4data7VariantEINtNtB6_9into_iter8IntoIterINtNtB1w_6option6OptionNtNtCs3cuHK5hCpJL_10displaydoc4attr14VariantDisplayEEENCNvNtB5x_6expand9impl_enums_0EINtNtB1w_6result6ResultNtNtB1w_7convert10InfallibleNtNtB3K_5error5ErrorEEEB5x_, symObjAddr: 0x1480, symBinAddr: 0x5280, symSize: 0x40 }
  - { offset: 0x20495, size: 0x8, addend: 0x0, symName: __RINvXsd_NtCslJiobkLta79_5alloc3vecINtB6_3VecNtNtCsdGrGZaRBwMb_3syn8generics10TraitBoundEINtNtNtNtCsieiGu2EXtoJ_4core4iter6traits7collect12FromIteratorBG_E9from_iterINtNtNtB1v_8adapters6cloned6ClonedINtNtB2H_7flatten7FlatMapINtNtBK_10punctuated4IterNtBI_14TypeParamBoundEINtNtB1x_6option6OptionRBG_ENCNCNvNtCs3cuHK5hCpJL_10displaydoc6expand37extract_trait_constraints_from_source00EEEB4U_, symObjAddr: 0x14C0, symBinAddr: 0x52C0, symSize: 0x40 }
  - { offset: 0x204D6, size: 0x8, addend: 0x0, symName: __RINvXsd_NtCslJiobkLta79_5alloc3vecINtB6_3VecRNtNtCsdGrGZaRBwMb_3syn8generics9TypeParamEINtNtNtNtCsieiGu2EXtoJ_4core4iter6traits7collect12FromIteratorBG_E9from_iterNtBJ_10TypeParamsECs3cuHK5hCpJL_10displaydoc, symObjAddr: 0x1500, symBinAddr: 0x5300, symSize: 0x60 }
  - { offset: 0x20516, size: 0x8, addend: 0x0, symName: __RINvXsd_NtCslJiobkLta79_5alloc3vecINtB6_3VecReEINtNtNtNtCsieiGu2EXtoJ_4core4iter6traits7collect12FromIteratorBG_E9from_iterINtNtNtBQ_8adapters3map3MapNtNtNtBS_3str4iter5LinesNCNvMs0_NtCs3cuHK5hCpJL_10displaydoc4attrNtB2U_11AttrsHelper7displays0_0EEB2W_, symObjAddr: 0x1560, symBinAddr: 0x5360, symSize: 0x40 }
  - { offset: 0x20562, size: 0x8, addend: 0x0, symName: __RNvNvMs_NtCslJiobkLta79_5alloc3vecINtB6_3VecppE7set_len18precondition_checkCs3cuHK5hCpJL_10displaydoc, symObjAddr: 0x22A0, symBinAddr: 0x60A0, symSize: 0xA0 }
  - { offset: 0x205D6, size: 0x8, addend: 0x0, symName: __RNvXNtNtCslJiobkLta79_5alloc3vec11spec_extendINtB4_3VecINtNtCsieiGu2EXtoJ_4core6option6OptionNtNtCs3cuHK5hCpJL_10displaydoc4attr14VariantDisplayEEINtB2_10SpecExtendBR_INtNtNtBW_4iter8adapters12GenericShuntINtNtB2I_3map3MapINtNtCsdGrGZaRBwMb_3syn10punctuated4IterNtNtB3D_4data7VariantENCNvNtB1x_6expand9impl_enum0EINtNtBW_6result6ResultNtNtBW_7convert10InfallibleNtNtB3D_5error5ErrorEEE11spec_extendB1x_, symObjAddr: 0x2440, symBinAddr: 0x6240, symSize: 0x20 }
  - { offset: 0x20628, size: 0x8, addend: 0x0, symName: __RNvXNtNtCslJiobkLta79_5alloc3vec11spec_extendINtB4_3VecNtCsaKzlTDPUHDb_11proc_macro211TokenStreamEINtB2_10SpecExtendBR_INtNtNtCsieiGu2EXtoJ_4core4iter8adapters12GenericShuntINtNtB1W_3map3MapINtNtB1W_3zip3ZipINtNtCsdGrGZaRBwMb_3syn10punctuated4IterNtNtB3o_4data7VariantEINtNtB4_9into_iter8IntoIterINtNtB20_6option6OptionNtNtCs3cuHK5hCpJL_10displaydoc4attr14VariantDisplayEEENCNvNtB5b_6expand9impl_enums_0EINtNtB20_6result6ResultNtNtB20_7convert10InfallibleNtNtB3o_5error5ErrorEEE11spec_extendB5b_, symObjAddr: 0x2460, symBinAddr: 0x6260, symSize: 0x20 }
  - { offset: 0x2067A, size: 0x8, addend: 0x0, symName: __RNvXNtNtCslJiobkLta79_5alloc3vec11spec_extendINtB4_3VecNtNtCsdGrGZaRBwMb_3syn8generics10TraitBoundEINtB2_10SpecExtendBR_INtNtNtNtCsieiGu2EXtoJ_4core4iter8adapters6cloned6ClonedINtNtB1Z_7flatten7FlatMapINtNtBV_10punctuated4IterNtBT_14TypeParamBoundEINtNtB23_6option6OptionRBR_ENCNCNvNtCs3cuHK5hCpJL_10displaydoc6expand37extract_trait_constraints_from_source00EEE11spec_extendB4y_, symObjAddr: 0x2480, symBinAddr: 0x6280, symSize: 0x20 }
  - { offset: 0x206CC, size: 0x8, addend: 0x0, symName: __RNvXNtNtCslJiobkLta79_5alloc3vec11spec_extendINtB4_3VecRNtNtCsdGrGZaRBwMb_3syn8generics9TypeParamEINtB2_10SpecExtendBR_NtBU_10TypeParamsE11spec_extendCs3cuHK5hCpJL_10displaydoc, symObjAddr: 0x24A0, symBinAddr: 0x62A0, symSize: 0x20 }
  - { offset: 0x2071D, size: 0x8, addend: 0x0, symName: __RNvXNtNtCslJiobkLta79_5alloc3vec11spec_extendINtB4_3VecReEINtB2_10SpecExtendBR_INtNtNtNtCsieiGu2EXtoJ_4core4iter8adapters3map3MapNtNtNtB1o_3str4iter5LinesNCNvMs0_NtCs3cuHK5hCpJL_10displaydoc4attrNtB2A_11AttrsHelper7displays0_0EE11spec_extendB2C_, symObjAddr: 0x24C0, symBinAddr: 0x62C0, symSize: 0x20 }
  - { offset: 0x2077B, size: 0x8, addend: 0x0, symName: __RNvXNtNtCslJiobkLta79_5alloc3vec14spec_from_iterINtB4_3VecINtNtCsieiGu2EXtoJ_4core6option6OptionNtNtCs3cuHK5hCpJL_10displaydoc4attr14VariantDisplayEEINtB2_12SpecFromIterBU_INtNtNtBZ_4iter8adapters12GenericShuntINtNtB2N_3map3MapINtNtCsdGrGZaRBwMb_3syn10punctuated4IterNtNtB3I_4data7VariantENCNvNtB1A_6expand9impl_enum0EINtNtBZ_6result6ResultNtNtBZ_7convert10InfallibleNtNtB3I_5error5ErrorEEE9from_iterB1A_, symObjAddr: 0x24E0, symBinAddr: 0x62E0, symSize: 0x20 }
  - { offset: 0x207BA, size: 0x8, addend: 0x0, symName: __RNvXNtNtCslJiobkLta79_5alloc3vec14spec_from_iterINtB4_3VecNtCsaKzlTDPUHDb_11proc_macro211TokenStreamEINtB2_12SpecFromIterBU_INtNtNtCsieiGu2EXtoJ_4core4iter8adapters12GenericShuntINtNtB21_3map3MapINtNtB21_3zip3ZipINtNtCsdGrGZaRBwMb_3syn10punctuated4IterNtNtB3t_4data7VariantEINtNtB4_9into_iter8IntoIterINtNtB25_6option6OptionNtNtCs3cuHK5hCpJL_10displaydoc4attr14VariantDisplayEEENCNvNtB5g_6expand9impl_enums_0EINtNtB25_6result6ResultNtNtB25_7convert10InfallibleNtNtB3t_5error5ErrorEEE9from_iterB5g_, symObjAddr: 0x2500, symBinAddr: 0x6300, symSize: 0x20 }
  - { offset: 0x207F9, size: 0x8, addend: 0x0, symName: __RNvXNtNtCslJiobkLta79_5alloc3vec14spec_from_iterINtB4_3VecNtNtCsdGrGZaRBwMb_3syn8generics10TraitBoundEINtB2_12SpecFromIterBU_INtNtNtNtCsieiGu2EXtoJ_4core4iter8adapters6cloned6ClonedINtNtB24_7flatten7FlatMapINtNtBY_10punctuated4IterNtBW_14TypeParamBoundEINtNtB28_6option6OptionRBU_ENCNCNvNtCs3cuHK5hCpJL_10displaydoc6expand37extract_trait_constraints_from_source00EEE9from_iterB4D_, symObjAddr: 0x2520, symBinAddr: 0x6320, symSize: 0x20 }
  - { offset: 0x20838, size: 0x8, addend: 0x0, symName: __RNvXNtNtCslJiobkLta79_5alloc3vec14spec_from_iterINtB4_3VecRNtNtCsdGrGZaRBwMb_3syn8generics9TypeParamEINtB2_12SpecFromIterBU_NtBX_10TypeParamsE9from_iterCs3cuHK5hCpJL_10displaydoc, symObjAddr: 0x2540, symBinAddr: 0x6340, symSize: 0x30 }
  - { offset: 0x20876, size: 0x8, addend: 0x0, symName: __RNvXNtNtCslJiobkLta79_5alloc3vec14spec_from_iterINtB4_3VecReEINtB2_12SpecFromIterBU_INtNtNtNtCsieiGu2EXtoJ_4core4iter8adapters3map3MapNtNtNtB1t_3str4iter5LinesNCNvMs0_NtCs3cuHK5hCpJL_10displaydoc4attrNtB2F_11AttrsHelper7displays0_0EE9from_iterB2H_, symObjAddr: 0x2570, symBinAddr: 0x6370, symSize: 0x20 }
  - { offset: 0x208C1, size: 0x8, addend: 0x0, symName: __RNvXNtNtCslJiobkLta79_5alloc3vec21spec_from_iter_nestedINtB4_3VecINtNtCsieiGu2EXtoJ_4core6option6OptionNtNtCs3cuHK5hCpJL_10displaydoc4attr14VariantDisplayEEINtB2_18SpecFromIterNestedB11_INtNtNtB16_4iter8adapters12GenericShuntINtNtB31_3map3MapINtNtCsdGrGZaRBwMb_3syn10punctuated4IterNtNtB3X_4data7VariantENCNvNtB1H_6expand9impl_enum0EINtNtB16_6result6ResultNtNtB16_7convert10InfallibleNtNtB3X_5error5ErrorEEE9from_iterB1H_, symObjAddr: 0x2590, symBinAddr: 0x6390, symSize: 0x350 }
  - { offset: 0x20B76, size: 0x8, addend: 0x0, symName: __RNvXNtNtCslJiobkLta79_5alloc3vec21spec_from_iter_nestedINtB4_3VecNtCsaKzlTDPUHDb_11proc_macro211TokenStreamEINtB2_18SpecFromIterNestedB11_INtNtNtCsieiGu2EXtoJ_4core4iter8adapters12GenericShuntINtNtB2f_3map3MapINtNtB2f_3zip3ZipINtNtCsdGrGZaRBwMb_3syn10punctuated4IterNtNtB3H_4data7VariantEINtNtB4_9into_iter8IntoIterINtNtB2j_6option6OptionNtNtCs3cuHK5hCpJL_10displaydoc4attr14VariantDisplayEEENCNvNtB5u_6expand9impl_enums_0EINtNtB2j_6result6ResultNtNtB2j_7convert10InfallibleNtNtB3H_5error5ErrorEEE9from_iterB5u_, symObjAddr: 0x28E0, symBinAddr: 0x66E0, symSize: 0x380 }
  - { offset: 0x20E2B, size: 0x8, addend: 0x0, symName: __RNvXNtNtCslJiobkLta79_5alloc3vec21spec_from_iter_nestedINtB4_3VecNtNtCsdGrGZaRBwMb_3syn8generics10TraitBoundEINtB2_18SpecFromIterNestedB11_INtNtNtNtCsieiGu2EXtoJ_4core4iter8adapters6cloned6ClonedINtNtB2i_7flatten7FlatMapINtNtB15_10punctuated4IterNtB13_14TypeParamBoundEINtNtB2m_6option6OptionRB11_ENCNCNvNtCs3cuHK5hCpJL_10displaydoc6expand37extract_trait_constraints_from_source00EEE9from_iterB4U_, symObjAddr: 0x2C60, symBinAddr: 0x6A60, symSize: 0x360 }
  - { offset: 0x210E0, size: 0x8, addend: 0x0, symName: __RNvXNtNtCslJiobkLta79_5alloc3vec21spec_from_iter_nestedINtB4_3VecRNtNtCsdGrGZaRBwMb_3syn8generics9TypeParamEINtB2_18SpecFromIterNestedB11_NtB14_10TypeParamsE9from_iterCs3cuHK5hCpJL_10displaydoc, symObjAddr: 0x2FC0, symBinAddr: 0x6DC0, symSize: 0x300 }
  - { offset: 0x21398, size: 0x8, addend: 0x0, symName: __RNvXNtNtCslJiobkLta79_5alloc3vec21spec_from_iter_nestedINtB4_3VecReEINtB2_18SpecFromIterNestedB11_INtNtNtNtCsieiGu2EXtoJ_4core4iter8adapters3map3MapNtNtNtB1H_3str4iter5LinesNCNvMs0_NtCs3cuHK5hCpJL_10displaydoc4attrNtB2T_11AttrsHelper7displays0_0EE9from_iterB2V_, symObjAddr: 0x32C0, symBinAddr: 0x70C0, symSize: 0x340 }
  - { offset: 0x21659, size: 0x8, addend: 0x0, symName: __RNvXs6_NtCslJiobkLta79_5alloc3vecINtB5_3VecINtNtCsieiGu2EXtoJ_4core6option6OptionNtNtCs3cuHK5hCpJL_10displaydoc4attr14VariantDisplayEENtNtNtBK_3ops5deref5Deref5derefB1l_, symObjAddr: 0x36D0, symBinAddr: 0x74D0, symSize: 0x20 }
  - { offset: 0x21699, size: 0x8, addend: 0x0, symName: __RNvXs6_NtCslJiobkLta79_5alloc3vecINtB5_3VecNtCsaKzlTDPUHDb_11proc_macro211TokenStreamENtNtNtCsieiGu2EXtoJ_4core3ops5deref5Deref5derefCs3cuHK5hCpJL_10displaydoc, symObjAddr: 0x36F0, symBinAddr: 0x74F0, symSize: 0x20 }
  - { offset: 0x216D9, size: 0x8, addend: 0x0, symName: __RNvXs6_NtCslJiobkLta79_5alloc3vecINtB5_3VecRNtNtCsdGrGZaRBwMb_3syn8generics9TypeParamENtNtNtCsieiGu2EXtoJ_4core3ops5deref5Deref5derefCs3cuHK5hCpJL_10displaydoc, symObjAddr: 0x3710, symBinAddr: 0x7510, symSize: 0x20 }
  - { offset: 0x2171F, size: 0x8, addend: 0x0, symName: __RNvXs7_NtCslJiobkLta79_5alloc3vecINtB5_3VecTNtNtCsdGrGZaRBwMb_3syn8generics14WherePredicateNtNtBK_5token5CommaEENtNtNtCsieiGu2EXtoJ_4core3ops5deref8DerefMut9deref_mutCs3cuHK5hCpJL_10displaydoc, symObjAddr: 0x3730, symBinAddr: 0x7530, symSize: 0x20 }
  - { offset: 0x21765, size: 0x8, addend: 0x0, symName: __RNvXse_NtCslJiobkLta79_5alloc3vecINtB5_3VecINtNtCsieiGu2EXtoJ_4core6option6OptionNtNtCs3cuHK5hCpJL_10displaydoc4attr14VariantDisplayEENtNtNtNtBK_4iter6traits7collect12IntoIterator9into_iterB1l_, symObjAddr: 0x3BA0, symBinAddr: 0x79A0, symSize: 0x140 }
  - { offset: 0x219FB, size: 0x8, addend: 0x0, symName: __RNvXsn_NtCslJiobkLta79_5alloc3vecINtB5_3VecINtNtCsieiGu2EXtoJ_4core6option6OptionNtNtCs3cuHK5hCpJL_10displaydoc4attr14VariantDisplayEENtNtNtBK_3ops4drop4Drop4dropB1l_, symObjAddr: 0x3E10, symBinAddr: 0x7C10, symSize: 0x30 }
  - { offset: 0x21AAB, size: 0x8, addend: 0x0, symName: __RNvXsn_NtCslJiobkLta79_5alloc3vecINtB5_3VecNtCsaKzlTDPUHDb_11proc_macro211TokenStreamENtNtNtCsieiGu2EXtoJ_4core3ops4drop4Drop4dropCs3cuHK5hCpJL_10displaydoc, symObjAddr: 0x3E40, symBinAddr: 0x7C40, symSize: 0x30 }
  - { offset: 0x21B5B, size: 0x8, addend: 0x0, symName: __RNvXsn_NtCslJiobkLta79_5alloc3vecINtB5_3VecNtNtCsdGrGZaRBwMb_3syn8generics10TraitBoundENtNtNtCsieiGu2EXtoJ_4core3ops4drop4Drop4dropCs3cuHK5hCpJL_10displaydoc, symObjAddr: 0x3E70, symBinAddr: 0x7C70, symSize: 0x30 }
  - { offset: 0x21C0B, size: 0x8, addend: 0x0, symName: __RNvXsn_NtCslJiobkLta79_5alloc3vecINtB5_3VecRNtNtCsdGrGZaRBwMb_3syn8generics9TypeParamENtNtNtCsieiGu2EXtoJ_4core3ops4drop4Drop4dropCs3cuHK5hCpJL_10displaydoc, symObjAddr: 0x3EA0, symBinAddr: 0x7CA0, symSize: 0x20 }
  - { offset: 0x22B97, size: 0x8, addend: 0x0, symName: __RNvNtCslJiobkLta79_5alloc3fmt6formatCs3cuHK5hCpJL_10displaydoc, symObjAddr: 0x2130, symBinAddr: 0x5F30, symSize: 0xC0 }
  - { offset: 0x2311A, size: 0x8, addend: 0x0, symName: __RINvMNtCsieiGu2EXtoJ_4core6optionINtB3_6OptionNtNtCs3cuHK5hCpJL_10displaydoc4attr14VariantDisplayE10ok_or_elseNtNtCsdGrGZaRBwMb_3syn5error5ErrorNCNCNvNtBM_6expand9impl_enums_00EBM_, symObjAddr: 0x0, symBinAddr: 0x3E00, symSize: 0xC0 }
  - { offset: 0x23187, size: 0x8, addend: 0x0, symName: __RINvMNtCsieiGu2EXtoJ_4core6optionINtB3_6OptionNtNtCs3cuHK5hCpJL_10displaydoc4attr7DisplayE3mapNtBK_14VariantDisplayNCNvMs0_BK_NtBK_11AttrsHelper18display_with_input0EBM_, symObjAddr: 0xC0, symBinAddr: 0x3EC0, symSize: 0xF0 }
  - { offset: 0x23250, size: 0x8, addend: 0x0, symName: __RINvMNtCsieiGu2EXtoJ_4core6optionINtB3_6OptionNtNtCs3cuHK5hCpJL_10displaydoc4attr7DisplayE3mapNtCsaKzlTDPUHDb_11proc_macro211TokenStreamNCNvNtBM_6expand11impl_struct0EBM_, symObjAddr: 0x1B0, symBinAddr: 0x3FB0, symSize: 0xF0 }
  - { offset: 0x232FB, size: 0x8, addend: 0x0, symName: __RINvMNtCsieiGu2EXtoJ_4core6optionINtB3_6OptionNtNtCsdGrGZaRBwMb_3syn8generics11WhereClauseE14unwrap_or_elseNvNtCs3cuHK5hCpJL_10displaydoc6expand22new_empty_where_clauseEB1L_, symObjAddr: 0x2A0, symBinAddr: 0x40A0, symSize: 0x70 }
  - { offset: 0x23390, size: 0x8, addend: 0x0, symName: __RINvMNtCsieiGu2EXtoJ_4core6optionINtB3_6OptionQINtNtCslJiobkLta79_5alloc5boxed3BoxNtNtCsdGrGZaRBwMb_3syn8generics14WherePredicateEE3mapQB1i_NvYBJ_INtNtB5_7convert5AsMutB1i_E6as_mutECs3cuHK5hCpJL_10displaydoc, symObjAddr: 0x310, symBinAddr: 0x4110, symSize: 0x50 }
  - { offset: 0x23408, size: 0x8, addend: 0x0, symName: __RINvMNtCsieiGu2EXtoJ_4core6optionINtB3_6OptionQNtNtCsdGrGZaRBwMb_3syn8generics14WherePredicateE7or_elseNCNvXsF_NtBN_10punctuatedINtB1L_14PrivateIterMutBJ_NtNtBN_5token5CommaENtNtNtNtB5_4iter6traits8iterator8Iterator4nexts_0ECs3cuHK5hCpJL_10displaydoc, symObjAddr: 0x360, symBinAddr: 0x4160, symSize: 0x90 }
  - { offset: 0x2349E, size: 0x8, addend: 0x0, symName: __RINvMNtCsieiGu2EXtoJ_4core6optionINtB3_6OptionQNtNtCsdGrGZaRBwMb_3syn8generics14WherePredicateE7or_elseNCNvXsG_NtBN_10punctuatedINtB1L_14PrivateIterMutBJ_NtNtBN_5token5CommaENtNtNtNtB5_4iter6traits12double_ended19DoubleEndedIterator9next_back0ECs3cuHK5hCpJL_10displaydoc, symObjAddr: 0x3F0, symBinAddr: 0x41F0, symSize: 0x90 }
  - { offset: 0x23500, size: 0x8, addend: 0x0, symName: __RINvMNtCsieiGu2EXtoJ_4core6optionINtB3_6OptionQTNtNtCsdGrGZaRBwMb_3syn8generics14WherePredicateNtNtBO_5token5CommaEE3mapQBK_NCNCNvXsG_NtBO_10punctuatedINtB28_14PrivateIterMutBK_B1v_ENtNtNtNtB5_4iter6traits12double_ended19DoubleEndedIterator9next_back00ECs3cuHK5hCpJL_10displaydoc, symObjAddr: 0x480, symBinAddr: 0x4280, symSize: 0x50 }
  - { offset: 0x2356B, size: 0x8, addend: 0x0, symName: __RINvMNtCsieiGu2EXtoJ_4core6optionINtB3_6OptionQTNtNtCsdGrGZaRBwMb_3syn8generics14WherePredicateNtNtBO_5token5CommaEE3mapQBK_NCNvXsF_NtBO_10punctuatedINtB26_14PrivateIterMutBK_B1v_ENtNtNtNtB5_4iter6traits8iterator8Iterator4next0ECs3cuHK5hCpJL_10displaydoc, symObjAddr: 0x4D0, symBinAddr: 0x42D0, symSize: 0x50 }
  - { offset: 0x235E3, size: 0x8, addend: 0x0, symName: __RINvMNtCsieiGu2EXtoJ_4core6optionINtB3_6OptionRNtNtCsdGrGZaRBwMb_3syn4data7VariantE7or_elseNCNvXsw_NtBN_10punctuatedINtB1z_11PrivateIterBJ_NtNtBN_5token5CommaENtNtNtNtB5_4iter6traits8iterator8Iterator4nexts_0ECs3cuHK5hCpJL_10displaydoc, symObjAddr: 0x520, symBinAddr: 0x4320, symSize: 0x90 }
  - { offset: 0x2366C, size: 0x8, addend: 0x0, symName: __RINvMNtCsieiGu2EXtoJ_4core6optionINtB3_6OptionRNtNtCsdGrGZaRBwMb_3syn4data7VariantE7or_elseNCNvXsx_NtBN_10punctuatedINtB1z_11PrivateIterBJ_NtNtBN_5token5CommaENtNtNtNtB5_4iter6traits12double_ended19DoubleEndedIterator9next_back0ECs3cuHK5hCpJL_10displaydoc, symObjAddr: 0x5B0, symBinAddr: 0x43B0, symSize: 0x90 }
  - { offset: 0x236E8, size: 0x8, addend: 0x0, symName: __RINvMNtCsieiGu2EXtoJ_4core6optionINtB3_6OptionRNtNtCsdGrGZaRBwMb_3syn8generics14WherePredicateE7or_elseNCNvXsw_NtBN_10punctuatedINtB1L_11PrivateIterBJ_NtNtBN_5token5CommaENtNtNtNtB5_4iter6traits8iterator8Iterator4nexts_0ECs3cuHK5hCpJL_10displaydoc, symObjAddr: 0x640, symBinAddr: 0x4440, symSize: 0x90 }
  - { offset: 0x23764, size: 0x8, addend: 0x0, symName: __RINvMNtCsieiGu2EXtoJ_4core6optionINtB3_6OptionRNtNtCsdGrGZaRBwMb_3syn8generics14WherePredicateE7or_elseNCNvXsx_NtBN_10punctuatedINtB1L_11PrivateIterBJ_NtNtBN_5token5CommaENtNtNtNtB5_4iter6traits12double_ended19DoubleEndedIterator9next_back0ECs3cuHK5hCpJL_10displaydoc, symObjAddr: 0x6D0, symBinAddr: 0x44D0, symSize: 0x90 }
  - { offset: 0x237C6, size: 0x8, addend: 0x0, symName: __RINvMNtCsieiGu2EXtoJ_4core6optionINtB3_6OptionRTNtNtCsdGrGZaRBwMb_3syn4data7VariantNtNtBO_5token5CommaEE3mapRBK_NCNCNvXsx_NtBO_10punctuatedINtB1W_11PrivateIterBK_B1j_ENtNtNtNtB5_4iter6traits12double_ended19DoubleEndedIterator9next_back00ECs3cuHK5hCpJL_10displaydoc, symObjAddr: 0x760, symBinAddr: 0x4560, symSize: 0x50 }
  - { offset: 0x23831, size: 0x8, addend: 0x0, symName: __RINvMNtCsieiGu2EXtoJ_4core6optionINtB3_6OptionRTNtNtCsdGrGZaRBwMb_3syn4data7VariantNtNtBO_5token5CommaEE3mapRBK_NCNvXsw_NtBO_10punctuatedINtB1U_11PrivateIterBK_B1j_ENtNtNtNtB5_4iter6traits8iterator8Iterator4next0ECs3cuHK5hCpJL_10displaydoc, symObjAddr: 0x7B0, symBinAddr: 0x45B0, symSize: 0x50 }
  - { offset: 0x2389C, size: 0x8, addend: 0x0, symName: __RINvMNtCsieiGu2EXtoJ_4core6optionINtB3_6OptionRTNtNtCsdGrGZaRBwMb_3syn8generics14WherePredicateNtNtBO_5token5CommaEE3mapRBK_NCNCNvXsx_NtBO_10punctuatedINtB28_11PrivateIterBK_B1v_ENtNtNtNtB5_4iter6traits12double_ended19DoubleEndedIterator9next_back00ECs3cuHK5hCpJL_10displaydoc, symObjAddr: 0x800, symBinAddr: 0x4600, symSize: 0x50 }
  - { offset: 0x23907, size: 0x8, addend: 0x0, symName: __RINvMNtCsieiGu2EXtoJ_4core6optionINtB3_6OptionRTNtNtCsdGrGZaRBwMb_3syn8generics14WherePredicateNtNtBO_5token5CommaEE3mapRBK_NCNvXsw_NtBO_10punctuatedINtB26_11PrivateIterBK_B1v_ENtNtNtNtB5_4iter6traits8iterator8Iterator4next0ECs3cuHK5hCpJL_10displaydoc, symObjAddr: 0x850, symBinAddr: 0x4650, symSize: 0x50 }
  - { offset: 0x23B89, size: 0x8, addend: 0x0, symName: __RINvMsi_NtCslJiobkLta79_5alloc3vecINtB6_3VecINtNtCsieiGu2EXtoJ_4core6option6OptionNtNtCs3cuHK5hCpJL_10displaydoc4attr14VariantDisplayEE16extend_desugaredINtNtNtBL_4iter8adapters12GenericShuntINtNtB2u_3map3MapINtNtCsdGrGZaRBwMb_3syn10punctuated4IterNtNtB3p_4data7VariantENCNvNtB1m_6expand9impl_enum0EINtNtBL_6result6ResultNtNtBL_7convert10InfallibleNtNtB3p_5error5ErrorEEEB1m_, symObjAddr: 0x8A0, symBinAddr: 0x46A0, symSize: 0x250 }
  - { offset: 0x23FDE, size: 0x8, addend: 0x0, symName: __RINvMsi_NtCslJiobkLta79_5alloc3vecINtB6_3VecNtCsaKzlTDPUHDb_11proc_macro211TokenStreamE16extend_desugaredINtNtNtCsieiGu2EXtoJ_4core4iter8adapters12GenericShuntINtNtB1I_3map3MapINtNtB1I_3zip3ZipINtNtCsdGrGZaRBwMb_3syn10punctuated4IterNtNtB3a_4data7VariantEINtNtB6_9into_iter8IntoIterINtNtB1M_6option6OptionNtNtCs3cuHK5hCpJL_10displaydoc4attr14VariantDisplayEEENCNvNtB4X_6expand9impl_enums_0EINtNtB1M_6result6ResultNtNtB1M_7convert10InfallibleNtNtB3a_5error5ErrorEEEB4X_, symObjAddr: 0xAF0, symBinAddr: 0x48F0, symSize: 0x290 }
  - { offset: 0x2446E, size: 0x8, addend: 0x0, symName: __RINvMsi_NtCslJiobkLta79_5alloc3vecINtB6_3VecNtNtCsdGrGZaRBwMb_3syn8generics10TraitBoundE16extend_desugaredINtNtNtNtCsieiGu2EXtoJ_4core4iter8adapters6cloned6ClonedINtNtB1L_7flatten7FlatMapINtNtBK_10punctuated4IterNtBI_14TypeParamBoundEINtNtB1P_6option6OptionRBG_ENCNCNvNtCs3cuHK5hCpJL_10displaydoc6expand37extract_trait_constraints_from_source00EEEB4k_, symObjAddr: 0xD80, symBinAddr: 0x4B80, symSize: 0x250 }
  - { offset: 0x248FE, size: 0x8, addend: 0x0, symName: __RINvMsi_NtCslJiobkLta79_5alloc3vecINtB6_3VecRNtNtCsdGrGZaRBwMb_3syn8generics9TypeParamE16extend_desugaredNtBJ_10TypeParamsECs3cuHK5hCpJL_10displaydoc, symObjAddr: 0xFD0, symBinAddr: 0x4DD0, symSize: 0x230 }
  - { offset: 0x24D61, size: 0x8, addend: 0x0, symName: __RINvMsi_NtCslJiobkLta79_5alloc3vecINtB6_3VecReE16extend_desugaredINtNtNtNtCsieiGu2EXtoJ_4core4iter8adapters3map3MapNtNtNtB1a_3str4iter5LinesNCNvMs0_NtCs3cuHK5hCpJL_10displaydoc4attrNtB2m_11AttrsHelper7displays0_0EEB2o_, symObjAddr: 0x1200, symBinAddr: 0x5000, symSize: 0x240 }
  - { offset: 0x2514E, size: 0x8, addend: 0x0, symName: __RNvMNtCsieiGu2EXtoJ_4core6optionINtB2_6OptionINtNtCslJiobkLta79_5alloc5boxed3BoxNtNtCsdGrGZaRBwMb_3syn8generics14WherePredicateEE6as_mutCs3cuHK5hCpJL_10displaydoc, symObjAddr: 0x1640, symBinAddr: 0x5440, symSize: 0x50 }
  - { offset: 0x25198, size: 0x8, addend: 0x0, symName: __RNvMNtCsieiGu2EXtoJ_4core6optionINtB2_6OptionNtCsaKzlTDPUHDb_11proc_macro24SpanE2orCs3cuHK5hCpJL_10displaydoc, symObjAddr: 0x1690, symBinAddr: 0x5490, symSize: 0x60 }
  - { offset: 0x251FE, size: 0x8, addend: 0x0, symName: __RNvMNtCsieiGu2EXtoJ_4core6optionINtB2_6OptionNtNtCs3cuHK5hCpJL_10displaydoc4attr14VariantDisplayE7is_someBL_, symObjAddr: 0x16F0, symBinAddr: 0x54F0, symSize: 0x30 }
  - { offset: 0x2522A, size: 0x8, addend: 0x0, symName: __RNvMNtCsieiGu2EXtoJ_4core6optionINtB2_6OptionNtNtCs3cuHK5hCpJL_10displaydoc4attr7DisplayE6expectBL_, symObjAddr: 0x1720, symBinAddr: 0x5520, symSize: 0x80 }
  - { offset: 0x25276, size: 0x8, addend: 0x0, symName: __RNvMNtCslJiobkLta79_5alloc6stringNtB2_6String3newCs3cuHK5hCpJL_10displaydoc, symObjAddr: 0x17A0, symBinAddr: 0x55A0, symSize: 0x40 }
  - { offset: 0x25428, size: 0x8, addend: 0x0, symName: __RNvMNtCslJiobkLta79_5alloc6stringNtB2_6String4pushCs3cuHK5hCpJL_10displaydoc, symObjAddr: 0x17E0, symBinAddr: 0x55E0, symSize: 0x130 }
  - { offset: 0x256F1, size: 0x8, addend: 0x0, symName: __RNvMNtCslJiobkLta79_5alloc6stringNtB2_6String6as_strCs3cuHK5hCpJL_10displaydoc, symObjAddr: 0x1910, symBinAddr: 0x5710, symSize: 0x60 }
  - { offset: 0x258BF, size: 0x8, addend: 0x0, symName: __RNvMNtCslJiobkLta79_5alloc6stringNtB2_6String8push_strCs3cuHK5hCpJL_10displaydoc, symObjAddr: 0x1970, symBinAddr: 0x5770, symSize: 0x50 }
  - { offset: 0x25A07, size: 0x8, addend: 0x0, symName: __RNvMNtNtNtCsieiGu2EXtoJ_4core4iter8adapters7step_byINtB2_6StepByINtNtNtB8_3ops5range5RangejEE3newCs3cuHK5hCpJL_10displaydoc, symObjAddr: 0x19C0, symBinAddr: 0x57C0, symSize: 0xD0 }
  - { offset: 0x25A5D, size: 0x8, addend: 0x0, symName: __RNvMs0_NtCsieiGu2EXtoJ_4core6optionINtB5_6OptionRNtNtCsdGrGZaRBwMb_3syn8generics11WhereClauseE6clonedCs3cuHK5hCpJL_10displaydoc, symObjAddr: 0x1A90, symBinAddr: 0x5890, symSize: 0x70 }
  - { offset: 0x25BD7, size: 0x8, addend: 0x0, symName: __RNvMs_NtCslJiobkLta79_5alloc3vecINtB4_3VecINtNtCsieiGu2EXtoJ_4core6option6OptionNtNtCs3cuHK5hCpJL_10displaydoc4attr14VariantDisplayEE7reserveB1k_, symObjAddr: 0x1B00, symBinAddr: 0x5900, symSize: 0xB0 }
  - { offset: 0x25DDB, size: 0x8, addend: 0x0, symName: __RNvMs_NtCslJiobkLta79_5alloc3vecINtB4_3VecINtNtCsieiGu2EXtoJ_4core6option6OptionNtNtCs3cuHK5hCpJL_10displaydoc4attr14VariantDisplayEE8as_sliceB1k_, symObjAddr: 0x1BB0, symBinAddr: 0x59B0, symSize: 0x50 }
  - { offset: 0x25FAB, size: 0x8, addend: 0x0, symName: __RNvMs_NtCslJiobkLta79_5alloc3vecINtB4_3VecNtCsaKzlTDPUHDb_11proc_macro211TokenStreamE7reserveCs3cuHK5hCpJL_10displaydoc, symObjAddr: 0x1C00, symBinAddr: 0x5A00, symSize: 0xB0 }
  - { offset: 0x261AF, size: 0x8, addend: 0x0, symName: __RNvMs_NtCslJiobkLta79_5alloc3vecINtB4_3VecNtCsaKzlTDPUHDb_11proc_macro211TokenStreamE8as_sliceCs3cuHK5hCpJL_10displaydoc, symObjAddr: 0x1CB0, symBinAddr: 0x5AB0, symSize: 0x50 }
  - { offset: 0x26269, size: 0x8, addend: 0x0, symName: __RNvMs_NtCslJiobkLta79_5alloc3vecINtB4_3VecNtNtCsdGrGZaRBwMb_3syn8generics10TraitBoundE4pushCs3cuHK5hCpJL_10displaydoc, symObjAddr: 0x1D00, symBinAddr: 0x5B00, symSize: 0x20 }
  - { offset: 0x263C4, size: 0x8, addend: 0x0, symName: __RNvMs_NtCslJiobkLta79_5alloc3vecINtB4_3VecNtNtCsdGrGZaRBwMb_3syn8generics10TraitBoundE7reserveCs3cuHK5hCpJL_10displaydoc, symObjAddr: 0x1D20, symBinAddr: 0x5B20, symSize: 0xB0 }
  - { offset: 0x26556, size: 0x8, addend: 0x0, symName: __RNvMs_NtCslJiobkLta79_5alloc3vecINtB4_3VecNtNtCsdGrGZaRBwMb_3syn8generics10TraitBoundE8is_emptyCs3cuHK5hCpJL_10displaydoc, symObjAddr: 0x1DD0, symBinAddr: 0x5BD0, symSize: 0x20 }
  - { offset: 0x26695, size: 0x8, addend: 0x0, symName: __RNvMs_NtCslJiobkLta79_5alloc3vecINtB4_3VecNtNtCsdGrGZaRBwMb_3syn8generics10TraitBoundE8push_mutCs3cuHK5hCpJL_10displaydoc, symObjAddr: 0x1DF0, symBinAddr: 0x5BF0, symSize: 0x130 }
  - { offset: 0x26960, size: 0x8, addend: 0x0, symName: __RNvMs_NtCslJiobkLta79_5alloc3vecINtB4_3VecRNtNtCsdGrGZaRBwMb_3syn8generics9TypeParamE7reserveCs3cuHK5hCpJL_10displaydoc, symObjAddr: 0x1F20, symBinAddr: 0x5D20, symSize: 0xB0 }
  - { offset: 0x26B64, size: 0x8, addend: 0x0, symName: __RNvMs_NtCslJiobkLta79_5alloc3vecINtB4_3VecRNtNtCsdGrGZaRBwMb_3syn8generics9TypeParamE8as_sliceCs3cuHK5hCpJL_10displaydoc, symObjAddr: 0x1FD0, symBinAddr: 0x5DD0, symSize: 0x50 }
  - { offset: 0x26D34, size: 0x8, addend: 0x0, symName: __RNvMs_NtCslJiobkLta79_5alloc3vecINtB4_3VecReE7reserveCs3cuHK5hCpJL_10displaydoc, symObjAddr: 0x2020, symBinAddr: 0x5E20, symSize: 0xB0 }
  - { offset: 0x26EAE, size: 0x8, addend: 0x0, symName: __RNvMs_NtCslJiobkLta79_5alloc3vecINtB4_3VecTNtNtCsdGrGZaRBwMb_3syn4data7VariantNtNtBJ_5token5CommaEE3lenCs3cuHK5hCpJL_10displaydoc, symObjAddr: 0x20D0, symBinAddr: 0x5ED0, symSize: 0x10 }
  - { offset: 0x26FA4, size: 0x8, addend: 0x0, symName: __RNvMs_NtCslJiobkLta79_5alloc3vecINtB4_3VecTNtNtCsdGrGZaRBwMb_3syn8generics14WherePredicateNtNtBJ_5token5CommaEE12as_mut_sliceCs3cuHK5hCpJL_10displaydoc, symObjAddr: 0x20E0, symBinAddr: 0x5EE0, symSize: 0x50 }
  - { offset: 0x27215, size: 0x8, addend: 0x0, symName: __RNvXNtCs9OU1sGv5X54_5quote9to_tokensRINtNtCsieiGu2EXtoJ_4core6option6OptionNtCsaKzlTDPUHDb_11proc_macro25IdentENtB2_8ToTokens9to_tokensCs3cuHK5hCpJL_10displaydoc, symObjAddr: 0x2400, symBinAddr: 0x6200, symSize: 0x30 }
  - { offset: 0x2725A, size: 0x8, addend: 0x0, symName: __RNvXs3_NtCs9OU1sGv5X54_5quote9to_tokensINtNtCsieiGu2EXtoJ_4core6option6OptionNtCsaKzlTDPUHDb_11proc_macro211TokenStreamENtB5_8ToTokens9to_tokensCs3cuHK5hCpJL_10displaydoc, symObjAddr: 0x3600, symBinAddr: 0x7400, symSize: 0x70 }
  - { offset: 0x272C7, size: 0x8, addend: 0x0, symName: __RNvXs4_NtNtCs9OU1sGv5X54_5quote9___private3extINtNtCslJiobkLta79_5alloc3vec3VecNtCsaKzlTDPUHDb_11proc_macro211TokenStreamENtB5_16RepAsIteratorExt15quote_into_iterCs3cuHK5hCpJL_10displaydoc, symObjAddr: 0x3670, symBinAddr: 0x7470, symSize: 0x30 }
  - { offset: 0x28287, size: 0x8, addend: 0x0, symName: __RINvNtNtCsieiGu2EXtoJ_4core4iter8adapters11try_processINtNtB2_3map3MapINtNtB2_3zip3ZipINtNtCsdGrGZaRBwMb_3syn10punctuated4IterNtNtB1r_4data7VariantEINtNtNtCslJiobkLta79_5alloc3vec9into_iter8IntoIterINtNtB6_6option6OptionNtNtCs3cuHK5hCpJL_10displaydoc4attr14VariantDisplayEEENCNvNtB3A_6expand9impl_enums_0ENtCsaKzlTDPUHDb_11proc_macro211TokenStreamINtNtB6_6result6ResultNtNtB6_7convert10InfallibleNtNtB1r_5error5ErrorENCINvXso_B5C_IB5A_INtB2r_3VecB4T_EB6m_EINtNtNtB4_6traits7collect12FromIteratorIB5A_B4T_B6m_EE9from_iterBQ_E0B6Z_EB3A_, symObjAddr: 0x0, symBinAddr: 0x8200, symSize: 0x210 }
  - { offset: 0x287ED, size: 0x8, addend: 0x0, symName: __RNCNCNvXsG_NtCsdGrGZaRBwMb_3syn10punctuatedINtB9_14PrivateIterMutNtNtBb_8generics14WherePredicateNtNtBb_5token5CommaENtNtNtNtCsieiGu2EXtoJ_4core4iter6traits12double_ended19DoubleEndedIterator9next_back00Cs3cuHK5hCpJL_10displaydoc, symObjAddr: 0x1530, symBinAddr: 0x9730, symSize: 0x10 }
  - { offset: 0x28840, size: 0x8, addend: 0x0, symName: __RNCNvXsG_NtCsdGrGZaRBwMb_3syn10punctuatedINtB7_14PrivateIterMutNtNtB9_8generics14WherePredicateNtNtB9_5token5CommaENtNtNtNtCsieiGu2EXtoJ_4core4iter6traits12double_ended19DoubleEndedIterator9next_back0Cs3cuHK5hCpJL_10displaydoc, symObjAddr: 0x1590, symBinAddr: 0x9790, symSize: 0x30 }
  - { offset: 0x28883, size: 0x8, addend: 0x0, symName: __RNvXsG_NtCsdGrGZaRBwMb_3syn10punctuatedINtB5_14PrivateIterMutNtNtB7_8generics14WherePredicateNtNtB7_5token5CommaENtNtNtNtCsieiGu2EXtoJ_4core4iter6traits12double_ended19DoubleEndedIterator9next_backCs3cuHK5hCpJL_10displaydoc, symObjAddr: 0x2910, symBinAddr: 0xAB10, symSize: 0x40 }
  - { offset: 0x288D3, size: 0x8, addend: 0x0, symName: __RNCNCNvXsx_NtCsdGrGZaRBwMb_3syn10punctuatedINtB9_11PrivateIterNtNtBb_4data7VariantNtNtBb_5token5CommaENtNtNtNtCsieiGu2EXtoJ_4core4iter6traits12double_ended19DoubleEndedIterator9next_back00Cs3cuHK5hCpJL_10displaydoc, symObjAddr: 0x1540, symBinAddr: 0x9740, symSize: 0x10 }
  - { offset: 0x2891E, size: 0x8, addend: 0x0, symName: __RNCNCNvXsx_NtCsdGrGZaRBwMb_3syn10punctuatedINtB9_11PrivateIterNtNtBb_8generics14WherePredicateNtNtBb_5token5CommaENtNtNtNtCsieiGu2EXtoJ_4core4iter6traits12double_ended19DoubleEndedIterator9next_back00Cs3cuHK5hCpJL_10displaydoc, symObjAddr: 0x1550, symBinAddr: 0x9750, symSize: 0x10 }
  - { offset: 0x28978, size: 0x8, addend: 0x0, symName: __RNCNvXsx_NtCsdGrGZaRBwMb_3syn10punctuatedINtB7_11PrivateIterNtNtB9_4data7VariantNtNtB9_5token5CommaENtNtNtNtCsieiGu2EXtoJ_4core4iter6traits12double_ended19DoubleEndedIterator9next_back0Cs3cuHK5hCpJL_10displaydoc, symObjAddr: 0x1620, symBinAddr: 0x9820, symSize: 0x30 }
  - { offset: 0x289BA, size: 0x8, addend: 0x0, symName: __RNCNvXsx_NtCsdGrGZaRBwMb_3syn10punctuatedINtB7_11PrivateIterNtNtB9_8generics14WherePredicateNtNtB9_5token5CommaENtNtNtNtCsieiGu2EXtoJ_4core4iter6traits12double_ended19DoubleEndedIterator9next_back0Cs3cuHK5hCpJL_10displaydoc, symObjAddr: 0x1650, symBinAddr: 0x9850, symSize: 0x30 }
  - { offset: 0x289FD, size: 0x8, addend: 0x0, symName: __RNvXsx_NtCsdGrGZaRBwMb_3syn10punctuatedINtB5_11PrivateIterNtNtB7_4data7VariantNtNtB7_5token5CommaENtNtNtNtCsieiGu2EXtoJ_4core4iter6traits12double_ended19DoubleEndedIterator9next_backCs3cuHK5hCpJL_10displaydoc, symObjAddr: 0x31C0, symBinAddr: 0xB3C0, symSize: 0x40 }
  - { offset: 0x28A3D, size: 0x8, addend: 0x0, symName: __RNvXsx_NtCsdGrGZaRBwMb_3syn10punctuatedINtB5_11PrivateIterNtNtB7_8generics14WherePredicateNtNtB7_5token5CommaENtNtNtNtCsieiGu2EXtoJ_4core4iter6traits12double_ended19DoubleEndedIterator9next_backCs3cuHK5hCpJL_10displaydoc, symObjAddr: 0x3200, symBinAddr: 0xB400, symSize: 0x40 }
  - { offset: 0x28A88, size: 0x8, addend: 0x0, symName: __RNCNvXsF_NtCsdGrGZaRBwMb_3syn10punctuatedINtB7_14PrivateIterMutNtNtB9_8generics14WherePredicateNtNtB9_5token5CommaENtNtNtNtCsieiGu2EXtoJ_4core4iter6traits8iterator8Iterator4next0Cs3cuHK5hCpJL_10displaydoc, symObjAddr: 0x1560, symBinAddr: 0x9760, symSize: 0x10 }
  - { offset: 0x28AD3, size: 0x8, addend: 0x0, symName: __RNCNvXsF_NtCsdGrGZaRBwMb_3syn10punctuatedINtB7_14PrivateIterMutNtNtB9_8generics14WherePredicateNtNtB9_5token5CommaENtNtNtNtCsieiGu2EXtoJ_4core4iter6traits8iterator8Iterator4nexts_0Cs3cuHK5hCpJL_10displaydoc, symObjAddr: 0x1570, symBinAddr: 0x9770, symSize: 0x20 }
  - { offset: 0x28B1D, size: 0x8, addend: 0x0, symName: __RNvXsF_NtCsdGrGZaRBwMb_3syn10punctuatedINtB5_14PrivateIterMutNtNtB7_8generics14WherePredicateNtNtB7_5token5CommaENtNtNtNtCsieiGu2EXtoJ_4core4iter6traits8iterator8Iterator4nextCs3cuHK5hCpJL_10displaydoc, symObjAddr: 0x28D0, symBinAddr: 0xAAD0, symSize: 0x40 }
  - { offset: 0x28B68, size: 0x8, addend: 0x0, symName: __RNCNvXsw_NtCsdGrGZaRBwMb_3syn10punctuatedINtB7_11PrivateIterNtNtB9_4data7VariantNtNtB9_5token5CommaENtNtNtNtCsieiGu2EXtoJ_4core4iter6traits8iterator8Iterator4next0Cs3cuHK5hCpJL_10displaydoc, symObjAddr: 0x15C0, symBinAddr: 0x97C0, symSize: 0x10 }
  - { offset: 0x28BB3, size: 0x8, addend: 0x0, symName: __RNCNvXsw_NtCsdGrGZaRBwMb_3syn10punctuatedINtB7_11PrivateIterNtNtB9_4data7VariantNtNtB9_5token5CommaENtNtNtNtCsieiGu2EXtoJ_4core4iter6traits8iterator8Iterator4nexts_0Cs3cuHK5hCpJL_10displaydoc, symObjAddr: 0x15D0, symBinAddr: 0x97D0, symSize: 0x20 }
  - { offset: 0x28BF5, size: 0x8, addend: 0x0, symName: __RNCNvXsw_NtCsdGrGZaRBwMb_3syn10punctuatedINtB7_11PrivateIterNtNtB9_8generics14WherePredicateNtNtB9_5token5CommaENtNtNtNtCsieiGu2EXtoJ_4core4iter6traits8iterator8Iterator4next0Cs3cuHK5hCpJL_10displaydoc, symObjAddr: 0x15F0, symBinAddr: 0x97F0, symSize: 0x10 }
  - { offset: 0x28C40, size: 0x8, addend: 0x0, symName: __RNCNvXsw_NtCsdGrGZaRBwMb_3syn10punctuatedINtB7_11PrivateIterNtNtB9_8generics14WherePredicateNtNtB9_5token5CommaENtNtNtNtCsieiGu2EXtoJ_4core4iter6traits8iterator8Iterator4nexts_0Cs3cuHK5hCpJL_10displaydoc, symObjAddr: 0x1600, symBinAddr: 0x9800, symSize: 0x20 }
  - { offset: 0x28C91, size: 0x8, addend: 0x0, symName: __RNvXsw_NtCsdGrGZaRBwMb_3syn10punctuatedINtB5_11PrivateIterNtNtB7_4data7VariantNtNtB7_5token5CommaENtNtNtNtCsieiGu2EXtoJ_4core4iter6traits8iterator8Iterator4nextCs3cuHK5hCpJL_10displaydoc, symObjAddr: 0x3140, symBinAddr: 0xB340, symSize: 0x40 }
  - { offset: 0x28CD1, size: 0x8, addend: 0x0, symName: __RNvXsw_NtCsdGrGZaRBwMb_3syn10punctuatedINtB5_11PrivateIterNtNtB7_8generics14WherePredicateNtNtB7_5token5CommaENtNtNtNtCsieiGu2EXtoJ_4core4iter6traits8iterator8Iterator4nextCs3cuHK5hCpJL_10displaydoc, symObjAddr: 0x3180, symBinAddr: 0xB380, symSize: 0x40 }
  - { offset: 0x28D35, size: 0x8, addend: 0x0, symName: __RNvXsA_NtCsdGrGZaRBwMb_3syn10punctuatedINtB5_11PrivateIterNtNtB7_4data7VariantNtNtB7_5token5CommaEINtB5_9IterTraitBU_E9clone_boxCs3cuHK5hCpJL_10displaydoc, symObjAddr: 0x2780, symBinAddr: 0xA980, symSize: 0x90 }
  - { offset: 0x28D94, size: 0x8, addend: 0x0, symName: __RNvXsA_NtCsdGrGZaRBwMb_3syn10punctuatedINtB5_11PrivateIterNtNtB7_8generics14WherePredicateNtNtB7_5token5CommaEINtB5_9IterTraitBU_E9clone_boxCs3cuHK5hCpJL_10displaydoc, symObjAddr: 0x2810, symBinAddr: 0xAA10, symSize: 0x90 }
  - { offset: 0x28DF9, size: 0x8, addend: 0x0, symName: __RNvXsC_NtCsdGrGZaRBwMb_3syn10punctuatedINtB5_7IterMutNtNtB7_8generics14WherePredicateENtNtNtNtCsieiGu2EXtoJ_4core4iter6traits8iterator8Iterator4nextCs3cuHK5hCpJL_10displaydoc, symObjAddr: 0x28A0, symBinAddr: 0xAAA0, symSize: 0x30 }
  - { offset: 0x28E36, size: 0x8, addend: 0x0, symName: __RNvXsH_NtCsdGrGZaRBwMb_3syn10punctuatedINtB5_14PrivateIterMutNtNtB7_8generics14WherePredicateNtNtB7_5token5CommaENtNtNtNtCsieiGu2EXtoJ_4core4iter6traits10exact_size17ExactSizeIterator3lenCs3cuHK5hCpJL_10displaydoc, symObjAddr: 0x2950, symBinAddr: 0xAB50, symSize: 0x80 }
  - { offset: 0x28EB4, size: 0x8, addend: 0x0, symName: __RNvXst_NtCsdGrGZaRBwMb_3syn10punctuatedINtB5_4IterNtNtB7_4data7VariantENtNtNtNtCsieiGu2EXtoJ_4core4iter6traits8iterator8Iterator4nextCs3cuHK5hCpJL_10displaydoc, symObjAddr: 0x2FC0, symBinAddr: 0xB1C0, symSize: 0x30 }
  - { offset: 0x28EEB, size: 0x8, addend: 0x0, symName: __RNvXst_NtCsdGrGZaRBwMb_3syn10punctuatedINtB5_4IterNtNtB7_4data7VariantENtNtNtNtCsieiGu2EXtoJ_4core4iter6traits8iterator8Iterator9size_hintCs3cuHK5hCpJL_10displaydoc, symObjAddr: 0x2FF0, symBinAddr: 0xB1F0, symSize: 0x60 }
  - { offset: 0x28F22, size: 0x8, addend: 0x0, symName: __RNvXst_NtCsdGrGZaRBwMb_3syn10punctuatedINtB5_4IterNtNtB7_8generics14TypeParamBoundENtNtNtNtCsieiGu2EXtoJ_4core4iter6traits8iterator8Iterator9size_hintCs3cuHK5hCpJL_10displaydoc, symObjAddr: 0x3050, symBinAddr: 0xB250, symSize: 0x60 }
  - { offset: 0x28F59, size: 0x8, addend: 0x0, symName: __RNvXst_NtCsdGrGZaRBwMb_3syn10punctuatedINtB5_4IterNtNtB7_8generics14WherePredicateENtNtNtNtCsieiGu2EXtoJ_4core4iter6traits8iterator8Iterator4nextCs3cuHK5hCpJL_10displaydoc, symObjAddr: 0x30B0, symBinAddr: 0xB2B0, symSize: 0x30 }
  - { offset: 0x28F96, size: 0x8, addend: 0x0, symName: __RNvXsv_NtCsdGrGZaRBwMb_3syn10punctuatedINtB5_4IterNtNtB7_4data7VariantENtNtNtNtCsieiGu2EXtoJ_4core4iter6traits10exact_size17ExactSizeIterator3lenCs3cuHK5hCpJL_10displaydoc, symObjAddr: 0x30E0, symBinAddr: 0xB2E0, symSize: 0x30 }
  - { offset: 0x28FCD, size: 0x8, addend: 0x0, symName: __RNvXsv_NtCsdGrGZaRBwMb_3syn10punctuatedINtB5_4IterNtNtB7_8generics14TypeParamBoundENtNtNtNtCsieiGu2EXtoJ_4core4iter6traits10exact_size17ExactSizeIterator3lenCs3cuHK5hCpJL_10displaydoc, symObjAddr: 0x3110, symBinAddr: 0xB310, symSize: 0x30 }
  - { offset: 0x2900A, size: 0x8, addend: 0x0, symName: __RNvXsy_NtCsdGrGZaRBwMb_3syn10punctuatedINtB5_11PrivateIterNtNtB7_4data7VariantNtNtB7_5token5CommaENtNtNtNtCsieiGu2EXtoJ_4core4iter6traits10exact_size17ExactSizeIterator3lenCs3cuHK5hCpJL_10displaydoc, symObjAddr: 0x3240, symBinAddr: 0xB440, symSize: 0x80 }
  - { offset: 0x29082, size: 0x8, addend: 0x0, symName: __RNvXsy_NtCsdGrGZaRBwMb_3syn10punctuatedINtB5_11PrivateIterNtNtB7_8generics14WherePredicateNtNtB7_5token5CommaENtNtNtNtCsieiGu2EXtoJ_4core4iter6traits10exact_size17ExactSizeIterator3lenCs3cuHK5hCpJL_10displaydoc, symObjAddr: 0x32C0, symBinAddr: 0xB4C0, symSize: 0x80 }
  - { offset: 0x29100, size: 0x8, addend: 0x0, symName: __RNvXsz_NtCsdGrGZaRBwMb_3syn10punctuatedINtB5_11PrivateIterNtNtB7_4data7VariantNtNtB7_5token5CommaENtNtCsieiGu2EXtoJ_4core5clone5Clone5cloneCs3cuHK5hCpJL_10displaydoc, symObjAddr: 0x3340, symBinAddr: 0xB540, symSize: 0x70 }
  - { offset: 0x29140, size: 0x8, addend: 0x0, symName: __RNvXsz_NtCsdGrGZaRBwMb_3syn10punctuatedINtB5_11PrivateIterNtNtB7_8generics14WherePredicateNtNtB7_5token5CommaENtNtCsieiGu2EXtoJ_4core5clone5Clone5cloneCs3cuHK5hCpJL_10displaydoc, symObjAddr: 0x33B0, symBinAddr: 0xB5B0, symSize: 0x70 }
  - { offset: 0x2E508, size: 0x8, addend: 0x0, symName: __RNvXs_NtCslJiobkLta79_5alloc5allocNtB4_6GlobalNtNtCsieiGu2EXtoJ_4core5alloc9Allocator10deallocateCs3cuHK5hCpJL_10displaydoc, symObjAddr: 0x2D20, symBinAddr: 0xAF20, symSize: 0x70 }
  - { offset: 0x2E5D0, size: 0x8, addend: 0x0, symName: __RNvXs_NtCslJiobkLta79_5alloc5allocNtB4_6GlobalNtNtCsieiGu2EXtoJ_4core5alloc9Allocator8allocateCs3cuHK5hCpJL_10displaydoc, symObjAddr: 0x2D90, symBinAddr: 0xAF90, symSize: 0x30 }
  - { offset: 0x2E60B, size: 0x8, addend: 0x0, symName: __RNvNtCslJiobkLta79_5alloc5alloc15exchange_mallocCs3cuHK5hCpJL_10displaydoc, symObjAddr: 0x1D20, symBinAddr: 0x9F20, symSize: 0xA0 }
  - { offset: 0x2F2FB, size: 0x8, addend: 0x0, symName: __RINvXs4_CsaKzlTDPUHDb_11proc_macro2NtB6_11TokenStreamINtNtNtNtCsieiGu2EXtoJ_4core4iter6traits7collect6ExtendNtB6_9TokenTreeE6extendBx_ECs3cuHK5hCpJL_10displaydoc, symObjAddr: 0x660, symBinAddr: 0x8860, symSize: 0x20 }
  - { offset: 0x2F344, size: 0x8, addend: 0x0, symName: __RINvXsD_CsaKzlTDPUHDb_11proc_macro2NtB6_5IdentNtNtCsieiGu2EXtoJ_4core4hash4Hash4hashNtNtNtCsHUR1vrdMJt_3std4hash6random13DefaultHasherECs3cuHK5hCpJL_10displaydoc, symObjAddr: 0x680, symBinAddr: 0x8880, symSize: 0x80 }
  - { offset: 0x2F38C, size: 0x8, addend: 0x0, symName: __RNvXs12_CsaKzlTDPUHDb_11proc_macro2NtB6_5IdentNtNtCsieiGu2EXtoJ_4core5clone5Clone5cloneCs3cuHK5hCpJL_10displaydoc, symObjAddr: 0x2420, symBinAddr: 0xA620, symSize: 0x80 }
  - { offset: 0x2F3C0, size: 0x8, addend: 0x0, symName: __RNvXsK_CsaKzlTDPUHDb_11proc_macro2NtB5_11TokenStreamNtNtCsieiGu2EXtoJ_4core5clone5Clone5cloneCs3cuHK5hCpJL_10displaydoc, symObjAddr: 0x2C90, symBinAddr: 0xAE90, symSize: 0x90 }
  - { offset: 0x303ED, size: 0x8, addend: 0x0, symName: __RNvNvMNtNtCsieiGu2EXtoJ_4core3ptr9const_ptrPp20offset_from_unsigned18precondition_checkCs3cuHK5hCpJL_10displaydoc, symObjAddr: 0x1DC0, symBinAddr: 0x9FC0, symSize: 0xA0 }
  - { offset: 0x33009, size: 0x8, addend: 0x0, symName: __RNvMNtCsieiGu2EXtoJ_4core5sliceSNtCsaKzlTDPUHDb_11proc_macro211TokenStream4iterCs3cuHK5hCpJL_10displaydoc, symObjAddr: 0x1910, symBinAddr: 0x9B10, symSize: 0x20 }
  - { offset: 0x3304C, size: 0x8, addend: 0x0, symName: __RINvNtNtCsieiGu2EXtoJ_4core4iter8adapters11try_processINtNtB2_3map3MapINtNtB2_3zip3ZipINtNtCsdGrGZaRBwMb_3syn10punctuated4IterNtNtB1r_4data7VariantEINtNtNtCslJiobkLta79_5alloc3vec9into_iter8IntoIterINtNtB6_6option6OptionNtNtCs3cuHK5hCpJL_10displaydoc4attr14VariantDisplayEEENCNvNtB3A_6expand9impl_enums_0ENtCsaKzlTDPUHDb_11proc_macro211TokenStreamINtNtB6_6result6ResultNtNtB6_7convert10InfallibleNtNtB1r_5error5ErrorENCINvXso_B5C_IB5A_INtB2r_3VecB4T_EB6m_EINtNtNtB4_6traits7collect12FromIteratorIB5A_B4T_B6m_EE9from_iterBQ_E0B6Z_EB3A_, symObjAddr: 0x0, symBinAddr: 0x8200, symSize: 0x210 }
  - { offset: 0x33115, size: 0x8, addend: 0x0, symName: __RINvNtNtCsieiGu2EXtoJ_4core4iter8adapters11try_processINtNtB2_3map3MapINtNtCsdGrGZaRBwMb_3syn10punctuated4IterNtNtB1b_4data7VariantENCNvNtCs3cuHK5hCpJL_10displaydoc6expand9impl_enum0EINtNtB6_6option6OptionNtNtB2c_4attr14VariantDisplayEINtNtB6_6result6ResultNtNtB6_7convert10InfallibleNtNtB1b_5error5ErrorENCINvXso_B3O_IB3M_INtNtCslJiobkLta79_5alloc3vec3VecB2V_EB4y_EINtNtNtB4_6traits7collect12FromIteratorIB3M_B2V_B4y_EE9from_iterBQ_E0B5b_EB2c_, symObjAddr: 0x210, symBinAddr: 0x8410, symSize: 0x200 }
  - { offset: 0x331E3, size: 0x8, addend: 0x0, symName: __RINvXNtNtCsieiGu2EXtoJ_4core4iter8adaptersINtB3_12GenericShuntINtNtB3_3map3MapINtNtB3_3zip3ZipINtNtCsdGrGZaRBwMb_3syn10punctuated4IterNtNtB1z_4data7VariantEINtNtNtCslJiobkLta79_5alloc3vec9into_iter8IntoIterINtNtB7_6option6OptionNtNtCs3cuHK5hCpJL_10displaydoc4attr14VariantDisplayEEENCNvNtB3I_6expand9impl_enums_0EINtNtB7_6result6ResultNtNtB7_7convert10InfallibleNtNtB1z_5error5ErrorEENtNtNtB5_6traits8iterator8Iterator8try_folduNCINvNvB6a_12try_for_each4callNtCsaKzlTDPUHDb_11proc_macro211TokenStreamINtNtNtB7_3ops12control_flow11ControlFlowB7m_ENcNtB82_5Break0E0B82_EB3I_, symObjAddr: 0x4B0, symBinAddr: 0x86B0, symSize: 0xD0 }
  - { offset: 0x332AB, size: 0x8, addend: 0x0, symName: __RINvXNtNtCsieiGu2EXtoJ_4core4iter8adaptersINtB3_12GenericShuntINtNtB3_3map3MapINtNtCsdGrGZaRBwMb_3syn10punctuated4IterNtNtB1j_4data7VariantENCNvNtCs3cuHK5hCpJL_10displaydoc6expand9impl_enum0EINtNtB7_6result6ResultNtNtB7_7convert10InfallibleNtNtB1j_5error5ErrorEENtNtNtB5_6traits8iterator8Iterator8try_folduNCINvNvB4c_12try_for_each4callINtNtB7_6option6OptionNtNtB2k_4attr14VariantDisplayEINtNtNtB7_3ops12control_flow11ControlFlowB5o_ENcNtB6e_5Break0E0B6e_EB2k_, symObjAddr: 0x580, symBinAddr: 0x8780, symSize: 0xC0 }
  - { offset: 0x33379, size: 0x8, addend: 0x0, symName: __RNCINvXNtNtCsieiGu2EXtoJ_4core4iter8adaptersINtB5_12GenericShuntINtNtB5_3map3MapINtNtB5_3zip3ZipINtNtCsdGrGZaRBwMb_3syn10punctuated4IterNtNtB1B_4data7VariantEINtNtNtCslJiobkLta79_5alloc3vec9into_iter8IntoIterINtNtB9_6option6OptionNtNtCs3cuHK5hCpJL_10displaydoc4attr14VariantDisplayEEENCNvNtB3K_6expand9impl_enums_0EINtNtB9_6result6ResultNtNtB9_7convert10InfallibleNtNtB1B_5error5ErrorEENtNtNtB7_6traits8iterator8Iterator8try_folduNCINvNvB6c_12try_for_each4callNtCsaKzlTDPUHDb_11proc_macro211TokenStreamINtNtNtB9_3ops12control_flow11ControlFlowB7o_ENcNtB84_5Break0E0B84_E0B3K_, symObjAddr: 0xF80, symBinAddr: 0x9180, symSize: 0x300 }
  - { offset: 0x33475, size: 0x8, addend: 0x0, symName: __RNCINvXNtNtCsieiGu2EXtoJ_4core4iter8adaptersINtB5_12GenericShuntINtNtB5_3map3MapINtNtCsdGrGZaRBwMb_3syn10punctuated4IterNtNtB1l_4data7VariantENCNvNtCs3cuHK5hCpJL_10displaydoc6expand9impl_enum0EINtNtB9_6result6ResultNtNtB9_7convert10InfallibleNtNtB1l_5error5ErrorEENtNtNtB7_6traits8iterator8Iterator8try_folduNCINvNvB4e_12try_for_each4callINtNtB9_6option6OptionNtNtB2m_4attr14VariantDisplayEINtNtNtB9_3ops12control_flow11ControlFlowB5q_ENcNtB6g_5Break0E0B6g_E0B2m_, symObjAddr: 0x1280, symBinAddr: 0x9480, symSize: 0x2B0 }
  - { offset: 0x33590, size: 0x8, addend: 0x0, symName: __RNvXNtNtCsieiGu2EXtoJ_4core4iter8adaptersINtB2_12GenericShuntINtNtB2_3map3MapINtNtB2_3zip3ZipINtNtCsdGrGZaRBwMb_3syn10punctuated4IterNtNtB1y_4data7VariantEINtNtNtCslJiobkLta79_5alloc3vec9into_iter8IntoIterINtNtB6_6option6OptionNtNtCs3cuHK5hCpJL_10displaydoc4attr14VariantDisplayEEENCNvNtB3H_6expand9impl_enums_0EINtNtB6_6result6ResultNtNtB6_7convert10InfallibleNtNtB1y_5error5ErrorEENtNtNtB4_6traits8iterator8Iterator4nextB3H_, symObjAddr: 0x2070, symBinAddr: 0xA270, symSize: 0xD0 }
  - { offset: 0x33623, size: 0x8, addend: 0x0, symName: __RNvXNtNtCsieiGu2EXtoJ_4core4iter8adaptersINtB2_12GenericShuntINtNtB2_3map3MapINtNtB2_3zip3ZipINtNtCsdGrGZaRBwMb_3syn10punctuated4IterNtNtB1y_4data7VariantEINtNtNtCslJiobkLta79_5alloc3vec9into_iter8IntoIterINtNtB6_6option6OptionNtNtCs3cuHK5hCpJL_10displaydoc4attr14VariantDisplayEEENCNvNtB3H_6expand9impl_enums_0EINtNtB6_6result6ResultNtNtB6_7convert10InfallibleNtNtB1y_5error5ErrorEENtNtNtB4_6traits8iterator8Iterator9size_hintB3H_, symObjAddr: 0x2140, symBinAddr: 0xA340, symSize: 0xA0 }
  - { offset: 0x3369B, size: 0x8, addend: 0x0, symName: __RNvXNtNtCsieiGu2EXtoJ_4core4iter8adaptersINtB2_12GenericShuntINtNtB2_3map3MapINtNtCsdGrGZaRBwMb_3syn10punctuated4IterNtNtB1i_4data7VariantENCNvNtCs3cuHK5hCpJL_10displaydoc6expand9impl_enum0EINtNtB6_6result6ResultNtNtB6_7convert10InfallibleNtNtB1i_5error5ErrorEENtNtNtB4_6traits8iterator8Iterator4nextB2j_, symObjAddr: 0x21E0, symBinAddr: 0xA3E0, symSize: 0xD0 }
  - { offset: 0x3372F, size: 0x8, addend: 0x0, symName: __RNvXNtNtCsieiGu2EXtoJ_4core4iter8adaptersINtB2_12GenericShuntINtNtB2_3map3MapINtNtCsdGrGZaRBwMb_3syn10punctuated4IterNtNtB1i_4data7VariantENCNvNtCs3cuHK5hCpJL_10displaydoc6expand9impl_enum0EINtNtB6_6result6ResultNtNtB6_7convert10InfallibleNtNtB1i_5error5ErrorEENtNtNtB4_6traits8iterator8Iterator9size_hintB2j_, symObjAddr: 0x22B0, symBinAddr: 0xA4B0, symSize: 0xA0 }
  - { offset: 0x33C13, size: 0x8, addend: 0x0, symName: __RNvXs1_NtNtNtCsieiGu2EXtoJ_4core4iter8adapters7flattenINtB5_7FlatMapINtNtCsdGrGZaRBwMb_3syn10punctuated4IterNtNtB19_8generics14TypeParamBoundEINtNtBb_6option6OptionRNtB1K_10TraitBoundENCNCNvNtCs3cuHK5hCpJL_10displaydoc6expand37extract_trait_constraints_from_source00ENtNtNtB9_6traits8iterator8Iterator4nextB34_, symObjAddr: 0x24B0, symBinAddr: 0xA6B0, symSize: 0x20 }
  - { offset: 0x33C5A, size: 0x8, addend: 0x0, symName: __RNvXs1_NtNtNtCsieiGu2EXtoJ_4core4iter8adapters7flattenINtB5_7FlatMapINtNtCsdGrGZaRBwMb_3syn10punctuated4IterNtNtB19_8generics14TypeParamBoundEINtNtBb_6option6OptionRNtB1K_10TraitBoundENCNCNvNtCs3cuHK5hCpJL_10displaydoc6expand37extract_trait_constraints_from_source00ENtNtNtB9_6traits8iterator8Iterator9size_hintB34_, symObjAddr: 0x24D0, symBinAddr: 0xA6D0, symSize: 0x30 }
  - { offset: 0x33CA1, size: 0x8, addend: 0x0, symName: __RNvXs1_NtNtNtCsieiGu2EXtoJ_4core4iter8adapters7flattenINtB5_7FlatMapINtNtCsdGrGZaRBwMb_3syn10punctuated7IterMutNtNtB19_8generics14WherePredicateEINtNtBb_6option6OptionQNtB1N_13PredicateTypeENCNvNtCs3cuHK5hCpJL_10displaydoc6expand39ensure_display_in_where_clause_for_type0ENtNtNtB9_6traits8iterator8Iterator4nextB38_, symObjAddr: 0x2500, symBinAddr: 0xA700, symSize: 0x20 }
  - { offset: 0x33CEE, size: 0x8, addend: 0x0, symName: __RNvXsI_NtNtNtCsieiGu2EXtoJ_4core4iter8adapters7flattenINtB5_13FlattenCompatINtNtB7_3map3MapINtNtCsdGrGZaRBwMb_3syn10punctuated4IterNtNtB1w_8generics14TypeParamBoundENCNCNvNtCs3cuHK5hCpJL_10displaydoc6expand37extract_trait_constraints_from_source00EINtNtBb_6option8IntoIterRNtB27_10TraitBoundEENtNtNtB9_6traits8iterator8Iterator4nextB2L_, symObjAddr: 0x29F0, symBinAddr: 0xABF0, symSize: 0xB0 }
  - { offset: 0x33D78, size: 0x8, addend: 0x0, symName: __RNvXsI_NtNtNtCsieiGu2EXtoJ_4core4iter8adapters7flattenINtB5_13FlattenCompatINtNtB7_3map3MapINtNtCsdGrGZaRBwMb_3syn10punctuated4IterNtNtB1w_8generics14TypeParamBoundENCNCNvNtCs3cuHK5hCpJL_10displaydoc6expand37extract_trait_constraints_from_source00EINtNtBb_6option8IntoIterRNtB27_10TraitBoundEENtNtNtB9_6traits8iterator8Iterator9size_hintB2L_, symObjAddr: 0x2AA0, symBinAddr: 0xACA0, symSize: 0x140 }
  - { offset: 0x33E1E, size: 0x8, addend: 0x0, symName: __RNvXsI_NtNtNtCsieiGu2EXtoJ_4core4iter8adapters7flattenINtB5_13FlattenCompatINtNtB7_3map3MapINtNtCsdGrGZaRBwMb_3syn10punctuated7IterMutNtNtB1w_8generics14WherePredicateENCNvNtCs3cuHK5hCpJL_10displaydoc6expand39ensure_display_in_where_clause_for_type0EINtNtBb_6option8IntoIterQNtB2a_13PredicateTypeEENtNtNtB9_6traits8iterator8Iterator4nextB2M_, symObjAddr: 0x2BE0, symBinAddr: 0xADE0, symSize: 0xB0 }
  - { offset: 0x34027, size: 0x8, addend: 0x0, symName: __RINvYINtNtCsdGrGZaRBwMb_3syn10punctuated11PrivateIterNtNtB8_4data7VariantNtNtB8_5token5CommaENtNtNtNtCsieiGu2EXtoJ_4core4iter6traits8iterator8Iterator8try_foldINtNtNtB1B_3num7nonzero7NonZerojENCNvXs_NvB1t_10advance_byB3_NtB3b_13SpecAdvanceBy15spec_advance_by0INtNtB1B_6option6OptionB2x_EECs3cuHK5hCpJL_10displaydoc, symObjAddr: 0x700, symBinAddr: 0x8900, symSize: 0x130 }
  - { offset: 0x340DB, size: 0x8, addend: 0x0, symName: __RINvYINtNtCsdGrGZaRBwMb_3syn10punctuated11PrivateIterNtNtB8_8generics14WherePredicateNtNtB8_5token5CommaENtNtNtNtCsieiGu2EXtoJ_4core4iter6traits8iterator8Iterator8try_foldINtNtNtB1N_3num7nonzero7NonZerojENCNvXs_NvB1F_10advance_byB3_NtB3n_13SpecAdvanceBy15spec_advance_by0INtNtB1N_6option6OptionB2J_EECs3cuHK5hCpJL_10displaydoc, symObjAddr: 0x830, symBinAddr: 0x8A30, symSize: 0x130 }
  - { offset: 0x3418F, size: 0x8, addend: 0x0, symName: __RINvYINtNtCsdGrGZaRBwMb_3syn10punctuated14PrivateIterMutNtNtB8_8generics14WherePredicateNtNtB8_5token5CommaENtNtNtNtCsieiGu2EXtoJ_4core4iter6traits8iterator8Iterator8try_foldINtNtNtB1Q_3num7nonzero7NonZerojENCNvXs_NvB1I_10advance_byB3_NtB3q_13SpecAdvanceBy15spec_advance_by0INtNtB1Q_6option6OptionB2M_EECs3cuHK5hCpJL_10displaydoc, symObjAddr: 0x960, symBinAddr: 0x8B60, symSize: 0x130 }
  - { offset: 0x34243, size: 0x8, addend: 0x0, symName: __RINvYINtNtCsdGrGZaRBwMb_3syn10punctuated4IterNtNtB8_4data5FieldENtNtNtNtCsieiGu2EXtoJ_4core4iter6traits8iterator8Iterator3mapRINtNtB18_6option6OptionNtCsaKzlTDPUHDb_11proc_macro25IdentENCNCNvNtCs3cuHK5hCpJL_10displaydoc6expand11impl_struct00EB35_, symObjAddr: 0xA90, symBinAddr: 0x8C90, symSize: 0x20 }
  - { offset: 0x3429B, size: 0x8, addend: 0x0, symName: __RINvYINtNtCsdGrGZaRBwMb_3syn10punctuated4IterNtNtB8_4data5FieldENtNtNtNtCsieiGu2EXtoJ_4core4iter6traits8iterator8Iterator3mapRINtNtB18_6option6OptionNtCsaKzlTDPUHDb_11proc_macro25IdentENCNCNvNtCs3cuHK5hCpJL_10displaydoc6expand9impl_enums_0s_0EB35_, symObjAddr: 0xAB0, symBinAddr: 0x8CB0, symSize: 0x20 }
  - { offset: 0x342F3, size: 0x8, addend: 0x0, symName: __RINvYINtNtCsdGrGZaRBwMb_3syn10punctuated4IterNtNtB8_4data7VariantENtNtNtNtCsieiGu2EXtoJ_4core4iter6traits8iterator8Iterator3mapINtNtB1a_6result6ResultINtNtB1a_6option6OptionNtNtCs3cuHK5hCpJL_10displaydoc4attr14VariantDisplayENtNtB8_5error5ErrorENCNvNtB2P_6expand9impl_enum0EB2P_, symObjAddr: 0xAD0, symBinAddr: 0x8CD0, symSize: 0x30 }
  - { offset: 0x34360, size: 0x8, addend: 0x0, symName: __RINvYINtNtCsdGrGZaRBwMb_3syn10punctuated4IterNtNtB8_4data7VariantENtNtNtNtCsieiGu2EXtoJ_4core4iter6traits8iterator8Iterator3zipINtNtCslJiobkLta79_5alloc3vec3VecINtNtB1a_6option6OptionNtNtCs3cuHK5hCpJL_10displaydoc4attr14VariantDisplayEEEB2Z_, symObjAddr: 0xB00, symBinAddr: 0x8D00, symSize: 0x90 }
  - { offset: 0x343D9, size: 0x8, addend: 0x0, symName: __RINvYINtNtCsdGrGZaRBwMb_3syn10punctuated4IterNtNtB8_4data7VariantENtNtNtNtCsieiGu2EXtoJ_4core4iter6traits8iterator8Iterator8try_folduNCINvNtNtB18_8adapters3map12map_try_foldRBH_INtNtB1a_6result6ResultINtNtB1a_6option6OptionNtNtCs3cuHK5hCpJL_10displaydoc4attr14VariantDisplayENtNtB8_5error5ErrorEuINtNtNtB1a_3ops12control_flow11ControlFlowIB4L_B3c_EENCNvNtB3D_6expand9impl_enum0NCINvXB2e_INtB2e_12GenericShuntINtB2c_3MapB3_B5B_EIB2Q_NtNtB1a_7convert10InfallibleB4p_EEB12_8try_folduNCINvNvB12_12try_for_each4callB3c_B5q_NcNtB5q_5Break0E0B5q_E0E0B4K_EB3D_, symObjAddr: 0xB90, symBinAddr: 0x8D90, symSize: 0x160 }
  - { offset: 0x34495, size: 0x8, addend: 0x0, symName: __RINvYINtNtCsdGrGZaRBwMb_3syn10punctuated4IterNtNtB8_8generics14TypeParamBoundENtNtNtNtCsieiGu2EXtoJ_4core4iter6traits8iterator8Iterator3mapINtNtB1m_6option6OptionRNtBJ_10TraitBoundENCNCNvNtCs3cuHK5hCpJL_10displaydoc6expand37extract_trait_constraints_from_source00EB31_, symObjAddr: 0xCF0, symBinAddr: 0x8EF0, symSize: 0x20 }
  - { offset: 0x344ED, size: 0x8, addend: 0x0, symName: __RINvYINtNtCsdGrGZaRBwMb_3syn10punctuated4IterNtNtB8_8generics14TypeParamBoundENtNtNtNtCsieiGu2EXtoJ_4core4iter6traits8iterator8Iterator8flat_mapINtNtB1m_6option6OptionRNtBJ_10TraitBoundENCNCNvNtCs3cuHK5hCpJL_10displaydoc6expand37extract_trait_constraints_from_source00EB36_, symObjAddr: 0xD10, symBinAddr: 0x8F10, symSize: 0x80 }
  - { offset: 0x34588, size: 0x8, addend: 0x0, symName: __RINvYINtNtCsdGrGZaRBwMb_3syn10punctuated7IterMutNtNtB8_8generics14WherePredicateENtNtNtNtCsieiGu2EXtoJ_4core4iter6traits8iterator8Iterator3mapINtNtB1p_6option6OptionQNtBM_13PredicateTypeENCNvNtCs3cuHK5hCpJL_10displaydoc6expand39ensure_display_in_where_clause_for_type0EB35_, symObjAddr: 0xD90, symBinAddr: 0x8F90, symSize: 0x20 }
  - { offset: 0x345E0, size: 0x8, addend: 0x0, symName: __RINvYINtNtCsdGrGZaRBwMb_3syn10punctuated7IterMutNtNtB8_8generics14WherePredicateENtNtNtNtCsieiGu2EXtoJ_4core4iter6traits8iterator8Iterator8flat_mapINtNtB1p_6option6OptionQNtBM_13PredicateTypeENCNvNtCs3cuHK5hCpJL_10displaydoc6expand39ensure_display_in_where_clause_for_type0EB3a_, symObjAddr: 0xDB0, symBinAddr: 0x8FB0, symSize: 0x80 }
  - { offset: 0x3467B, size: 0x8, addend: 0x0, symName: __RINvYINtNtNtCsieiGu2EXtoJ_4core4iter8adapters12GenericShuntINtNtB6_3map3MapINtNtB6_3zip3ZipINtNtCsdGrGZaRBwMb_3syn10punctuated4IterNtNtB1w_4data7VariantEINtNtNtCslJiobkLta79_5alloc3vec9into_iter8IntoIterINtNtBa_6option6OptionNtNtCs3cuHK5hCpJL_10displaydoc4attr14VariantDisplayEEENCNvNtB3F_6expand9impl_enums_0EINtNtBa_6result6ResultNtNtBa_7convert10InfallibleNtNtB1w_5error5ErrorEENtNtNtB8_6traits8iterator8Iterator7collectINtB2w_3VecNtCsaKzlTDPUHDb_11proc_macro211TokenStreamEEB3F_, symObjAddr: 0xE30, symBinAddr: 0x9030, symSize: 0x70 }
  - { offset: 0x34711, size: 0x8, addend: 0x0, symName: __RINvYINtNtNtCsieiGu2EXtoJ_4core4iter8adapters12GenericShuntINtNtB6_3map3MapINtNtCsdGrGZaRBwMb_3syn10punctuated4IterNtNtB1g_4data7VariantENCNvNtCs3cuHK5hCpJL_10displaydoc6expand9impl_enum0EINtNtBa_6result6ResultNtNtBa_7convert10InfallibleNtNtB1g_5error5ErrorEENtNtNtB8_6traits8iterator8Iterator7collectINtNtCslJiobkLta79_5alloc3vec3VecINtNtBa_6option6OptionNtNtB2h_4attr14VariantDisplayEEEB2h_, symObjAddr: 0xEA0, symBinAddr: 0x90A0, symSize: 0x80 }
  - { offset: 0x347A7, size: 0x8, addend: 0x0, symName: __RINvYINtNtNtNtCsieiGu2EXtoJ_4core4iter8adapters7flatten7FlatMapINtNtCsdGrGZaRBwMb_3syn10punctuated4IterNtNtB14_8generics14TypeParamBoundEINtNtBc_6option6OptionRNtB1F_10TraitBoundENCNCNvNtCs3cuHK5hCpJL_10displaydoc6expand37extract_trait_constraints_from_source00ENtNtNtBa_6traits8iterator8Iterator6clonedB2y_EB2Z_, symObjAddr: 0xF20, symBinAddr: 0x9120, symSize: 0x30 }
  - { offset: 0x347FD, size: 0x8, addend: 0x0, symName: __RINvYNtNtNtCsieiGu2EXtoJ_4core3str4iter5LinesNtNtNtNtB9_4iter6traits8iterator8Iterator3mapReNCNvMs0_NtCs3cuHK5hCpJL_10displaydoc4attrNtB1A_11AttrsHelper7displays0_0EB1C_, symObjAddr: 0xF50, symBinAddr: 0x9150, symSize: 0x30 }
  - { offset: 0x34901, size: 0x8, addend: 0x0, symName: __RNvXs_NvNtNtNtNtCsieiGu2EXtoJ_4core4iter6traits8iterator8Iterator10advance_byINtNtCsdGrGZaRBwMb_3syn10punctuated11PrivateIterNtNtB1i_4data7VariantNtNtB1i_5token5CommaENtB4_13SpecAdvanceBy15spec_advance_byCs3cuHK5hCpJL_10displaydoc, symObjAddr: 0x2DC0, symBinAddr: 0xAFC0, symSize: 0x90 }
  - { offset: 0x349AF, size: 0x8, addend: 0x0, symName: __RNvXs_NvNtNtNtNtCsieiGu2EXtoJ_4core4iter6traits8iterator8Iterator10advance_byINtNtCsdGrGZaRBwMb_3syn10punctuated11PrivateIterNtNtB1i_8generics14WherePredicateNtNtB1i_5token5CommaENtB4_13SpecAdvanceBy15spec_advance_byCs3cuHK5hCpJL_10displaydoc, symObjAddr: 0x2E50, symBinAddr: 0xB050, symSize: 0x90 }
  - { offset: 0x34A5D, size: 0x8, addend: 0x0, symName: __RNvXs_NvNtNtNtNtCsieiGu2EXtoJ_4core4iter6traits8iterator8Iterator10advance_byINtNtCsdGrGZaRBwMb_3syn10punctuated14PrivateIterMutNtNtB1i_8generics14WherePredicateNtNtB1i_5token5CommaENtB4_13SpecAdvanceBy15spec_advance_byCs3cuHK5hCpJL_10displaydoc, symObjAddr: 0x2EE0, symBinAddr: 0xB0E0, symSize: 0x90 }
  - { offset: 0x34B42, size: 0x8, addend: 0x0, symName: __RNvYINtNtCsdGrGZaRBwMb_3syn10punctuated11PrivateIterNtNtB7_4data7VariantNtNtB7_5token5CommaENtNtNtNtCsieiGu2EXtoJ_4core4iter6traits8iterator8Iterator10advance_byCs3cuHK5hCpJL_10displaydoc, symObjAddr: 0x3650, symBinAddr: 0xB850, symSize: 0x20 }
  - { offset: 0x34B88, size: 0x8, addend: 0x0, symName: __RNvYINtNtCsdGrGZaRBwMb_3syn10punctuated11PrivateIterNtNtB7_4data7VariantNtNtB7_5token5CommaENtNtNtNtCsieiGu2EXtoJ_4core4iter6traits8iterator8Iterator3nthCs3cuHK5hCpJL_10displaydoc, symObjAddr: 0x3670, symBinAddr: 0xB870, symSize: 0x80 }
  - { offset: 0x34C58, size: 0x8, addend: 0x0, symName: __RNvYINtNtCsdGrGZaRBwMb_3syn10punctuated11PrivateIterNtNtB7_4data7VariantNtNtB7_5token5CommaENtNtNtNtCsieiGu2EXtoJ_4core4iter6traits8iterator8Iterator9size_hintCs3cuHK5hCpJL_10displaydoc, symObjAddr: 0x36F0, symBinAddr: 0xB8F0, symSize: 0x30 }
  - { offset: 0x34C8D, size: 0x8, addend: 0x0, symName: __RNvYINtNtCsdGrGZaRBwMb_3syn10punctuated11PrivateIterNtNtB7_8generics14WherePredicateNtNtB7_5token5CommaENtNtNtNtCsieiGu2EXtoJ_4core4iter6traits8iterator8Iterator10advance_byCs3cuHK5hCpJL_10displaydoc, symObjAddr: 0x3950, symBinAddr: 0xBB50, symSize: 0x20 }
  - { offset: 0x34CD3, size: 0x8, addend: 0x0, symName: __RNvYINtNtCsdGrGZaRBwMb_3syn10punctuated11PrivateIterNtNtB7_8generics14WherePredicateNtNtB7_5token5CommaENtNtNtNtCsieiGu2EXtoJ_4core4iter6traits8iterator8Iterator3nthCs3cuHK5hCpJL_10displaydoc, symObjAddr: 0x3970, symBinAddr: 0xBB70, symSize: 0x80 }
  - { offset: 0x34DA3, size: 0x8, addend: 0x0, symName: __RNvYINtNtCsdGrGZaRBwMb_3syn10punctuated11PrivateIterNtNtB7_8generics14WherePredicateNtNtB7_5token5CommaENtNtNtNtCsieiGu2EXtoJ_4core4iter6traits8iterator8Iterator9size_hintCs3cuHK5hCpJL_10displaydoc, symObjAddr: 0x39F0, symBinAddr: 0xBBF0, symSize: 0x30 }
  - { offset: 0x34DD8, size: 0x8, addend: 0x0, symName: __RNvYINtNtCsdGrGZaRBwMb_3syn10punctuated14PrivateIterMutNtNtB7_8generics14WherePredicateNtNtB7_5token5CommaENtNtNtNtCsieiGu2EXtoJ_4core4iter6traits8iterator8Iterator10advance_byCs3cuHK5hCpJL_10displaydoc, symObjAddr: 0x3C50, symBinAddr: 0xBE50, symSize: 0x20 }
  - { offset: 0x34E1E, size: 0x8, addend: 0x0, symName: __RNvYINtNtCsdGrGZaRBwMb_3syn10punctuated14PrivateIterMutNtNtB7_8generics14WherePredicateNtNtB7_5token5CommaENtNtNtNtCsieiGu2EXtoJ_4core4iter6traits8iterator8Iterator3nthCs3cuHK5hCpJL_10displaydoc, symObjAddr: 0x3C70, symBinAddr: 0xBE70, symSize: 0x80 }
  - { offset: 0x34EEE, size: 0x8, addend: 0x0, symName: __RNvYINtNtCsdGrGZaRBwMb_3syn10punctuated14PrivateIterMutNtNtB7_8generics14WherePredicateNtNtB7_5token5CommaENtNtNtNtCsieiGu2EXtoJ_4core4iter6traits8iterator8Iterator9size_hintCs3cuHK5hCpJL_10displaydoc, symObjAddr: 0x3CF0, symBinAddr: 0xBEF0, symSize: 0x30 }
  - { offset: 0x34F61, size: 0x8, addend: 0x0, symName: __RNvXNtNtNtCsieiGu2EXtoJ_4core4iter6traits7collectINtNtB6_8adapters12GenericShuntINtNtBO_3map3MapINtNtBO_3zip3ZipINtNtCsdGrGZaRBwMb_3syn10punctuated4IterNtNtB1R_4data7VariantEINtNtNtCslJiobkLta79_5alloc3vec9into_iter8IntoIterINtNtB8_6option6OptionNtNtCs3cuHK5hCpJL_10displaydoc4attr14VariantDisplayEEENCNvNtB40_6expand9impl_enums_0EINtNtB8_6result6ResultNtNtB8_7convert10InfallibleNtNtB1R_5error5ErrorEENtB2_12IntoIterator9into_iterB40_, symObjAddr: 0x2350, symBinAddr: 0xA550, symSize: 0x30 }
  - { offset: 0x34F99, size: 0x8, addend: 0x0, symName: __RNvXNtNtNtCsieiGu2EXtoJ_4core4iter6traits7collectINtNtB6_8adapters12GenericShuntINtNtBO_3map3MapINtNtCsdGrGZaRBwMb_3syn10punctuated4IterNtNtB1B_4data7VariantENCNvNtCs3cuHK5hCpJL_10displaydoc6expand9impl_enum0EINtNtB8_6result6ResultNtNtB8_7convert10InfallibleNtNtB1B_5error5ErrorEENtB2_12IntoIterator9into_iterB2C_, symObjAddr: 0x2380, symBinAddr: 0xA580, symSize: 0x30 }
  - { offset: 0x34FD1, size: 0x8, addend: 0x0, symName: __RNvXNtNtNtCsieiGu2EXtoJ_4core4iter6traits7collectINtNtCsdGrGZaRBwMb_3syn10punctuated4IterNtNtBQ_8generics14TypeParamBoundENtB2_12IntoIterator9into_iterCs3cuHK5hCpJL_10displaydoc, symObjAddr: 0x23B0, symBinAddr: 0xA5B0, symSize: 0x20 }
  - { offset: 0x35008, size: 0x8, addend: 0x0, symName: __RNvXNtNtNtCsieiGu2EXtoJ_4core4iter6traits7collectINtNtCsdGrGZaRBwMb_3syn10punctuated4IterNtNtBQ_8generics14WherePredicateENtB2_12IntoIterator9into_iterCs3cuHK5hCpJL_10displaydoc, symObjAddr: 0x23D0, symBinAddr: 0xA5D0, symSize: 0x20 }
  - { offset: 0x3503F, size: 0x8, addend: 0x0, symName: __RNvXNtNtNtCsieiGu2EXtoJ_4core4iter6traits7collectINtNtNtB6_8adapters7flatten7FlatMapINtNtCsdGrGZaRBwMb_3syn10punctuated7IterMutNtNtB1p_8generics14WherePredicateEINtNtB8_6option6OptionQNtB23_13PredicateTypeENCNvNtCs3cuHK5hCpJL_10displaydoc6expand39ensure_display_in_where_clause_for_type0ENtB2_12IntoIterator9into_iterB3o_, symObjAddr: 0x23F0, symBinAddr: 0xA5F0, symSize: 0x30 }
  - { offset: 0x35083, size: 0x8, addend: 0x0, symName: __RNvYINtNtCsdGrGZaRBwMb_3syn10punctuated11PrivateIterNtNtB7_4data7VariantNtNtB7_5token5CommaENtNtNtNtCsieiGu2EXtoJ_4core4iter6traits10exact_size17ExactSizeIterator8is_emptyCs3cuHK5hCpJL_10displaydoc, symObjAddr: 0x3420, symBinAddr: 0xB620, symSize: 0x20 }
  - { offset: 0x350B8, size: 0x8, addend: 0x0, symName: __RNvYINtNtCsdGrGZaRBwMb_3syn10punctuated11PrivateIterNtNtB7_8generics14WherePredicateNtNtB7_5token5CommaENtNtNtNtCsieiGu2EXtoJ_4core4iter6traits10exact_size17ExactSizeIterator8is_emptyCs3cuHK5hCpJL_10displaydoc, symObjAddr: 0x3720, symBinAddr: 0xB920, symSize: 0x20 }
  - { offset: 0x350ED, size: 0x8, addend: 0x0, symName: __RNvYINtNtCsdGrGZaRBwMb_3syn10punctuated14PrivateIterMutNtNtB7_8generics14WherePredicateNtNtB7_5token5CommaENtNtNtNtCsieiGu2EXtoJ_4core4iter6traits10exact_size17ExactSizeIterator8is_emptyCs3cuHK5hCpJL_10displaydoc, symObjAddr: 0x3A20, symBinAddr: 0xBC20, symSize: 0x20 }
  - { offset: 0x3512E, size: 0x8, addend: 0x0, symName: __RNvYINtNtCsdGrGZaRBwMb_3syn10punctuated11PrivateIterNtNtB7_4data7VariantNtNtB7_5token5CommaENtNtNtNtCsieiGu2EXtoJ_4core4iter6traits12double_ended19DoubleEndedIterator15advance_back_byCs3cuHK5hCpJL_10displaydoc, symObjAddr: 0x3440, symBinAddr: 0xB640, symSize: 0x1A0 }
  - { offset: 0x352AD, size: 0x8, addend: 0x0, symName: __RNvYINtNtCsdGrGZaRBwMb_3syn10punctuated11PrivateIterNtNtB7_4data7VariantNtNtB7_5token5CommaENtNtNtNtCsieiGu2EXtoJ_4core4iter6traits12double_ended19DoubleEndedIterator8nth_backCs3cuHK5hCpJL_10displaydoc, symObjAddr: 0x35E0, symBinAddr: 0xB7E0, symSize: 0x70 }
  - { offset: 0x3532B, size: 0x8, addend: 0x0, symName: __RNvYINtNtCsdGrGZaRBwMb_3syn10punctuated11PrivateIterNtNtB7_8generics14WherePredicateNtNtB7_5token5CommaENtNtNtNtCsieiGu2EXtoJ_4core4iter6traits12double_ended19DoubleEndedIterator15advance_back_byCs3cuHK5hCpJL_10displaydoc, symObjAddr: 0x3740, symBinAddr: 0xB940, symSize: 0x1A0 }
  - { offset: 0x354AA, size: 0x8, addend: 0x0, symName: __RNvYINtNtCsdGrGZaRBwMb_3syn10punctuated11PrivateIterNtNtB7_8generics14WherePredicateNtNtB7_5token5CommaENtNtNtNtCsieiGu2EXtoJ_4core4iter6traits12double_ended19DoubleEndedIterator8nth_backCs3cuHK5hCpJL_10displaydoc, symObjAddr: 0x38E0, symBinAddr: 0xBAE0, symSize: 0x70 }
  - { offset: 0x35528, size: 0x8, addend: 0x0, symName: __RNvYINtNtCsdGrGZaRBwMb_3syn10punctuated14PrivateIterMutNtNtB7_8generics14WherePredicateNtNtB7_5token5CommaENtNtNtNtCsieiGu2EXtoJ_4core4iter6traits12double_ended19DoubleEndedIterator15advance_back_byCs3cuHK5hCpJL_10displaydoc, symObjAddr: 0x3A40, symBinAddr: 0xBC40, symSize: 0x1A0 }
  - { offset: 0x356A7, size: 0x8, addend: 0x0, symName: __RNvYINtNtCsdGrGZaRBwMb_3syn10punctuated14PrivateIterMutNtNtB7_8generics14WherePredicateNtNtB7_5token5CommaENtNtNtNtCsieiGu2EXtoJ_4core4iter6traits12double_ended19DoubleEndedIterator8nth_backCs3cuHK5hCpJL_10displaydoc, symObjAddr: 0x3BE0, symBinAddr: 0xBDE0, symSize: 0x70 }
  - { offset: 0x36050, size: 0x8, addend: 0x0, symName: __RINvXs3_NtNtCsieiGu2EXtoJ_4core4hash5implsRNtCsaKzlTDPUHDb_11proc_macro25IdentNtB8_4Hash4hashNtNtNtCsHUR1vrdMJt_3std4hash6random13DefaultHasherECs3cuHK5hCpJL_10displaydoc, symObjAddr: 0x640, symBinAddr: 0x8840, symSize: 0x20 }
  - { offset: 0x36B19, size: 0x8, addend: 0x0, symName: __RNvXNtNtCsieiGu2EXtoJ_4core3str4iterNtB2_5CharsNtNtNtNtB6_4iter6traits8iterator8Iterator4nextCs3cuHK5hCpJL_10displaydoc, symObjAddr: 0x2010, symBinAddr: 0xA210, symSize: 0x60 }
  - { offset: 0x36BEB, size: 0x8, addend: 0x0, symName: __RNvXs3_NtNtCsieiGu2EXtoJ_4core3str4iterNtB5_11CharIndicesNtNtNtNtB9_4iter6traits8iterator8Iterator4nextCs3cuHK5hCpJL_10displaydoc, symObjAddr: 0x2520, symBinAddr: 0xA720, symSize: 0x110 }
  - { offset: 0x36E30, size: 0x8, addend: 0x0, symName: __RNvXs4_NtNtCsieiGu2EXtoJ_4core3str4iterNtB5_11CharIndicesNtNtNtNtB9_4iter6traits12double_ended19DoubleEndedIterator9next_backCs3cuHK5hCpJL_10displaydoc, symObjAddr: 0x2630, symBinAddr: 0xA830, symSize: 0x150 }
  - { offset: 0x36F90, size: 0x8, addend: 0x0, symName: __RNvXsH_NtNtCsieiGu2EXtoJ_4core3str4iterINtB5_14SplitInclusivecENtNtNtNtB9_4iter6traits8iterator8Iterator4nextCs3cuHK5hCpJL_10displaydoc, symObjAddr: 0x29D0, symBinAddr: 0xABD0, symSize: 0x20 }
  - { offset: 0x36FCD, size: 0x8, addend: 0x0, symName: __RNvXss_NtNtCsieiGu2EXtoJ_4core3str4iterNtB5_5LinesNtNtNtNtB9_4iter6traits8iterator8Iterator4nextCs3cuHK5hCpJL_10displaydoc, symObjAddr: 0x2F70, symBinAddr: 0xB170, symSize: 0x20 }
  - { offset: 0x36FFB, size: 0x8, addend: 0x0, symName: __RNvXss_NtNtCsieiGu2EXtoJ_4core3str4iterNtB5_5LinesNtNtNtNtB9_4iter6traits8iterator8Iterator9size_hintCs3cuHK5hCpJL_10displaydoc, symObjAddr: 0x2F90, symBinAddr: 0xB190, symSize: 0x30 }
  - { offset: 0x37174, size: 0x8, addend: 0x0, symName: __RNvXs1_NtCsieiGu2EXtoJ_4core7convertNtCsaKzlTDPUHDb_11proc_macro211TokenStreamINtB5_4IntoNtCscKtU6MdFI5n_10proc_macro11TokenStreamE4intoCs3cuHK5hCpJL_10displaydoc, symObjAddr: 0x24A0, symBinAddr: 0xA6A0, symSize: 0x10 }
  - { offset: 0x3728A, size: 0x8, addend: 0x0, symName: __RNvNvNtNtCsieiGu2EXtoJ_4core4char7convert18from_u32_unchecked18precondition_checkCs3cuHK5hCpJL_10displaydoc, symObjAddr: 0x1E60, symBinAddr: 0xA060, symSize: 0xF0 }
  - { offset: 0x374CE, size: 0x8, addend: 0x0, symName: __RNvXNtCsieiGu2EXtoJ_4core6borrowNtCsaKzlTDPUHDb_11proc_macro25IdentINtB2_6BorrowBu_E6borrowCs3cuHK5hCpJL_10displaydoc, symObjAddr: 0x2000, symBinAddr: 0xA200, symSize: 0x10 }
  - { offset: 0x37BA6, size: 0x8, addend: 0x0, symName: __RINvNvNtCsHUR1vrdMJt_3std9panicking12catch_unwind7do_callINtNtNtCsieiGu2EXtoJ_4core5panic11unwind_safe16AssertUnwindSafeNCINvNtNtCscKtU6MdFI5n_10proc_macro6bridge6client10run_clientNtB1Z_11TokenStreamINtNtB10_6option6OptionB2T_ENCNCINvMs6_B1Z_INtB1Z_6ClientNtB23_11TokenStreamB47_E7expand1NvCs3cuHK5hCpJL_10displaydoc12derive_errorE00E0EuEB4F_, symObjAddr: 0x410, symBinAddr: 0x8610, symSize: 0x40 }
  - { offset: 0x37C6F, size: 0x8, addend: 0x0, symName: __RINvNvNtCsHUR1vrdMJt_3std9panicking12catch_unwind8do_catchINtNtNtCsieiGu2EXtoJ_4core5panic11unwind_safe16AssertUnwindSafeNCINvNtNtCscKtU6MdFI5n_10proc_macro6bridge6client10run_clientNtB20_11TokenStreamINtNtB11_6option6OptionB2U_ENCNCINvMs6_B20_INtB20_6ClientNtB24_11TokenStreamB48_E7expand1NvCs3cuHK5hCpJL_10displaydoc12derive_errorE00E0EuEB4G_, symObjAddr: 0x450, symBinAddr: 0x8650, symSize: 0x60 }
  - { offset: 0x38333, size: 0x8, addend: 0x0, symName: __RNvMNtCsdGrGZaRBwMb_3syn10punctuatedINtB2_10PunctuatedNtNtB4_4data7VariantNtNtB4_5token5CommaE4iterCs3cuHK5hCpJL_10displaydoc, symObjAddr: 0x1680, symBinAddr: 0x9880, symSize: 0xC0 }
  - { offset: 0x38385, size: 0x8, addend: 0x0, symName: __RNvMNtCsdGrGZaRBwMb_3syn10punctuatedINtB2_10PunctuatedNtNtB4_4data7VariantNtNtB4_5token5CommaE8is_emptyCs3cuHK5hCpJL_10displaydoc, symObjAddr: 0x1740, symBinAddr: 0x9940, symSize: 0x50 }
  - { offset: 0x38401, size: 0x8, addend: 0x0, symName: __RNvMNtCsdGrGZaRBwMb_3syn10punctuatedINtB2_10PunctuatedNtNtB4_8generics14WherePredicateNtNtB4_5token5CommaE4iterCs3cuHK5hCpJL_10displaydoc, symObjAddr: 0x1790, symBinAddr: 0x9990, symSize: 0xC0 }
  - { offset: 0x3846D, size: 0x8, addend: 0x0, symName: __RNvMNtCsdGrGZaRBwMb_3syn10punctuatedINtB2_10PunctuatedNtNtB4_8generics14WherePredicateNtNtB4_5token5CommaE8iter_mutCs3cuHK5hCpJL_10displaydoc, symObjAddr: 0x1850, symBinAddr: 0x9A50, symSize: 0xC0 }
  - { offset: 0x3866A, size: 0x8, addend: 0x0, symName: __RNvMNtCslJiobkLta79_5alloc5allocNtB2_6Global10alloc_implCs3cuHK5hCpJL_10displaydoc, symObjAddr: 0x1930, symBinAddr: 0x9B30, symSize: 0x290 }
  - { offset: 0x389F1, size: 0x8, addend: 0x0, symName: __RNvMsf_NtNtCsieiGu2EXtoJ_4core3str4iterINtB5_13SplitInternalcE14next_inclusiveCs3cuHK5hCpJL_10displaydoc, symObjAddr: 0x1BC0, symBinAddr: 0x9DC0, symSize: 0x160 }
  - { offset: 0x38BBB, size: 0x8, addend: 0x0, symName: __RNvXCsjK30CmJ87bX_9hashbrownNtCsaKzlTDPUHDb_11proc_macro25IdentINtB2_10EquivalentBq_E10equivalentCs3cuHK5hCpJL_10displaydoc, symObjAddr: 0x1F50, symBinAddr: 0xA150, symSize: 0x50 }
  - { offset: 0x38C3D, size: 0x8, addend: 0x0, symName: __RNvXNtCs9OU1sGv5X54_5quote9to_tokensRNtCsaKzlTDPUHDb_11proc_macro211TokenStreamNtB2_8ToTokens9to_tokensCs3cuHK5hCpJL_10displaydoc, symObjAddr: 0x1FA0, symBinAddr: 0xA1A0, symSize: 0x30 }
  - { offset: 0x38C7C, size: 0x8, addend: 0x0, symName: __RNvXNtCs9OU1sGv5X54_5quote9to_tokensRNtCsaKzlTDPUHDb_11proc_macro25IdentNtB2_8ToTokens9to_tokensCs3cuHK5hCpJL_10displaydoc, symObjAddr: 0x1FD0, symBinAddr: 0xA1D0, symSize: 0x30 }
  - { offset: 0x38CC1, size: 0x8, addend: 0x0, symName: __RNvYRNtNtCsdGrGZaRBwMb_3syn4data7VariantNtNtCs9OU1sGv5X54_5quote9to_tokens8ToTokens15to_token_streamCs3cuHK5hCpJL_10displaydoc, symObjAddr: 0x3D20, symBinAddr: 0xBF20, symSize: 0x90 }
  - { offset: 0x38D0B, size: 0x8, addend: 0x0, symName: __RNvYRNtNtCsdGrGZaRBwMb_3syn4data7VariantNtNtCs9OU1sGv5X54_5quote9to_tokens8ToTokens17into_token_streamCs3cuHK5hCpJL_10displaydoc, symObjAddr: 0x3DB0, symBinAddr: 0xBFB0, symSize: 0x50 }
  - { offset: 0x3966A, size: 0x8, addend: 0x0, symName: __RINvMNtCsdGrGZaRBwMb_3syn4attrNtB3_9Attribute10parse_argsNtNtB5_3lit6LitStrECs3cuHK5hCpJL_10displaydoc, symObjAddr: 0x0, symBinAddr: 0xC000, symSize: 0x30 }
  - { offset: 0x399AA, size: 0x8, addend: 0x0, symName: __RINvNvNtNtCscKtU6MdFI5n_10proc_macro6bridge14selfless_reify31reify_to_extern_c_fn_hrt_bridge7wrapperNtNtB6_6buffer6BufferNCINvMs6_NtB6_6clientINtB24_6ClientNtB8_11TokenStreamB2u_E7expand1NvCs3cuHK5hCpJL_10displaydoc12derive_errorE0EB31_, symObjAddr: 0x9E0, symBinAddr: 0xC9E0, symSize: 0xA0 }
  - { offset: 0x39F29, size: 0x8, addend: 0x0, symName: __RINvXsa_NtCsaKzlTDPUHDb_11proc_macro28fallbackNtB6_11TokenStreamINtNtNtNtCsieiGu2EXtoJ_4core4iter6traits7collect6ExtendNtB8_9TokenTreeE6extendNtB8_11TokenStreamECs3cuHK5hCpJL_10displaydoc, symObjAddr: 0xA80, symBinAddr: 0xCA80, symSize: 0xC0 }
  - { offset: 0x39F90, size: 0x8, addend: 0x0, symName: __RNCINvXsa_NtCsaKzlTDPUHDb_11proc_macro28fallbackNtB8_11TokenStreamINtNtNtNtCsieiGu2EXtoJ_4core4iter6traits7collect6ExtendNtBa_9TokenTreeE6extendNtBa_11TokenStreamE0Cs3cuHK5hCpJL_10displaydoc, symObjAddr: 0xD90, symBinAddr: 0xCD90, symSize: 0xA0 }
  - { offset: 0x39FDD, size: 0x8, addend: 0x0, symName: __RNvXsA_NtCsaKzlTDPUHDb_11proc_macro28fallbackNtB5_5IdentNtNtCsieiGu2EXtoJ_4core5clone5Clone5cloneCs3cuHK5hCpJL_10displaydoc, symObjAddr: 0x4010, symBinAddr: 0x10010, symSize: 0x90 }
  - { offset: 0x3A011, size: 0x8, addend: 0x0, symName: __RNvXss_NtCsaKzlTDPUHDb_11proc_macro28fallbackNtB5_11TokenStreamNtNtCsieiGu2EXtoJ_4core5clone5Clone5cloneCs3cuHK5hCpJL_10displaydoc, symObjAddr: 0x45E0, symBinAddr: 0x105E0, symSize: 0x20 }
  - { offset: 0x3A043, size: 0x8, addend: 0x0, symName: __RNvXsu_NtCsaKzlTDPUHDb_11proc_macro28fallbackNtB5_4SpanNtNtCsieiGu2EXtoJ_4core5clone5Clone5cloneCs3cuHK5hCpJL_10displaydoc, symObjAddr: 0x4600, symBinAddr: 0x10600, symSize: 0x10 }
  - { offset: 0x3A476, size: 0x8, addend: 0x0, symName: __RNCNvXs1_NtNtNtCsHUR1vrdMJt_3std2io5error14repr_bitpackedNtB7_4ReprNtNtNtCsieiGu2EXtoJ_4core3ops4drop4Drop4drop0Cs3cuHK5hCpJL_10displaydoc, symObjAddr: 0x1010, symBinAddr: 0xD010, symSize: 0x30 }
  - { offset: 0x3A52B, size: 0x8, addend: 0x0, symName: __RNvXs1_NtNtNtCsHUR1vrdMJt_3std2io5error14repr_bitpackedNtB5_4ReprNtNtNtCsieiGu2EXtoJ_4core3ops4drop4Drop4dropCs3cuHK5hCpJL_10displaydoc, symObjAddr: 0x38A0, symBinAddr: 0xF8A0, symSize: 0x30 }
  - { offset: 0x3A554, size: 0x8, addend: 0x0, symName: __RINvNtNtNtCsHUR1vrdMJt_3std2io5error14repr_bitpacked11decode_reprINtNtCslJiobkLta79_5alloc5boxed3BoxNtB4_6CustomENCNvXs1_B2_NtB2_4ReprNtNtNtCsieiGu2EXtoJ_4core3ops4drop4Drop4drop0ECs3cuHK5hCpJL_10displaydoc, symObjAddr: 0x7E0, symBinAddr: 0xC7E0, symSize: 0x200 }
  - { offset: 0x3A7B5, size: 0x8, addend: 0x0, symName: __RNvNtNtNtCsHUR1vrdMJt_3std2io5error14repr_bitpacked14kind_from_primCs3cuHK5hCpJL_10displaydoc, symObjAddr: 0x2A30, symBinAddr: 0xEA30, symSize: 0x5B0 }
  - { offset: 0x3B8BF, size: 0x8, addend: 0x0, symName: __RNvNvMs1_NtNtCsieiGu2EXtoJ_4core3ptr8non_nullINtB7_7NonNullpE13new_unchecked18precondition_checkCs3cuHK5hCpJL_10displaydoc, symObjAddr: 0x3190, symBinAddr: 0xF190, symSize: 0x90 }
  - { offset: 0x3E914, size: 0x8, addend: 0x0, symName: __RINvMNtCsieiGu2EXtoJ_4core3stre12trim_matchesNvMNtNtB5_4char7methodsc13is_whitespaceECs3cuHK5hCpJL_10displaydoc, symObjAddr: 0x470, symBinAddr: 0xC470, symSize: 0x180 }
  - { offset: 0x3EB07, size: 0x8, addend: 0x0, symName: __RINvMNtCsieiGu2EXtoJ_4core3stre18trim_start_matchescECs3cuHK5hCpJL_10displaydoc, symObjAddr: 0x5F0, symBinAddr: 0xC5F0, symSize: 0x110 }
  - { offset: 0x3ECA1, size: 0x8, addend: 0x0, symName: __RNvMNtCsieiGu2EXtoJ_4core3stre12char_indicesCs3cuHK5hCpJL_10displaydoc, symObjAddr: 0x1A60, symBinAddr: 0xDA60, symSize: 0x60 }
  - { offset: 0x3ECCF, size: 0x8, addend: 0x0, symName: __RNvMNtCsieiGu2EXtoJ_4core3stre4trimCs3cuHK5hCpJL_10displaydoc, symObjAddr: 0x1AC0, symBinAddr: 0xDAC0, symSize: 0x20 }
  - { offset: 0x3ECFD, size: 0x8, addend: 0x0, symName: __RNvMNtCsieiGu2EXtoJ_4core3stre5charsCs3cuHK5hCpJL_10displaydoc, symObjAddr: 0x1AE0, symBinAddr: 0xDAE0, symSize: 0x20 }
  - { offset: 0x3ED9F, size: 0x8, addend: 0x0, symName: __RNvMNtCsieiGu2EXtoJ_4core3stre5linesCs3cuHK5hCpJL_10displaydoc, symObjAddr: 0x1B00, symBinAddr: 0xDB00, symSize: 0xE0 }
  - { offset: 0x3F00A, size: 0x8, addend: 0x0, symName: __RNvXs3_NtCsieiGu2EXtoJ_4core3strNtB5_8LinesMapINtNtNtB7_3ops8function2FnTReEE4callCs3cuHK5hCpJL_10displaydoc, symObjAddr: 0x3C40, symBinAddr: 0xFC40, symSize: 0x230 }
  - { offset: 0x3F133, size: 0x8, addend: 0x0, symName: __RNvXs4_NtCsieiGu2EXtoJ_4core3strNtB5_8LinesMapINtNtNtB7_3ops8function5FnMutTReEE8call_mutCs3cuHK5hCpJL_10displaydoc, symObjAddr: 0x3FD0, symBinAddr: 0xFFD0, symSize: 0x40 }
  - { offset: 0x3F18C, size: 0x8, addend: 0x0, symName: __RNvXs_NtCsieiGu2EXtoJ_4core3streINtNtB6_7convert5AsRefShE6as_refCs3cuHK5hCpJL_10displaydoc, symObjAddr: 0x42B0, symBinAddr: 0x102B0, symSize: 0x20 }
  - { offset: 0x3F200, size: 0x8, addend: 0x0, symName: __RNcNtINtNtNtCsieiGu2EXtoJ_4core3ops12control_flow11ControlFlowINtNtBa_6option6OptionNtNtCs3cuHK5hCpJL_10displaydoc4attr14VariantDisplayEE5Break0B1o_, symObjAddr: 0x1040, symBinAddr: 0xD040, symSize: 0x30 }
  - { offset: 0x3F23B, size: 0x8, addend: 0x0, symName: __RNcNtINtNtNtCsieiGu2EXtoJ_4core3ops12control_flow11ControlFlowNtCsaKzlTDPUHDb_11proc_macro211TokenStreamE5Break0Cs3cuHK5hCpJL_10displaydoc, symObjAddr: 0x1070, symBinAddr: 0xD070, symSize: 0x30 }
  - { offset: 0x3F27C, size: 0x8, addend: 0x0, symName: __RNvXNtNtCsieiGu2EXtoJ_4core3ops12control_flowINtB2_11ControlFlowIBI_INtNtB6_6option6OptionNtNtCs3cuHK5hCpJL_10displaydoc4attr14VariantDisplayEEENtNtB4_9try_trait3Try11from_outputB1u_, symObjAddr: 0x3400, symBinAddr: 0xF400, symSize: 0x20 }
  - { offset: 0x3F2BA, size: 0x8, addend: 0x0, symName: __RNvXNtNtCsieiGu2EXtoJ_4core3ops12control_flowINtB2_11ControlFlowIBI_INtNtB6_6option6OptionNtNtCs3cuHK5hCpJL_10displaydoc4attr14VariantDisplayEEENtNtB4_9try_trait3Try6branchB1u_, symObjAddr: 0x3420, symBinAddr: 0xF420, symSize: 0xB0 }
  - { offset: 0x3F334, size: 0x8, addend: 0x0, symName: __RNvXNtNtCsieiGu2EXtoJ_4core3ops12control_flowINtB2_11ControlFlowIBI_NtCsaKzlTDPUHDb_11proc_macro211TokenStreamEENtNtB4_9try_trait3Try11from_outputCs3cuHK5hCpJL_10displaydoc, symObjAddr: 0x34D0, symBinAddr: 0xF4D0, symSize: 0x20 }
  - { offset: 0x3F372, size: 0x8, addend: 0x0, symName: __RNvXNtNtCsieiGu2EXtoJ_4core3ops12control_flowINtB2_11ControlFlowIBI_NtCsaKzlTDPUHDb_11proc_macro211TokenStreamEENtNtB4_9try_trait3Try6branchCs3cuHK5hCpJL_10displaydoc, symObjAddr: 0x34F0, symBinAddr: 0xF4F0, symSize: 0xB0 }
  - { offset: 0x3F3EC, size: 0x8, addend: 0x0, symName: __RNvXNtNtCsieiGu2EXtoJ_4core3ops12control_flowINtB2_11ControlFlowINtNtB6_6option6OptionNtNtCs3cuHK5hCpJL_10displaydoc4attr14VariantDisplayEENtNtB4_9try_trait3Try11from_outputB1q_, symObjAddr: 0x35A0, symBinAddr: 0xF5A0, symSize: 0x20 }
  - { offset: 0x3F42A, size: 0x8, addend: 0x0, symName: __RNvXNtNtCsieiGu2EXtoJ_4core3ops12control_flowINtB2_11ControlFlowINtNtB6_6option6OptionNtNtCs3cuHK5hCpJL_10displaydoc4attr14VariantDisplayEENtNtB4_9try_trait3Try6branchB1q_, symObjAddr: 0x35C0, symBinAddr: 0xF5C0, symSize: 0xB0 }
  - { offset: 0x3F4A4, size: 0x8, addend: 0x0, symName: __RNvXNtNtCsieiGu2EXtoJ_4core3ops12control_flowINtB2_11ControlFlowNtCsaKzlTDPUHDb_11proc_macro211TokenStreamENtNtB4_9try_trait3Try11from_outputCs3cuHK5hCpJL_10displaydoc, symObjAddr: 0x3670, symBinAddr: 0xF670, symSize: 0x20 }
  - { offset: 0x3F4E2, size: 0x8, addend: 0x0, symName: __RNvXNtNtCsieiGu2EXtoJ_4core3ops12control_flowINtB2_11ControlFlowNtCsaKzlTDPUHDb_11proc_macro211TokenStreamENtNtB4_9try_trait3Try6branchCs3cuHK5hCpJL_10displaydoc, symObjAddr: 0x3690, symBinAddr: 0xF690, symSize: 0xB0 }
  - { offset: 0x3F55C, size: 0x8, addend: 0x0, symName: __RNvXNtNtCsieiGu2EXtoJ_4core3ops12control_flowINtB2_11ControlFlowTRNtCsaKzlTDPUHDb_11proc_macro25IdentQINtNtCslJiobkLta79_5alloc3vec3VecNtNtCsdGrGZaRBwMb_3syn8generics10TraitBoundEEENtNtB4_9try_trait3Try11from_outputCs3cuHK5hCpJL_10displaydoc, symObjAddr: 0x3740, symBinAddr: 0xF740, symSize: 0x10 }
  - { offset: 0x3F59A, size: 0x8, addend: 0x0, symName: __RNvXNtNtCsieiGu2EXtoJ_4core3ops12control_flowINtB2_11ControlFlowTRNtCsaKzlTDPUHDb_11proc_macro25IdentQINtNtCslJiobkLta79_5alloc3vec3VecNtNtCsdGrGZaRBwMb_3syn8generics10TraitBoundEEENtNtB4_9try_trait3Try6branchCs3cuHK5hCpJL_10displaydoc, symObjAddr: 0x3750, symBinAddr: 0xF750, symSize: 0x60 }
  - { offset: 0x3F71D, size: 0x8, addend: 0x0, symName: __RNvXs_NtNtCsieiGu2EXtoJ_4core3ops12control_flowINtB4_11ControlFlowIBK_INtNtB8_6option6OptionNtNtCs3cuHK5hCpJL_10displaydoc4attr14VariantDisplayEEEINtNtB6_9try_trait12FromResidualIBK_B12_NtNtB8_7convert10InfallibleEE13from_residualB1w_, symObjAddr: 0x42D0, symBinAddr: 0x102D0, symSize: 0x40 }
  - { offset: 0x3F75C, size: 0x8, addend: 0x0, symName: __RNvXs_NtNtCsieiGu2EXtoJ_4core3ops12control_flowINtB4_11ControlFlowIBK_NtCsaKzlTDPUHDb_11proc_macro211TokenStreamEEINtNtB6_9try_trait12FromResidualIBK_B12_NtNtB8_7convert10InfallibleEE13from_residualCs3cuHK5hCpJL_10displaydoc, symObjAddr: 0x4310, symBinAddr: 0x10310, symSize: 0x50 }
  - { offset: 0x3F79A, size: 0x8, addend: 0x0, symName: __RNvXs_NtNtCsieiGu2EXtoJ_4core3ops12control_flowINtB4_11ControlFlowINtNtB8_6option6OptionNtNtCs3cuHK5hCpJL_10displaydoc4attr14VariantDisplayEEINtNtB6_9try_trait12FromResidualIBK_B12_NtNtB8_7convert10InfallibleEE13from_residualB1s_, symObjAddr: 0x4360, symBinAddr: 0x10360, symSize: 0x40 }
  - { offset: 0x3F7D9, size: 0x8, addend: 0x0, symName: __RNvXs_NtNtCsieiGu2EXtoJ_4core3ops12control_flowINtB4_11ControlFlowNtCsaKzlTDPUHDb_11proc_macro211TokenStreamEINtNtB6_9try_trait12FromResidualIBK_B12_NtNtB8_7convert10InfallibleEE13from_residualCs3cuHK5hCpJL_10displaydoc, symObjAddr: 0x43A0, symBinAddr: 0x103A0, symSize: 0x50 }
  - { offset: 0x3F817, size: 0x8, addend: 0x0, symName: __RNvXs_NtNtCsieiGu2EXtoJ_4core3ops12control_flowINtB4_11ControlFlowTRNtCsaKzlTDPUHDb_11proc_macro25IdentQINtNtCslJiobkLta79_5alloc3vec3VecNtNtCsdGrGZaRBwMb_3syn8generics10TraitBoundEEEINtNtB6_9try_trait12FromResidualIBK_B12_NtNtB8_7convert10InfallibleEE13from_residualCs3cuHK5hCpJL_10displaydoc, symObjAddr: 0x43F0, symBinAddr: 0x103F0, symSize: 0x20 }
  - { offset: 0x40488, size: 0x8, addend: 0x0, symName: __RNvXs1_NtNtNtCsieiGu2EXtoJ_4core4iter8adapters3zipINtB5_3ZipINtNtCsdGrGZaRBwMb_3syn10punctuated4IterNtNtB11_4data7VariantEINtNtNtCslJiobkLta79_5alloc3vec9into_iter8IntoIterINtNtBb_6option6OptionNtNtCs3cuHK5hCpJL_10displaydoc4attr14VariantDisplayEEEINtB5_7ZipImplBW_B1W_E3newB3a_, symObjAddr: 0x38D0, symBinAddr: 0xF8D0, symSize: 0x50 }
  - { offset: 0x404D5, size: 0x8, addend: 0x0, symName: __RNvXs1_NtNtNtCsieiGu2EXtoJ_4core4iter8adapters3zipINtB5_3ZipINtNtCsdGrGZaRBwMb_3syn10punctuated4IterNtNtB11_4data7VariantEINtNtNtCslJiobkLta79_5alloc3vec9into_iter8IntoIterINtNtBb_6option6OptionNtNtCs3cuHK5hCpJL_10displaydoc4attr14VariantDisplayEEEINtB5_7ZipImplBW_B1W_E4nextB3a_, symObjAddr: 0x3920, symBinAddr: 0xF920, symSize: 0x1B0 }
  - { offset: 0x40638, size: 0x8, addend: 0x0, symName: __RNvXs1_NtNtNtCsieiGu2EXtoJ_4core4iter8adapters3zipINtB5_3ZipINtNtCsdGrGZaRBwMb_3syn10punctuated4IterNtNtB11_4data7VariantEINtNtNtCslJiobkLta79_5alloc3vec9into_iter8IntoIterINtNtBb_6option6OptionNtNtCs3cuHK5hCpJL_10displaydoc4attr14VariantDisplayEEEINtB5_7ZipImplBW_B1W_E9size_hintB3a_, symObjAddr: 0x3AD0, symBinAddr: 0xFAD0, symSize: 0x170 }
  - { offset: 0x407A9, size: 0x8, addend: 0x0, symName: __RNvXs_NtNtNtCsieiGu2EXtoJ_4core4iter8adapters3zipINtB4_3ZipINtNtCsdGrGZaRBwMb_3syn10punctuated4IterNtNtB10_4data7VariantEINtNtNtCslJiobkLta79_5alloc3vec9into_iter8IntoIterINtNtBa_6option6OptionNtNtCs3cuHK5hCpJL_10displaydoc4attr14VariantDisplayEEENtNtNtB8_6traits8iterator8Iterator4nextB39_, symObjAddr: 0x4410, symBinAddr: 0x10410, symSize: 0x30 }
  - { offset: 0x407E7, size: 0x8, addend: 0x0, symName: __RNvXs_NtNtNtCsieiGu2EXtoJ_4core4iter8adapters3zipINtB4_3ZipINtNtCsdGrGZaRBwMb_3syn10punctuated4IterNtNtB10_4data7VariantEINtNtNtCslJiobkLta79_5alloc3vec9into_iter8IntoIterINtNtBa_6option6OptionNtNtCs3cuHK5hCpJL_10displaydoc4attr14VariantDisplayEEENtNtNtB8_6traits8iterator8Iterator9size_hintB39_, symObjAddr: 0x4440, symBinAddr: 0x10440, symSize: 0x30 }
  - { offset: 0x40831, size: 0x8, addend: 0x0, symName: __RNvXs_NtNtNtCsieiGu2EXtoJ_4core4iter8adapters6clonedINtB4_6ClonedINtNtB6_7flatten7FlatMapINtNtCsdGrGZaRBwMb_3syn10punctuated4IterNtNtB1u_8generics14TypeParamBoundEINtNtBa_6option6OptionRNtB25_10TraitBoundENCNCNvNtCs3cuHK5hCpJL_10displaydoc6expand37extract_trait_constraints_from_source00EENtNtNtB8_6traits8iterator8Iterator4nextB3p_, symObjAddr: 0x4470, symBinAddr: 0x10470, symSize: 0xB0 }
  - { offset: 0x408A7, size: 0x8, addend: 0x0, symName: __RNvXs_NtNtNtCsieiGu2EXtoJ_4core4iter8adapters6clonedINtB4_6ClonedINtNtB6_7flatten7FlatMapINtNtCsdGrGZaRBwMb_3syn10punctuated4IterNtNtB1u_8generics14TypeParamBoundEINtNtBa_6option6OptionRNtB25_10TraitBoundENCNCNvNtCs3cuHK5hCpJL_10displaydoc6expand37extract_trait_constraints_from_source00EENtNtNtB8_6traits8iterator8Iterator9size_hintB3p_, symObjAddr: 0x4520, symBinAddr: 0x10520, symSize: 0x30 }
  - { offset: 0x409D8, size: 0x8, addend: 0x0, symName: __RINvYINtNtNtNtCsieiGu2EXtoJ_4core4iter8adapters3zip3ZipINtNtCsdGrGZaRBwMb_3syn10punctuated4IterNtNtBW_4data7VariantEINtNtNtCslJiobkLta79_5alloc3vec9into_iter8IntoIterINtNtBc_6option6OptionNtNtCs3cuHK5hCpJL_10displaydoc4attr14VariantDisplayEEENtNtNtBa_6traits8iterator8Iterator3mapINtNtBc_6result6ResultNtCsaKzlTDPUHDb_11proc_macro211TokenStreamNtNtBW_5error5ErrorENCNvNtB34_6expand9impl_enums_0EB34_, symObjAddr: 0xB40, symBinAddr: 0xCB40, symSize: 0x30 }
  - { offset: 0x40A46, size: 0x8, addend: 0x0, symName: __RINvYINtNtNtNtCsieiGu2EXtoJ_4core4iter8adapters3zip3ZipINtNtCsdGrGZaRBwMb_3syn10punctuated4IterNtNtBW_4data7VariantEINtNtNtCslJiobkLta79_5alloc3vec9into_iter8IntoIterINtNtBc_6option6OptionNtNtCs3cuHK5hCpJL_10displaydoc4attr14VariantDisplayEEENtNtNtBa_6traits8iterator8Iterator8try_folduNCINvNtB8_3map12map_try_foldTRB1v_B2E_EINtNtBc_6result6ResultNtCsaKzlTDPUHDb_11proc_macro211TokenStreamNtNtBW_5error5ErrorEuINtNtNtBc_3ops12control_flow11ControlFlowIB6B_B5z_EENCNvNtB34_6expand9impl_enums_0NCINvXB8_INtB8_12GenericShuntINtB4F_3MapB3_B7q_EIB5e_NtNtBc_7convert10InfallibleB6f_EEB3S_8try_folduNCINvNvB3S_12try_for_each4callB5z_B7f_NcNtB7f_5Break0E0B7f_E0E0B6A_EB34_, symObjAddr: 0xB70, symBinAddr: 0xCB70, symSize: 0x1A0 }
  - { offset: 0x40B03, size: 0x8, addend: 0x0, symName: __RINvYINtNtNtNtCsieiGu2EXtoJ_4core4iter8adapters6cloned6ClonedINtNtB8_7flatten7FlatMapINtNtCsdGrGZaRBwMb_3syn10punctuated4IterNtNtB1q_8generics14TypeParamBoundEINtNtBc_6option6OptionRNtB21_10TraitBoundENCNCNvNtCs3cuHK5hCpJL_10displaydoc6expand37extract_trait_constraints_from_source00EENtNtNtBa_6traits8iterator8Iterator7collectINtNtCslJiobkLta79_5alloc3vec3VecB2U_EEB3l_, symObjAddr: 0xD10, symBinAddr: 0xCD10, symSize: 0x80 }
  - { offset: 0x40C0A, size: 0x8, addend: 0x0, symName: __RNvXNtNtNtCsieiGu2EXtoJ_4core4iter6traits7collectINtNtNtB6_8adapters6cloned6ClonedINtNtBQ_7flatten7FlatMapINtNtCsdGrGZaRBwMb_3syn10punctuated4IterNtNtB1L_8generics14TypeParamBoundEINtNtB8_6option6OptionRNtB2m_10TraitBoundENCNCNvNtCs3cuHK5hCpJL_10displaydoc6expand37extract_trait_constraints_from_source00EENtB2_12IntoIterator9into_iterB3G_, symObjAddr: 0x37B0, symBinAddr: 0xF7B0, symSize: 0x30 }
  - { offset: 0x40C79, size: 0x8, addend: 0x0, symName: __RNvYINtNtNtCslJiobkLta79_5alloc3vec9into_iter8IntoIterINtNtCsieiGu2EXtoJ_4core6option6OptionNtNtCs3cuHK5hCpJL_10displaydoc4attr14VariantDisplayEENtNtNtNtBV_4iter6traits10exact_size17ExactSizeIterator3lenB1w_, symObjAddr: 0x4610, symBinAddr: 0x10610, symSize: 0xE0 }
  - { offset: 0x40E32, size: 0x8, addend: 0x0, symName: __RNvMNtCsieiGu2EXtoJ_4core5sliceSRe8is_emptyCs3cuHK5hCpJL_10displaydoc, symObjAddr: 0x1BE0, symBinAddr: 0xDBE0, symSize: 0x20 }
  - { offset: 0x40EB5, size: 0x8, addend: 0x0, symName: __RNvMNtCsieiGu2EXtoJ_4core5sliceSh15copy_from_sliceCs3cuHK5hCpJL_10displaydoc, symObjAddr: 0x1C00, symBinAddr: 0xDC00, symSize: 0xA0 }
  - { offset: 0x40F5E, size: 0x8, addend: 0x0, symName: __RNvNvMNtCsieiGu2EXtoJ_4core5sliceSp22split_at_mut_unchecked18precondition_checkCs3cuHK5hCpJL_10displaydoc, symObjAddr: 0x30F0, symBinAddr: 0xF0F0, symSize: 0xA0 }
  - { offset: 0x40FF9, size: 0x8, addend: 0x0, symName: __RNvNtNtNtCsieiGu2EXtoJ_4core7unicode12unicode_data11white_space6lookupCs3cuHK5hCpJL_10displaydoc, symObjAddr: 0x2FE0, symBinAddr: 0xEFE0, symSize: 0x110 }
  - { offset: 0x4687C, size: 0x8, addend: 0x0, symName: __RNvXNvXsd_NtNtCslJiobkLta79_5alloc3vec9into_iterINtB8_8IntoIterppENtNtNtCsieiGu2EXtoJ_4core3ops4drop4Drop4dropINtB2_9DropGuardINtNtB18_6option6OptionNtNtCs3cuHK5hCpJL_10displaydoc4attr14VariantDisplayENtNtBc_5alloc6GlobalEB12_4dropB2r_, symObjAddr: 0x37E0, symBinAddr: 0xF7E0, symSize: 0x70 }
  - { offset: 0x469BA, size: 0x8, addend: 0x0, symName: __RNvXsd_NtNtCslJiobkLta79_5alloc3vec9into_iterINtB5_8IntoIterINtNtCsieiGu2EXtoJ_4core6option6OptionNtNtCs3cuHK5hCpJL_10displaydoc4attr14VariantDisplayEENtNtNtB11_3ops4drop4Drop4dropB1C_, symObjAddr: 0x4550, symBinAddr: 0x10550, symSize: 0x90 }
  - { offset: 0x46A5B, size: 0x8, addend: 0x0, symName: __RNvXs3_NtNtCslJiobkLta79_5alloc3vec9into_iterINtB5_8IntoIterINtNtCsieiGu2EXtoJ_4core6option6OptionNtNtCs3cuHK5hCpJL_10displaydoc4attr14VariantDisplayEENtNtNtNtB11_4iter6traits8iterator8Iterator4nextB1C_, symObjAddr: 0x3E70, symBinAddr: 0xFE70, symSize: 0x100 }
  - { offset: 0x46BB9, size: 0x8, addend: 0x0, symName: __RNvXs3_NtNtCslJiobkLta79_5alloc3vec9into_iterINtB5_8IntoIterINtNtCsieiGu2EXtoJ_4core6option6OptionNtNtCs3cuHK5hCpJL_10displaydoc4attr14VariantDisplayEENtNtNtNtB11_4iter6traits8iterator8Iterator9size_hintB1C_, symObjAddr: 0x3F70, symBinAddr: 0xFF70, symSize: 0x60 }
  - { offset: 0x478CF, size: 0x8, addend: 0x0, symName: __RINvMNtCsdGrGZaRBwMb_3syn4attrNtB3_9Attribute10parse_argsNtNtB5_3lit6LitStrECs3cuHK5hCpJL_10displaydoc, symObjAddr: 0x0, symBinAddr: 0xC000, symSize: 0x30 }
  - { offset: 0x479CE, size: 0x8, addend: 0x0, symName: __RINvMNtCsdGrGZaRBwMb_3syn4attrNtB3_9Attribute15parse_args_withNvYNtNtB5_3lit6LitStrNtNtB5_5parse5Parse5parseECs3cuHK5hCpJL_10displaydoc, symObjAddr: 0x30, symBinAddr: 0xC030, symSize: 0x440 }
  - { offset: 0x47B47, size: 0x8, addend: 0x0, symName: __RINvMs0_NtCsdGrGZaRBwMb_3syn4attrNtB6_8MetaList15parse_args_withNvYNtNtB8_3lit6LitStrNtNtB8_5parse5Parse5parseECs3cuHK5hCpJL_10displaydoc, symObjAddr: 0x700, symBinAddr: 0xC700, symSize: 0xE0 }
  - { offset: 0x47E40, size: 0x8, addend: 0x0, symName: __RNCNvMs0_NtCs3cuHK5hCpJL_10displaydoc4attrNtB7_11AttrsHelper18display_with_input0B9_, symObjAddr: 0xE30, symBinAddr: 0xCE30, symSize: 0x60 }
  - { offset: 0x47E83, size: 0x8, addend: 0x0, symName: __RNCNvMs0_NtCs3cuHK5hCpJL_10displaydoc4attrNtB7_11AttrsHelper3new0B9_, symObjAddr: 0xE90, symBinAddr: 0xCE90, symSize: 0x50 }
  - { offset: 0x47EB9, size: 0x8, addend: 0x0, symName: __RNCNvMs0_NtCs3cuHK5hCpJL_10displaydoc4attrNtB7_11AttrsHelper3news_0B9_, symObjAddr: 0xEE0, symBinAddr: 0xCEE0, symSize: 0x50 }
  - { offset: 0x47F03, size: 0x8, addend: 0x0, symName: __RNCNvMs0_NtCs3cuHK5hCpJL_10displaydoc4attrNtB7_11AttrsHelper7display0B9_, symObjAddr: 0xF30, symBinAddr: 0xCF30, symSize: 0x40 }
  - { offset: 0x47F39, size: 0x8, addend: 0x0, symName: __RNCNvMs0_NtCs3cuHK5hCpJL_10displaydoc4attrNtB7_11AttrsHelper7displays0_0B9_, symObjAddr: 0xF70, symBinAddr: 0xCF70, symSize: 0x60 }
  - { offset: 0x47F6F, size: 0x8, addend: 0x0, symName: __RNCNvMs0_NtCs3cuHK5hCpJL_10displaydoc4attrNtB7_11AttrsHelper7displays_0B9_, symObjAddr: 0xFD0, symBinAddr: 0xCFD0, symSize: 0x40 }
  - { offset: 0x48030, size: 0x8, addend: 0x0, symName: __RNvXNtCs3cuHK5hCpJL_10displaydoc4attrNtB2_7DisplayNtNtCs9OU1sGv5X54_5quote9to_tokens8ToTokens9to_tokens, symObjAddr: 0x3220, symBinAddr: 0xF220, symSize: 0x180 }
  - { offset: 0x480C3, size: 0x8, addend: 0x0, symName: __RNvXs_NtCs3cuHK5hCpJL_10displaydoc4attrNtB4_14VariantDisplayNtNtCs9OU1sGv5X54_5quote9to_tokens8ToTokens9to_tokens, symObjAddr: 0x40A0, symBinAddr: 0x100A0, symSize: 0x210 }
  - { offset: 0x48293, size: 0x8, addend: 0x0, symName: __RNvMNtCs3cuHK5hCpJL_10displaydoc3fmtNtNtB4_4attr7Display16expand_shorthand, symObjAddr: 0x10A0, symBinAddr: 0xD0A0, symSize: 0x9C0 }
  - { offset: 0x484DB, size: 0x8, addend: 0x0, symName: __RNvXs1_NtCsjK30CmJ87bX_9hashbrown10scopeguardINtB5_10ScopeGuardNtNtB7_3raw13RawTableInnerNCINvMsa_B11_BZ_14prepare_resizeNtNtCslJiobkLta79_5alloc5alloc6GlobalE0ENtNtNtCsieiGu2EXtoJ_4core3ops4drop4Drop4dropCs3cuHK5hCpJL_10displaydoc, symObjAddr: 0x3850, symBinAddr: 0xF850, symSize: 0x20 }
  - { offset: 0x48515, size: 0x8, addend: 0x0, symName: __RNvXs1_NtCsjK30CmJ87bX_9hashbrown10scopeguardINtB5_10ScopeGuardQNtNtB7_3raw13RawTableInnerNCNvMsa_B12_B10_15rehash_in_place0ENtNtNtCsieiGu2EXtoJ_4core3ops4drop4Drop4dropCs3cuHK5hCpJL_10displaydoc, symObjAddr: 0x3870, symBinAddr: 0xF870, symSize: 0x30 }
  - { offset: 0x4867A, size: 0x8, addend: 0x0, symName: __RNvMNtNtNtCsjK30CmJ87bX_9hashbrown7control5group4sse2NtB2_5Group44convert_special_to_empty_and_full_to_deletedCs3cuHK5hCpJL_10displaydoc, symObjAddr: 0x1CA0, symBinAddr: 0xDCA0, symSize: 0xD0 }
  - { offset: 0x4870E, size: 0x8, addend: 0x0, symName: __RNvMs0_NtCs3cuHK5hCpJL_10displaydoc4attrNtB5_11AttrsHelper18display_with_input, symObjAddr: 0x1D70, symBinAddr: 0xDD70, symSize: 0x360 }
  - { offset: 0x487BC, size: 0x8, addend: 0x0, symName: __RNvMs0_NtCs3cuHK5hCpJL_10displaydoc4attrNtB5_11AttrsHelper3new, symObjAddr: 0x20D0, symBinAddr: 0xE0D0, symSize: 0x70 }
  - { offset: 0x487FB, size: 0x8, addend: 0x0, symName: __RNvMs0_NtCs3cuHK5hCpJL_10displaydoc4attrNtB5_11AttrsHelper7display, symObjAddr: 0x2140, symBinAddr: 0xE140, symSize: 0x6E0 }
  - { offset: 0x4895A, size: 0x8, addend: 0x0, symName: __RNvMs1_NtNtCsieiGu2EXtoJ_4core3ptr8non_nullINtB5_7NonNullINtNtB9_6option6OptionNtNtCs3cuHK5hCpJL_10displaydoc4attr14VariantDisplayEE20offset_from_unsignedB1j_, symObjAddr: 0x2820, symBinAddr: 0xE820, symSize: 0x70 }
  - { offset: 0x48A71, size: 0x8, addend: 0x0, symName: __RNvMs1_NtNtCsieiGu2EXtoJ_4core3ptr8non_nullINtB5_7NonNullRNtNtCsdGrGZaRBwMb_3syn8generics9TypeParamE20offset_from_unsignedCs3cuHK5hCpJL_10displaydoc, symObjAddr: 0x2890, symBinAddr: 0xE890, symSize: 0x60 }
  - { offset: 0x48B7B, size: 0x8, addend: 0x0, symName: __RNvMs1_NtNtCsieiGu2EXtoJ_4core3ptr8non_nullINtB5_7NonNullReE20offset_from_unsignedCs3cuHK5hCpJL_10displaydoc, symObjAddr: 0x28F0, symBinAddr: 0xE8F0, symSize: 0x60 }
  - { offset: 0x48C85, size: 0x8, addend: 0x0, symName: __RNvMs1_NtNtCsieiGu2EXtoJ_4core3ptr8non_nullINtB5_7NonNullTNtNtCsdGrGZaRBwMb_3syn4data7VariantNtNtBY_5token5CommaEE20offset_from_unsignedCs3cuHK5hCpJL_10displaydoc, symObjAddr: 0x2950, symBinAddr: 0xE950, symSize: 0x70 }
  - { offset: 0x48D8F, size: 0x8, addend: 0x0, symName: __RNvMs1_NtNtCsieiGu2EXtoJ_4core3ptr8non_nullINtB5_7NonNullTNtNtCsdGrGZaRBwMb_3syn8generics14WherePredicateNtNtBY_5token5CommaEE20offset_from_unsignedCs3cuHK5hCpJL_10displaydoc, symObjAddr: 0x29C0, symBinAddr: 0xE9C0, symSize: 0x70 }
  - { offset: 0x48E96, size: 0x8, addend: 0x0, symName: __RNvXNtCs9OU1sGv5X54_5quote14ident_fragmentRjNtB2_13IdentFragment3fmtCs3cuHK5hCpJL_10displaydoc, symObjAddr: 0x33A0, symBinAddr: 0xF3A0, symSize: 0x30 }
  - { offset: 0x48ED9, size: 0x8, addend: 0x0, symName: __RNvXNtCs9OU1sGv5X54_5quote14ident_fragmentRjNtB2_13IdentFragment4spanCs3cuHK5hCpJL_10displaydoc, symObjAddr: 0x33D0, symBinAddr: 0xF3D0, symSize: 0x30 }
  - { offset: 0x48F14, size: 0x8, addend: 0x0, symName: __RNvYjNtNtCs9OU1sGv5X54_5quote14ident_fragment13IdentFragment4spanCs3cuHK5hCpJL_10displaydoc, symObjAddr: 0x46F0, symBinAddr: 0x106F0, symSize: 0x20 }
  - { offset: 0x494F4, size: 0x8, addend: 0x0, symName: __RINvMs2_NtNtCsHUR1vrdMJt_3std6thread5localINtB6_8LocalKeyINtNtCsieiGu2EXtoJ_4core4cell4CellPuEE4withNCNvMs3_B6_BE_7replace0B1r_ECs3cuHK5hCpJL_10displaydoc, symObjAddr: 0x0, symBinAddr: 0x10710, symSize: 0x50 }
  - { offset: 0x4CE9A, size: 0x8, addend: 0x0, symName: __RNvXs5_NtNtCsieiGu2EXtoJ_4core5slice5indexINtNtNtB9_3ops5range9RangeFromjEINtB5_10SliceIndexSReE5indexCs3cuHK5hCpJL_10displaydoc, symObjAddr: 0x26E0, symBinAddr: 0x12DF0, symSize: 0x80 }
  - { offset: 0x4CFB1, size: 0x8, addend: 0x0, symName: __RNvNvNtNtCsieiGu2EXtoJ_4core5slice3raw14from_raw_parts18precondition_checkCs3cuHK5hCpJL_10displaydoc, symObjAddr: 0x19B0, symBinAddr: 0x120C0, symSize: 0x260 }
  - { offset: 0x4D17F, size: 0x8, addend: 0x0, symName: __RNvNvNtNtCsieiGu2EXtoJ_4core5slice3raw18from_raw_parts_mut18precondition_checkCs3cuHK5hCpJL_10displaydoc, symObjAddr: 0x1C10, symBinAddr: 0x12320, symSize: 0x260 }
  - { offset: 0x4D8C9, size: 0x8, addend: 0x0, symName: __RNvMs9_NtCsieiGu2EXtoJ_4core3numj11checked_addCs3cuHK5hCpJL_10displaydoc, symObjAddr: 0x1200, symBinAddr: 0x11910, symSize: 0x70 }
  - { offset: 0x4D953, size: 0x8, addend: 0x0, symName: __RNvNvMs9_NtCsieiGu2EXtoJ_4core3numj13unchecked_add18precondition_checkCs3cuHK5hCpJL_10displaydoc, symObjAddr: 0x1890, symBinAddr: 0x11FA0, symSize: 0xA0 }
  - { offset: 0x4DAC7, size: 0x8, addend: 0x0, symName: __RNvNvMs3_NtCsieiGu2EXtoJ_4core3numi13unchecked_neg18precondition_checkCs3cuHK5hCpJL_10displaydoc, symObjAddr: 0x17E0, symBinAddr: 0x11EF0, symSize: 0xB0 }
  - { offset: 0x4DC48, size: 0x8, addend: 0x0, symName: __RINvYINtNtNtCsieiGu2EXtoJ_4core3ops5range5RangejENtNtNtNtBa_4iter6traits8iterator8Iterator3mapNtCsaKzlTDPUHDb_11proc_macro25IdentNCNCNvNtCs3cuHK5hCpJL_10displaydoc6expand11impl_struct0s_0EB2b_, symObjAddr: 0x790, symBinAddr: 0x10EA0, symSize: 0x20 }
  - { offset: 0x4DCA0, size: 0x8, addend: 0x0, symName: __RINvYINtNtNtCsieiGu2EXtoJ_4core3ops5range5RangejENtNtNtNtBa_4iter6traits8iterator8Iterator3mapNtCsaKzlTDPUHDb_11proc_macro25IdentNCNCNvNtCs3cuHK5hCpJL_10displaydoc6expand9impl_enums_0s0_0EB2b_, symObjAddr: 0x7B0, symBinAddr: 0x10EC0, symSize: 0x20 }
  - { offset: 0x4DD05, size: 0x8, addend: 0x0, symName: __RNvXs3_NtNtCsieiGu2EXtoJ_4core4iter5rangeINtNtNtB9_3ops5range5RangejENtB5_17RangeIteratorImpl9spec_nextCs3cuHK5hCpJL_10displaydoc, symObjAddr: 0x23B0, symBinAddr: 0x12AC0, symSize: 0x80 }
  - { offset: 0x4DD86, size: 0x8, addend: 0x0, symName: __RNvXs4_NtNtCsieiGu2EXtoJ_4core4iter5rangeINtNtNtB9_3ops5range5RangejENtNtNtB7_6traits8iterator8Iterator4nextCs3cuHK5hCpJL_10displaydoc, symObjAddr: 0x2430, symBinAddr: 0x12B40, symSize: 0x20 }
  - { offset: 0x4DE34, size: 0x8, addend: 0x0, symName: __RNvXsh_NtNtNtCsieiGu2EXtoJ_4core4iter8adapters7step_byINtNtNtBb_3ops5range5RangejEINtB5_14SpecRangeSetupBQ_E5setupCs3cuHK5hCpJL_10displaydoc, symObjAddr: 0x3160, symBinAddr: 0x13870, symSize: 0x160 }
  - { offset: 0x4E140, size: 0x8, addend: 0x0, symName: __RNvNtNtCsieiGu2EXtoJ_4core4hash3sip9u8to64_leCs3cuHK5hCpJL_10displaydoc, symObjAddr: 0x1270, symBinAddr: 0x11980, symSize: 0x290 }
  - { offset: 0x4E2FD, size: 0x8, addend: 0x0, symName: __RNvXs3_NtNtCsieiGu2EXtoJ_4core4hash3sipINtB5_6HasherNtB5_11Sip13RoundsENtB7_6Hasher5writeCs3cuHK5hCpJL_10displaydoc, symObjAddr: 0x2080, symBinAddr: 0x12790, symSize: 0x260 }
  - { offset: 0x4E473, size: 0x8, addend: 0x0, symName: __RNvXs3_NtNtCsieiGu2EXtoJ_4core4hash3sipINtB5_6HasherNtB5_11Sip13RoundsENtB7_6Hasher6finishCs3cuHK5hCpJL_10displaydoc, symObjAddr: 0x22E0, symBinAddr: 0x129F0, symSize: 0x90 }
  - { offset: 0x4E4E6, size: 0x8, addend: 0x0, symName: __RNvXs3_NtNtCsieiGu2EXtoJ_4core4hash3sipINtB5_6HasherNtB5_11Sip13RoundsENtB7_6Hasher9write_strCs3cuHK5hCpJL_10displaydoc, symObjAddr: 0x2370, symBinAddr: 0x12A80, symSize: 0x40 }
  - { offset: 0x4E54C, size: 0x8, addend: 0x0, symName: __RNvXs6_NtNtCsieiGu2EXtoJ_4core4hash3sipNtB5_11Sip13RoundsNtB5_3Sip8c_roundsCs3cuHK5hCpJL_10displaydoc, symObjAddr: 0x2760, symBinAddr: 0x12E70, symSize: 0x180 }
  - { offset: 0x4E6C8, size: 0x8, addend: 0x0, symName: __RNvXs6_NtNtCsieiGu2EXtoJ_4core4hash3sipNtB5_11Sip13RoundsNtB5_3Sip8d_roundsCs3cuHK5hCpJL_10displaydoc, symObjAddr: 0x28E0, symBinAddr: 0x12FF0, symSize: 0x4C0 }
  - { offset: 0x4EB8E, size: 0x8, addend: 0x0, symName: __RNvNtNtNtCsieiGu2EXtoJ_4core9core_arch3x864sse212__mm_or_si128Cs3cuHK5hCpJL_10displaydoc, symObjAddr: 0x1500, symBinAddr: 0x11C10, symSize: 0x20 }
  - { offset: 0x4EC9D, size: 0x8, addend: 0x0, symName: __RNvNtNtNtCsieiGu2EXtoJ_4core9core_arch3x864sse213__mm_set1_epi8Cs3cuHK5hCpJL_10displaydoc, symObjAddr: 0x1520, symBinAddr: 0x11C30, symSize: 0x90 }
  - { offset: 0x4EDF7, size: 0x8, addend: 0x0, symName: __RNvNtNtNtCsieiGu2EXtoJ_4core9core_arch3x864sse214__mm_cmpeq_epi8Cs3cuHK5hCpJL_10displaydoc, symObjAddr: 0x15B0, symBinAddr: 0x11CC0, symSize: 0x80 }
  - { offset: 0x4EE37, size: 0x8, addend: 0x0, symName: __RNvNtNtNtCsieiGu2EXtoJ_4core9core_arch3x864sse214__mm_cmpgt_epi8Cs3cuHK5hCpJL_10displaydoc, symObjAddr: 0x1630, symBinAddr: 0x11D40, symSize: 0x80 }
  - { offset: 0x4EE77, size: 0x8, addend: 0x0, symName: __RNvNtNtNtCsieiGu2EXtoJ_4core9core_arch3x864sse214__mm_load_si128Cs3cuHK5hCpJL_10displaydoc, symObjAddr: 0x16B0, symBinAddr: 0x11DC0, symSize: 0x20 }
  - { offset: 0x4EEB6, size: 0x8, addend: 0x0, symName: __RNvNtNtNtCsieiGu2EXtoJ_4core9core_arch3x864sse215__mm_loadu_si128Cs3cuHK5hCpJL_10displaydoc, symObjAddr: 0x16D0, symBinAddr: 0x11DE0, symSize: 0x90 }
  - { offset: 0x4EF45, size: 0x8, addend: 0x0, symName: __RNvNtNtNtCsieiGu2EXtoJ_4core9core_arch3x864sse215__mm_store_si128Cs3cuHK5hCpJL_10displaydoc, symObjAddr: 0x1760, symBinAddr: 0x11E70, symSize: 0x20 }
  - { offset: 0x4EF7E, size: 0x8, addend: 0x0, symName: __RNvNtNtNtCsieiGu2EXtoJ_4core9core_arch3x864sse217__mm_movemask_epi8Cs3cuHK5hCpJL_10displaydoc, symObjAddr: 0x1780, symBinAddr: 0x11E90, symSize: 0x50 }
  - { offset: 0x4EFEA, size: 0x8, addend: 0x0, symName: __RNvNtNtNtCsieiGu2EXtoJ_4core9core_arch3x864sse217__mm_setzero_si128Cs3cuHK5hCpJL_10displaydoc, symObjAddr: 0x17D0, symBinAddr: 0x11EE0, symSize: 0x10 }
  - { offset: 0x4F0A5, size: 0x8, addend: 0x0, symName: __RNvNvNtCsieiGu2EXtoJ_4core4hint21unreachable_unchecked18precondition_checkCs3cuHK5hCpJL_10displaydoc, symObjAddr: 0x1930, symBinAddr: 0x12040, symSize: 0x80 }
  - { offset: 0x4F395, size: 0x8, addend: 0x0, symName: __RNvXs5_NtNtCsieiGu2EXtoJ_4core3str6traitsINtNtNtB9_3ops5range5RangejEINtNtNtB9_5slice5index10SliceIndexeE3getCs3cuHK5hCpJL_10displaydoc, symObjAddr: 0x24F0, symBinAddr: 0x12C00, symSize: 0x1F0 }
  - { offset: 0x4F531, size: 0x8, addend: 0x0, symName: __RNvXsb_NtNtCsieiGu2EXtoJ_4core3str6traitsINtNtNtB9_3ops5range14RangeInclusivejEINtNtNtB9_5slice5index10SliceIndexeE5indexCs3cuHK5hCpJL_10displaydoc, symObjAddr: 0x2FE0, symBinAddr: 0x136F0, symSize: 0x140 }
  - { offset: 0x4F5FD, size: 0x8, addend: 0x0, symName: __RNvXsd_NtNtCsieiGu2EXtoJ_4core3str6traitsINtNtNtB9_3ops5range16RangeToInclusivejEINtNtNtB9_5slice5index10SliceIndexeE5indexCs3cuHK5hCpJL_10displaydoc, symObjAddr: 0x3120, symBinAddr: 0x13830, symSize: 0x40 }
  - { offset: 0x4F7F9, size: 0x8, addend: 0x0, symName: __RNvXs5_NtNtCscKtU6MdFI5n_10proc_macro6bridge6bufferNtB5_6BufferNtNtNtCsieiGu2EXtoJ_4core3ops4drop4Drop4dropCs3cuHK5hCpJL_10displaydoc, symObjAddr: 0x2450, symBinAddr: 0x12B60, symSize: 0xA0 }
  - { offset: 0x4FB8F, size: 0x8, addend: 0x0, symName: __RNvXs1J_NtCscKtU6MdFI5n_10proc_macro6bridgeINtB6_11ExpnGlobalsNtNtB6_6client4SpanEINtNtB6_3rpc9DecodeMutuE6decodeCs3cuHK5hCpJL_10displaydoc, symObjAddr: 0x1F30, symBinAddr: 0x12640, symSize: 0xA0 }
  - { offset: 0x4FBE6, size: 0x8, addend: 0x0, symName: __RNvXs9_NtNtCscKtU6MdFI5n_10proc_macro6bridge3rpcTINtB7_11ExpnGlobalsNtNtB7_6client4SpanENtB16_11TokenStreamEINtB5_9DecodeMutuE6decodeCs3cuHK5hCpJL_10displaydoc, symObjAddr: 0x2DA0, symBinAddr: 0x134B0, symSize: 0x80 }
  - { offset: 0x5036F, size: 0x8, addend: 0x0, symName: __RNCNvMs3_NtNtCsHUR1vrdMJt_3std6thread5localINtB7_8LocalKeyINtNtCsieiGu2EXtoJ_4core4cell4CellPuEE7replace0Cs3cuHK5hCpJL_10displaydoc, symObjAddr: 0x880, symBinAddr: 0x10F90, symSize: 0x20 }
  - { offset: 0x50513, size: 0x8, addend: 0x0, symName: __RINvMs2_NtNtCsHUR1vrdMJt_3std6thread5localINtB6_8LocalKeyINtNtCsieiGu2EXtoJ_4core4cell4CellPuEE4withNCNvMs3_B6_BE_7replace0B1r_ECs3cuHK5hCpJL_10displaydoc, symObjAddr: 0x0, symBinAddr: 0x10710, symSize: 0x50 }
  - { offset: 0x505CC, size: 0x8, addend: 0x0, symName: __RINvMs2_NtNtCsHUR1vrdMJt_3std6thread5localINtB6_8LocalKeyINtNtCsieiGu2EXtoJ_4core4cell4CellPuEE8try_withNCNvMs3_B6_BE_7replace0B1r_ECs3cuHK5hCpJL_10displaydoc, symObjAddr: 0x50, symBinAddr: 0x10760, symSize: 0xF0 }
  - { offset: 0x5076C, size: 0x8, addend: 0x0, symName: __RINvMs2_NtNtCsHUR1vrdMJt_3std6thread5localINtB6_8LocalKeyINtNtCsieiGu2EXtoJ_4core4cell4CellTyyEEE4withNCNvMNtNtBa_4hash6randomNtB1H_11RandomState3new0B20_ECs3cuHK5hCpJL_10displaydoc, symObjAddr: 0x140, symBinAddr: 0x10850, symSize: 0x50 }
  - { offset: 0x50825, size: 0x8, addend: 0x0, symName: __RINvMs2_NtNtCsHUR1vrdMJt_3std6thread5localINtB6_8LocalKeyINtNtCsieiGu2EXtoJ_4core4cell4CellTyyEEE8try_withNCNvMNtNtBa_4hash6randomNtB1L_11RandomState3new0B24_ECs3cuHK5hCpJL_10displaydoc, symObjAddr: 0x190, symBinAddr: 0x108A0, symSize: 0xF0 }
  - { offset: 0x50A20, size: 0x8, addend: 0x0, symName: __RINvMs3_NtNtCscKtU6MdFI5n_10proc_macro6bridge6bufferNtB6_6Buffer17extend_from_arrayKj4_ECs3cuHK5hCpJL_10displaydoc, symObjAddr: 0x280, symBinAddr: 0x10990, symSize: 0x1E0 }
  - { offset: 0x50BA8, size: 0x8, addend: 0x0, symName: __RINvMs3_NtNtCscKtU6MdFI5n_10proc_macro6bridge6bufferNtB6_6Buffer17extend_from_arrayKj8_ECs3cuHK5hCpJL_10displaydoc, symObjAddr: 0x460, symBinAddr: 0x10B70, symSize: 0x1E0 }
  - { offset: 0x50E58, size: 0x8, addend: 0x0, symName: __RINvMs_NtNtCsieiGu2EXtoJ_4core3fmt2rtNtB7_9Arguments6new_v1Kj3_Kj2_ECs3cuHK5hCpJL_10displaydoc, symObjAddr: 0x640, symBinAddr: 0x10D50, symSize: 0x40 }
  - { offset: 0x50FE2, size: 0x8, addend: 0x0, symName: __RINvXs1i_NtCsjK30CmJ87bX_9hashbrown3mapINtB7_7HashMapNtCsaKzlTDPUHDb_11proc_macro25IdentINtNtCslJiobkLta79_5alloc3vec3VecNtNtCsdGrGZaRBwMb_3syn8generics10TraitBoundENtNtNtCsHUR1vrdMJt_3std4hash6random11RandomStateEINtNtNtNtCsieiGu2EXtoJ_4core4iter6traits7collect6ExtendTBP_B1o_EE6extendINtNtNtB3x_8adapters3map3MapINtNtNtB3z_5slice4iter4IterRNtB1X_9TypeParamENCNvNtCs3cuHK5hCpJL_10displaydoc6expand37extract_trait_constraints_from_source0EEB5R_, symObjAddr: 0x680, symBinAddr: 0x10D90, symSize: 0x110 }
  - { offset: 0x510A1, size: 0x8, addend: 0x0, symName: __RNCINvXs1i_NtCsjK30CmJ87bX_9hashbrown3mapINtB9_7HashMapNtCsaKzlTDPUHDb_11proc_macro25IdentINtNtCslJiobkLta79_5alloc3vec3VecNtNtCsdGrGZaRBwMb_3syn8generics10TraitBoundENtNtNtCsHUR1vrdMJt_3std4hash6random11RandomStateEINtNtNtNtCsieiGu2EXtoJ_4core4iter6traits7collect6ExtendTBR_B1q_EE6extendINtNtNtB3z_8adapters3map3MapINtNtNtB3B_5slice4iter4IterRNtB1Z_9TypeParamENCNvNtCs3cuHK5hCpJL_10displaydoc6expand37extract_trait_constraints_from_source0EE0B5T_, symObjAddr: 0x820, symBinAddr: 0x10F30, symSize: 0x60 }
  - { offset: 0x51175, size: 0x8, addend: 0x0, symName: __RNCINvNtCsjK30CmJ87bX_9hashbrown3map11make_hasherNtCsaKzlTDPUHDb_11proc_macro25IdentINtNtCslJiobkLta79_5alloc3vec3VecNtNtCsdGrGZaRBwMb_3syn8generics10TraitBoundENtNtNtCsHUR1vrdMJt_3std4hash6random11RandomStateE0Cs3cuHK5hCpJL_10displaydoc, symObjAddr: 0x7D0, symBinAddr: 0x10EE0, symSize: 0x30 }
  - { offset: 0x511F7, size: 0x8, addend: 0x0, symName: __RNCINvNtCsjK30CmJ87bX_9hashbrown3map14equivalent_keyNtCsaKzlTDPUHDb_11proc_macro25IdentBO_INtNtCslJiobkLta79_5alloc3vec3VecNtNtCsdGrGZaRBwMb_3syn8generics10TraitBoundEE0Cs3cuHK5hCpJL_10displaydoc, symObjAddr: 0x800, symBinAddr: 0x10F10, symSize: 0x20 }
  - { offset: 0x512C0, size: 0x8, addend: 0x0, symName: __RNvXsE_NtCsjK30CmJ87bX_9hashbrown3mapINtB5_7HashMapNtCsaKzlTDPUHDb_11proc_macro25IdentINtNtCslJiobkLta79_5alloc3vec3VecNtNtCsdGrGZaRBwMb_3syn8generics10TraitBoundENtNtNtCsHUR1vrdMJt_3std4hash6random11RandomStateENtNtNtNtCsieiGu2EXtoJ_4core4iter6traits7collect12IntoIterator9into_iterCs3cuHK5hCpJL_10displaydoc, symObjAddr: 0x2E20, symBinAddr: 0x13530, symSize: 0x80 }
  - { offset: 0x51319, size: 0x8, addend: 0x0, symName: __RNvXsK_NtCsjK30CmJ87bX_9hashbrown3mapINtB5_7IterMutNtCsaKzlTDPUHDb_11proc_macro25IdentINtNtCslJiobkLta79_5alloc3vec3VecNtNtCsdGrGZaRBwMb_3syn8generics10TraitBoundEENtNtNtNtCsieiGu2EXtoJ_4core4iter6traits8iterator8Iterator4nextCs3cuHK5hCpJL_10displaydoc, symObjAddr: 0x2EA0, symBinAddr: 0x135B0, symSize: 0xE0 }
  - { offset: 0x52488, size: 0x8, addend: 0x0, symName: __RNvXs1_NtCslJiobkLta79_5alloc7raw_vecINtB5_6RawVecINtNtCsieiGu2EXtoJ_4core6option6OptionNtNtCs3cuHK5hCpJL_10displaydoc4attr14VariantDisplayEENtNtNtBR_3ops4drop4Drop4dropB1s_, symObjAddr: 0x1FD0, symBinAddr: 0x126E0, symSize: 0x30 }
  - { offset: 0x524C4, size: 0x8, addend: 0x0, symName: __RNvXs1_NtCslJiobkLta79_5alloc7raw_vecINtB5_6RawVecNtCsaKzlTDPUHDb_11proc_macro211TokenStreamENtNtNtCsieiGu2EXtoJ_4core3ops4drop4Drop4dropCs3cuHK5hCpJL_10displaydoc, symObjAddr: 0x2000, symBinAddr: 0x12710, symSize: 0x30 }
  - { offset: 0x52500, size: 0x8, addend: 0x0, symName: __RNvXs1_NtCslJiobkLta79_5alloc7raw_vecINtB5_6RawVecNtNtCsdGrGZaRBwMb_3syn8generics10TraitBoundENtNtNtCsieiGu2EXtoJ_4core3ops4drop4Drop4dropCs3cuHK5hCpJL_10displaydoc, symObjAddr: 0x2030, symBinAddr: 0x12740, symSize: 0x30 }
  - { offset: 0x5253C, size: 0x8, addend: 0x0, symName: __RNvXs1_NtCslJiobkLta79_5alloc7raw_vecINtB5_6RawVecRNtNtCsdGrGZaRBwMb_3syn8generics9TypeParamENtNtNtCsieiGu2EXtoJ_4core3ops4drop4Drop4dropCs3cuHK5hCpJL_10displaydoc, symObjAddr: 0x2060, symBinAddr: 0x12770, symSize: 0x20 }
  - { offset: 0x57426, size: 0x8, addend: 0x0, symName: __RNvXs0_NtCsdGrGZaRBwMb_3syn5dropsINtB5_6NoDropDINtNtB7_10punctuated12IterMutTraitNtNtB7_8generics14WherePredicateEp4ItemQB1h_EL_ENtNtNtCsieiGu2EXtoJ_4core3ops5deref8DerefMut9deref_mutCs3cuHK5hCpJL_10displaydoc, symObjAddr: 0x1EA0, symBinAddr: 0x125B0, symSize: 0x30 }
  - { offset: 0x5745B, size: 0x8, addend: 0x0, symName: __RNvXs0_NtCsdGrGZaRBwMb_3syn5dropsINtB5_6NoDropDINtNtB7_10punctuated9IterTraitNtNtB7_4data7VariantEp4ItemRB1d_EL_ENtNtNtCsieiGu2EXtoJ_4core3ops5deref8DerefMut9deref_mutCs3cuHK5hCpJL_10displaydoc, symObjAddr: 0x1ED0, symBinAddr: 0x125E0, symSize: 0x30 }
  - { offset: 0x57490, size: 0x8, addend: 0x0, symName: __RNvXs0_NtCsdGrGZaRBwMb_3syn5dropsINtB5_6NoDropDINtNtB7_10punctuated9IterTraitNtNtB7_8generics14WherePredicateEp4ItemRB1d_EL_ENtNtNtCsieiGu2EXtoJ_4core3ops5deref8DerefMut9deref_mutCs3cuHK5hCpJL_10displaydoc, symObjAddr: 0x1F00, symBinAddr: 0x12610, symSize: 0x30 }
  - { offset: 0x574CB, size: 0x8, addend: 0x0, symName: __RNvXs_NtCsdGrGZaRBwMb_3syn5dropsINtB4_6NoDropDINtNtB6_10punctuated9IterTraitNtNtB6_4data7VariantEp4ItemRB1c_EL_ENtNtNtCsieiGu2EXtoJ_4core3ops5deref5Deref5derefCs3cuHK5hCpJL_10displaydoc, symObjAddr: 0x2F80, symBinAddr: 0x13690, symSize: 0x30 }
  - { offset: 0x57500, size: 0x8, addend: 0x0, symName: __RNvXs_NtCsdGrGZaRBwMb_3syn5dropsINtB4_6NoDropDINtNtB6_10punctuated9IterTraitNtNtB6_8generics14TypeParamBoundEp4ItemRB1c_EL_ENtNtNtCsieiGu2EXtoJ_4core3ops5deref5Deref5derefCs3cuHK5hCpJL_10displaydoc, symObjAddr: 0x2FB0, symBinAddr: 0x136C0, symSize: 0x30 }
  - { offset: 0x57CB0, size: 0x8, addend: 0x0, symName: __RNvMNtCsdGrGZaRBwMb_3syn5dropsINtB2_6NoDropINtNtB4_10punctuated11PrivateIterNtNtB4_4data7VariantNtNtB4_5token5CommaEE3newCs3cuHK5hCpJL_10displaydoc, symObjAddr: 0x8A0, symBinAddr: 0x10FB0, symSize: 0x40 }
  - { offset: 0x57D3A, size: 0x8, addend: 0x0, symName: __RNvMNtCsdGrGZaRBwMb_3syn5dropsINtB2_6NoDropINtNtB4_10punctuated11PrivateIterNtNtB4_8generics14WherePredicateNtNtB4_5token5CommaEE3newCs3cuHK5hCpJL_10displaydoc, symObjAddr: 0x8E0, symBinAddr: 0x10FF0, symSize: 0x40 }
  - { offset: 0x57DC4, size: 0x8, addend: 0x0, symName: __RNvMNtCsdGrGZaRBwMb_3syn5dropsINtB2_6NoDropINtNtB4_10punctuated14PrivateIterMutNtNtB4_8generics14WherePredicateNtNtB4_5token5CommaEE3newCs3cuHK5hCpJL_10displaydoc, symObjAddr: 0x920, symBinAddr: 0x11030, symSize: 0x40 }
  - { offset: 0x57F59, size: 0x8, addend: 0x0, symName: __RNvMs0_NtCsjK30CmJ87bX_9hashbrown3mapINtB5_7HashMapNtCsaKzlTDPUHDb_11proc_macro25IdentINtNtCslJiobkLta79_5alloc3vec3VecNtNtCsdGrGZaRBwMb_3syn8generics10TraitBoundENtNtNtCsHUR1vrdMJt_3std4hash6random11RandomStateE8iter_mutCs3cuHK5hCpJL_10displaydoc, symObjAddr: 0x960, symBinAddr: 0x11070, symSize: 0x100 }
  - { offset: 0x5814A, size: 0x8, addend: 0x0, symName: __RNvMs0_NtCslJiobkLta79_5alloc7raw_vecINtB5_6RawVecNtNtCsdGrGZaRBwMb_3syn8generics10TraitBoundE8grow_oneCs3cuHK5hCpJL_10displaydoc, symObjAddr: 0xA60, symBinAddr: 0x11170, symSize: 0x90 }
  - { offset: 0x581C4, size: 0x8, addend: 0x0, symName: __RNvMs0_NtNtCsieiGu2EXtoJ_4core4hash3sipINtB5_6HasherNtB5_11Sip13RoundsE5resetCs3cuHK5hCpJL_10displaydoc, symObjAddr: 0xAF0, symBinAddr: 0x11200, symSize: 0x70 }
  - { offset: 0x582B5, size: 0x8, addend: 0x0, symName: __RNvMs1_NtCsjK30CmJ87bX_9hashbrown3mapINtB5_7HashMapNtCsaKzlTDPUHDb_11proc_macro25IdentINtNtCslJiobkLta79_5alloc3vec3VecNtNtCsdGrGZaRBwMb_3syn8generics10TraitBoundENtNtNtCsHUR1vrdMJt_3std4hash6random11RandomStateE6insertCs3cuHK5hCpJL_10displaydoc, symObjAddr: 0xB60, symBinAddr: 0x11270, symSize: 0x320 }
  - { offset: 0x58452, size: 0x8, addend: 0x0, symName: __RNvMs3_NtNtCscKtU6MdFI5n_10proc_macro6bridge6bufferNtB5_6Buffer17extend_from_sliceCs3cuHK5hCpJL_10displaydoc, symObjAddr: 0xE80, symBinAddr: 0x11590, symSize: 0x1E0 }
  - { offset: 0x585CF, size: 0x8, addend: 0x0, symName: __RNvMs3_NtNtCscKtU6MdFI5n_10proc_macro6bridge6bufferNtB5_6Buffer4pushCs3cuHK5hCpJL_10displaydoc, symObjAddr: 0x1060, symBinAddr: 0x11770, symSize: 0x1A0 }
  - { offset: 0x58861, size: 0x8, addend: 0x0, symName: __RNvXNtCs9OU1sGv5X54_5quote9to_tokensRNtNtCsdGrGZaRBwMb_3syn6derive11DeriveInputNtB2_8ToTokens9to_tokensCs3cuHK5hCpJL_10displaydoc, symObjAddr: 0x1E70, symBinAddr: 0x12580, symSize: 0x30 }
  - { offset: 0x588A6, size: 0x8, addend: 0x0, symName: __RNvYRNtNtCsdGrGZaRBwMb_3syn6derive11DeriveInputNtNtCs9OU1sGv5X54_5quote9to_tokens8ToTokens15to_token_streamCs3cuHK5hCpJL_10displaydoc, symObjAddr: 0x32C0, symBinAddr: 0x139D0, symSize: 0x90 }
  - { offset: 0x588F0, size: 0x8, addend: 0x0, symName: __RNvYRNtNtCsdGrGZaRBwMb_3syn6derive11DeriveInputNtNtCs9OU1sGv5X54_5quote9to_tokens8ToTokens17into_token_streamCs3cuHK5hCpJL_10displaydoc, symObjAddr: 0x3350, symBinAddr: 0x13A60, symSize: 0x50 }
  - { offset: 0x58E0B, size: 0x8, addend: 0x0, symName: __RINvMNtCsdGrGZaRBwMb_3syn5errorNtB3_5Error11new_spannedRNtNtB5_4data7VariantReECs3cuHK5hCpJL_10displaydoc, symObjAddr: 0x0, symBinAddr: 0x13AB0, symSize: 0xB0 }
  - { offset: 0x58F30, size: 0x8, addend: 0x0, symName: __RNCINvNtNtCscKtU6MdFI5n_10proc_macro6bridge6client10run_clientNtB4_11TokenStreamINtNtCsieiGu2EXtoJ_4core6option6OptionBY_ENCNCINvMs6_B4_INtB4_6ClientNtB8_11TokenStreamB2n_E7expand1NvCs3cuHK5hCpJL_10displaydoc12derive_errorE00E0B2U_, symObjAddr: 0x1E90, symBinAddr: 0x158D0, symSize: 0x420 }
  - { offset: 0x59156, size: 0x8, addend: 0x0, symName: __RNCNCINvNtNtCscKtU6MdFI5n_10proc_macro6bridge6client10run_clientNtB6_11TokenStreamINtNtCsieiGu2EXtoJ_4core6option6OptionB10_ENCNCINvMs6_B6_INtB6_6ClientNtBa_11TokenStreamB2q_E7expand1NvCs3cuHK5hCpJL_10displaydoc12derive_errorE00E00B2X_, symObjAddr: 0x2470, symBinAddr: 0x15EB0, symSize: 0x20 }
  - { offset: 0x591F4, size: 0x8, addend: 0x0, symName: __RNCNCINvMs6_NtNtCscKtU6MdFI5n_10proc_macro6bridge6clientINtBa_6ClientNtBe_11TokenStreamB15_E7expand1NvCs3cuHK5hCpJL_10displaydoc12derive_errorE00B1C_, symObjAddr: 0x2450, symBinAddr: 0x15E90, symSize: 0x20 }
  - { offset: 0x5923D, size: 0x8, addend: 0x0, symName: __RNCINvMs6_NtNtCscKtU6MdFI5n_10proc_macro6bridge6clientINtB8_6ClientNtBc_11TokenStreamB13_E7expand1NvCs3cuHK5hCpJL_10displaydoc12derive_errorE0B1A_, symObjAddr: 0x1E60, symBinAddr: 0x158A0, symSize: 0x30 }
  - { offset: 0x59288, size: 0x8, addend: 0x0, symName: __RINvNtNtCscKtU6MdFI5n_10proc_macro6bridge6client10run_clientNtB2_11TokenStreamINtNtCsieiGu2EXtoJ_4core6option6OptionBW_ENCNCINvMs6_B2_INtB2_6ClientNtB6_11TokenStreamB2l_E7expand1NvCs3cuHK5hCpJL_10displaydoc12derive_errorE00EB2S_, symObjAddr: 0x1150, symBinAddr: 0x14B90, symSize: 0x2E0 }
  - { offset: 0x594A4, size: 0x8, addend: 0x0, symName: __RINvNtNtNtCscKtU6MdFI5n_10proc_macro6bridge6client5state3setINtNtCsieiGu2EXtoJ_4core6option6OptionNtB4_11TokenStreamENCNCINvB4_10run_clientB1y_BW_NCNCINvMs6_B4_INtB4_6ClientNtB8_11TokenStreamB2L_E7expand1NvCs3cuHK5hCpJL_10displaydoc12derive_errorE00E00EB3i_, symObjAddr: 0x1430, symBinAddr: 0x14E70, symSize: 0xC0 }
  - { offset: 0x59584, size: 0x8, addend: 0x0, symName: __RNCNkNvNtNtNtCscKtU6MdFI5n_10proc_macro6bridge6client5state12BRIDGE_STATE0s_0Cs3cuHK5hCpJL_10displaydoc, symObjAddr: 0x2490, symBinAddr: 0x15ED0, symSize: 0x20 }
  - { offset: 0x595E0, size: 0x8, addend: 0x0, symName: __RNvXsf_NtNtCscKtU6MdFI5n_10proc_macro6bridge6clientNtB5_11TokenStreamINtNtB7_3rpc6EncodeuE6encodeCs3cuHK5hCpJL_10displaydoc, symObjAddr: 0x2FA0, symBinAddr: 0x169D0, symSize: 0x40 }
  - { offset: 0x596F1, size: 0x8, addend: 0x0, symName: __RNvXsi_NtNtCscKtU6MdFI5n_10proc_macro6bridge6clientNtB5_11TokenStreamINtNtB7_3rpc9DecodeMutuE6decodeCs3cuHK5hCpJL_10displaydoc, symObjAddr: 0x2FE0, symBinAddr: 0x16A10, symSize: 0x20 }
  - { offset: 0x5973A, size: 0x8, addend: 0x0, symName: __RNvXsk_NtNtCscKtU6MdFI5n_10proc_macro6bridge6clientNtB5_4SpanINtNtB7_3rpc9DecodeMutuE6decodeCs3cuHK5hCpJL_10displaydoc, symObjAddr: 0x3000, symBinAddr: 0x16A30, symSize: 0x20 }
  - { offset: 0x5ACF8, size: 0x8, addend: 0x0, symName: __RINvNtCsieiGu2EXtoJ_4core3ptr13drop_in_placeINtNtB4_4cell10UnsafeCellNtNtNtCscKtU6MdFI5n_10proc_macro6bridge6client6BridgeEECs3cuHK5hCpJL_10displaydoc, symObjAddr: 0x200, symBinAddr: 0x13C40, symSize: 0x20 }
  - { offset: 0x5AD27, size: 0x8, addend: 0x0, symName: __RINvNtCsieiGu2EXtoJ_4core3ptr13drop_in_placeINtNtB4_4cell7RefCellNtNtNtCscKtU6MdFI5n_10proc_macro6bridge6client6BridgeEECs3cuHK5hCpJL_10displaydoc, symObjAddr: 0x220, symBinAddr: 0x13C60, symSize: 0x20 }
  - { offset: 0x5AD56, size: 0x8, addend: 0x0, symName: __RINvNtCsieiGu2EXtoJ_4core3ptr13drop_in_placeINtNtB4_6option6OptionINtNtB4_6result6ResultNtNtB4_7convert10InfallibleNtNtCsdGrGZaRBwMb_3syn5error5ErrorEEECs3cuHK5hCpJL_10displaydoc, symObjAddr: 0x240, symBinAddr: 0x13C80, symSize: 0x40 }
  - { offset: 0x5AD85, size: 0x8, addend: 0x0, symName: __RINvNtCsieiGu2EXtoJ_4core3ptr13drop_in_placeINtNtB4_6option6OptionINtNtCslJiobkLta79_5alloc3vec3VecNtNtCsdGrGZaRBwMb_3syn8generics10TraitBoundEEECs3cuHK5hCpJL_10displaydoc, symObjAddr: 0x280, symBinAddr: 0x13CC0, symSize: 0x40 }
  - { offset: 0x5ADB4, size: 0x8, addend: 0x0, symName: __RINvNtCsieiGu2EXtoJ_4core3ptr13drop_in_placeINtNtB4_6option6OptionINtNtNtNtB4_4iter8adapters3map3MapINtNtCsdGrGZaRBwMb_3syn10punctuated4IterNtNtB1F_8generics14TypeParamBoundENCNCNvNtCs3cuHK5hCpJL_10displaydoc6expand37extract_trait_constraints_from_source00EEEB2U_, symObjAddr: 0x2C0, symBinAddr: 0x13D00, symSize: 0x40 }
  - { offset: 0x5ADE3, size: 0x8, addend: 0x0, symName: __RINvNtCsieiGu2EXtoJ_4core3ptr13drop_in_placeINtNtB4_6option6OptionINtNtNtNtB4_4iter8adapters3map3MapINtNtCsdGrGZaRBwMb_3syn10punctuated7IterMutNtNtB1F_8generics14WherePredicateENCNvNtCs3cuHK5hCpJL_10displaydoc6expand39ensure_display_in_where_clause_for_type0EEEB2V_, symObjAddr: 0x300, symBinAddr: 0x13D40, symSize: 0x40 }
  - { offset: 0x5AE12, size: 0x8, addend: 0x0, symName: __RINvNtCsieiGu2EXtoJ_4core3ptr13drop_in_placeINtNtB4_6option6OptionNtNtCs3cuHK5hCpJL_10displaydoc4attr14VariantDisplayEEB16_, symObjAddr: 0x340, symBinAddr: 0x13D80, symSize: 0x40 }
  - { offset: 0x5AE41, size: 0x8, addend: 0x0, symName: __RINvNtCsieiGu2EXtoJ_4core3ptr13drop_in_placeINtNtB4_6option6OptionNtNtCs3cuHK5hCpJL_10displaydoc4attr7DisplayEEB16_, symObjAddr: 0x380, symBinAddr: 0x13DC0, symSize: 0x40 }
  - { offset: 0x5AE70, size: 0x8, addend: 0x0, symName: __RINvNtCsieiGu2EXtoJ_4core3ptr13drop_in_placeINtNtB4_6result6ResultNtNtB4_7convert10InfallibleNtNtCsdGrGZaRBwMb_3syn5error5ErrorEECs3cuHK5hCpJL_10displaydoc, symObjAddr: 0x3C0, symBinAddr: 0x13E00, symSize: 0x20 }
  - { offset: 0x5AE9F, size: 0x8, addend: 0x0, symName: __RINvNtCsieiGu2EXtoJ_4core3ptr13drop_in_placeINtNtCs9OU1sGv5X54_5quote9___private9RepInterpNtCsaKzlTDPUHDb_11proc_macro25IdentEECs3cuHK5hCpJL_10displaydoc, symObjAddr: 0x3E0, symBinAddr: 0x13E20, symSize: 0x20 }
  - { offset: 0x5AECE, size: 0x8, addend: 0x0, symName: __RINvNtCsieiGu2EXtoJ_4core3ptr13drop_in_placeINtNtCsdGrGZaRBwMb_3syn10punctuated4IterNtNtBL_4data5FieldEECs3cuHK5hCpJL_10displaydoc, symObjAddr: 0x400, symBinAddr: 0x13E40, symSize: 0x20 }
  - { offset: 0x5AEFD, size: 0x8, addend: 0x0, symName: __RINvNtCsieiGu2EXtoJ_4core3ptr13drop_in_placeINtNtCsdGrGZaRBwMb_3syn10punctuated4IterNtNtBL_4data7VariantEECs3cuHK5hCpJL_10displaydoc, symObjAddr: 0x420, symBinAddr: 0x13E60, symSize: 0x20 }
  - { offset: 0x5AF2C, size: 0x8, addend: 0x0, symName: __RINvNtCsieiGu2EXtoJ_4core3ptr13drop_in_placeINtNtCsdGrGZaRBwMb_3syn10punctuated4IterNtNtBL_8generics12GenericParamEECs3cuHK5hCpJL_10displaydoc, symObjAddr: 0x440, symBinAddr: 0x13E80, symSize: 0x20 }
  - { offset: 0x5AF5B, size: 0x8, addend: 0x0, symName: __RINvNtCsieiGu2EXtoJ_4core3ptr13drop_in_placeINtNtCsdGrGZaRBwMb_3syn10punctuated4IterNtNtBL_8generics14WherePredicateEECs3cuHK5hCpJL_10displaydoc, symObjAddr: 0x460, symBinAddr: 0x13EA0, symSize: 0x20 }
  - { offset: 0x5AF8A, size: 0x8, addend: 0x0, symName: __RINvNtCsieiGu2EXtoJ_4core3ptr13drop_in_placeINtNtCsdGrGZaRBwMb_3syn10punctuated7IterMutNtNtBL_8generics14WherePredicateEECs3cuHK5hCpJL_10displaydoc, symObjAddr: 0x480, symBinAddr: 0x13EC0, symSize: 0x20 }
  - { offset: 0x5AFB9, size: 0x8, addend: 0x0, symName: __RINvNtCsieiGu2EXtoJ_4core3ptr13drop_in_placeINtNtCsjK30CmJ87bX_9hashbrown10scopeguard10ScopeGuardNtNtBL_3raw13RawTableInnerNCINvMsa_B1z_B1x_14prepare_resizeNtNtCslJiobkLta79_5alloc5alloc6GlobalE0EECs3cuHK5hCpJL_10displaydoc, symObjAddr: 0x4A0, symBinAddr: 0x13EE0, symSize: 0x20 }
  - { offset: 0x5AFE8, size: 0x8, addend: 0x0, symName: __RINvNtCsieiGu2EXtoJ_4core3ptr13drop_in_placeINtNtCsjK30CmJ87bX_9hashbrown10scopeguard10ScopeGuardQNtNtBL_3raw13RawTableInnerNCNvMsa_B1A_B1y_15rehash_in_place0EECs3cuHK5hCpJL_10displaydoc, symObjAddr: 0x4C0, symBinAddr: 0x13F00, symSize: 0x20 }
  - { offset: 0x5B017, size: 0x8, addend: 0x0, symName: __RINvNtCsieiGu2EXtoJ_4core3ptr13drop_in_placeINtNtCsjK30CmJ87bX_9hashbrown3map7HashMapNtCsaKzlTDPUHDb_11proc_macro25IdentINtNtCslJiobkLta79_5alloc3vec3VecNtNtCsdGrGZaRBwMb_3syn8generics10TraitBoundENtNtNtCsHUR1vrdMJt_3std4hash6random11RandomStateEECs3cuHK5hCpJL_10displaydoc, symObjAddr: 0x4E0, symBinAddr: 0x13F20, symSize: 0x20 }
  - { offset: 0x5B046, size: 0x8, addend: 0x0, symName: __RINvNtCsieiGu2EXtoJ_4core3ptr13drop_in_placeINtNtCsjK30CmJ87bX_9hashbrown3map8IntoIterNtCsaKzlTDPUHDb_11proc_macro25IdentINtNtCslJiobkLta79_5alloc3vec3VecNtNtCsdGrGZaRBwMb_3syn8generics10TraitBoundEEECs3cuHK5hCpJL_10displaydoc, symObjAddr: 0x500, symBinAddr: 0x13F40, symSize: 0x20 }
  - { offset: 0x5B075, size: 0x8, addend: 0x0, symName: __RINvNtCsieiGu2EXtoJ_4core3ptr13drop_in_placeINtNtCsjK30CmJ87bX_9hashbrown3raw11RawIntoIterTNtCsaKzlTDPUHDb_11proc_macro25IdentINtNtCslJiobkLta79_5alloc3vec3VecNtNtCsdGrGZaRBwMb_3syn8generics10TraitBoundEEEECs3cuHK5hCpJL_10displaydoc, symObjAddr: 0x520, symBinAddr: 0x13F60, symSize: 0x20 }
  - { offset: 0x5B0A4, size: 0x8, addend: 0x0, symName: __RINvNtCsieiGu2EXtoJ_4core3ptr13drop_in_placeINtNtCsjK30CmJ87bX_9hashbrown3raw8RawTableTNtCsaKzlTDPUHDb_11proc_macro25IdentINtNtCslJiobkLta79_5alloc3vec3VecNtNtCsdGrGZaRBwMb_3syn8generics10TraitBoundEEEECs3cuHK5hCpJL_10displaydoc, symObjAddr: 0x540, symBinAddr: 0x13F80, symSize: 0x20 }
  - { offset: 0x5B0D3, size: 0x8, addend: 0x0, symName: __RINvNtCsieiGu2EXtoJ_4core3ptr13drop_in_placeINtNtCslJiobkLta79_5alloc3vec3VecINtNtB4_6option6OptionNtNtCs3cuHK5hCpJL_10displaydoc4attr14VariantDisplayEEEB1D_, symObjAddr: 0x560, symBinAddr: 0x13FA0, symSize: 0x50 }
  - { offset: 0x5B102, size: 0x8, addend: 0x0, symName: __RINvNtCsieiGu2EXtoJ_4core3ptr13drop_in_placeINtNtCslJiobkLta79_5alloc3vec3VecNtCsaKzlTDPUHDb_11proc_macro211TokenStreamEECs3cuHK5hCpJL_10displaydoc, symObjAddr: 0x5B0, symBinAddr: 0x13FF0, symSize: 0x50 }
  - { offset: 0x5B131, size: 0x8, addend: 0x0, symName: __RINvNtCsieiGu2EXtoJ_4core3ptr13drop_in_placeINtNtCslJiobkLta79_5alloc3vec3VecNtNtCsdGrGZaRBwMb_3syn8generics10TraitBoundEECs3cuHK5hCpJL_10displaydoc, symObjAddr: 0x600, symBinAddr: 0x14040, symSize: 0x50 }
  - { offset: 0x5B160, size: 0x8, addend: 0x0, symName: __RINvNtCsieiGu2EXtoJ_4core3ptr13drop_in_placeINtNtCslJiobkLta79_5alloc3vec3VecRNtNtCsdGrGZaRBwMb_3syn8generics9TypeParamEECs3cuHK5hCpJL_10displaydoc, symObjAddr: 0x650, symBinAddr: 0x14090, symSize: 0x50 }
  - { offset: 0x5B18F, size: 0x8, addend: 0x0, symName: __RINvNtCsieiGu2EXtoJ_4core3ptr13drop_in_placeINtNtCslJiobkLta79_5alloc5boxed3BoxDNtNtB4_5error5ErrorNtNtB4_6marker4SyncNtB1B_4SendEL_EECs3cuHK5hCpJL_10displaydoc, symObjAddr: 0x6A0, symBinAddr: 0x140E0, symSize: 0x70 }
  - { offset: 0x5B1BE, size: 0x8, addend: 0x0, symName: __RINvNtCsieiGu2EXtoJ_4core3ptr13drop_in_placeINtNtCslJiobkLta79_5alloc5boxed3BoxINtNtCsdGrGZaRBwMb_3syn5drops6NoDropDINtNtB1k_10punctuated12IterMutTraitNtNtB1k_8generics14WherePredicateEp4ItemQB2p_EL_EEECs3cuHK5hCpJL_10displaydoc, symObjAddr: 0x710, symBinAddr: 0x14150, symSize: 0x20 }
  - { offset: 0x5B1ED, size: 0x8, addend: 0x0, symName: __RINvNtCsieiGu2EXtoJ_4core3ptr13drop_in_placeINtNtCslJiobkLta79_5alloc5boxed3BoxINtNtCsdGrGZaRBwMb_3syn5drops6NoDropDINtNtB1k_10punctuated9IterTraitNtNtB1k_4data5FieldEp4ItemRB2l_EL_EEECs3cuHK5hCpJL_10displaydoc, symObjAddr: 0x730, symBinAddr: 0x14170, symSize: 0x20 }
  - { offset: 0x5B21C, size: 0x8, addend: 0x0, symName: __RINvNtCsieiGu2EXtoJ_4core3ptr13drop_in_placeINtNtCslJiobkLta79_5alloc5boxed3BoxINtNtCsdGrGZaRBwMb_3syn5drops6NoDropDINtNtB1k_10punctuated9IterTraitNtNtB1k_4data7VariantEp4ItemRB2l_EL_EEECs3cuHK5hCpJL_10displaydoc, symObjAddr: 0x750, symBinAddr: 0x14190, symSize: 0x20 }
  - { offset: 0x5B24B, size: 0x8, addend: 0x0, symName: __RINvNtCsieiGu2EXtoJ_4core3ptr13drop_in_placeINtNtCslJiobkLta79_5alloc5boxed3BoxINtNtCsdGrGZaRBwMb_3syn5drops6NoDropDINtNtB1k_10punctuated9IterTraitNtNtB1k_8generics12GenericParamEp4ItemRB2l_EL_EEECs3cuHK5hCpJL_10displaydoc, symObjAddr: 0x770, symBinAddr: 0x141B0, symSize: 0x20 }
  - { offset: 0x5B27A, size: 0x8, addend: 0x0, symName: __RINvNtCsieiGu2EXtoJ_4core3ptr13drop_in_placeINtNtCslJiobkLta79_5alloc5boxed3BoxINtNtCsdGrGZaRBwMb_3syn5drops6NoDropDINtNtB1k_10punctuated9IterTraitNtNtB1k_8generics14WherePredicateEp4ItemRB2l_EL_EEECs3cuHK5hCpJL_10displaydoc, symObjAddr: 0x790, symBinAddr: 0x141D0, symSize: 0x20 }
  - { offset: 0x5B2A9, size: 0x8, addend: 0x0, symName: __RINvNtCsieiGu2EXtoJ_4core3ptr13drop_in_placeINtNtCslJiobkLta79_5alloc5boxed3BoxNtNtNtCsHUR1vrdMJt_3std2io5error6CustomEECs3cuHK5hCpJL_10displaydoc, symObjAddr: 0x7B0, symBinAddr: 0x141F0, symSize: 0x50 }
  - { offset: 0x5B2D8, size: 0x8, addend: 0x0, symName: __RINvNtCsieiGu2EXtoJ_4core3ptr13drop_in_placeINtNtCslJiobkLta79_5alloc7raw_vec6RawVecINtNtB4_6option6OptionNtNtCs3cuHK5hCpJL_10displaydoc4attr14VariantDisplayEEEB1K_, symObjAddr: 0x800, symBinAddr: 0x14240, symSize: 0x20 }
  - { offset: 0x5B307, size: 0x8, addend: 0x0, symName: __RINvNtCsieiGu2EXtoJ_4core3ptr13drop_in_placeINtNtCslJiobkLta79_5alloc7raw_vec6RawVecNtCsaKzlTDPUHDb_11proc_macro211TokenStreamEECs3cuHK5hCpJL_10displaydoc, symObjAddr: 0x820, symBinAddr: 0x14260, symSize: 0x20 }
  - { offset: 0x5B336, size: 0x8, addend: 0x0, symName: __RINvNtCsieiGu2EXtoJ_4core3ptr13drop_in_placeINtNtCslJiobkLta79_5alloc7raw_vec6RawVecNtNtCsdGrGZaRBwMb_3syn8generics10TraitBoundEECs3cuHK5hCpJL_10displaydoc, symObjAddr: 0x840, symBinAddr: 0x14280, symSize: 0x20 }
  - { offset: 0x5B365, size: 0x8, addend: 0x0, symName: __RINvNtCsieiGu2EXtoJ_4core3ptr13drop_in_placeINtNtCslJiobkLta79_5alloc7raw_vec6RawVecRNtNtCsdGrGZaRBwMb_3syn8generics9TypeParamEECs3cuHK5hCpJL_10displaydoc, symObjAddr: 0x860, symBinAddr: 0x142A0, symSize: 0x20 }
  - { offset: 0x5B394, size: 0x8, addend: 0x0, symName: __RINvNtCsieiGu2EXtoJ_4core3ptr13drop_in_placeINtNtNtB4_3ops12control_flow11ControlFlowINtNtB4_6option6OptionNtNtCs3cuHK5hCpJL_10displaydoc4attr14VariantDisplayEEEB1L_, symObjAddr: 0x880, symBinAddr: 0x142C0, symSize: 0x40 }
  - { offset: 0x5B3C3, size: 0x8, addend: 0x0, symName: __RINvNtCsieiGu2EXtoJ_4core3ptr13drop_in_placeINtNtNtB4_3ops12control_flow11ControlFlowNtCsaKzlTDPUHDb_11proc_macro211TokenStreamEECs3cuHK5hCpJL_10displaydoc, symObjAddr: 0x8C0, symBinAddr: 0x14300, symSize: 0x40 }
  - { offset: 0x5B3F2, size: 0x8, addend: 0x0, symName: __RINvNtCsieiGu2EXtoJ_4core3ptr13drop_in_placeINtNtNtB4_4iter8adapters12GenericShuntINtNtBJ_3map3MapINtNtBJ_3zip3ZipINtNtCsdGrGZaRBwMb_3syn10punctuated4IterNtNtB1T_4data7VariantEINtNtNtCslJiobkLta79_5alloc3vec9into_iter8IntoIterINtNtB4_6option6OptionNtNtCs3cuHK5hCpJL_10displaydoc4attr14VariantDisplayEEENCNvNtB42_6expand9impl_enums_0EINtNtB4_6result6ResultNtNtB4_7convert10InfallibleNtNtB1T_5error5ErrorEEEB42_, symObjAddr: 0x900, symBinAddr: 0x14340, symSize: 0x20 }
  - { offset: 0x5B421, size: 0x8, addend: 0x0, symName: __RINvNtCsieiGu2EXtoJ_4core3ptr13drop_in_placeINtNtNtB4_4iter8adapters12GenericShuntINtNtBJ_3map3MapINtNtCsdGrGZaRBwMb_3syn10punctuated4IterNtNtB1D_4data7VariantENCNvNtCs3cuHK5hCpJL_10displaydoc6expand9impl_enum0EINtNtB4_6result6ResultNtNtB4_7convert10InfallibleNtNtB1D_5error5ErrorEEEB2E_, symObjAddr: 0x920, symBinAddr: 0x14360, symSize: 0x20 }
  - { offset: 0x5B450, size: 0x8, addend: 0x0, symName: __RINvNtCsieiGu2EXtoJ_4core3ptr13drop_in_placeINtNtNtCsHUR1vrdMJt_3std2io5error9ErrorDataINtNtCslJiobkLta79_5alloc5boxed3BoxNtBJ_6CustomEEECs3cuHK5hCpJL_10displaydoc, symObjAddr: 0x940, symBinAddr: 0x14380, symSize: 0x30 }
  - { offset: 0x5B47F, size: 0x8, addend: 0x0, symName: __RINvNtCsieiGu2EXtoJ_4core3ptr13drop_in_placeINtNtNtCslJiobkLta79_5alloc3vec9into_iter8IntoIterINtNtB4_6option6OptionNtNtCs3cuHK5hCpJL_10displaydoc4attr14VariantDisplayEEEB1U_, symObjAddr: 0x970, symBinAddr: 0x143B0, symSize: 0x20 }
  - { offset: 0x5B4AE, size: 0x8, addend: 0x0, symName: __RINvNtCsieiGu2EXtoJ_4core3ptr13drop_in_placeINtNtNtNtB4_4iter8adapters3map3MapINtNtBL_3zip3ZipINtNtCsdGrGZaRBwMb_3syn10punctuated4IterNtNtB1z_4data7VariantEINtNtNtCslJiobkLta79_5alloc3vec9into_iter8IntoIterINtNtB4_6option6OptionNtNtCs3cuHK5hCpJL_10displaydoc4attr14VariantDisplayEEENCNvNtB3I_6expand9impl_enums_0EEB3I_, symObjAddr: 0x990, symBinAddr: 0x143D0, symSize: 0x20 }
  - { offset: 0x5B4DD, size: 0x8, addend: 0x0, symName: __RINvNtCsieiGu2EXtoJ_4core3ptr13drop_in_placeINtNtNtNtB4_4iter8adapters3map3MapINtNtCsdGrGZaRBwMb_3syn10punctuated4IterNtNtB1j_4data5FieldENCNCNvNtCs3cuHK5hCpJL_10displaydoc6expand11impl_struct00EEB2k_, symObjAddr: 0x9B0, symBinAddr: 0x143F0, symSize: 0x20 }
  - { offset: 0x5B50C, size: 0x8, addend: 0x0, symName: __RINvNtCsieiGu2EXtoJ_4core3ptr13drop_in_placeINtNtNtNtB4_4iter8adapters3map3MapINtNtCsdGrGZaRBwMb_3syn10punctuated4IterNtNtB1j_4data5FieldENCNCNvNtCs3cuHK5hCpJL_10displaydoc6expand9impl_enums_0s_0EEB2k_, symObjAddr: 0x9D0, symBinAddr: 0x14410, symSize: 0x20 }
  - { offset: 0x5B53B, size: 0x8, addend: 0x0, symName: __RINvNtCsieiGu2EXtoJ_4core3ptr13drop_in_placeINtNtNtNtB4_4iter8adapters3map3MapINtNtCsdGrGZaRBwMb_3syn10punctuated4IterNtNtB1j_4data7VariantENCNvNtCs3cuHK5hCpJL_10displaydoc6expand9impl_enum0EEB2k_, symObjAddr: 0x9F0, symBinAddr: 0x14430, symSize: 0x20 }
  - { offset: 0x5B56A, size: 0x8, addend: 0x0, symName: __RINvNtCsieiGu2EXtoJ_4core3ptr13drop_in_placeINtNtNtNtB4_4iter8adapters3map3MapINtNtCsdGrGZaRBwMb_3syn10punctuated4IterNtNtB1j_8generics14TypeParamBoundENCNCNvNtCs3cuHK5hCpJL_10displaydoc6expand37extract_trait_constraints_from_source00EEB2y_, symObjAddr: 0xA10, symBinAddr: 0x14450, symSize: 0x20 }
  - { offset: 0x5B599, size: 0x8, addend: 0x0, symName: __RINvNtCsieiGu2EXtoJ_4core3ptr13drop_in_placeINtNtNtNtB4_4iter8adapters3map3MapINtNtCsdGrGZaRBwMb_3syn10punctuated7IterMutNtNtB1j_8generics14WherePredicateENCNvNtCs3cuHK5hCpJL_10displaydoc6expand39ensure_display_in_where_clause_for_type0EEB2z_, symObjAddr: 0xA30, symBinAddr: 0x14470, symSize: 0x20 }
  - { offset: 0x5B5C8, size: 0x8, addend: 0x0, symName: __RINvNtCsieiGu2EXtoJ_4core3ptr13drop_in_placeINtNtNtNtB4_4iter8adapters3zip3ZipINtNtCsdGrGZaRBwMb_3syn10punctuated4IterNtNtB1j_4data7VariantEINtNtNtCslJiobkLta79_5alloc3vec9into_iter8IntoIterINtNtB4_6option6OptionNtNtCs3cuHK5hCpJL_10displaydoc4attr14VariantDisplayEEEEB3s_, symObjAddr: 0xA50, symBinAddr: 0x14490, symSize: 0x60 }
  - { offset: 0x5B5F7, size: 0x8, addend: 0x0, symName: __RINvNtCsieiGu2EXtoJ_4core3ptr13drop_in_placeINtNtNtNtB4_4iter8adapters4fuse4FuseINtNtBL_3map3MapINtNtCsdGrGZaRBwMb_3syn10punctuated4IterNtNtB1B_8generics14TypeParamBoundENCNCNvNtCs3cuHK5hCpJL_10displaydoc6expand37extract_trait_constraints_from_source00EEEB2Q_, symObjAddr: 0xAB0, symBinAddr: 0x144F0, symSize: 0x20 }
  - { offset: 0x5B626, size: 0x8, addend: 0x0, symName: __RINvNtCsieiGu2EXtoJ_4core3ptr13drop_in_placeINtNtNtNtB4_4iter8adapters4fuse4FuseINtNtBL_3map3MapINtNtCsdGrGZaRBwMb_3syn10punctuated7IterMutNtNtB1B_8generics14WherePredicateENCNvNtCs3cuHK5hCpJL_10displaydoc6expand39ensure_display_in_where_clause_for_type0EEEB2R_, symObjAddr: 0xAD0, symBinAddr: 0x14510, symSize: 0x20 }
  - { offset: 0x5B655, size: 0x8, addend: 0x0, symName: __RINvNtCsieiGu2EXtoJ_4core3ptr13drop_in_placeINtNtNtNtB4_4iter8adapters6cloned6ClonedINtNtBL_7flatten7FlatMapINtNtCsdGrGZaRBwMb_3syn10punctuated4IterNtNtB1N_8generics14TypeParamBoundEINtNtB4_6option6OptionRNtB2o_10TraitBoundENCNCNvNtCs3cuHK5hCpJL_10displaydoc6expand37extract_trait_constraints_from_source00EEEB3I_, symObjAddr: 0xAF0, symBinAddr: 0x14530, symSize: 0x20 }
  - { offset: 0x5B684, size: 0x8, addend: 0x0, symName: __RINvNtCsieiGu2EXtoJ_4core3ptr13drop_in_placeINtNtNtNtB4_4iter8adapters7flatten13FlattenCompatINtNtBL_3map3MapINtNtCsdGrGZaRBwMb_3syn10punctuated4IterNtNtB1O_8generics14TypeParamBoundENCNCNvNtCs3cuHK5hCpJL_10displaydoc6expand37extract_trait_constraints_from_source00EINtNtB4_6option8IntoIterRNtB2p_10TraitBoundEEEB33_, symObjAddr: 0xB10, symBinAddr: 0x14550, symSize: 0x20 }
  - { offset: 0x5B6B3, size: 0x8, addend: 0x0, symName: __RINvNtCsieiGu2EXtoJ_4core3ptr13drop_in_placeINtNtNtNtB4_4iter8adapters7flatten13FlattenCompatINtNtBL_3map3MapINtNtCsdGrGZaRBwMb_3syn10punctuated7IterMutNtNtB1O_8generics14WherePredicateENCNvNtCs3cuHK5hCpJL_10displaydoc6expand39ensure_display_in_where_clause_for_type0EINtNtB4_6option8IntoIterQNtB2s_13PredicateTypeEEEB34_, symObjAddr: 0xB30, symBinAddr: 0x14570, symSize: 0x20 }
  - { offset: 0x5B6E2, size: 0x8, addend: 0x0, symName: __RINvNtCsieiGu2EXtoJ_4core3ptr13drop_in_placeINtNtNtNtB4_4iter8adapters7flatten7FlatMapINtNtCsdGrGZaRBwMb_3syn10punctuated4IterNtNtB1r_8generics14TypeParamBoundEINtNtB4_6option6OptionRNtB22_10TraitBoundENCNCNvNtCs3cuHK5hCpJL_10displaydoc6expand37extract_trait_constraints_from_source00EEB3m_, symObjAddr: 0xB50, symBinAddr: 0x14590, symSize: 0x20 }
  - { offset: 0x5B711, size: 0x8, addend: 0x0, symName: __RINvNtCsieiGu2EXtoJ_4core3ptr13drop_in_placeINtNtNtNtB4_4iter8adapters7flatten7FlatMapINtNtCsdGrGZaRBwMb_3syn10punctuated7IterMutNtNtB1r_8generics14WherePredicateEINtNtB4_6option6OptionQNtB25_13PredicateTypeENCNvNtCs3cuHK5hCpJL_10displaydoc6expand39ensure_display_in_where_clause_for_type0EEB3q_, symObjAddr: 0xB70, symBinAddr: 0x145B0, symSize: 0x20 }
  - { offset: 0x5B740, size: 0x8, addend: 0x0, symName: __RINvNtCsieiGu2EXtoJ_4core3ptr13drop_in_placeINtNtNtNtCsHUR1vrdMJt_3std11collections4hash3map7HashMapNtCsaKzlTDPUHDb_11proc_macro25IdentINtNtCslJiobkLta79_5alloc3vec3VecNtNtCsdGrGZaRBwMb_3syn8generics10TraitBoundEEECs3cuHK5hCpJL_10displaydoc, symObjAddr: 0xB90, symBinAddr: 0x145D0, symSize: 0x20 }
  - { offset: 0x5B76F, size: 0x8, addend: 0x0, symName: __RINvNtCsieiGu2EXtoJ_4core3ptr13drop_in_placeINtNtNtNtCsHUR1vrdMJt_3std11collections4hash3map8IntoIterNtCsaKzlTDPUHDb_11proc_macro25IdentINtNtCslJiobkLta79_5alloc3vec3VecNtNtCsdGrGZaRBwMb_3syn8generics10TraitBoundEEECs3cuHK5hCpJL_10displaydoc, symObjAddr: 0xBB0, symBinAddr: 0x145F0, symSize: 0x20 }
  - { offset: 0x5B79E, size: 0x8, addend: 0x0, symName: __RINvNtCsieiGu2EXtoJ_4core3ptr13drop_in_placeINtNvXsd_NtNtCslJiobkLta79_5alloc3vec9into_iterINtBP_8IntoIterppENtNtNtB4_3ops4drop4Drop4drop9DropGuardINtNtB4_6option6OptionNtNtCs3cuHK5hCpJL_10displaydoc4attr14VariantDisplayENtNtBT_5alloc6GlobalEEB2L_, symObjAddr: 0xBD0, symBinAddr: 0x14610, symSize: 0x20 }
  - { offset: 0x5B7CD, size: 0x8, addend: 0x0, symName: __RINvNtCsieiGu2EXtoJ_4core3ptr13drop_in_placeNCNCINvNtNtCscKtU6MdFI5n_10proc_macro6bridge6client10run_clientNtBN_11TokenStreamINtNtB4_6option6OptionB1H_ENCNCINvMs6_BN_INtBN_6ClientNtBR_11TokenStreamB2R_E7expand1NvCs3cuHK5hCpJL_10displaydoc12derive_errorE00E00EB3o_, symObjAddr: 0xBF0, symBinAddr: 0x14630, symSize: 0x20 }
  - { offset: 0x5B7FC, size: 0x8, addend: 0x0, symName: __RINvNtCsieiGu2EXtoJ_4core3ptr13drop_in_placeNCNvMs0_NtCs3cuHK5hCpJL_10displaydoc4attrNtBO_11AttrsHelper18display_with_input0EBQ_, symObjAddr: 0xC10, symBinAddr: 0x14650, symSize: 0x20 }
  - { offset: 0x5B82B, size: 0x8, addend: 0x0, symName: __RINvNtCsieiGu2EXtoJ_4core3ptr13drop_in_placeNtNtCs3cuHK5hCpJL_10displaydoc4attr14VariantDisplayEBK_, symObjAddr: 0xC30, symBinAddr: 0x14670, symSize: 0x60 }
  - { offset: 0x5B85A, size: 0x8, addend: 0x0, symName: __RINvNtCsieiGu2EXtoJ_4core3ptr13drop_in_placeNtNtCs3cuHK5hCpJL_10displaydoc4attr7DisplayEBK_, symObjAddr: 0xC90, symBinAddr: 0x146D0, symSize: 0x60 }
  - { offset: 0x5B889, size: 0x8, addend: 0x0, symName: __RINvNtCsieiGu2EXtoJ_4core3ptr13drop_in_placeNtNtCsdGrGZaRBwMb_3syn6derive11DeriveInputECs3cuHK5hCpJL_10displaydoc, symObjAddr: 0xCF0, symBinAddr: 0x14730, symSize: 0xF0 }
  - { offset: 0x5B8B8, size: 0x8, addend: 0x0, symName: __RINvNtCsieiGu2EXtoJ_4core3ptr13drop_in_placeNtNtCsdGrGZaRBwMb_3syn8generics10TypeParamsECs3cuHK5hCpJL_10displaydoc, symObjAddr: 0xDE0, symBinAddr: 0x14820, symSize: 0x20 }
  - { offset: 0x5B8E7, size: 0x8, addend: 0x0, symName: __RINvNtCsieiGu2EXtoJ_4core3ptr13drop_in_placeNtNtNtCsHUR1vrdMJt_3std2io5error5ErrorECs3cuHK5hCpJL_10displaydoc, symObjAddr: 0xE00, symBinAddr: 0x14840, symSize: 0x20 }
  - { offset: 0x5B916, size: 0x8, addend: 0x0, symName: __RINvNtCsieiGu2EXtoJ_4core3ptr13drop_in_placeNtNtNtCsHUR1vrdMJt_3std2io5error6CustomECs3cuHK5hCpJL_10displaydoc, symObjAddr: 0xE20, symBinAddr: 0x14860, symSize: 0x20 }
  - { offset: 0x5B945, size: 0x8, addend: 0x0, symName: __RINvNtCsieiGu2EXtoJ_4core3ptr13drop_in_placeNtNtNtCscKtU6MdFI5n_10proc_macro6bridge3rpc12PanicMessageECs3cuHK5hCpJL_10displaydoc, symObjAddr: 0xE40, symBinAddr: 0x14880, symSize: 0x50 }
  - { offset: 0x5B974, size: 0x8, addend: 0x0, symName: __RINvNtCsieiGu2EXtoJ_4core3ptr13drop_in_placeNtNtNtCscKtU6MdFI5n_10proc_macro6bridge6buffer6BufferECs3cuHK5hCpJL_10displaydoc, symObjAddr: 0xE90, symBinAddr: 0x148D0, symSize: 0x20 }
  - { offset: 0x5B9A3, size: 0x8, addend: 0x0, symName: __RINvNtCsieiGu2EXtoJ_4core3ptr13drop_in_placeNtNtNtCscKtU6MdFI5n_10proc_macro6bridge6client6BridgeECs3cuHK5hCpJL_10displaydoc, symObjAddr: 0xEB0, symBinAddr: 0x148F0, symSize: 0x20 }
  - { offset: 0x5B9D2, size: 0x8, addend: 0x0, symName: __RINvNtCsieiGu2EXtoJ_4core3ptr13drop_in_placeNtNtNtNtCsHUR1vrdMJt_3std2io5error14repr_bitpacked4ReprECs3cuHK5hCpJL_10displaydoc, symObjAddr: 0xED0, symBinAddr: 0x14910, symSize: 0x20 }
  - { offset: 0x5BA01, size: 0x8, addend: 0x0, symName: __RINvNtCsieiGu2EXtoJ_4core3ptr13drop_in_placeNtNvNtNtNtCscKtU6MdFI5n_10proc_macro6bridge6client5state3set13RestoreOnDropECs3cuHK5hCpJL_10displaydoc, symObjAddr: 0xEF0, symBinAddr: 0x14930, symSize: 0x20 }
  - { offset: 0x5BA30, size: 0x8, addend: 0x0, symName: __RINvNtCsieiGu2EXtoJ_4core3ptr13drop_in_placeSINtNtB4_6option6OptionNtNtCs3cuHK5hCpJL_10displaydoc4attr14VariantDisplayEEB17_, symObjAddr: 0xF10, symBinAddr: 0x14950, symSize: 0xA0 }
  - { offset: 0x5BA5F, size: 0x8, addend: 0x0, symName: __RINvNtCsieiGu2EXtoJ_4core3ptr13drop_in_placeSNtCsaKzlTDPUHDb_11proc_macro211TokenStreamECs3cuHK5hCpJL_10displaydoc, symObjAddr: 0xFB0, symBinAddr: 0x149F0, symSize: 0xA0 }
  - { offset: 0x5BA8E, size: 0x8, addend: 0x0, symName: __RINvNtCsieiGu2EXtoJ_4core3ptr13drop_in_placeSNtNtCsdGrGZaRBwMb_3syn8generics10TraitBoundECs3cuHK5hCpJL_10displaydoc, symObjAddr: 0x1050, symBinAddr: 0x14A90, symSize: 0xA0 }
  - { offset: 0x5BABD, size: 0x8, addend: 0x0, symName: __RINvNtCsieiGu2EXtoJ_4core3ptr13drop_in_placeTNtCsaKzlTDPUHDb_11proc_macro25IdentINtNtCslJiobkLta79_5alloc3vec3VecNtNtCsdGrGZaRBwMb_3syn8generics10TraitBoundEEECs3cuHK5hCpJL_10displaydoc, symObjAddr: 0x10F0, symBinAddr: 0x14B30, symSize: 0x60 }
  - { offset: 0x5F5E3, size: 0x8, addend: 0x0, symName: __RNSNvYNCINvMs6_NtCsjK30CmJ87bX_9hashbrown3rawINtBd_8RawTableTNtCsaKzlTDPUHDb_11proc_macro25IdentINtNtCslJiobkLta79_5alloc3vec3VecNtNtCsdGrGZaRBwMb_3syn8generics10TraitBoundEEE14reserve_rehashNCINvNtBf_3map11make_hasherBX_B1w_NtNtNtCsHUR1vrdMJt_3std4hash6random11RandomStateE0E0INtNtNtCsieiGu2EXtoJ_4core3ops8function6FnOnceTQNtBd_13RawTableInnerjEE9call_once6vtableCs3cuHK5hCpJL_10displaydoc, symObjAddr: 0x2510, symBinAddr: 0x15F50, symSize: 0x30 }
  - { offset: 0x5F627, size: 0x8, addend: 0x0, symName: __RNSNvYNCINvMs6_NtCsjK30CmJ87bX_9hashbrown3rawINtBd_8RawTableTNtCsaKzlTDPUHDb_11proc_macro25IdentINtNtCslJiobkLta79_5alloc3vec3VecNtNtCsdGrGZaRBwMb_3syn8generics10TraitBoundEEE24find_or_find_insert_slotNCINvNtBf_3map14equivalent_keyBX_BX_B1w_E0NCINvB3i_11make_hasherBX_B1w_NtNtNtCsHUR1vrdMJt_3std4hash6random11RandomStateE0E0INtNtNtCsieiGu2EXtoJ_4core3ops8function6FnOnceTjEE9call_once6vtableCs3cuHK5hCpJL_10displaydoc, symObjAddr: 0x2540, symBinAddr: 0x15F80, symSize: 0x30 }
  - { offset: 0x5F66B, size: 0x8, addend: 0x0, symName: __RNvYNCINvMs6_NtCsjK30CmJ87bX_9hashbrown3rawINtBb_8RawTableTNtCsaKzlTDPUHDb_11proc_macro25IdentINtNtCslJiobkLta79_5alloc3vec3VecNtNtCsdGrGZaRBwMb_3syn8generics10TraitBoundEEE14reserve_rehashNCINvNtBd_3map11make_hasherBV_B1u_NtNtNtCsHUR1vrdMJt_3std4hash6random11RandomStateE0E0INtNtNtCsieiGu2EXtoJ_4core3ops8function6FnOnceTQNtBb_13RawTableInnerjEE9call_onceCs3cuHK5hCpJL_10displaydoc, symObjAddr: 0x3060, symBinAddr: 0x16A90, symSize: 0x50 }
  - { offset: 0x5F6AF, size: 0x8, addend: 0x0, symName: __RNvYNCINvMs6_NtCsjK30CmJ87bX_9hashbrown3rawINtBb_8RawTableTNtCsaKzlTDPUHDb_11proc_macro25IdentINtNtCslJiobkLta79_5alloc3vec3VecNtNtCsdGrGZaRBwMb_3syn8generics10TraitBoundEEE14reserve_rehashNCINvNtBd_3map11make_hasherBV_B1u_NtNtNtCsHUR1vrdMJt_3std4hash6random11RandomStateE0Es_0INtNtNtCsieiGu2EXtoJ_4core3ops8function6FnOnceTOhEE9call_onceCs3cuHK5hCpJL_10displaydoc, symObjAddr: 0x30B0, symBinAddr: 0x16AE0, symSize: 0x40 }
  - { offset: 0x5F6EF, size: 0x8, addend: 0x0, symName: __RNvYNCINvMs6_NtCsjK30CmJ87bX_9hashbrown3rawINtBb_8RawTableTNtCsaKzlTDPUHDb_11proc_macro25IdentINtNtCslJiobkLta79_5alloc3vec3VecNtNtCsdGrGZaRBwMb_3syn8generics10TraitBoundEEE24find_or_find_insert_slotNCINvNtBd_3map14equivalent_keyBV_BV_B1u_E0NCINvB3g_11make_hasherBV_B1u_NtNtNtCsHUR1vrdMJt_3std4hash6random11RandomStateE0E0INtNtNtCsieiGu2EXtoJ_4core3ops8function6FnOnceTjEE9call_onceCs3cuHK5hCpJL_10displaydoc, symObjAddr: 0x30F0, symBinAddr: 0x16B20, symSize: 0x50 }
  - { offset: 0x5F733, size: 0x8, addend: 0x0, symName: __RNvYNCNkNvNtNtNtCscKtU6MdFI5n_10proc_macro6bridge6client5state12BRIDGE_STATE0s_0INtNtNtCsieiGu2EXtoJ_4core3ops8function6FnOnceTINtNtB1n_6option6OptionQIB22_INtNtB1n_4cell4CellPuEEEEE9call_onceCs3cuHK5hCpJL_10displaydoc, symObjAddr: 0x3140, symBinAddr: 0x16B70, symSize: 0x40 }
  - { offset: 0x5F777, size: 0x8, addend: 0x0, symName: __RNvYNCNkNvNvMNtNtCsHUR1vrdMJt_3std4hash6randomNtBb_11RandomState3new4KEYS0s_0INtNtNtCsieiGu2EXtoJ_4core3ops8function6FnOnceTINtNtB1k_6option6OptionQIB1Z_INtNtB1k_4cell4CellTyyEEEEEE9call_onceCs3cuHK5hCpJL_10displaydoc, symObjAddr: 0x3180, symBinAddr: 0x16BB0, symSize: 0x40 }
  - { offset: 0x5F7BB, size: 0x8, addend: 0x0, symName: __RNvYNvNtCs3cuHK5hCpJL_10displaydoc6expand22new_empty_where_clauseINtNtNtCsieiGu2EXtoJ_4core3ops8function6FnOnceuE9call_onceB6_, symObjAddr: 0x3340, symBinAddr: 0x16D70, symSize: 0x20 }
  - { offset: 0x5F7FF, size: 0x8, addend: 0x0, symName: __RNvYNvNvNvMNtNtCsHUR1vrdMJt_3std4hash6randomNtB9_11RandomState3new4KEYS6___initINtNtNtCsieiGu2EXtoJ_4core3ops8function6FnOnceuE9call_onceCs3cuHK5hCpJL_10displaydoc, symObjAddr: 0x3360, symBinAddr: 0x16D90, symSize: 0x20 }
  - { offset: 0x5F843, size: 0x8, addend: 0x0, symName: __RNvYNvYINtNtCslJiobkLta79_5alloc5boxed3BoxNtNtCsdGrGZaRBwMb_3syn8generics14WherePredicateEINtNtCsieiGu2EXtoJ_4core7convert5AsMutBE_E6as_mutINtNtNtB1v_3ops8function6FnOnceTQB5_EE9call_onceCs3cuHK5hCpJL_10displaydoc, symObjAddr: 0x3380, symBinAddr: 0x16DB0, symSize: 0x20 }
  - { offset: 0x5F887, size: 0x8, addend: 0x0, symName: __RNvYNvYINtNtNtNtCsieiGu2EXtoJ_4core4iter8adapters3map3MapINtNtCsdGrGZaRBwMb_3syn10punctuated4IterNtNtBY_8generics14TypeParamBoundENCNCNvNtCs3cuHK5hCpJL_10displaydoc6expand37extract_trait_constraints_from_source00ENtNtNtBc_6traits8iterator8Iterator4nextINtNtNtBe_3ops8function6FnOnceTQB5_EE9call_onceB2c_, symObjAddr: 0x33A0, symBinAddr: 0x16DD0, symSize: 0x20 }
  - { offset: 0x5F8CB, size: 0x8, addend: 0x0, symName: __RNvYNvYINtNtNtNtCsieiGu2EXtoJ_4core4iter8adapters3map3MapINtNtCsdGrGZaRBwMb_3syn10punctuated7IterMutNtNtBY_8generics14WherePredicateENCNvNtCs3cuHK5hCpJL_10displaydoc6expand39ensure_display_in_where_clause_for_type0ENtNtNtBc_6traits8iterator8Iterator4nextINtNtNtBe_3ops8function6FnOnceTQB5_EE9call_onceB2d_, symObjAddr: 0x33C0, symBinAddr: 0x16DF0, symSize: 0x20 }
  - { offset: 0x5F90F, size: 0x8, addend: 0x0, symName: __RNvYNvYNtNtCsdGrGZaRBwMb_3syn3lit6LitStrNtNtB9_5parse5Parse5parseINtNtNtCsieiGu2EXtoJ_4core3ops8function6FnOnceTRNtBE_11ParseBufferEE9call_onceCs3cuHK5hCpJL_10displaydoc, symObjAddr: 0x33E0, symBinAddr: 0x16E10, symSize: 0x30 }
  - { offset: 0x5F953, size: 0x8, addend: 0x0, symName: __RNvYNvYNtNtCsdGrGZaRBwMb_3syn6derive11DeriveInputNtNtB9_5parse5Parse5parseINtNtNtCsieiGu2EXtoJ_4core3ops8function6FnOnceTRNtBN_11ParseBufferEE9call_onceCs3cuHK5hCpJL_10displaydoc, symObjAddr: 0x3410, symBinAddr: 0x16E40, symSize: 0x30 }
  - { offset: 0x5F99D, size: 0x8, addend: 0x0, symName: __RNvYNcNtINtNtNtCsieiGu2EXtoJ_4core3ops12control_flow11ControlFlowINtNtBd_6option6OptionNtNtCs3cuHK5hCpJL_10displaydoc4attr14VariantDisplayEE5Break0INtNtBb_8function5FnMutTB11_EE8call_mutB1r_, symObjAddr: 0x31C0, symBinAddr: 0x16BF0, symSize: 0x60 }
  - { offset: 0x5F9E2, size: 0x8, addend: 0x0, symName: __RNvYNcNtINtNtNtCsieiGu2EXtoJ_4core3ops12control_flow11ControlFlowNtCsaKzlTDPUHDb_11proc_macro211TokenStreamE5Break0INtNtBb_8function5FnMutTB11_EE8call_mutCs3cuHK5hCpJL_10displaydoc, symObjAddr: 0x3220, symBinAddr: 0x16C50, symSize: 0x50 }
  - { offset: 0x5FA26, size: 0x8, addend: 0x0, symName: __RNvYNvMNtCsieiGu2EXtoJ_4core6optionINtB5_6OptionNtNtCs3cuHK5hCpJL_10displaydoc4attr14VariantDisplayE7is_someINtNtNtB7_3ops8function5FnMutTRBx_EE8call_mutBO_, symObjAddr: 0x32C0, symBinAddr: 0x16CF0, symSize: 0x30 }
  - { offset: 0x5FA6A, size: 0x8, addend: 0x0, symName: __RNvYNvMNtNtCsieiGu2EXtoJ_4core4char7methodsc13is_whitespaceINtNtNtB9_3ops8function5FnMutTcEE8call_mutCs3cuHK5hCpJL_10displaydoc, symObjAddr: 0x32F0, symBinAddr: 0x16D20, symSize: 0x20 }
  - { offset: 0x5FAAE, size: 0x8, addend: 0x0, symName: __RNvYNvMs9_NtCsieiGu2EXtoJ_4core3numj11checked_addINtNtNtBa_3ops8function5FnMutTjjEE8call_mutCs3cuHK5hCpJL_10displaydoc, symObjAddr: 0x3310, symBinAddr: 0x16D40, symSize: 0x30 }
  - { offset: 0x5FAF8, size: 0x8, addend: 0x0, symName: __RNvYNvCs3cuHK5hCpJL_10displaydoc12derive_errorINtNtNtCsieiGu2EXtoJ_4core3ops8function2FnTNtCscKtU6MdFI5n_10proc_macro11TokenStreamEE4callB4_, symObjAddr: 0x32A0, symBinAddr: 0x16CD0, symSize: 0x20 }
  - { offset: 0x5FFE1, size: 0x8, addend: 0x0, symName: __RINvNtNtNtCsieiGu2EXtoJ_4core4iter8adapters4fuse17and_then_or_clearINtNtB4_3map3MapINtNtCsdGrGZaRBwMb_3syn10punctuated4IterNtNtB1o_8generics14TypeParamBoundENCNCNvNtCs3cuHK5hCpJL_10displaydoc6expand37extract_trait_constraints_from_source00EINtNtB8_6option6OptionRNtB1Z_10TraitBoundENvYB13_NtNtNtB6_6traits8iterator8Iterator4nextEB2D_, symObjAddr: 0x14F0, symBinAddr: 0x14F30, symSize: 0xF0 }
  - { offset: 0x60129, size: 0x8, addend: 0x0, symName: __RINvNtNtNtCsieiGu2EXtoJ_4core4iter8adapters4fuse17and_then_or_clearINtNtB4_3map3MapINtNtCsdGrGZaRBwMb_3syn10punctuated7IterMutNtNtB1o_8generics14WherePredicateENCNvNtCs3cuHK5hCpJL_10displaydoc6expand39ensure_display_in_where_clause_for_type0EINtNtB8_6option6OptionQNtB22_13PredicateTypeENvYB13_NtNtNtB6_6traits8iterator8Iterator4nextEB2E_, symObjAddr: 0x15E0, symBinAddr: 0x15020, symSize: 0xF0 }
  - { offset: 0x60276, size: 0x8, addend: 0x0, symName: __RNvXs8_NtNtNtCsieiGu2EXtoJ_4core4iter8adapters4fuseINtB5_4FuseINtNtB7_3map3MapINtNtCsdGrGZaRBwMb_3syn10punctuated4IterNtNtB1j_8generics14TypeParamBoundENCNCNvNtCs3cuHK5hCpJL_10displaydoc6expand37extract_trait_constraints_from_source00EEINtB5_8FuseImplBY_E4nextB2y_, symObjAddr: 0x2F60, symBinAddr: 0x16990, symSize: 0x20 }
  - { offset: 0x602AD, size: 0x8, addend: 0x0, symName: __RNvXs8_NtNtNtCsieiGu2EXtoJ_4core4iter8adapters4fuseINtB5_4FuseINtNtB7_3map3MapINtNtCsdGrGZaRBwMb_3syn10punctuated7IterMutNtNtB1j_8generics14WherePredicateENCNvNtCs3cuHK5hCpJL_10displaydoc6expand39ensure_display_in_where_clause_for_type0EEINtB5_8FuseImplBY_E4nextB2z_, symObjAddr: 0x2F80, symBinAddr: 0x169B0, symSize: 0x20 }
  - { offset: 0x6054F, size: 0x8, addend: 0x0, symName: __RINvYINtNtNtCsieiGu2EXtoJ_4core5slice4iter4IterNtNtCsdGrGZaRBwMb_3syn4attr9AttributeENtNtNtNtBa_4iter6traits8iterator8Iterator3mapjNCINvNvXs1_NtNtB1r_8adapters6filterINtB2g_6FilterppEB1l_5count8to_usizeRBJ_NCNvMs0_NtCs3cuHK5hCpJL_10displaydoc4attrNtB3q_11AttrsHelper7displays_0E0EB3s_, symObjAddr: 0x1C20, symBinAddr: 0x15660, symSize: 0x20 }
  - { offset: 0x605A7, size: 0x8, addend: 0x0, symName: __RINvYINtNtNtCsieiGu2EXtoJ_4core5slice4iter4IterNtNtCsdGrGZaRBwMb_3syn4attr9AttributeENtNtNtNtBa_4iter6traits8iterator8Iterator6filterNCNvMs0_NtCs3cuHK5hCpJL_10displaydoc4attrNtB2f_11AttrsHelper7displays_0EB2h_, symObjAddr: 0x1C40, symBinAddr: 0x15680, symSize: 0x20 }
  - { offset: 0x605F6, size: 0x8, addend: 0x0, symName: __RINvYINtNtNtCsieiGu2EXtoJ_4core5slice4iter4IterRNtNtCsdGrGZaRBwMb_3syn8generics9TypeParamENtNtNtNtBa_4iter6traits8iterator8Iterator3mapTNtCsaKzlTDPUHDb_11proc_macro25IdentINtNtCslJiobkLta79_5alloc3vec3VecNtBM_10TraitBoundEENCNvNtCs3cuHK5hCpJL_10displaydoc6expand37extract_trait_constraints_from_source0EB3F_, symObjAddr: 0x1C60, symBinAddr: 0x156A0, symSize: 0x20 }
  - { offset: 0x6064E, size: 0x8, addend: 0x0, symName: __RINvYINtNtNtCsieiGu2EXtoJ_4core5slice4iter4IterReENtNtNtNtBa_4iter6traits8iterator8Iterator8try_foldjNCINvNtNtBS_8adapters3map12map_try_foldRBJ_jjINtNtBa_6option6OptionjENCNCINvNtCslJiobkLta79_5alloc3str17join_generic_copyehBJ_E00NvMs9_NtBa_3numj11checked_addE0B2k_ECs3cuHK5hCpJL_10displaydoc, symObjAddr: 0x1C80, symBinAddr: 0x156C0, symSize: 0x180 }
  - { offset: 0x60702, size: 0x8, addend: 0x0, symName: __RINvYNtNtCsdGrGZaRBwMb_3syn8generics10TypeParamsNtNtNtNtCsieiGu2EXtoJ_4core4iter6traits8iterator8Iterator7collectINtNtCslJiobkLta79_5alloc3vec3VecRNtB5_9TypeParamEECs3cuHK5hCpJL_10displaydoc, symObjAddr: 0x1E00, symBinAddr: 0x15840, symSize: 0x60 }
  - { offset: 0x607A1, size: 0x8, addend: 0x0, symName: __RNCINvNvNtNtNtNtCsieiGu2EXtoJ_4core4iter6traits8iterator8Iterator12try_for_each4callINtNtBe_6option6OptionNtNtCs3cuHK5hCpJL_10displaydoc4attr14VariantDisplayEINtNtNtBe_3ops12control_flow11ControlFlowB1k_ENcNtB2w_5Break0E0B1K_, symObjAddr: 0x22B0, symBinAddr: 0x15CF0, symSize: 0x60 }
  - { offset: 0x60807, size: 0x8, addend: 0x0, symName: __RNCINvNvNtNtNtNtCsieiGu2EXtoJ_4core4iter6traits8iterator8Iterator12try_for_each4callNtCsaKzlTDPUHDb_11proc_macro211TokenStreamINtNtNtBe_3ops12control_flow11ControlFlowB1k_ENcNtB20_5Break0E0Cs3cuHK5hCpJL_10displaydoc, symObjAddr: 0x2310, symBinAddr: 0x15D50, symSize: 0x50 }
  - { offset: 0x60879, size: 0x8, addend: 0x0, symName: __RNCINvNvNtNtNtNtCsieiGu2EXtoJ_4core4iter6traits8iterator8Iterator4find5checkTRNtCsaKzlTDPUHDb_11proc_macro25IdentQINtNtCslJiobkLta79_5alloc3vec3VecNtNtCsdGrGZaRBwMb_3syn8generics10TraitBoundEENCNvNtCs3cuHK5hCpJL_10displaydoc6expand37extract_trait_constraints_from_sources_0E0B3a_, symObjAddr: 0x2360, symBinAddr: 0x15DA0, symSize: 0x70 }
  - { offset: 0x608E1, size: 0x8, addend: 0x0, symName: __RNCINvNvNtNtNtNtCsieiGu2EXtoJ_4core4iter6traits8iterator8Iterator8for_each4callNtCsaKzlTDPUHDb_11proc_macro29TokenTreeNCINvXsa_NtB1h_8fallbackNtB21_11TokenStreamINtNtBa_7collect6ExtendB1f_E6extendNtB1h_11TokenStreamE0E0Cs3cuHK5hCpJL_10displaydoc, symObjAddr: 0x23D0, symBinAddr: 0x15E10, symSize: 0x40 }
  - { offset: 0x6093A, size: 0x8, addend: 0x0, symName: __RNCINvNvNtNtNtNtCsieiGu2EXtoJ_4core4iter6traits8iterator8Iterator8for_each4callTNtCsaKzlTDPUHDb_11proc_macro25IdentINtNtCslJiobkLta79_5alloc3vec3VecNtNtCsdGrGZaRBwMb_3syn8generics10TraitBoundEENCINvXs1i_NtCsjK30CmJ87bX_9hashbrown3mapINtB3f_7HashMapB1g_B1P_NtNtNtCsHUR1vrdMJt_3std4hash6random11RandomStateEINtNtBa_7collect6ExtendB1f_E6extendINtNtNtBc_8adapters3map3MapINtNtNtBe_5slice4iter4IterRNtB2o_9TypeParamENCNvNtCs3cuHK5hCpJL_10displaydoc6expand37extract_trait_constraints_from_source0EE0E0B6H_, symObjAddr: 0x2410, symBinAddr: 0x15E50, symSize: 0x40 }
  - { offset: 0x609B7, size: 0x8, addend: 0x0, symName: __RNCNvXs_NvNtNtNtNtCsieiGu2EXtoJ_4core4iter6traits8iterator8Iterator10advance_byINtNtCsdGrGZaRBwMb_3syn10punctuated11PrivateIterNtNtB1k_4data7VariantNtNtB1k_5token5CommaENtB6_13SpecAdvanceBy15spec_advance_by0Cs3cuHK5hCpJL_10displaydoc, symObjAddr: 0x24B0, symBinAddr: 0x15EF0, symSize: 0x20 }
  - { offset: 0x60A04, size: 0x8, addend: 0x0, symName: __RNCNvXs_NvNtNtNtNtCsieiGu2EXtoJ_4core4iter6traits8iterator8Iterator10advance_byINtNtCsdGrGZaRBwMb_3syn10punctuated11PrivateIterNtNtB1k_8generics14WherePredicateNtNtB1k_5token5CommaENtB6_13SpecAdvanceBy15spec_advance_by0Cs3cuHK5hCpJL_10displaydoc, symObjAddr: 0x24D0, symBinAddr: 0x15F10, symSize: 0x20 }
  - { offset: 0x60A51, size: 0x8, addend: 0x0, symName: __RNCNvXs_NvNtNtNtNtCsieiGu2EXtoJ_4core4iter6traits8iterator8Iterator10advance_byINtNtCsdGrGZaRBwMb_3syn10punctuated14PrivateIterMutNtNtB1k_8generics14WherePredicateNtNtB1k_5token5CommaENtB6_13SpecAdvanceBy15spec_advance_by0Cs3cuHK5hCpJL_10displaydoc, symObjAddr: 0x24F0, symBinAddr: 0x15F30, symSize: 0x20 }
  - { offset: 0x60AB6, size: 0x8, addend: 0x0, symName: __RNvYNtNtCsdGrGZaRBwMb_3syn8generics10TypeParamsNtNtNtNtCsieiGu2EXtoJ_4core4iter6traits8iterator8Iterator9size_hintCs3cuHK5hCpJL_10displaydoc, symObjAddr: 0x3270, symBinAddr: 0x16CA0, symSize: 0x30 }
  - { offset: 0x60AF7, size: 0x8, addend: 0x0, symName: __RNvXNtNtNtCsieiGu2EXtoJ_4core4iter6traits7collectINtNtNtB8_5slice4iter4IterReENtB2_12IntoIterator9into_iterCs3cuHK5hCpJL_10displaydoc, symObjAddr: 0x29B0, symBinAddr: 0x163E0, symSize: 0x20 }
  - { offset: 0x60B2E, size: 0x8, addend: 0x0, symName: __RNvXNtNtNtCsieiGu2EXtoJ_4core4iter6traits7collectNtNtCsdGrGZaRBwMb_3syn8generics10TypeParamsNtB2_12IntoIterator9into_iterCs3cuHK5hCpJL_10displaydoc, symObjAddr: 0x29D0, symBinAddr: 0x16400, symSize: 0x20 }
  - { offset: 0x60BA1, size: 0x8, addend: 0x0, symName: __RINvXs2E_NtNtCsieiGu2EXtoJ_4core5slice4iterINtB7_4IterINtNtBb_6option6OptionNtNtCs3cuHK5hCpJL_10displaydoc4attr14VariantDisplayEENtNtNtNtBb_4iter6traits8iterator8Iterator3anyNvMBT_BQ_7is_someEB1g_, symObjAddr: 0x16D0, symBinAddr: 0x15110, symSize: 0x90 }
  - { offset: 0x60C06, size: 0x8, addend: 0x0, symName: __RINvXs2E_NtNtCsieiGu2EXtoJ_4core5slice4iterINtB7_4IterNtNtCsdGrGZaRBwMb_3syn4attr9AttributeENtNtNtNtBb_4iter6traits8iterator8Iterator3anyNCNvMs0_NtCs3cuHK5hCpJL_10displaydoc4attrNtB2j_11AttrsHelper3new0EB2l_, symObjAddr: 0x1760, symBinAddr: 0x151A0, symSize: 0x90 }
  - { offset: 0x60C6B, size: 0x8, addend: 0x0, symName: __RINvXs2E_NtNtCsieiGu2EXtoJ_4core5slice4iterINtB7_4IterNtNtCsdGrGZaRBwMb_3syn4attr9AttributeENtNtNtNtBb_4iter6traits8iterator8Iterator3anyNCNvMs0_NtCs3cuHK5hCpJL_10displaydoc4attrNtB2j_11AttrsHelper3news_0EB2l_, symObjAddr: 0x17F0, symBinAddr: 0x15230, symSize: 0x90 }
  - { offset: 0x60CD0, size: 0x8, addend: 0x0, symName: __RINvXs2E_NtNtCsieiGu2EXtoJ_4core5slice4iterINtB7_4IterNtNtCsdGrGZaRBwMb_3syn4attr9AttributeENtNtNtNtBb_4iter6traits8iterator8Iterator4findNCNvMs0_NtCs3cuHK5hCpJL_10displaydoc4attrNtB2k_11AttrsHelper7display0EB2m_, symObjAddr: 0x1880, symBinAddr: 0x152C0, symSize: 0xA0 }
  - { offset: 0x60D35, size: 0x8, addend: 0x0, symName: __RINvXs2E_NtNtCsieiGu2EXtoJ_4core5slice4iterINtB7_4IterNtNtCsdGrGZaRBwMb_3syn4attr9AttributeENtNtNtNtBb_4iter6traits8iterator8Iterator4foldjNCINvNtNtB1y_8adapters3map8map_foldRBQ_jjNCINvNvXs1_NtB2k_6filterINtB33_6FilterppEB1s_5count8to_usizeB2M_NCNvMs0_NtCs3cuHK5hCpJL_10displaydoc4attrNtB42_11AttrsHelper7displays_0E0NCINvXsK_NtB1w_5accumjNtB5e_3Sum3sumINtB2i_3MapBF_B2S_EE0E0EB44_, symObjAddr: 0x1920, symBinAddr: 0x15360, symSize: 0x1B0 }
  - { offset: 0x60E7A, size: 0x8, addend: 0x0, symName: __RINvXs2E_NtNtCsieiGu2EXtoJ_4core5slice4iterINtB7_4IterRNtNtCsdGrGZaRBwMb_3syn8generics9TypeParamENtNtNtNtBb_4iter6traits8iterator8Iterator4folduNCINvNtNtB1D_8adapters3map8map_foldRBQ_TNtCsaKzlTDPUHDb_11proc_macro25IdentINtNtCslJiobkLta79_5alloc3vec3VecNtBT_10TraitBoundEEuNCNvNtCs3cuHK5hCpJL_10displaydoc6expand37extract_trait_constraints_from_source0NCINvNvB1x_8for_each4callB2V_NCINvXs1i_NtCsjK30CmJ87bX_9hashbrown3mapINtB6g_7HashMapB2W_B3v_NtNtNtCsHUR1vrdMJt_3std4hash6random11RandomStateEINtNtB1B_7collect6ExtendB2V_E6extendINtB2n_3MapBF_B4m_EE0E0E0EB4s_, symObjAddr: 0x1AD0, symBinAddr: 0x15510, symSize: 0x150 }
  - { offset: 0x60FBB, size: 0x8, addend: 0x0, symName: __RNvXs2E_NtNtCsieiGu2EXtoJ_4core5slice4iterINtB6_4IterINtNtBa_6option6OptionNtNtCs3cuHK5hCpJL_10displaydoc4attr14VariantDisplayEENtNtNtNtBa_4iter6traits8iterator8Iterator4nextB1f_, symObjAddr: 0x29F0, symBinAddr: 0x16420, symSize: 0x90 }
  - { offset: 0x610DC, size: 0x8, addend: 0x0, symName: __RNvXs2E_NtNtCsieiGu2EXtoJ_4core5slice4iterINtB6_4IterNtCsaKzlTDPUHDb_11proc_macro211TokenStreamENtNtNtNtBa_4iter6traits8iterator8Iterator4nextCs3cuHK5hCpJL_10displaydoc, symObjAddr: 0x2A80, symBinAddr: 0x164B0, symSize: 0x90 }
  - { offset: 0x611FD, size: 0x8, addend: 0x0, symName: __RNvXs2E_NtNtCsieiGu2EXtoJ_4core5slice4iterINtB6_4IterRNtNtCsdGrGZaRBwMb_3syn8generics9TypeParamENtNtNtNtBa_4iter6traits8iterator8Iterator9size_hintCs3cuHK5hCpJL_10displaydoc, symObjAddr: 0x2B10, symBinAddr: 0x16540, symSize: 0x60 }
  - { offset: 0x6147A, size: 0x8, addend: 0x0, symName: __RNvXs2F_NtNtCsieiGu2EXtoJ_4core5slice4iterINtB6_4IterTNtNtCsdGrGZaRBwMb_3syn4data7VariantNtNtBU_5token5CommaEENtNtNtNtBa_4iter6traits12double_ended19DoubleEndedIterator9next_backCs3cuHK5hCpJL_10displaydoc, symObjAddr: 0x2B70, symBinAddr: 0x165A0, symSize: 0x100 }
  - { offset: 0x615C9, size: 0x8, addend: 0x0, symName: __RNvXs2F_NtNtCsieiGu2EXtoJ_4core5slice4iterINtB6_4IterTNtNtCsdGrGZaRBwMb_3syn8generics14WherePredicateNtNtBU_5token5CommaEENtNtNtNtBa_4iter6traits12double_ended19DoubleEndedIterator9next_backCs3cuHK5hCpJL_10displaydoc, symObjAddr: 0x2C70, symBinAddr: 0x166A0, symSize: 0x100 }
  - { offset: 0x61795, size: 0x8, addend: 0x0, symName: __RNvXs2M_NtNtCsieiGu2EXtoJ_4core5slice4iterINtB6_7IterMutTNtNtCsdGrGZaRBwMb_3syn8generics14WherePredicateNtNtBX_5token5CommaEENtNtNtNtBa_4iter6traits8iterator8Iterator4nextCs3cuHK5hCpJL_10displaydoc, symObjAddr: 0x2D70, symBinAddr: 0x167A0, symSize: 0x90 }
  - { offset: 0x618A7, size: 0x8, addend: 0x0, symName: __RNvXs2N_NtNtCsieiGu2EXtoJ_4core5slice4iterINtB6_7IterMutTNtNtCsdGrGZaRBwMb_3syn8generics14WherePredicateNtNtBX_5token5CommaEENtNtNtNtBa_4iter6traits12double_ended19DoubleEndedIterator9next_backCs3cuHK5hCpJL_10displaydoc, symObjAddr: 0x2E00, symBinAddr: 0x16830, symSize: 0x100 }
  - { offset: 0x619FC, size: 0x8, addend: 0x0, symName: __RNvXs5_NtNtCsieiGu2EXtoJ_4core5slice4iterINtB5_4IterTNtNtCsdGrGZaRBwMb_3syn4data7VariantNtNtBT_5token5CommaEENtNtB9_5clone5Clone5cloneCs3cuHK5hCpJL_10displaydoc, symObjAddr: 0x2F20, symBinAddr: 0x16950, symSize: 0x20 }
  - { offset: 0x61A31, size: 0x8, addend: 0x0, symName: __RNvXs5_NtNtCsieiGu2EXtoJ_4core5slice4iterINtB5_4IterTNtNtCsdGrGZaRBwMb_3syn8generics14WherePredicateNtNtBT_5token5CommaEENtNtB9_5clone5Clone5cloneCs3cuHK5hCpJL_10displaydoc, symObjAddr: 0x2F40, symBinAddr: 0x16970, symSize: 0x20 }
  - { offset: 0x61B5F, size: 0x8, addend: 0x0, symName: __RNvMNtCsieiGu2EXtoJ_4core5sliceSRNtNtCsdGrGZaRBwMb_3syn8generics9TypeParam4iterCs3cuHK5hCpJL_10displaydoc, symObjAddr: 0x2570, symBinAddr: 0x15FB0, symSize: 0x20 }
  - { offset: 0x61B96, size: 0x8, addend: 0x0, symName: __RNvMNtCsieiGu2EXtoJ_4core5sliceSTNtNtCsdGrGZaRBwMb_3syn8generics14WherePredicateNtNtBz_5token5CommaE8iter_mutCs3cuHK5hCpJL_10displaydoc, symObjAddr: 0x2590, symBinAddr: 0x15FD0, symSize: 0x20 }
  - { offset: 0x61DE1, size: 0x8, addend: 0x0, symName: __RNvMNtNtCsieiGu2EXtoJ_4core4char7methodsc13is_whitespaceCs3cuHK5hCpJL_10displaydoc, symObjAddr: 0x25B0, symBinAddr: 0x15FF0, symSize: 0x60 }
  - { offset: 0x61E78, size: 0x8, addend: 0x0, symName: __RNvNtNtCsieiGu2EXtoJ_4core4char7methods15encode_utf8_rawCs3cuHK5hCpJL_10displaydoc, symObjAddr: 0x2760, symBinAddr: 0x16190, symSize: 0xE0 }
  - { offset: 0x61F78, size: 0x8, addend: 0x0, symName: __RNvNtNtCsieiGu2EXtoJ_4core4char7methods25encode_utf8_raw_uncheckedCs3cuHK5hCpJL_10displaydoc, symObjAddr: 0x2840, symBinAddr: 0x16270, symSize: 0x140 }
  - { offset: 0x6212D, size: 0x8, addend: 0x0, symName: __RNvXs3_NtNtCsieiGu2EXtoJ_4core3str7patternNvMNtNtB9_4char7methodsc13is_whitespaceNtB5_11MultiCharEq7matchesCs3cuHK5hCpJL_10displaydoc, symObjAddr: 0x2F00, symBinAddr: 0x16930, symSize: 0x20 }
  - { offset: 0x62179, size: 0x8, addend: 0x0, symName: __RNvXsr_NtNtCsieiGu2EXtoJ_4core3str7patternNvMNtNtB9_4char7methodsc13is_whitespaceNtB5_7Pattern13into_searcherCs3cuHK5hCpJL_10displaydoc, symObjAddr: 0x3020, symBinAddr: 0x16A50, symSize: 0x40 }
  - { offset: 0x68899, size: 0x8, addend: 0x0, symName: __RINvMNtCslJiobkLta79_5alloc5sliceSRe4joinBw_ECs3cuHK5hCpJL_10displaydoc, symObjAddr: 0x160, symBinAddr: 0x13C10, symSize: 0x30 }
  - { offset: 0x68E76, size: 0x8, addend: 0x0, symName: __RINvMNtCsdGrGZaRBwMb_3syn5errorNtB3_5Error11new_spannedRNtNtB5_4data7VariantReECs3cuHK5hCpJL_10displaydoc, symObjAddr: 0x0, symBinAddr: 0x13AB0, symSize: 0xB0 }
  - { offset: 0x68EC6, size: 0x8, addend: 0x0, symName: __RINvMNtCsdGrGZaRBwMb_3syn5errorNtB3_5Error11new_spannedRNtNtB5_6derive11DeriveInputReECs3cuHK5hCpJL_10displaydoc, symObjAddr: 0xB0, symBinAddr: 0x13B60, symSize: 0xB0 }
  - { offset: 0x6980B, size: 0x8, addend: 0x0, symName: __RNvMs4_NtNtCsieiGu2EXtoJ_4core5slice4iterINtB5_4IterINtNtB9_6option6OptionNtNtCs3cuHK5hCpJL_10displaydoc4attr14VariantDisplayEE3newB1e_, symObjAddr: 0x2610, symBinAddr: 0x16050, symSize: 0x50 }
  - { offset: 0x699D2, size: 0x8, addend: 0x0, symName: __RNvMs4_NtNtCsieiGu2EXtoJ_4core5slice4iterINtB5_4IterNtCsaKzlTDPUHDb_11proc_macro211TokenStreamE3newCs3cuHK5hCpJL_10displaydoc, symObjAddr: 0x2660, symBinAddr: 0x160A0, symSize: 0x50 }
  - { offset: 0x69B8C, size: 0x8, addend: 0x0, symName: __RNvMs4_NtNtCsieiGu2EXtoJ_4core5slice4iterINtB5_4IterRNtNtCsdGrGZaRBwMb_3syn8generics9TypeParamE3newCs3cuHK5hCpJL_10displaydoc, symObjAddr: 0x26B0, symBinAddr: 0x160F0, symSize: 0x50 }
  - { offset: 0x69D53, size: 0x8, addend: 0x0, symName: __RNvMsa_NtNtCsieiGu2EXtoJ_4core5slice4iterINtB5_7IterMutTNtNtCsdGrGZaRBwMb_3syn8generics14WherePredicateNtNtBW_5token5CommaEE3newCs3cuHK5hCpJL_10displaydoc, symObjAddr: 0x2700, symBinAddr: 0x16140, symSize: 0x50 }
  - { offset: 0x69E7E, size: 0x8, addend: 0x0, symName: __RNvXNtCs9OU1sGv5X54_5quote9to_tokensRNtNtCsdGrGZaRBwMb_3syn3lit6LitStrNtB2_8ToTokens9to_tokensCs3cuHK5hCpJL_10displaydoc, symObjAddr: 0x2980, symBinAddr: 0x163B0, symSize: 0x30 }
  - { offset: 0x6B1F2, size: 0x8, addend: 0x0, symName: __RINvNtCsdGrGZaRBwMb_3syn5parse12parse_scopedNvYNtNtB4_3lit6LitStrNtB2_5Parse5parseECs3cuHK5hCpJL_10displaydoc, symObjAddr: 0x0, symBinAddr: 0x16EB0, symSize: 0x30 }
  - { offset: 0x6B214, size: 0x8, addend: 0x0, symName: ___rustc_proc_macro_decls_254a4f5c817847bb__, symObjAddr: 0x49D8, symBinAddr: 0x1E3020, symSize: 0x0 }
  - { offset: 0x6B227, size: 0x8, addend: 0x0, symName: __RNCNvCs3cuHK5hCpJL_10displaydoc12derive_error0B3_, symObjAddr: 0x20A0, symBinAddr: 0x18F50, symSize: 0x60 }
  - { offset: 0x6B266, size: 0x8, addend: 0x0, symName: __RNvCs3cuHK5hCpJL_10displaydoc12derive_error, symObjAddr: 0x2100, symBinAddr: 0x18FB0, symSize: 0x1B0 }
  - { offset: 0x6B2E1, size: 0x8, addend: 0x0, symName: __RNvNtCs3cuHK5hCpJL_10displaydoc3fmt10take_ident, symObjAddr: 0x2480, symBinAddr: 0x19330, symSize: 0x240 }
  - { offset: 0x6B35D, size: 0x8, addend: 0x0, symName: __RNvNtCs3cuHK5hCpJL_10displaydoc3fmt8take_int, symObjAddr: 0x26C0, symBinAddr: 0x19570, symSize: 0x200 }
  - { offset: 0x6B6E8, size: 0x8, addend: 0x0, symName: __RNvXs7_NtNtCscKtU6MdFI5n_10proc_macro6bridge3rpcINtNtNtCsieiGu2EXtoJ_4core3num7nonzero7NonZeromEINtB5_9DecodeMutuE6decodeCs3cuHK5hCpJL_10displaydoc, symObjAddr: 0x2B90, symBinAddr: 0x19A40, symSize: 0x50 }
  - { offset: 0x6BB2A, size: 0x8, addend: 0x0, symName: __RNvXs1e_CscKtU6MdFI5n_10proc_macroNtB6_5IdentNtNtCsieiGu2EXtoJ_4core5clone5Clone5cloneCs3cuHK5hCpJL_10displaydoc, symObjAddr: 0x2A30, symBinAddr: 0x198E0, symSize: 0x40 }
  - { offset: 0x6BB5E, size: 0x8, addend: 0x0, symName: __RNvXsU_CscKtU6MdFI5n_10proc_macroNtB5_11TokenStreamNtNtCsieiGu2EXtoJ_4core5clone5Clone5cloneCs3cuHK5hCpJL_10displaydoc, symObjAddr: 0x2F90, symBinAddr: 0x19E40, symSize: 0x50 }
  - { offset: 0x6DEE7, size: 0x8, addend: 0x0, symName: __RNvNvMsd_NtNtCsieiGu2EXtoJ_4core3num7nonzeroINtB7_7NonZeropE13new_unchecked18precondition_checkCs3cuHK5hCpJL_10displaydoc, symObjAddr: 0x29A0, symBinAddr: 0x19850, symSize: 0x80 }
  - { offset: 0x6EAAE, size: 0x8, addend: 0x0, symName: __RNvXsn_NtNtCsieiGu2EXtoJ_4core5panic11unwind_safeINtB5_16AssertUnwindSafeNCINvNtNtCscKtU6MdFI5n_10proc_macro6bridge6client10run_clientNtB1e_11TokenStreamINtNtB9_6option6OptionB28_ENCNCINvMs6_B1e_INtB1e_6ClientNtB1i_11TokenStreamB3l_E7expand1NvCs3cuHK5hCpJL_10displaydoc12derive_errorE00E0EINtNtNtB9_3ops8function6FnOnceuE9call_onceB3T_, symObjAddr: 0x3F50, symBinAddr: 0x1AE00, symSize: 0x30 }
  - { offset: 0x6EF76, size: 0x8, addend: 0x0, symName: __RNvMNtCsieiGu2EXtoJ_4core5sliceSINtNtNtB4_3mem12maybe_uninit11MaybeUninithE15copy_from_sliceCs3cuHK5hCpJL_10displaydoc, symObjAddr: 0x22B0, symBinAddr: 0x19160, symSize: 0xA0 }
  - { offset: 0x6F041, size: 0x8, addend: 0x0, symName: __RNvMNtCsieiGu2EXtoJ_4core5sliceSINtNtNtB4_3mem12maybe_uninit11MaybeUninithE22split_at_mut_uncheckedCs3cuHK5hCpJL_10displaydoc, symObjAddr: 0x2350, symBinAddr: 0x19200, symSize: 0x110 }
  - { offset: 0x6F55D, size: 0x8, addend: 0x0, symName: __RNvNtNtCsieiGu2EXtoJ_4core5slice6memchr6memchrCs3cuHK5hCpJL_10displaydoc, symObjAddr: 0x28C0, symBinAddr: 0x19770, symSize: 0xE0 }
  - { offset: 0x6FEC1, size: 0x8, addend: 0x0, symName: __RINvYNtNtCsaKzlTDPUHDb_11proc_macro212token_stream8IntoIterNtNtNtNtCsieiGu2EXtoJ_4core4iter6traits8iterator8Iterator4folduNCINvNvBV_8for_each4callNtB7_9TokenTreeNCINvXsa_NtB7_8fallbackNtB2I_11TokenStreamINtNtBZ_7collect6ExtendB2k_E6extendNtB7_11TokenStreamE0E0ECs3cuHK5hCpJL_10displaydoc, symObjAddr: 0x1EC0, symBinAddr: 0x18D70, symSize: 0x100 }
  - { offset: 0x6FF53, size: 0x8, addend: 0x0, symName: __RINvYNtNtCsaKzlTDPUHDb_11proc_macro212token_stream8IntoIterNtNtNtNtCsieiGu2EXtoJ_4core4iter6traits8iterator8Iterator8for_eachNCINvXsa_NtB7_8fallbackNtB28_11TokenStreamINtNtBZ_7collect6ExtendNtB7_9TokenTreeE6extendNtB7_11TokenStreamE0ECs3cuHK5hCpJL_10displaydoc, symObjAddr: 0x1FC0, symBinAddr: 0x18E70, symSize: 0x20 }
  - { offset: 0x6FFCB, size: 0x8, addend: 0x0, symName: __RNvXsF_NtNtCsieiGu2EXtoJ_4core4iter5rangejNtB5_4Step17forward_uncheckedCs3cuHK5hCpJL_10displaydoc, symObjAddr: 0x2F50, symBinAddr: 0x19E00, symSize: 0x40 }
  - { offset: 0x7020E, size: 0x8, addend: 0x0, symName: __RNvXs2_NtNtCsieiGu2EXtoJ_4core3str7patterncNtB5_7Pattern13into_searcherCs3cuHK5hCpJL_10displaydoc, symObjAddr: 0x2A70, symBinAddr: 0x19920, symSize: 0x120 }
  - { offset: 0x7032F, size: 0x8, addend: 0x0, symName: __RNvXs7_NtNtCsieiGu2EXtoJ_4core3str7patternINtB5_18MultiCharEqPatternNvMNtNtB9_4char7methodsc13is_whitespaceENtB5_7Pattern13into_searcherCs3cuHK5hCpJL_10displaydoc, symObjAddr: 0x2BE0, symBinAddr: 0x19A90, symSize: 0xB0 }
  - { offset: 0x70391, size: 0x8, addend: 0x0, symName: __RNvXs8_NtNtCsieiGu2EXtoJ_4core3str7patternINtB5_19MultiCharEqSearcherNvMNtNtB9_4char7methodsc13is_whitespaceENtB5_8Searcher4nextCs3cuHK5hCpJL_10displaydoc, symObjAddr: 0x2C90, symBinAddr: 0x19B40, symSize: 0x160 }
  - { offset: 0x704BF, size: 0x8, addend: 0x0, symName: __RNvXs9_NtNtCsieiGu2EXtoJ_4core3str7patternINtB5_19MultiCharEqSearcherNvMNtNtB9_4char7methodsc13is_whitespaceENtB5_15ReverseSearcher9next_backCs3cuHK5hCpJL_10displaydoc, symObjAddr: 0x2DF0, symBinAddr: 0x19CA0, symSize: 0x160 }
  - { offset: 0x70654, size: 0x8, addend: 0x0, symName: __RNvXs_NtNtCsieiGu2EXtoJ_4core3str7patternNtB4_12CharSearcherNtB4_8Searcher10next_matchCs3cuHK5hCpJL_10displaydoc, symObjAddr: 0x3030, symBinAddr: 0x19EE0, symSize: 0x4A0 }
  - { offset: 0x70BF9, size: 0x8, addend: 0x0, symName: __RNvXs_NtNtCsieiGu2EXtoJ_4core3str7patternNtB4_12CharSearcherNtB4_8Searcher4nextCs3cuHK5hCpJL_10displaydoc, symObjAddr: 0x34D0, symBinAddr: 0x1A380, symSize: 0x230 }
  - { offset: 0x70EC8, size: 0x8, addend: 0x0, symName: __RNvXs_NtNtCsieiGu2EXtoJ_4core3str7patternNtB4_12CharSearcherNtB4_8Searcher8haystackCs3cuHK5hCpJL_10displaydoc, symObjAddr: 0x3700, symBinAddr: 0x1A5B0, symSize: 0x20 }
  - { offset: 0x70EFC, size: 0x8, addend: 0x0, symName: __RNvXso_NtNtCsieiGu2EXtoJ_4core3str7patternINtB5_21CharPredicateSearcherNvMNtNtB9_4char7methodsc13is_whitespaceENtB5_8Searcher11next_rejectCs3cuHK5hCpJL_10displaydoc, symObjAddr: 0x3F80, symBinAddr: 0x1AE30, symSize: 0x30 }
  - { offset: 0x70F39, size: 0x8, addend: 0x0, symName: __RNvXsp_NtNtCsieiGu2EXtoJ_4core3str7patternINtB5_21CharPredicateSearcherNvMNtNtB9_4char7methodsc13is_whitespaceENtB5_15ReverseSearcher16next_reject_backCs3cuHK5hCpJL_10displaydoc, symObjAddr: 0x3FB0, symBinAddr: 0x1AE60, symSize: 0x30 }
  - { offset: 0x70FA0, size: 0x8, addend: 0x0, symName: __RNvXst_NtNtCsieiGu2EXtoJ_4core3str7patternReNtB5_7Pattern15strip_suffix_ofCs3cuHK5hCpJL_10displaydoc, symObjAddr: 0x3FE0, symBinAddr: 0x1AE90, symSize: 0xE0 }
  - { offset: 0x710E7, size: 0x8, addend: 0x0, symName: __RNvYINtNtNtCsieiGu2EXtoJ_4core3str7pattern19MultiCharEqSearcherNvMNtNtB9_4char7methodsc13is_whitespaceENtB5_15ReverseSearcher16next_reject_backCs3cuHK5hCpJL_10displaydoc, symObjAddr: 0x40C0, symBinAddr: 0x1AF70, symSize: 0x90 }
  - { offset: 0x71152, size: 0x8, addend: 0x0, symName: __RNvYINtNtNtCsieiGu2EXtoJ_4core3str7pattern19MultiCharEqSearcherNvMNtNtB9_4char7methodsc13is_whitespaceENtB5_8Searcher11next_rejectCs3cuHK5hCpJL_10displaydoc, symObjAddr: 0x4150, symBinAddr: 0x1B000, symSize: 0x90 }
  - { offset: 0x711B7, size: 0x8, addend: 0x0, symName: __RNvYNtNtNtCsieiGu2EXtoJ_4core3str7pattern12CharSearcherNtB4_8Searcher11next_rejectCs3cuHK5hCpJL_10displaydoc, symObjAddr: 0x41E0, symBinAddr: 0x1B090, symSize: 0x90 }
  - { offset: 0x71710, size: 0x8, addend: 0x0, symName: __RNvXs1_NtCsaKzlTDPUHDb_11proc_macro26markerNtB5_19ProcMacroAutoTraitsNtNtCsieiGu2EXtoJ_4core5clone5Clone5cloneCs3cuHK5hCpJL_10displaydoc, symObjAddr: 0x2A20, symBinAddr: 0x198D0, symSize: 0x10 }
  - { offset: 0x71D00, size: 0x8, addend: 0x0, symName: __RINvNtCsdGrGZaRBwMb_3syn5parse12parse_scopedNvYNtNtB4_3lit6LitStrNtB2_5Parse5parseECs3cuHK5hCpJL_10displaydoc, symObjAddr: 0x0, symBinAddr: 0x16EB0, symSize: 0x30 }
  - { offset: 0x71D5B, size: 0x8, addend: 0x0, symName: __RNvXsh_NtCsdGrGZaRBwMb_3syn5parseNvYNtNtB7_3lit6LitStrNtB5_5Parse5parseNtB5_6Parser14___parse_scopedCs3cuHK5hCpJL_10displaydoc, symObjAddr: 0x3720, symBinAddr: 0x1A5D0, symSize: 0x430 }
  - { offset: 0x71EA7, size: 0x8, addend: 0x0, symName: __RNvXsh_NtCsdGrGZaRBwMb_3syn5parseNvYNtNtB7_6derive11DeriveInputNtB5_5Parse5parseNtB5_6Parser6parse2Cs3cuHK5hCpJL_10displaydoc, symObjAddr: 0x3B50, symBinAddr: 0x1AA00, symSize: 0x400 }
  - { offset: 0x71FBE, size: 0x8, addend: 0x0, symName: __RNvYNvYNtNtCsdGrGZaRBwMb_3syn6derive11DeriveInputNtNtB9_5parse5Parse5parseNtBN_6Parser5parseCs3cuHK5hCpJL_10displaydoc, symObjAddr: 0x4270, symBinAddr: 0x1B120, symSize: 0x70 }
  - { offset: 0x7823D, size: 0x8, addend: 0x0, symName: __RNCNCINvNtCslJiobkLta79_5alloc3str17join_generic_copyehReE00Cs3cuHK5hCpJL_10displaydoc, symObjAddr: 0x2060, symBinAddr: 0x18F10, symSize: 0x40 }
  - { offset: 0x78296, size: 0x8, addend: 0x0, symName: __RNCINvNtCslJiobkLta79_5alloc3str17join_generic_copyehReEs_0Cs3cuHK5hCpJL_10displaydoc, symObjAddr: 0x1FE0, symBinAddr: 0x18E90, symSize: 0x80 }
  - { offset: 0x78364, size: 0x8, addend: 0x0, symName: __RINvNtCslJiobkLta79_5alloc3str17join_generic_copyehReECs3cuHK5hCpJL_10displaydoc, symObjAddr: 0x30, symBinAddr: 0x16EE0, symSize: 0x1E90 }
  - { offset: 0x79970, size: 0x8, addend: 0x0, symName: __RNvXs_NtCslJiobkLta79_5alloc3strSReINtNtB6_5slice4JoinBv_E4joinCs3cuHK5hCpJL_10displaydoc, symObjAddr: 0x2FE0, symBinAddr: 0x19E90, symSize: 0x50 }
  - { offset: 0x7A0AB, size: 0x8, addend: 0x0, symName: __RNvMs10_NtNtCsieiGu2EXtoJ_4core9core_arch3x86NtB6_7___m128i8as_i8x16Cs3cuHK5hCpJL_10displaydoc, symObjAddr: 0x2460, symBinAddr: 0x19310, symSize: 0x20 }
  - { offset: 0x7A95B, size: 0x8, addend: 0x0, symName: __RINvCsdGrGZaRBwMb_3syn5parseNtNtB2_6derive11DeriveInputECs3cuHK5hCpJL_10displaydoc, symObjAddr: 0x0, symBinAddr: 0x1B190, symSize: 0x30 }
  - { offset: 0x7AA15, size: 0x8, addend: 0x0, symName: __RINvCsdGrGZaRBwMb_3syn5parseNtNtB2_6derive11DeriveInputECs3cuHK5hCpJL_10displaydoc, symObjAddr: 0x0, symBinAddr: 0x1B190, symSize: 0x30 }
  - { offset: 0x808B6, size: 0x8, addend: 0x0, symName: __RNvXs6_NtCslJiobkLta79_5alloc5boxedINtB5_3BoxDNtNtCsieiGu2EXtoJ_4core5error5ErrorNtNtBM_6marker4SyncNtB1j_4SendEL_ENtNtNtBM_3ops4drop4Drop4dropCs3cuHK5hCpJL_10displaydoc, symObjAddr: 0x2EA0, symBinAddr: 0x1DD20, symSize: 0xC0 }
  - { offset: 0x809F3, size: 0x8, addend: 0x0, symName: __RNvXs6_NtCslJiobkLta79_5alloc5boxedINtB5_3BoxINtNtCsdGrGZaRBwMb_3syn5drops6NoDropDINtNtBM_10punctuated12IterMutTraitNtNtBM_8generics14WherePredicateEp4ItemQB1Q_EL_EENtNtNtCsieiGu2EXtoJ_4core3ops4drop4Drop4dropCs3cuHK5hCpJL_10displaydoc, symObjAddr: 0x2F60, symBinAddr: 0x1DDE0, symSize: 0x120 }
  - { offset: 0x80B30, size: 0x8, addend: 0x0, symName: __RNvXs6_NtCslJiobkLta79_5alloc5boxedINtB5_3BoxINtNtCsdGrGZaRBwMb_3syn5drops6NoDropDINtNtBM_10punctuated9IterTraitNtNtBM_4data5FieldEp4ItemRB1M_EL_EENtNtNtCsieiGu2EXtoJ_4core3ops4drop4Drop4dropCs3cuHK5hCpJL_10displaydoc, symObjAddr: 0x3080, symBinAddr: 0x1DF00, symSize: 0x120 }
  - { offset: 0x80C6D, size: 0x8, addend: 0x0, symName: __RNvXs6_NtCslJiobkLta79_5alloc5boxedINtB5_3BoxINtNtCsdGrGZaRBwMb_3syn5drops6NoDropDINtNtBM_10punctuated9IterTraitNtNtBM_4data7VariantEp4ItemRB1M_EL_EENtNtNtCsieiGu2EXtoJ_4core3ops4drop4Drop4dropCs3cuHK5hCpJL_10displaydoc, symObjAddr: 0x31A0, symBinAddr: 0x1E020, symSize: 0x120 }
  - { offset: 0x80DAA, size: 0x8, addend: 0x0, symName: __RNvXs6_NtCslJiobkLta79_5alloc5boxedINtB5_3BoxINtNtCsdGrGZaRBwMb_3syn5drops6NoDropDINtNtBM_10punctuated9IterTraitNtNtBM_8generics12GenericParamEp4ItemRB1M_EL_EENtNtNtCsieiGu2EXtoJ_4core3ops4drop4Drop4dropCs3cuHK5hCpJL_10displaydoc, symObjAddr: 0x32C0, symBinAddr: 0x1E140, symSize: 0x120 }
  - { offset: 0x80EE7, size: 0x8, addend: 0x0, symName: __RNvXs6_NtCslJiobkLta79_5alloc5boxedINtB5_3BoxINtNtCsdGrGZaRBwMb_3syn5drops6NoDropDINtNtBM_10punctuated9IterTraitNtNtBM_8generics14WherePredicateEp4ItemRB1M_EL_EENtNtNtCsieiGu2EXtoJ_4core3ops4drop4Drop4dropCs3cuHK5hCpJL_10displaydoc, symObjAddr: 0x33E0, symBinAddr: 0x1E260, symSize: 0x120 }
  - { offset: 0x81024, size: 0x8, addend: 0x0, symName: __RNvXs6_NtCslJiobkLta79_5alloc5boxedINtB5_3BoxNtNtNtCsHUR1vrdMJt_3std2io5error6CustomENtNtNtCsieiGu2EXtoJ_4core3ops4drop4Drop4dropCs3cuHK5hCpJL_10displaydoc, symObjAddr: 0x3500, symBinAddr: 0x1E380, symSize: 0xB0 }
  - { offset: 0x81165, size: 0x8, addend: 0x0, symName: __RNvXsD_NtCslJiobkLta79_5alloc5boxedINtB5_3BoxNtNtCsdGrGZaRBwMb_3syn8generics14WherePredicateEINtNtCsieiGu2EXtoJ_4core7convert5AsMutBH_E6as_mutCs3cuHK5hCpJL_10displaydoc, symObjAddr: 0x36A0, symBinAddr: 0x1E520, symSize: 0x10 }
  - { offset: 0x813E8, size: 0x8, addend: 0x0, symName: __RINvXs7_NtCsaKzlTDPUHDb_11proc_macro23impNtB6_11TokenStreamINtNtNtNtCsieiGu2EXtoJ_4core4iter6traits7collect6ExtendNtB8_9TokenTreeE6extendNtB8_11TokenStreamECs3cuHK5hCpJL_10displaydoc, symObjAddr: 0xA20, symBinAddr: 0x1B8A0, symSize: 0x170 }
  - { offset: 0x81484, size: 0x8, addend: 0x0, symName: __RNvXsA_NtCsaKzlTDPUHDb_11proc_macro23impNtB5_19DeferredTokenStreamNtNtCsieiGu2EXtoJ_4core5clone5Clone5cloneCs3cuHK5hCpJL_10displaydoc, symObjAddr: 0x35E0, symBinAddr: 0x1E460, symSize: 0xA0 }
  - { offset: 0x814B6, size: 0x8, addend: 0x0, symName: __RNvXsF_NtCsaKzlTDPUHDb_11proc_macro23impNtB5_5IdentNtNtCsieiGu2EXtoJ_4core5clone5Clone5cloneCs3cuHK5hCpJL_10displaydoc, symObjAddr: 0x36B0, symBinAddr: 0x1E530, symSize: 0x90 }
  - { offset: 0x81526, size: 0x8, addend: 0x0, symName: __RNvXsz_NtCsaKzlTDPUHDb_11proc_macro23impNtB5_11TokenStreamNtNtCsieiGu2EXtoJ_4core5clone5Clone5cloneCs3cuHK5hCpJL_10displaydoc, symObjAddr: 0x4170, symBinAddr: 0x1EFF0, symSize: 0xB0 }
  - { offset: 0x81D4C, size: 0x8, addend: 0x0, symName: __RNvXsV_NtCscKtU6MdFI5n_10proc_macro6bridgeINtNtCsieiGu2EXtoJ_4core6result6ResultINtNtBJ_6option6OptionNtNtB5_6client11TokenStreamEuEINtNtB5_3rpc6EncodeuE6encodeCs3cuHK5hCpJL_10displaydoc, symObjAddr: 0x3770, symBinAddr: 0x1E5F0, symSize: 0xE0 }
  - { offset: 0x81E10, size: 0x8, addend: 0x0, symName: __RNvXsV_NtCscKtU6MdFI5n_10proc_macro6bridgeINtNtCsieiGu2EXtoJ_4core6result6ResultuNtNtB5_3rpc12PanicMessageEINtB1j_6EncodeuE6encodeCs3cuHK5hCpJL_10displaydoc, symObjAddr: 0x3850, symBinAddr: 0x1E6D0, symSize: 0x120 }
  - { offset: 0x83088, size: 0x8, addend: 0x0, symName: __RINvNtCsieiGu2EXtoJ_4core3ptr10swap_chunkKj1_ECs3cuHK5hCpJL_10displaydoc, symObjAddr: 0x470, symBinAddr: 0x1B3A0, symSize: 0x30 }
  - { offset: 0x830C1, size: 0x8, addend: 0x0, symName: __RINvNtCsieiGu2EXtoJ_4core3ptr10swap_chunkKj2_ECs3cuHK5hCpJL_10displaydoc, symObjAddr: 0x4A0, symBinAddr: 0x1B3D0, symSize: 0x30 }
  - { offset: 0x830FA, size: 0x8, addend: 0x0, symName: __RINvNtCsieiGu2EXtoJ_4core3ptr10swap_chunkKj4_ECs3cuHK5hCpJL_10displaydoc, symObjAddr: 0x4D0, symBinAddr: 0x1B400, symSize: 0x30 }
  - { offset: 0x83133, size: 0x8, addend: 0x0, symName: __RINvNtCsieiGu2EXtoJ_4core3ptr10swap_chunkKj8_ECs3cuHK5hCpJL_10displaydoc, symObjAddr: 0x500, symBinAddr: 0x1B430, symSize: 0x30 }
  - { offset: 0x831D9, size: 0x8, addend: 0x0, symName: __RNvNvNtCsieiGu2EXtoJ_4core3ptr19swap_nonoverlapping18precondition_checkCs3cuHK5hCpJL_10displaydoc, symObjAddr: 0x1BE0, symBinAddr: 0x1CA60, symSize: 0x4E0 }
  - { offset: 0x83519, size: 0x8, addend: 0x0, symName: __RINvNtCsieiGu2EXtoJ_4core3ptr19swap_nonoverlappinghECs3cuHK5hCpJL_10displaydoc, symObjAddr: 0x5E0, symBinAddr: 0x1B460, symSize: 0xB0 }
  - { offset: 0x83667, size: 0x8, addend: 0x0, symName: __RINvNvNtCsieiGu2EXtoJ_4core3ptr25swap_nonoverlapping_bytes26swap_nonoverlapping_chunksKj8_ECs3cuHK5hCpJL_10displaydoc, symObjAddr: 0x690, symBinAddr: 0x1B510, symSize: 0x110 }
  - { offset: 0x8380C, size: 0x8, addend: 0x0, symName: __RNvNvNtCsieiGu2EXtoJ_4core3ptr25swap_nonoverlapping_bytes25swap_nonoverlapping_shortCs3cuHK5hCpJL_10displaydoc, symObjAddr: 0x20C0, symBinAddr: 0x1CF40, symSize: 0x160 }
  - { offset: 0x839D9, size: 0x8, addend: 0x0, symName: __RNvNtCsieiGu2EXtoJ_4core3ptr25swap_nonoverlapping_bytesCs3cuHK5hCpJL_10displaydoc, symObjAddr: 0x1660, symBinAddr: 0x1C4E0, symSize: 0xD0 }
  - { offset: 0x83D19, size: 0x8, addend: 0x0, symName: __RNvNvNtCsieiGu2EXtoJ_4core3ptr19copy_nonoverlapping18precondition_checkCs3cuHK5hCpJL_10displaydoc, symObjAddr: 0x1730, symBinAddr: 0x1C5B0, symSize: 0x4B0 }
  - { offset: 0x8402A, size: 0x8, addend: 0x0, symName: __RNvNvNtCsieiGu2EXtoJ_4core3ptr7replace18precondition_checkCs3cuHK5hCpJL_10displaydoc, symObjAddr: 0x2220, symBinAddr: 0x1D0A0, symSize: 0x1E0 }
  - { offset: 0x845AA, size: 0x8, addend: 0x0, symName: __RINvXso_NtCsieiGu2EXtoJ_4core6resultINtB6_6ResultINtNtCslJiobkLta79_5alloc3vec3VecINtNtB8_6option6OptionNtNtCs3cuHK5hCpJL_10displaydoc4attr14VariantDisplayEENtNtCsdGrGZaRBwMb_3syn5error5ErrorEINtNtNtNtB8_4iter6traits7collect12FromIteratorIBz_B1i_B2v_EE9from_iterINtNtNtB3b_8adapters3map3MapINtNtB2z_10punctuated4IterNtNtB2z_4data7VariantENCNvNtB1I_6expand9impl_enum0EEB1I_, symObjAddr: 0xB90, symBinAddr: 0x1BA10, symSize: 0x30 }
  - { offset: 0x845FD, size: 0x8, addend: 0x0, symName: __RINvXso_NtCsieiGu2EXtoJ_4core6resultINtB6_6ResultINtNtCslJiobkLta79_5alloc3vec3VecNtCsaKzlTDPUHDb_11proc_macro211TokenStreamENtNtCsdGrGZaRBwMb_3syn5error5ErrorEINtNtNtNtB8_4iter6traits7collect12FromIteratorIBz_B1i_B1Z_EE9from_iterINtNtNtB2F_8adapters3map3MapINtNtB3L_3zip3ZipINtNtB23_10punctuated4IterNtNtB23_4data7VariantEINtNtBO_9into_iter8IntoIterINtNtB8_6option6OptionNtNtCs3cuHK5hCpJL_10displaydoc4attr14VariantDisplayEEENCNvNtB62_6expand9impl_enums_0EEB62_, symObjAddr: 0xBC0, symBinAddr: 0x1BA40, symSize: 0x30 }
  - { offset: 0x84655, size: 0x8, addend: 0x0, symName: __RNCINvXso_NtCsieiGu2EXtoJ_4core6resultINtB8_6ResultINtNtCslJiobkLta79_5alloc3vec3VecINtNtBa_6option6OptionNtNtCs3cuHK5hCpJL_10displaydoc4attr14VariantDisplayEENtNtCsdGrGZaRBwMb_3syn5error5ErrorEINtNtNtNtBa_4iter6traits7collect12FromIteratorIBB_B1k_B2x_EE9from_iterINtNtNtB3d_8adapters3map3MapINtNtB2B_10punctuated4IterNtNtB2B_4data7VariantENCNvNtB1K_6expand9impl_enum0EE0B1K_, symObjAddr: 0x1470, symBinAddr: 0x1C2F0, symSize: 0x30 }
  - { offset: 0x846B3, size: 0x8, addend: 0x0, symName: __RNCINvXso_NtCsieiGu2EXtoJ_4core6resultINtB8_6ResultINtNtCslJiobkLta79_5alloc3vec3VecNtCsaKzlTDPUHDb_11proc_macro211TokenStreamENtNtCsdGrGZaRBwMb_3syn5error5ErrorEINtNtNtNtBa_4iter6traits7collect12FromIteratorIBB_B1k_B21_EE9from_iterINtNtNtB2H_8adapters3map3MapINtNtB3N_3zip3ZipINtNtB25_10punctuated4IterNtNtB25_4data7VariantEINtNtBQ_9into_iter8IntoIterINtNtBa_6option6OptionNtNtCs3cuHK5hCpJL_10displaydoc4attr14VariantDisplayEEENCNvNtB64_6expand9impl_enums_0EE0B64_, symObjAddr: 0x14A0, symBinAddr: 0x1C320, symSize: 0x30 }
  - { offset: 0x847DE, size: 0x8, addend: 0x0, symName: __RNvXsp_NtCsieiGu2EXtoJ_4core6resultINtB5_6ResultINtNtB7_6option6OptionNtNtCs3cuHK5hCpJL_10displaydoc4attr14VariantDisplayENtNtCsdGrGZaRBwMb_3syn5error5ErrorENtNtNtB7_3ops9try_trait3Try6branchB1a_, symObjAddr: 0x3A60, symBinAddr: 0x1E8E0, symSize: 0xE0 }
  - { offset: 0x8485C, size: 0x8, addend: 0x0, symName: __RNvXsp_NtCsieiGu2EXtoJ_4core6resultINtB5_6ResultINtNtB7_6option6OptionNtNtCs3cuHK5hCpJL_10displaydoc4attr7DisplayENtNtCsdGrGZaRBwMb_3syn5error5ErrorENtNtNtB7_3ops9try_trait3Try6branchB1a_, symObjAddr: 0x3B40, symBinAddr: 0x1E9C0, symSize: 0xD0 }
  - { offset: 0x848DA, size: 0x8, addend: 0x0, symName: __RNvXsp_NtCsieiGu2EXtoJ_4core6resultINtB5_6ResultINtNtCslJiobkLta79_5alloc3vec3VecINtNtB7_6option6OptionNtNtCs3cuHK5hCpJL_10displaydoc4attr14VariantDisplayEENtNtCsdGrGZaRBwMb_3syn5error5ErrorENtNtNtB7_3ops9try_trait3Try11from_outputB1H_, symObjAddr: 0x3C10, symBinAddr: 0x1EA90, symSize: 0x30 }
  - { offset: 0x8491A, size: 0x8, addend: 0x0, symName: __RNvXsp_NtCsieiGu2EXtoJ_4core6resultINtB5_6ResultINtNtCslJiobkLta79_5alloc3vec3VecINtNtB7_6option6OptionNtNtCs3cuHK5hCpJL_10displaydoc4attr14VariantDisplayEENtNtCsdGrGZaRBwMb_3syn5error5ErrorENtNtNtB7_3ops9try_trait3Try6branchB1H_, symObjAddr: 0x3C40, symBinAddr: 0x1EAC0, symSize: 0xC0 }
  - { offset: 0x84998, size: 0x8, addend: 0x0, symName: __RNvXsp_NtCsieiGu2EXtoJ_4core6resultINtB5_6ResultINtNtCslJiobkLta79_5alloc3vec3VecNtCsaKzlTDPUHDb_11proc_macro211TokenStreamENtNtCsdGrGZaRBwMb_3syn5error5ErrorENtNtNtB7_3ops9try_trait3Try11from_outputCs3cuHK5hCpJL_10displaydoc, symObjAddr: 0x3D00, symBinAddr: 0x1EB80, symSize: 0x30 }
  - { offset: 0x849D8, size: 0x8, addend: 0x0, symName: __RNvXsp_NtCsieiGu2EXtoJ_4core6resultINtB5_6ResultINtNtCslJiobkLta79_5alloc3vec3VecNtCsaKzlTDPUHDb_11proc_macro211TokenStreamENtNtCsdGrGZaRBwMb_3syn5error5ErrorENtNtNtB7_3ops9try_trait3Try6branchCs3cuHK5hCpJL_10displaydoc, symObjAddr: 0x3D30, symBinAddr: 0x1EBB0, symSize: 0xC0 }
  - { offset: 0x84A56, size: 0x8, addend: 0x0, symName: __RNvXsp_NtCsieiGu2EXtoJ_4core6resultINtB5_6ResultNtNtCs3cuHK5hCpJL_10displaydoc4attr14VariantDisplayNtNtCsdGrGZaRBwMb_3syn5error5ErrorENtNtNtB7_3ops9try_trait3Try6branchBO_, symObjAddr: 0x3DF0, symBinAddr: 0x1EC70, symSize: 0xE0 }
  - { offset: 0x84AD4, size: 0x8, addend: 0x0, symName: __RNvXsp_NtCsieiGu2EXtoJ_4core6resultINtB5_6ResultNtNtCsdGrGZaRBwMb_3syn6derive11DeriveInputNtNtBO_5error5ErrorENtNtNtB7_3ops9try_trait3Try6branchCs3cuHK5hCpJL_10displaydoc, symObjAddr: 0x3ED0, symBinAddr: 0x1ED50, symSize: 0xE0 }
  - { offset: 0x84B58, size: 0x8, addend: 0x0, symName: __RNvXsq_NtCsieiGu2EXtoJ_4core6resultINtB5_6ResultINtNtB7_6option6OptionNtNtCs3cuHK5hCpJL_10displaydoc4attr14VariantDisplayENtNtCsdGrGZaRBwMb_3syn5error5ErrorEINtNtNtB7_3ops9try_trait12FromResidualIBy_NtNtB7_7convert10InfallibleB1W_EE13from_residualB1a_, symObjAddr: 0x3FB0, symBinAddr: 0x1EE30, symSize: 0x60 }
  - { offset: 0x84BDD, size: 0x8, addend: 0x0, symName: __RNvXsq_NtCsieiGu2EXtoJ_4core6resultINtB5_6ResultINtNtCslJiobkLta79_5alloc3vec3VecINtNtB7_6option6OptionNtNtCs3cuHK5hCpJL_10displaydoc4attr14VariantDisplayEENtNtCsdGrGZaRBwMb_3syn5error5ErrorEINtNtNtB7_3ops9try_trait12FromResidualIBy_NtNtB7_7convert10InfallibleB2u_EE13from_residualB1H_, symObjAddr: 0x4010, symBinAddr: 0x1EE90, symSize: 0x60 }
  - { offset: 0x84C62, size: 0x8, addend: 0x0, symName: __RNvXsq_NtCsieiGu2EXtoJ_4core6resultINtB5_6ResultINtNtCslJiobkLta79_5alloc3vec3VecNtCsaKzlTDPUHDb_11proc_macro211TokenStreamENtNtCsdGrGZaRBwMb_3syn5error5ErrorEINtNtNtB7_3ops9try_trait12FromResidualIBy_NtNtB7_7convert10InfallibleB1Y_EE13from_residualCs3cuHK5hCpJL_10displaydoc, symObjAddr: 0x4070, symBinAddr: 0x1EEF0, symSize: 0x60 }
  - { offset: 0x84CE7, size: 0x8, addend: 0x0, symName: __RNvXsq_NtCsieiGu2EXtoJ_4core6resultINtB5_6ResultNtNtCsdGrGZaRBwMb_3syn3lit6LitStrNtNtBO_5error5ErrorEINtNtNtB7_3ops9try_trait12FromResidualIBy_NtNtB7_7convert10InfallibleB1h_EE13from_residualCs3cuHK5hCpJL_10displaydoc, symObjAddr: 0x40D0, symBinAddr: 0x1EF50, symSize: 0x50 }
  - { offset: 0x887CB, size: 0x8, addend: 0x0, symName: __RNCINvNtNtNtCsieiGu2EXtoJ_4core4iter8adapters3map12map_try_foldRNtNtCsdGrGZaRBwMb_3syn4data7VariantINtNtBa_6result6ResultINtNtBa_6option6OptionNtNtCs3cuHK5hCpJL_10displaydoc4attr14VariantDisplayENtNtB14_5error5ErrorEuINtNtNtBa_3ops12control_flow11ControlFlowIB3u_B1V_EENCNvNtB2l_6expand9impl_enum0NCINvXB6_INtB6_12GenericShuntINtB4_3MapINtNtB14_10punctuated4IterB10_EB4j_EIB1A_NtNtBa_7convert10InfallibleB37_EENtNtNtB8_6traits8iterator8Iterator8try_folduNCINvNvB6A_12try_for_each4callB1V_B48_NcNtB48_5Break0E0B48_E0E0B2l_, symObjAddr: 0x1080, symBinAddr: 0x1BF00, symSize: 0xA0 }
  - { offset: 0x8885D, size: 0x8, addend: 0x0, symName: __RNCINvNtNtNtCsieiGu2EXtoJ_4core4iter8adapters3map12map_try_foldRRejjINtNtBa_6option6OptionjENCNCINvNtCslJiobkLta79_5alloc3str17join_generic_copyehB10_E00NvMs9_NtBa_3numj11checked_addE0Cs3cuHK5hCpJL_10displaydoc, symObjAddr: 0x1120, symBinAddr: 0x1BFA0, symSize: 0x90 }
  - { offset: 0x888EF, size: 0x8, addend: 0x0, symName: __RNCINvNtNtNtCsieiGu2EXtoJ_4core4iter8adapters3map12map_try_foldTRNtNtCsdGrGZaRBwMb_3syn4data7VariantINtNtBa_6option6OptionNtNtCs3cuHK5hCpJL_10displaydoc4attr14VariantDisplayEEINtNtBa_6result6ResultNtCsaKzlTDPUHDb_11proc_macro211TokenStreamNtNtB15_5error5ErrorEuINtNtNtBa_3ops12control_flow11ControlFlowIB4c_B39_EENCNvNtB20_6expand9impl_enums_0NCINvXB6_INtB6_12GenericShuntINtB4_3MapINtNtB6_3zip3ZipINtNtB15_10punctuated4IterB11_EINtNtNtCslJiobkLta79_5alloc3vec9into_iter8IntoIterB1A_EEB51_EIB2O_NtNtBa_7convert10InfallibleB3P_EENtNtNtB8_6traits8iterator8Iterator8try_folduNCINvNvB8u_12try_for_each4callB39_B4Q_NcNtB4Q_5Break0E0B4Q_E0E0B20_, symObjAddr: 0x11B0, symBinAddr: 0x1C030, symSize: 0x100 }
  - { offset: 0x88989, size: 0x8, addend: 0x0, symName: __RINvXs0_NtNtNtCsieiGu2EXtoJ_4core4iter8adapters3mapINtB6_3MapINtNtB8_3zip3ZipINtNtCsdGrGZaRBwMb_3syn10punctuated4IterNtNtB1i_4data7VariantEINtNtNtCslJiobkLta79_5alloc3vec9into_iter8IntoIterINtNtBc_6option6OptionNtNtCs3cuHK5hCpJL_10displaydoc4attr14VariantDisplayEEENCNvNtB3r_6expand9impl_enums_0ENtNtNtBa_6traits8iterator8Iterator8try_folduNCINvXB8_INtB8_12GenericShuntBN_INtNtBc_6result6ResultNtNtBc_7convert10InfallibleNtNtB1i_5error5ErrorEEB4K_8try_folduNCINvNvB4K_12try_for_each4callNtCsaKzlTDPUHDb_11proc_macro211TokenStreamINtNtNtBc_3ops12control_flow11ControlFlowB7P_ENcNtB8v_5Break0E0B8v_E0IB8w_B8v_EEB3r_, symObjAddr: 0x7B0, symBinAddr: 0x1B630, symSize: 0x50 }
  - { offset: 0x88A2C, size: 0x8, addend: 0x0, symName: __RINvXs0_NtNtNtCsieiGu2EXtoJ_4core4iter8adapters3mapINtB6_3MapINtNtCsdGrGZaRBwMb_3syn10punctuated4IterNtNtB12_4data7VariantENCNvNtCs3cuHK5hCpJL_10displaydoc6expand9impl_enum0ENtNtNtBa_6traits8iterator8Iterator8try_folduNCINvXB8_INtB8_12GenericShuntBN_INtNtBc_6result6ResultNtNtBc_7convert10InfallibleNtNtB12_5error5ErrorEEB2M_8try_folduNCINvNvB2M_12try_for_each4callINtNtBc_6option6OptionNtNtB23_4attr14VariantDisplayEINtNtNtBc_3ops12control_flow11ControlFlowB5R_ENcNtB6H_5Break0E0B6H_E0IB6I_B6H_EEB23_, symObjAddr: 0x800, symBinAddr: 0x1B680, symSize: 0x50 }
  - { offset: 0x88ACF, size: 0x8, addend: 0x0, symName: __RINvXs0_NtNtNtCsieiGu2EXtoJ_4core4iter8adapters3mapINtB6_3MapINtNtNtBc_5slice4iter4IterRNtNtCsdGrGZaRBwMb_3syn8generics9TypeParamENCNvNtCs3cuHK5hCpJL_10displaydoc6expand37extract_trait_constraints_from_source0ENtNtNtBa_6traits8iterator8Iterator4folduNCINvNvB3m_8for_each4callTNtCsaKzlTDPUHDb_11proc_macro25IdentINtNtCslJiobkLta79_5alloc3vec3VecNtB1q_10TraitBoundEENCINvXs1i_NtCsjK30CmJ87bX_9hashbrown3mapINtB60_7HashMapB4q_B4Z_NtNtNtCsHUR1vrdMJt_3std4hash6random11RandomStateEINtNtB3q_7collect6ExtendB4p_E6extendBN_E0E0EB2a_, symObjAddr: 0x850, symBinAddr: 0x1B6D0, symSize: 0x20 }
  - { offset: 0x88B40, size: 0x8, addend: 0x0, symName: __RNvXs0_NtNtNtCsieiGu2EXtoJ_4core4iter8adapters3mapINtB5_3MapINtNtB7_3zip3ZipINtNtCsdGrGZaRBwMb_3syn10punctuated4IterNtNtB1h_4data7VariantEINtNtNtCslJiobkLta79_5alloc3vec9into_iter8IntoIterINtNtBb_6option6OptionNtNtCs3cuHK5hCpJL_10displaydoc4attr14VariantDisplayEEENCNvNtB3q_6expand9impl_enums_0ENtNtNtB9_6traits8iterator8Iterator9size_hintB3q_, symObjAddr: 0x2800, symBinAddr: 0x1D680, symSize: 0x30 }
  - { offset: 0x88B87, size: 0x8, addend: 0x0, symName: __RNvXs0_NtNtNtCsieiGu2EXtoJ_4core4iter8adapters3mapINtB5_3MapINtNtCsdGrGZaRBwMb_3syn10punctuated4IterNtNtB11_4data5FieldENCNCNvNtCs3cuHK5hCpJL_10displaydoc6expand11impl_struct00ENtNtNtB9_6traits8iterator8Iterator4nextB22_, symObjAddr: 0x2830, symBinAddr: 0x1D6B0, symSize: 0x80 }
  - { offset: 0x88C33, size: 0x8, addend: 0x0, symName: __RNvXs0_NtNtNtCsieiGu2EXtoJ_4core4iter8adapters3mapINtB5_3MapINtNtCsdGrGZaRBwMb_3syn10punctuated4IterNtNtB11_4data5FieldENCNCNvNtCs3cuHK5hCpJL_10displaydoc6expand9impl_enums_0s_0ENtNtNtB9_6traits8iterator8Iterator4nextB22_, symObjAddr: 0x28B0, symBinAddr: 0x1D730, symSize: 0x80 }
  - { offset: 0x88CDF, size: 0x8, addend: 0x0, symName: __RNvXs0_NtNtNtCsieiGu2EXtoJ_4core4iter8adapters3mapINtB5_3MapINtNtCsdGrGZaRBwMb_3syn10punctuated4IterNtNtB11_4data7VariantENCNvNtCs3cuHK5hCpJL_10displaydoc6expand9impl_enum0ENtNtNtB9_6traits8iterator8Iterator9size_hintB22_, symObjAddr: 0x2930, symBinAddr: 0x1D7B0, symSize: 0x30 }
  - { offset: 0x88D26, size: 0x8, addend: 0x0, symName: __RNvXs0_NtNtNtCsieiGu2EXtoJ_4core4iter8adapters3mapINtB5_3MapINtNtCsdGrGZaRBwMb_3syn10punctuated4IterNtNtB11_8generics14TypeParamBoundENCNCNvNtCs3cuHK5hCpJL_10displaydoc6expand37extract_trait_constraints_from_source00ENtNtNtB9_6traits8iterator8Iterator4nextB2g_, symObjAddr: 0x2960, symBinAddr: 0x1D7E0, symSize: 0x80 }
  - { offset: 0x88DD2, size: 0x8, addend: 0x0, symName: __RNvXs0_NtNtNtCsieiGu2EXtoJ_4core4iter8adapters3mapINtB5_3MapINtNtCsdGrGZaRBwMb_3syn10punctuated4IterNtNtB11_8generics14TypeParamBoundENCNCNvNtCs3cuHK5hCpJL_10displaydoc6expand37extract_trait_constraints_from_source00ENtNtNtB9_6traits8iterator8Iterator9size_hintB2g_, symObjAddr: 0x29E0, symBinAddr: 0x1D860, symSize: 0x30 }
  - { offset: 0x88E19, size: 0x8, addend: 0x0, symName: __RNvXs0_NtNtNtCsieiGu2EXtoJ_4core4iter8adapters3mapINtB5_3MapINtNtCsdGrGZaRBwMb_3syn10punctuated7IterMutNtNtB11_8generics14WherePredicateENCNvNtCs3cuHK5hCpJL_10displaydoc6expand39ensure_display_in_where_clause_for_type0ENtNtNtB9_6traits8iterator8Iterator4nextB2h_, symObjAddr: 0x2A10, symBinAddr: 0x1D890, symSize: 0x80 }
  - { offset: 0x88EC5, size: 0x8, addend: 0x0, symName: __RNvXs0_NtNtNtCsieiGu2EXtoJ_4core4iter8adapters3mapINtB5_3MapINtNtNtBb_3ops5range5RangejENCNCNvNtCs3cuHK5hCpJL_10displaydoc6expand11impl_struct0s_0ENtNtNtB9_6traits8iterator8Iterator4nextB1w_, symObjAddr: 0x2A90, symBinAddr: 0x1D910, symSize: 0x90 }
  - { offset: 0x88F72, size: 0x8, addend: 0x0, symName: __RNvXs0_NtNtNtCsieiGu2EXtoJ_4core4iter8adapters3mapINtB5_3MapINtNtNtBb_3ops5range5RangejENCNCNvNtCs3cuHK5hCpJL_10displaydoc6expand9impl_enums_0s0_0ENtNtNtB9_6traits8iterator8Iterator4nextB1w_, symObjAddr: 0x2B20, symBinAddr: 0x1D9A0, symSize: 0x90 }
  - { offset: 0x8901F, size: 0x8, addend: 0x0, symName: __RNvXs0_NtNtNtCsieiGu2EXtoJ_4core4iter8adapters3mapINtB5_3MapINtNtNtBb_3str4iter14SplitInclusivecENtB11_8LinesMapENtNtNtB9_6traits8iterator8Iterator4nextCs3cuHK5hCpJL_10displaydoc, symObjAddr: 0x2BB0, symBinAddr: 0x1DA30, symSize: 0x90 }
  - { offset: 0x890CB, size: 0x8, addend: 0x0, symName: __RNvXs0_NtNtNtCsieiGu2EXtoJ_4core4iter8adapters3mapINtB5_3MapINtNtNtBb_5slice4iter4IterRNtNtCsdGrGZaRBwMb_3syn8generics9TypeParamENCNvNtCs3cuHK5hCpJL_10displaydoc6expand37extract_trait_constraints_from_source0ENtNtNtB9_6traits8iterator8Iterator9size_hintB29_, symObjAddr: 0x2C40, symBinAddr: 0x1DAC0, symSize: 0x30 }
  - { offset: 0x89112, size: 0x8, addend: 0x0, symName: __RNvXs0_NtNtNtCsieiGu2EXtoJ_4core4iter8adapters3mapINtB5_3MapNtNtNtBb_3str4iter5LinesNCNvMs0_NtCs3cuHK5hCpJL_10displaydoc4attrNtB1s_11AttrsHelper7displays0_0ENtNtNtB9_6traits8iterator8Iterator4nextB1u_, symObjAddr: 0x2C70, symBinAddr: 0x1DAF0, symSize: 0x90 }
  - { offset: 0x891BE, size: 0x8, addend: 0x0, symName: __RNvXs0_NtNtNtCsieiGu2EXtoJ_4core4iter8adapters3mapINtB5_3MapNtNtNtBb_3str4iter5LinesNCNvMs0_NtCs3cuHK5hCpJL_10displaydoc4attrNtB1s_11AttrsHelper7displays0_0ENtNtNtB9_6traits8iterator8Iterator9size_hintB1u_, symObjAddr: 0x2D00, symBinAddr: 0x1DB80, symSize: 0x30 }
  - { offset: 0x892FC, size: 0x8, addend: 0x0, symName: __RNCINvNtNtNtCsieiGu2EXtoJ_4core4iter8adapters3map8map_foldRNtNtCsdGrGZaRBwMb_3syn4attr9AttributejjNCINvNvXs1_NtB6_6filterINtB1J_6FilterppENtNtNtB8_6traits8iterator8Iterator5count8to_usizeBU_NCNvMs0_NtCs3cuHK5hCpJL_10displaydoc4attrNtB3a_11AttrsHelper7displays_0E0NCINvXsK_NtB2g_5accumjNtB4m_3Sum3sumINtB4_3MapINtNtNtBa_5slice4iter4IterBV_EB1y_EE0E0B3c_, symObjAddr: 0x12B0, symBinAddr: 0x1C130, symSize: 0x80 }
  - { offset: 0x89383, size: 0x8, addend: 0x0, symName: __RNCINvNtNtNtCsieiGu2EXtoJ_4core4iter8adapters3map8map_foldRRNtNtCsdGrGZaRBwMb_3syn8generics9TypeParamTNtCsaKzlTDPUHDb_11proc_macro25IdentINtNtCslJiobkLta79_5alloc3vec3VecNtBY_10TraitBoundEEuNCNvNtCs3cuHK5hCpJL_10displaydoc6expand37extract_trait_constraints_from_source0NCINvNvNtNtNtB8_6traits8iterator8Iterator8for_each4callB1B_NCINvXs1i_NtCsjK30CmJ87bX_9hashbrown3mapINtB5q_7HashMapB1C_B2b_NtNtNtCsHUR1vrdMJt_3std4hash6random11RandomStateEINtNtB4u_7collect6ExtendB1B_E6extendINtB4_3MapINtNtNtBa_5slice4iter4IterBV_EB32_EE0E0E0B38_, symObjAddr: 0x1330, symBinAddr: 0x1C1B0, symSize: 0xB0 }
  - { offset: 0x89697, size: 0x8, addend: 0x0, symName: __RNCINvNvXs1_NtNtNtCsieiGu2EXtoJ_4core4iter8adapters6filterINtBa_6FilterppENtNtNtBe_6traits8iterator8Iterator5count8to_usizeRNtNtCsdGrGZaRBwMb_3syn4attr9AttributeNCNvMs0_NtCs3cuHK5hCpJL_10displaydoc4attrNtB2H_11AttrsHelper7displays_0E0B2J_, symObjAddr: 0x13E0, symBinAddr: 0x1C260, symSize: 0x50 }
  - { offset: 0x896FA, size: 0x8, addend: 0x0, symName: __RNvXs1_NtNtNtCsieiGu2EXtoJ_4core4iter8adapters6filterINtB5_6FilterINtNtNtBb_5slice4iter4IterNtNtCsdGrGZaRBwMb_3syn4attr9AttributeENCNvMs0_NtCs3cuHK5hCpJL_10displaydoc4attrNtB2c_11AttrsHelper7displays_0ENtNtNtB9_6traits8iterator8Iterator5countB2e_, symObjAddr: 0x2D30, symBinAddr: 0x1DBB0, symSize: 0x40 }
  - { offset: 0x898B6, size: 0x8, addend: 0x0, symName: __RINvYINtNtNtNtCsHUR1vrdMJt_3std11collections4hash3map7IterMutNtCsaKzlTDPUHDb_11proc_macro25IdentINtNtCslJiobkLta79_5alloc3vec3VecNtNtCsdGrGZaRBwMb_3syn8generics10TraitBoundEENtNtNtNtCsieiGu2EXtoJ_4core4iter6traits8iterator8Iterator4findNCNvNtCs3cuHK5hCpJL_10displaydoc6expand37extract_trait_constraints_from_sources_0EB3S_, symObjAddr: 0xBF0, symBinAddr: 0x1BA70, symSize: 0x90 }
  - { offset: 0x89935, size: 0x8, addend: 0x0, symName: __RINvYINtNtNtNtCsHUR1vrdMJt_3std11collections4hash3map7IterMutNtCsaKzlTDPUHDb_11proc_macro25IdentINtNtCslJiobkLta79_5alloc3vec3VecNtNtCsdGrGZaRBwMb_3syn8generics10TraitBoundEENtNtNtNtCsieiGu2EXtoJ_4core4iter6traits8iterator8Iterator8try_folduNCINvNvB2M_4find5checkTRBX_QB1w_ENCNvNtCs3cuHK5hCpJL_10displaydoc6expand37extract_trait_constraints_from_sources_0E0INtNtNtB2U_3ops12control_flow11ControlFlowB4d_EEB4u_, symObjAddr: 0xC80, symBinAddr: 0x1BB00, symSize: 0x1A0 }
  - { offset: 0x899E8, size: 0x8, addend: 0x0, symName: __RINvYINtNtNtNtCsieiGu2EXtoJ_4core4iter8adapters3map3MapINtNtB8_3zip3ZipINtNtCsdGrGZaRBwMb_3syn10punctuated4IterNtNtB1c_4data7VariantEINtNtNtCslJiobkLta79_5alloc3vec9into_iter8IntoIterINtNtBc_6option6OptionNtNtCs3cuHK5hCpJL_10displaydoc4attr14VariantDisplayEEENCNvNtB3l_6expand9impl_enums_0ENtNtNtBa_6traits8iterator8Iterator7collectINtNtBc_6result6ResultINtB2c_3VecNtCsaKzlTDPUHDb_11proc_macro211TokenStreamENtNtB1c_5error5ErrorEEB3l_, symObjAddr: 0xE20, symBinAddr: 0x1BCA0, symSize: 0x90 }
  - { offset: 0x89A7E, size: 0x8, addend: 0x0, symName: __RINvYINtNtNtNtCsieiGu2EXtoJ_4core4iter8adapters3map3MapINtNtCsdGrGZaRBwMb_3syn10punctuated4IterNtNtBW_4data7VariantENCNvNtCs3cuHK5hCpJL_10displaydoc6expand9impl_enum0ENtNtNtBa_6traits8iterator8Iterator7collectINtNtBc_6result6ResultINtNtCslJiobkLta79_5alloc3vec3VecINtNtBc_6option6OptionNtNtB1W_4attr14VariantDisplayEENtNtBW_5error5ErrorEEB1W_, symObjAddr: 0xEB0, symBinAddr: 0x1BD30, symSize: 0x70 }
  - { offset: 0x89B14, size: 0x8, addend: 0x0, symName: __RINvYINtNtNtNtCsieiGu2EXtoJ_4core4iter8adapters3map3MapINtNtNtBc_5slice4iter4IterRNtNtCsdGrGZaRBwMb_3syn8generics9TypeParamENCNvNtCs3cuHK5hCpJL_10displaydoc6expand37extract_trait_constraints_from_source0ENtNtNtBa_6traits8iterator8Iterator7collectINtNtNtNtCsHUR1vrdMJt_3std11collections4hash3map7HashMapNtCsaKzlTDPUHDb_11proc_macro25IdentINtNtCslJiobkLta79_5alloc3vec3VecNtB1k_10TraitBoundEEEB24_, symObjAddr: 0xF20, symBinAddr: 0x1BDA0, symSize: 0x50 }
  - { offset: 0x89BA9, size: 0x8, addend: 0x0, symName: __RINvYINtNtNtNtCsieiGu2EXtoJ_4core4iter8adapters3map3MapINtNtNtBc_5slice4iter4IterRNtNtCsdGrGZaRBwMb_3syn8generics9TypeParamENCNvNtCs3cuHK5hCpJL_10displaydoc6expand37extract_trait_constraints_from_source0ENtNtNtBa_6traits8iterator8Iterator8for_eachNCINvXs1i_NtCsjK30CmJ87bX_9hashbrown3mapINtB47_7HashMapNtCsaKzlTDPUHDb_11proc_macro25IdentINtNtCslJiobkLta79_5alloc3vec3VecNtB1k_10TraitBoundENtNtNtCsHUR1vrdMJt_3std4hash6random11RandomStateEINtNtB3k_7collect6ExtendTB4Q_B5p_EE6extendB3_E0EB24_, symObjAddr: 0xF70, symBinAddr: 0x1BDF0, symSize: 0x20 }
  - { offset: 0x89BF4, size: 0x8, addend: 0x0, symName: __RINvYINtNtNtNtCsieiGu2EXtoJ_4core4iter8adapters3map3MapNtNtNtBc_3str4iter5LinesNCNvMs0_NtCs3cuHK5hCpJL_10displaydoc4attrNtB1n_11AttrsHelper7displays0_0ENtNtNtBa_6traits8iterator8Iterator7collectINtNtCslJiobkLta79_5alloc3vec3VecReEEB1p_, symObjAddr: 0xF90, symBinAddr: 0x1BE10, symSize: 0x70 }
  - { offset: 0x89D09, size: 0x8, addend: 0x0, symName: __RNCINvXsK_NtNtNtCsieiGu2EXtoJ_4core4iter6traits5accumjNtB8_3Sum3sumINtNtNtBc_8adapters3map3MapINtNtNtBe_5slice4iter4IterNtNtCsdGrGZaRBwMb_3syn4attr9AttributeENCINvNvXs1_NtB18_6filterINtB2H_6FilterppENtNtBa_8iterator8Iterator5count8to_usizeRB1U_NCNvMs0_NtCs3cuHK5hCpJL_10displaydoc4attrNtB42_11AttrsHelper7displays_0E0EE0B44_, symObjAddr: 0x1430, symBinAddr: 0x1C2B0, symSize: 0x40 }
  - { offset: 0x89D8F, size: 0x8, addend: 0x0, symName: __RNvXNtNtNtCsieiGu2EXtoJ_4core4iter6traits7collectINtNtNtB6_8adapters3map3MapINtNtBQ_3zip3ZipINtNtCsdGrGZaRBwMb_3syn10punctuated4IterNtNtB1x_4data7VariantEINtNtNtCslJiobkLta79_5alloc3vec9into_iter8IntoIterINtNtB8_6option6OptionNtNtCs3cuHK5hCpJL_10displaydoc4attr14VariantDisplayEEENCNvNtB3G_6expand9impl_enums_0ENtB2_12IntoIterator9into_iterB3G_, symObjAddr: 0x2700, symBinAddr: 0x1D580, symSize: 0x30 }
  - { offset: 0x89DC7, size: 0x8, addend: 0x0, symName: __RNvXNtNtNtCsieiGu2EXtoJ_4core4iter6traits7collectINtNtNtB6_8adapters3map3MapINtNtCsdGrGZaRBwMb_3syn10punctuated4IterNtNtB1h_4data7VariantENCNvNtCs3cuHK5hCpJL_10displaydoc6expand9impl_enum0ENtB2_12IntoIterator9into_iterB2i_, symObjAddr: 0x2730, symBinAddr: 0x1D5B0, symSize: 0x30 }
  - { offset: 0x89DFE, size: 0x8, addend: 0x0, symName: __RNvXNtNtNtCsieiGu2EXtoJ_4core4iter6traits7collectINtNtNtB6_8adapters3map3MapINtNtNtB8_5slice4iter4IterRNtNtCsdGrGZaRBwMb_3syn8generics9TypeParamENCNvNtCs3cuHK5hCpJL_10displaydoc6expand37extract_trait_constraints_from_source0ENtB2_12IntoIterator9into_iterB2p_, symObjAddr: 0x2760, symBinAddr: 0x1D5E0, symSize: 0x20 }
  - { offset: 0x89E35, size: 0x8, addend: 0x0, symName: __RNvXNtNtNtCsieiGu2EXtoJ_4core4iter6traits7collectINtNtNtB6_8adapters3map3MapNtNtNtB8_3str4iter5LinesNCNvMs0_NtCs3cuHK5hCpJL_10displaydoc4attrNtB1I_11AttrsHelper7displays0_0ENtB2_12IntoIterator9into_iterB1K_, symObjAddr: 0x2780, symBinAddr: 0x1D600, symSize: 0x30 }
  - { offset: 0x89E6D, size: 0x8, addend: 0x0, symName: __RNvXNtNtNtCsieiGu2EXtoJ_4core4iter6traits7collectINtNtNtNtCsHUR1vrdMJt_3std11collections4hash3map8IntoIterNtCsaKzlTDPUHDb_11proc_macro25IdentINtNtCslJiobkLta79_5alloc3vec3VecNtNtCsdGrGZaRBwMb_3syn8generics10TraitBoundEENtB2_12IntoIterator9into_iterCs3cuHK5hCpJL_10displaydoc, symObjAddr: 0x27B0, symBinAddr: 0x1D630, symSize: 0x30 }
  - { offset: 0x89FA8, size: 0x8, addend: 0x0, symName: __RNvNvXs0_NtNtCsieiGu2EXtoJ_4core5slice5indexjINtB7_10SliceIndexSpE13get_unchecked18precondition_checkCs3cuHK5hCpJL_10displaydoc, symObjAddr: 0x2420, symBinAddr: 0x1D2A0, symSize: 0xA0 }
  - { offset: 0x8A01C, size: 0x8, addend: 0x0, symName: __RNvNvXs2_NtNtCsieiGu2EXtoJ_4core5slice5indexINtNtNtBb_3ops5range5RangejEINtB7_10SliceIndexSpE13get_unchecked18precondition_checkCs3cuHK5hCpJL_10displaydoc, symObjAddr: 0x24C0, symBinAddr: 0x1D340, symSize: 0xC0 }
  - { offset: 0x8A098, size: 0x8, addend: 0x0, symName: __RNvNvXs2_NtNtCsieiGu2EXtoJ_4core5slice5indexINtNtNtBb_3ops5range5RangejEINtB7_10SliceIndexSpE17get_unchecked_mut18precondition_checkCs3cuHK5hCpJL_10displaydoc, symObjAddr: 0x2580, symBinAddr: 0x1D400, symSize: 0xC0 }
  - { offset: 0x8A11C, size: 0x8, addend: 0x0, symName: __RINvYNtNtNtCsHUR1vrdMJt_3std4hash6random11RandomStateNtNtCsieiGu2EXtoJ_4core4hash11BuildHasher8hash_oneRNtCsaKzlTDPUHDb_11proc_macro25IdentECs3cuHK5hCpJL_10displaydoc, symObjAddr: 0x1000, symBinAddr: 0x1BE80, symSize: 0x80 }
  - { offset: 0x8A4EC, size: 0x8, addend: 0x0, symName: __RNvNvXs5_NtNtCsieiGu2EXtoJ_4core3str6traitsINtNtNtBb_3ops5range5RangejEINtNtNtBb_5slice5index10SliceIndexeE13get_unchecked18precondition_checkCs3cuHK5hCpJL_10displaydoc, symObjAddr: 0x2640, symBinAddr: 0x1D4C0, symSize: 0xC0 }
  - { offset: 0x8A569, size: 0x8, addend: 0x0, symName: __RNvXs2_NtNtCsieiGu2EXtoJ_4core3str6traitseINtNtNtB9_3ops5index5IndexINtNtBJ_5range16RangeToInclusivejEE5indexCs3cuHK5hCpJL_10displaydoc, symObjAddr: 0x2DC0, symBinAddr: 0x1DC40, symSize: 0x30 }
  - { offset: 0x8A69F, size: 0x8, addend: 0x0, symName: __RNvXs0_NtCsieiGu2EXtoJ_4core6borrowReINtB5_6BorroweE6borrowCs3cuHK5hCpJL_10displaydoc, symObjAddr: 0x27E0, symBinAddr: 0x1D660, symSize: 0x20 }
  - { offset: 0x8AAA6, size: 0x8, addend: 0x0, symName: __RINvXNtNtNtNtCsHUR1vrdMJt_3std3sys12thread_local6native4lazyzNtB3_14DestroyedState13register_dtorINtNtCsieiGu2EXtoJ_4core4cell4CellTyyEEECs3cuHK5hCpJL_10displaydoc, symObjAddr: 0x7A0, symBinAddr: 0x1B620, symSize: 0x10 }
  - { offset: 0x8AB26, size: 0x8, addend: 0x0, symName: __RNCNkNvNvMNtNtCsHUR1vrdMJt_3std4hash6randomNtB8_11RandomState3new4KEYS0s_0Cs3cuHK5hCpJL_10displaydoc, symObjAddr: 0x14D0, symBinAddr: 0x1C350, symSize: 0x30 }
  - { offset: 0x8AB64, size: 0x8, addend: 0x0, symName: __RNvNvNvMNtNtCsHUR1vrdMJt_3std4hash6randomNtB6_11RandomState3new4KEYS6___initCs3cuHK5hCpJL_10displaydoc, symObjAddr: 0x2400, symBinAddr: 0x1D280, symSize: 0x20 }
  - { offset: 0x8AB82, size: 0x8, addend: 0x0, symName: __RNCNvMNtNtCsHUR1vrdMJt_3std4hash6randomNtB4_11RandomState3new0Cs3cuHK5hCpJL_10displaydoc, symObjAddr: 0x1500, symBinAddr: 0x1C380, symSize: 0x20 }
  - { offset: 0x8AC47, size: 0x8, addend: 0x0, symName: __RNvXs2_NtNtCsHUR1vrdMJt_3std4hash6randomNtB5_13DefaultHasherNtNtCsieiGu2EXtoJ_4core4hash6Hasher6finishCs3cuHK5hCpJL_10displaydoc, symObjAddr: 0x2D70, symBinAddr: 0x1DBF0, symSize: 0x20 }
  - { offset: 0x8AC90, size: 0x8, addend: 0x0, symName: __RNvXs2_NtNtCsHUR1vrdMJt_3std4hash6randomNtB5_13DefaultHasherNtNtCsieiGu2EXtoJ_4core4hash6Hasher9write_strCs3cuHK5hCpJL_10displaydoc, symObjAddr: 0x2D90, symBinAddr: 0x1DC10, symSize: 0x30 }
  - { offset: 0x8ACF1, size: 0x8, addend: 0x0, symName: __RNvXs3_NtNtCsHUR1vrdMJt_3std4hash6randomNtB5_11RandomStateNtNtCsieiGu2EXtoJ_4core7default7Default7defaultCs3cuHK5hCpJL_10displaydoc, symObjAddr: 0x2DF0, symBinAddr: 0x1DC70, symSize: 0x20 }
  - { offset: 0x8AD29, size: 0x8, addend: 0x0, symName: __RNvXs_NtNtCsHUR1vrdMJt_3std4hash6randomNtB4_11RandomStateNtNtCsieiGu2EXtoJ_4core4hash11BuildHasher12build_hasherCs3cuHK5hCpJL_10displaydoc, symObjAddr: 0x3970, symBinAddr: 0x1E7F0, symSize: 0xF0 }
  - { offset: 0x8AEC8, size: 0x8, addend: 0x0, symName: __RINvXs1c_NtNtNtCsHUR1vrdMJt_3std11collections4hash3mapINtB7_7HashMapNtCsaKzlTDPUHDb_11proc_macro25IdentINtNtCslJiobkLta79_5alloc3vec3VecNtNtCsdGrGZaRBwMb_3syn8generics10TraitBoundEEINtNtNtNtCsieiGu2EXtoJ_4core4iter6traits7collect12FromIteratorTB14_B1D_EE9from_iterINtNtNtB30_8adapters3map3MapINtNtNtB32_5slice4iter4IterRNtB2c_9TypeParamENCNvNtCs3cuHK5hCpJL_10displaydoc6expand37extract_trait_constraints_from_source0EEB5v_, symObjAddr: 0x870, symBinAddr: 0x1B6F0, symSize: 0x1B0 }
  - { offset: 0x8AFCE, size: 0x8, addend: 0x0, symName: __RNvXsB_NtNtNtCsHUR1vrdMJt_3std11collections4hash3mapINtB5_7IterMutNtCsaKzlTDPUHDb_11proc_macro25IdentINtNtCslJiobkLta79_5alloc3vec3VecNtNtCsdGrGZaRBwMb_3syn8generics10TraitBoundEENtNtNtNtCsieiGu2EXtoJ_4core4iter6traits8iterator8Iterator4nextCs3cuHK5hCpJL_10displaydoc, symObjAddr: 0x3680, symBinAddr: 0x1E500, symSize: 0x20 }
  - { offset: 0x8B014, size: 0x8, addend: 0x0, symName: __RNvXsF_NtNtNtCsHUR1vrdMJt_3std11collections4hash3mapINtB5_8IntoIterNtCsaKzlTDPUHDb_11proc_macro25IdentINtNtCslJiobkLta79_5alloc3vec3VecNtNtCsdGrGZaRBwMb_3syn8generics10TraitBoundEENtNtNtNtCsieiGu2EXtoJ_4core4iter6traits8iterator8Iterator4nextCs3cuHK5hCpJL_10displaydoc, symObjAddr: 0x3740, symBinAddr: 0x1E5C0, symSize: 0x30 }
  - { offset: 0x8B078, size: 0x8, addend: 0x0, symName: __RNvXsx_NtNtNtCsHUR1vrdMJt_3std11collections4hash3mapINtB5_7HashMapNtCsaKzlTDPUHDb_11proc_macro25IdentINtNtCslJiobkLta79_5alloc3vec3VecNtNtCsdGrGZaRBwMb_3syn8generics10TraitBoundEENtNtNtNtCsieiGu2EXtoJ_4core4iter6traits7collect12IntoIterator9into_iterCs3cuHK5hCpJL_10displaydoc, symObjAddr: 0x4120, symBinAddr: 0x1EFA0, symSize: 0x50 }
  - { offset: 0x8B2C3, size: 0x8, addend: 0x0, symName: __RINvMNtCsieiGu2EXtoJ_4core6resultINtB3_6ResultNtCsaKzlTDPUHDb_11proc_macro211TokenStreamNtNtCsdGrGZaRBwMb_3syn5error5ErrorE14unwrap_or_elseNCNvCs3cuHK5hCpJL_10displaydoc12derive_error0EB2h_, symObjAddr: 0x30, symBinAddr: 0x1B1C0, symSize: 0xD0 }
  - { offset: 0x8B422, size: 0x8, addend: 0x0, symName: __RINvNtCs9OU1sGv5X54_5quote9___private8get_spanNtCsaKzlTDPUHDb_11proc_macro24SpanECs3cuHK5hCpJL_10displaydoc, symObjAddr: 0x450, symBinAddr: 0x1B380, symSize: 0x20 }
  - { offset: 0x8B4D1, size: 0x8, addend: 0x0, symName: __RNvXs5_NtCs9OU1sGv5X54_5quote9___privateINtB5_9RepInterpNtCsaKzlTDPUHDb_11proc_macro25IdentENtNtB7_9to_tokens8ToTokens9to_tokensCs3cuHK5hCpJL_10displaydoc, symObjAddr: 0x2E10, symBinAddr: 0x1DC90, symSize: 0x30 }
  - { offset: 0x8B510, size: 0x8, addend: 0x0, symName: __RNvXs5_NtCs9OU1sGv5X54_5quote9___privateINtB5_9RepInterpRINtNtCsieiGu2EXtoJ_4core6option6OptionNtCsaKzlTDPUHDb_11proc_macro25IdentEENtNtB7_9to_tokens8ToTokens9to_tokensCs3cuHK5hCpJL_10displaydoc, symObjAddr: 0x2E40, symBinAddr: 0x1DCC0, symSize: 0x30 }
  - { offset: 0x8B54F, size: 0x8, addend: 0x0, symName: __RNvXs5_NtCs9OU1sGv5X54_5quote9___privateINtB5_9RepInterpRNtCsaKzlTDPUHDb_11proc_macro211TokenStreamENtNtB7_9to_tokens8ToTokens9to_tokensCs3cuHK5hCpJL_10displaydoc, symObjAddr: 0x2E70, symBinAddr: 0x1DCF0, symSize: 0x30 }
  - { offset: 0x8B594, size: 0x8, addend: 0x0, symName: __RNvXs7_NtCs9OU1sGv5X54_5quote9___privateINtB5_20IdentFragmentAdapterRjENtNtCsieiGu2EXtoJ_4core3fmt7Display3fmtCs3cuHK5hCpJL_10displaydoc, symObjAddr: 0x35B0, symBinAddr: 0x1E430, symSize: 0x30 }
  - { offset: 0x8B5E0, size: 0x8, addend: 0x0, symName: __RNvYINtNtCs9OU1sGv5X54_5quote9___private11HasIteratorKb1_EINtB5_16CheckHasIteratorKBQ_E5checkCs3cuHK5hCpJL_10displaydoc, symObjAddr: 0x4220, symBinAddr: 0x1F0A0, symSize: 0x10 }
  - { offset: 0x8B61C, size: 0x8, addend: 0x0, symName: __RNvYINtNtNtNtCsieiGu2EXtoJ_4core4iter8adapters3map3MapINtNtCsdGrGZaRBwMb_3syn10punctuated4IterNtNtBV_4data5FieldENCNCNvNtCs3cuHK5hCpJL_10displaydoc6expand11impl_struct00ENtNtNtCs9OU1sGv5X54_5quote9___private3ext14RepIteratorExt15quote_into_iterB1V_, symObjAddr: 0x4230, symBinAddr: 0x1F0B0, symSize: 0x20 }
  - { offset: 0x8B651, size: 0x8, addend: 0x0, symName: __RNvYINtNtNtNtCsieiGu2EXtoJ_4core4iter8adapters3map3MapINtNtCsdGrGZaRBwMb_3syn10punctuated4IterNtNtBV_4data5FieldENCNCNvNtCs3cuHK5hCpJL_10displaydoc6expand9impl_enums_0s_0ENtNtNtCs9OU1sGv5X54_5quote9___private3ext14RepIteratorExt15quote_into_iterB1V_, symObjAddr: 0x4250, symBinAddr: 0x1F0D0, symSize: 0x20 }
  - { offset: 0x8B686, size: 0x8, addend: 0x0, symName: __RNvYINtNtNtNtCsieiGu2EXtoJ_4core4iter8adapters3map3MapINtNtNtBb_3ops5range5RangejENCNCNvNtCs3cuHK5hCpJL_10displaydoc6expand11impl_struct0s_0ENtNtNtCs9OU1sGv5X54_5quote9___private3ext14RepIteratorExt15quote_into_iterB1q_, symObjAddr: 0x4270, symBinAddr: 0x1F0F0, symSize: 0x20 }
  - { offset: 0x8B6BB, size: 0x8, addend: 0x0, symName: __RNvYINtNtNtNtCsieiGu2EXtoJ_4core4iter8adapters3map3MapINtNtNtBb_3ops5range5RangejENCNCNvNtCs3cuHK5hCpJL_10displaydoc6expand9impl_enums_0s0_0ENtNtNtCs9OU1sGv5X54_5quote9___private3ext14RepIteratorExt15quote_into_iterB1q_, symObjAddr: 0x4290, symBinAddr: 0x1F110, symSize: 0x20 }
  - { offset: 0x8B770, size: 0x8, addend: 0x0, symName: __RINvMNtNtCsieiGu2EXtoJ_4core3fmt2rtNtB3_8Argument11new_displayINtNtCs9OU1sGv5X54_5quote9___private20IdentFragmentAdapterRjEECs3cuHK5hCpJL_10displaydoc, symObjAddr: 0x100, symBinAddr: 0x1B290, symSize: 0x30 }
  - { offset: 0x8B7C2, size: 0x8, addend: 0x0, symName: __RINvMNtNtCsieiGu2EXtoJ_4core3fmt2rtNtB3_8Argument11new_displayNtNtNtCsdGrGZaRBwMb_3syn4attr7parsing16DisplayAttrStyleECs3cuHK5hCpJL_10displaydoc, symObjAddr: 0x130, symBinAddr: 0x1B2C0, symSize: 0x30 }
  - { offset: 0x8B8AA, size: 0x8, addend: 0x0, symName: __RINvMs0_NtNtNtNtCsHUR1vrdMJt_3std3sys12thread_local6native4lazyINtB6_7StorageINtNtCsieiGu2EXtoJ_4core4cell4CellTyyEEzE11get_or_initNvNvNvMNtNtBe_4hash6randomNtB2c_11RandomState3new4KEYS6___initECs3cuHK5hCpJL_10displaydoc, symObjAddr: 0x160, symBinAddr: 0x1B2F0, symSize: 0x90 }
  - { offset: 0x8BA8A, size: 0x8, addend: 0x0, symName: __RINvMs0_NtNtNtNtCsHUR1vrdMJt_3std3sys12thread_local6native4lazyINtB6_7StorageINtNtCsieiGu2EXtoJ_4core4cell4CellTyyEEzE16get_or_init_slowNvNvNvMNtNtBe_4hash6randomNtB2h_11RandomState3new4KEYS6___initECs3cuHK5hCpJL_10displaydoc, symObjAddr: 0x1F0, symBinAddr: 0x1A07D0, symSize: 0x260 }
  - { offset: 0x8C8E3, size: 0x8, addend: 0x0, symName: __RNvMNtCsieiGu2EXtoJ_4core6resultINtB2_6ResultNtNtCsdGrGZaRBwMb_3syn3lit6LitStrNtNtBL_5error5ErrorE6expectCs3cuHK5hCpJL_10displaydoc, symObjAddr: 0x1520, symBinAddr: 0x1C3A0, symSize: 0xC0 }
  - { offset: 0x8C946, size: 0x8, addend: 0x0, symName: __RNvMNtNtCs9OU1sGv5X54_5quote9___private8get_spanINtB2_7GetSpanNtCsaKzlTDPUHDb_11proc_macro24SpanE11___into_spanCs3cuHK5hCpJL_10displaydoc, symObjAddr: 0x15E0, symBinAddr: 0x1C460, symSize: 0x20 }
  - { offset: 0x8C968, size: 0x8, addend: 0x0, symName: __RNvMs6_NtCs9OU1sGv5X54_5quote9___privateINtB5_20IdentFragmentAdapterRjE4spanCs3cuHK5hCpJL_10displaydoc, symObjAddr: 0x1600, symBinAddr: 0x1C480, symSize: 0x20 }
  - { offset: 0x8C9A1, size: 0x8, addend: 0x0, symName: __RNvMs_NtNtNtCsHUR1vrdMJt_3std11collections4hash3mapINtB4_7HashMapNtCsaKzlTDPUHDb_11proc_macro25IdentINtNtCslJiobkLta79_5alloc3vec3VecNtNtCsdGrGZaRBwMb_3syn8generics10TraitBoundEE8iter_mutCs3cuHK5hCpJL_10displaydoc, symObjAddr: 0x1620, symBinAddr: 0x1C4A0, symSize: 0x40 }
  - { offset: 0x8D969, size: 0x8, addend: 0x0, symName: __RNCNCNvNtCs3cuHK5hCpJL_10displaydoc6expand11impl_struct00B7_, symObjAddr: 0x0, symBinAddr: 0x1F130, symSize: 0x20 }
  - { offset: 0x8E2DD, size: 0x8, addend: 0x0, symName: __RNCNCNvNtCs3cuHK5hCpJL_10displaydoc6expand11impl_struct00B7_, symObjAddr: 0x0, symBinAddr: 0x1F130, symSize: 0x20 }
  - { offset: 0x8E313, size: 0x8, addend: 0x0, symName: __RNCNCNvNtCs3cuHK5hCpJL_10displaydoc6expand11impl_struct0s_0B7_, symObjAddr: 0x20, symBinAddr: 0x1F150, symSize: 0x190 }
  - { offset: 0x8E3AA, size: 0x8, addend: 0x0, symName: __RNCNvNtCs3cuHK5hCpJL_10displaydoc6expand11impl_struct0B5_, symObjAddr: 0x410, symBinAddr: 0x1F540, symSize: 0xCF0 }
  - { offset: 0x8E6C0, size: 0x8, addend: 0x0, symName: __RNCNCNvNtCs3cuHK5hCpJL_10displaydoc6expand37extract_trait_constraints_from_source00B7_, symObjAddr: 0x1B0, symBinAddr: 0x1F2E0, symSize: 0x70 }
  - { offset: 0x8E71B, size: 0x8, addend: 0x0, symName: __RNCNvNtCs3cuHK5hCpJL_10displaydoc6expand37extract_trait_constraints_from_source0B5_, symObjAddr: 0x1100, symBinAddr: 0x20230, symSize: 0x130 }
  - { offset: 0x8E767, size: 0x8, addend: 0x0, symName: __RNCNvNtCs3cuHK5hCpJL_10displaydoc6expand37extract_trait_constraints_from_sources_0B5_, symObjAddr: 0x1230, symBinAddr: 0x20360, symSize: 0x40 }
  - { offset: 0x8E7CA, size: 0x8, addend: 0x0, symName: __RNCNCNvNtCs3cuHK5hCpJL_10displaydoc6expand9impl_enums_00B7_, symObjAddr: 0x220, symBinAddr: 0x1F350, symSize: 0x40 }
  - { offset: 0x8E7FA, size: 0x8, addend: 0x0, symName: __RNCNCNvNtCs3cuHK5hCpJL_10displaydoc6expand9impl_enums_0s0_0B7_, symObjAddr: 0x260, symBinAddr: 0x1F390, symSize: 0x190 }
  - { offset: 0x8E888, size: 0x8, addend: 0x0, symName: __RNCNCNvNtCs3cuHK5hCpJL_10displaydoc6expand9impl_enums_0s_0B7_, symObjAddr: 0x3F0, symBinAddr: 0x1F520, symSize: 0x20 }
  - { offset: 0x8E8D0, size: 0x8, addend: 0x0, symName: __RNCNvNtCs3cuHK5hCpJL_10displaydoc6expand9impl_enum0B5_, symObjAddr: 0x12D0, symBinAddr: 0x20400, symSize: 0x80 }
  - { offset: 0x8E924, size: 0x8, addend: 0x0, symName: __RNCNvNtCs3cuHK5hCpJL_10displaydoc6expand9impl_enums_0B5_, symObjAddr: 0x1350, symBinAddr: 0x20480, symSize: 0xA30 }
  - { offset: 0x8EC4C, size: 0x8, addend: 0x0, symName: __RNCNvNtCs3cuHK5hCpJL_10displaydoc6expand39ensure_display_in_where_clause_for_type0B5_, symObjAddr: 0x1270, symBinAddr: 0x203A0, symSize: 0x60 }
  - { offset: 0x8ECAB, size: 0x8, addend: 0x0, symName: __RNvNtCs3cuHK5hCpJL_10displaydoc6expand10join_paths, symObjAddr: 0x1D80, symBinAddr: 0x20EB0, symSize: 0x560 }
  - { offset: 0x8ED4C, size: 0x8, addend: 0x0, symName: __RNvNtCs3cuHK5hCpJL_10displaydoc6expand11impl_struct, symObjAddr: 0x22E0, symBinAddr: 0x21410, symSize: 0x370 }
  - { offset: 0x8EE4F, size: 0x8, addend: 0x0, symName: __RNvNtCs3cuHK5hCpJL_10displaydoc6expand14specialization, symObjAddr: 0x2650, symBinAddr: 0x21780, symSize: 0xF50 }
  - { offset: 0x8EFA1, size: 0x8, addend: 0x0, symName: __RNvNtCs3cuHK5hCpJL_10displaydoc6expand21generate_where_clause, symObjAddr: 0x35A0, symBinAddr: 0x226D0, symSize: 0x190 }
  - { offset: 0x8F00B, size: 0x8, addend: 0x0, symName: __RNvNtCs3cuHK5hCpJL_10displaydoc6expand22new_empty_where_clause, symObjAddr: 0x3730, symBinAddr: 0x22860, symSize: 0x60 }
  - { offset: 0x8F028, size: 0x8, addend: 0x0, symName: __RNvNtCs3cuHK5hCpJL_10displaydoc6expand30new_empty_where_type_predicate, symObjAddr: 0x3790, symBinAddr: 0x228C0, symSize: 0x3B0 }
  - { offset: 0x8F06B, size: 0x8, addend: 0x0, symName: __RNvNtCs3cuHK5hCpJL_10displaydoc6expand34append_where_clause_type_predicate, symObjAddr: 0x3B40, symBinAddr: 0x22C70, symSize: 0x140 }
  - { offset: 0x8F0A2, size: 0x8, addend: 0x0, symName: __RNvNtCs3cuHK5hCpJL_10displaydoc6expand37extract_trait_constraints_from_source, symObjAddr: 0x3C80, symBinAddr: 0x22DB0, symSize: 0x4B0 }
  - { offset: 0x8F1D5, size: 0x8, addend: 0x0, symName: __RNvNtCs3cuHK5hCpJL_10displaydoc6expand39ensure_display_in_where_clause_for_type, symObjAddr: 0x4130, symBinAddr: 0x23260, symSize: 0x320 }
  - { offset: 0x8F299, size: 0x8, addend: 0x0, symName: __RNvNtCs3cuHK5hCpJL_10displaydoc6expand40add_display_constraint_to_type_predicate, symObjAddr: 0x4450, symBinAddr: 0x23580, symSize: 0x270 }
  - { offset: 0x8F2ED, size: 0x8, addend: 0x0, symName: __RNvNtCs3cuHK5hCpJL_10displaydoc6expand61ensure_where_clause_has_display_for_all_unconstrained_members, symObjAddr: 0x46C0, symBinAddr: 0x237F0, symSize: 0x200 }
  - { offset: 0x8F37C, size: 0x8, addend: 0x0, symName: __RNvNtCs3cuHK5hCpJL_10displaydoc6expand6derive, symObjAddr: 0x48C0, symBinAddr: 0x239F0, symSize: 0x5A0 }
  - { offset: 0x8F4A2, size: 0x8, addend: 0x0, symName: __RNvNtCs3cuHK5hCpJL_10displaydoc6expand9impl_enum, symObjAddr: 0x4E60, symBinAddr: 0x23F90, symSize: 0x1240 }
  - { offset: 0x98F6D, size: 0x8, addend: 0x0, symName: __RINvXNvMNtCslJiobkLta79_5alloc5sliceSp9to_vec_inNtNtCsdGrGZaRBwMb_3syn4item11ForeignItemNtB3_10ConvertVec6to_vecNtNtB8_5alloc6GlobalEBO_, symObjAddr: 0x0, symBinAddr: 0x25240, symSize: 0x490 }
  - { offset: 0x9A761, size: 0x8, addend: 0x0, symName: __RINvXNvMNtCslJiobkLta79_5alloc5sliceSp9to_vec_inNtNtCsdGrGZaRBwMb_3syn4item11ForeignItemNtB3_10ConvertVec6to_vecNtNtB8_5alloc6GlobalEBO_, symObjAddr: 0x0, symBinAddr: 0x25240, symSize: 0x490 }
  - { offset: 0x9ACB5, size: 0x8, addend: 0x0, symName: __RINvXNvMNtCslJiobkLta79_5alloc5sliceSp9to_vec_inNtNtCsdGrGZaRBwMb_3syn4item4ItemNtB3_10ConvertVec6to_vecNtNtB8_5alloc6GlobalEBO_, symObjAddr: 0x490, symBinAddr: 0x256D0, symSize: 0x490 }
  - { offset: 0x9B209, size: 0x8, addend: 0x0, symName: __RINvXNvMNtCslJiobkLta79_5alloc5sliceSp9to_vec_inNtNtCsdGrGZaRBwMb_3syn4item8ImplItemNtB3_10ConvertVec6to_vecNtNtB8_5alloc6GlobalEBO_, symObjAddr: 0x920, symBinAddr: 0x25B60, symSize: 0x490 }
  - { offset: 0x9B75D, size: 0x8, addend: 0x0, symName: __RINvXNvMNtCslJiobkLta79_5alloc5sliceSp9to_vec_inNtNtCsdGrGZaRBwMb_3syn4item9TraitItemNtB3_10ConvertVec6to_vecNtNtB8_5alloc6GlobalEBO_, symObjAddr: 0xDB0, symBinAddr: 0x25FF0, symSize: 0x490 }
  - { offset: 0x9BCB1, size: 0x8, addend: 0x0, symName: __RINvXNvMNtCslJiobkLta79_5alloc5sliceSp9to_vec_inTNtNtCsdGrGZaRBwMb_3syn4item5FnArgNtNtBP_5token5CommaENtB3_10ConvertVec6to_vecNtNtB8_5alloc6GlobalEBP_, symObjAddr: 0x1240, symBinAddr: 0x26480, symSize: 0x490 }
  - { offset: 0x9C205, size: 0x8, addend: 0x0, symName: __RINvXNvMNtCslJiobkLta79_5alloc5sliceSp9to_vec_inTNtNtCsdGrGZaRBwMb_3syn4item7UseTreeNtNtBP_5token5CommaENtB3_10ConvertVec6to_vecNtNtB8_5alloc6GlobalEBP_, symObjAddr: 0x16D0, symBinAddr: 0x26910, symSize: 0x490 }
  - { offset: 0xA0D35, size: 0x8, addend: 0x0, symName: __RNcNtNtNtCsdGrGZaRBwMb_3syn4item11ForeignItem5Macro0B7_, symObjAddr: 0x1B60, symBinAddr: 0x26DA0, symSize: 0x40 }
  - { offset: 0xA0D6C, size: 0x8, addend: 0x0, symName: __RNcNtNtNtCsdGrGZaRBwMb_3syn4item16StaticMutability3Mut0B7_, symObjAddr: 0x1BA0, symBinAddr: 0x26DE0, symSize: 0x10 }
  - { offset: 0xA0DA2, size: 0x8, addend: 0x0, symName: __RNcNtNtNtCsdGrGZaRBwMb_3syn4item4Item10ForeignMod0B7_, symObjAddr: 0x1BB0, symBinAddr: 0x26DF0, symSize: 0x40 }
  - { offset: 0xA0DD1, size: 0x8, addend: 0x0, symName: __RNcNtNtNtCsdGrGZaRBwMb_3syn4item4Item10TraitAlias0B7_, symObjAddr: 0x1BF0, symBinAddr: 0x26E30, symSize: 0x40 }
  - { offset: 0xA0E00, size: 0x8, addend: 0x0, symName: __RNcNtNtNtCsdGrGZaRBwMb_3syn4item4Item11ExternCrate0B7_, symObjAddr: 0x1C30, symBinAddr: 0x26E70, symSize: 0x40 }
  - { offset: 0xA0E2F, size: 0x8, addend: 0x0, symName: __RNcNtNtNtCsdGrGZaRBwMb_3syn4item4Item2Fn0B7_, symObjAddr: 0x1C70, symBinAddr: 0x26EB0, symSize: 0x30 }
  - { offset: 0xA0E5E, size: 0x8, addend: 0x0, symName: __RNcNtNtNtCsdGrGZaRBwMb_3syn4item4Item3Mod0B7_, symObjAddr: 0x1CA0, symBinAddr: 0x26EE0, symSize: 0x40 }
  - { offset: 0xA0E8D, size: 0x8, addend: 0x0, symName: __RNcNtNtNtCsdGrGZaRBwMb_3syn4item4Item4Enum0B7_, symObjAddr: 0x1CE0, symBinAddr: 0x26F20, symSize: 0x40 }
  - { offset: 0xA0EBC, size: 0x8, addend: 0x0, symName: __RNcNtNtNtCsdGrGZaRBwMb_3syn4item4Item5Macro0B7_, symObjAddr: 0x1D20, symBinAddr: 0x26F60, symSize: 0x40 }
  - { offset: 0xA0EEB, size: 0x8, addend: 0x0, symName: __RNcNtNtNtCsdGrGZaRBwMb_3syn4item4Item5Trait0B7_, symObjAddr: 0x1D60, symBinAddr: 0x26FA0, symSize: 0x40 }
  - { offset: 0xA0F1A, size: 0x8, addend: 0x0, symName: __RNcNtNtNtCsdGrGZaRBwMb_3syn4item4Item5Union0B7_, symObjAddr: 0x1DA0, symBinAddr: 0x26FE0, symSize: 0x40 }
  - { offset: 0xA0F49, size: 0x8, addend: 0x0, symName: __RNcNtNtNtCsdGrGZaRBwMb_3syn4item4Item6Struct0B7_, symObjAddr: 0x1DE0, symBinAddr: 0x27020, symSize: 0x40 }
  - { offset: 0xA0F7E, size: 0x8, addend: 0x0, symName: __RNcNtNtNtCsdGrGZaRBwMb_3syn4item8ImplItem5Macro0B7_, symObjAddr: 0x1E20, symBinAddr: 0x27060, symSize: 0x40 }
  - { offset: 0xA0FB5, size: 0x8, addend: 0x0, symName: __RNcNtNtNtCsdGrGZaRBwMb_3syn4item9TraitItem2Fn0B7_, symObjAddr: 0x1E60, symBinAddr: 0x270A0, symSize: 0x40 }
  - { offset: 0xA0FE6, size: 0x8, addend: 0x0, symName: __RNcNtNtNtCsdGrGZaRBwMb_3syn4item9TraitItem5Macro0B7_, symObjAddr: 0x1EA0, symBinAddr: 0x270E0, symSize: 0x40 }
  - { offset: 0xA101D, size: 0x8, addend: 0x0, symName: __RNvXNtNtCsdGrGZaRBwMb_3syn4item7parsingNtB4_4ItemNtNtB6_5parse5Parse5parse, symObjAddr: 0x45C0, symBinAddr: 0x27520, symSize: 0x220 }
  - { offset: 0xA10C5, size: 0x8, addend: 0x0, symName: __RNvXs0_NtNtCsdGrGZaRBwMb_3syn4item7parsingNtB7_9ItemMacroNtNtB9_5parse5Parse5parse, symObjAddr: 0x4970, symBinAddr: 0x278D0, symSize: 0x900 }
  - { offset: 0xA1293, size: 0x8, addend: 0x0, symName: __RNvXs1_NtNtCsdGrGZaRBwMb_3syn4item7parsingNtB7_15ItemExternCrateNtNtB9_5parse5Parse5parse, symObjAddr: 0x61D0, symBinAddr: 0x28C50, symSize: 0xC80 }
  - { offset: 0xA149D, size: 0x8, addend: 0x0, symName: __RNvXs3_NtNtCsdGrGZaRBwMb_3syn4item7parsingNtB7_7UseTreeNtNtB9_5parse5Parse5parse, symObjAddr: 0xF1E0, symBinAddr: 0x2E4C0, symSize: 0x50 }
  - { offset: 0xA14EF, size: 0x8, addend: 0x0, symName: __RNvXs6_NtNtCsdGrGZaRBwMb_3syn4item7parsingNtB7_9SignatureNtNtB9_5parse5Parse5parse, symObjAddr: 0x127D0, symBinAddr: 0x2E780, symSize: 0x60 }
  - { offset: 0xA1541, size: 0x8, addend: 0x0, symName: __RNvXsa_NtNtCsdGrGZaRBwMb_3syn4item7parsingNtB7_7ItemModNtNtB9_5parse5Parse5parse, symObjAddr: 0x14920, symBinAddr: 0x2EEE0, symSize: 0x10F0 }
  - { offset: 0xA17A4, size: 0x8, addend: 0x0, symName: __RNvXsb_NtNtCsdGrGZaRBwMb_3syn4item7parsingNtB7_14ItemForeignModNtNtB9_5parse5Parse5parse, symObjAddr: 0x15B30, symBinAddr: 0x300B0, symSize: 0x7D0 }
  - { offset: 0xA1956, size: 0x8, addend: 0x0, symName: __RNvXsc_NtNtCsdGrGZaRBwMb_3syn4item7parsingNtB7_11ForeignItemNtNtB9_5parse5Parse5parse, symObjAddr: 0x164A0, symBinAddr: 0x309E0, symSize: 0x22C0 }
  - { offset: 0xA1FD0, size: 0x8, addend: 0x0, symName: __RNvXsg_NtNtCsdGrGZaRBwMb_3syn4item7parsingNtB7_16ForeignItemMacroNtNtB9_5parse5Parse5parse, symObjAddr: 0x1A410, symBinAddr: 0x32EA0, symSize: 0x410 }
  - { offset: 0xA20E4, size: 0x8, addend: 0x0, symName: __RNvXsi_NtNtCsdGrGZaRBwMb_3syn4item7parsingNtB7_10ItemStructNtNtB9_5parse5Parse5parse, symObjAddr: 0x1B5E0, symBinAddr: 0x33310, symSize: 0x960 }
  - { offset: 0xA22E1, size: 0x8, addend: 0x0, symName: __RNvXsj_NtNtCsdGrGZaRBwMb_3syn4item7parsingNtB7_8ItemEnumNtNtB9_5parse5Parse5parse, symObjAddr: 0x1C090, symBinAddr: 0x33D80, symSize: 0x940 }
  - { offset: 0xA24DE, size: 0x8, addend: 0x0, symName: __RNvXsk_NtNtCsdGrGZaRBwMb_3syn4item7parsingNtB7_9ItemUnionNtNtB9_5parse5Parse5parse, symObjAddr: 0x1CD40, symBinAddr: 0x34A30, symSize: 0x940 }
  - { offset: 0xA26CA, size: 0x8, addend: 0x0, symName: __RNvXsl_NtNtCsdGrGZaRBwMb_3syn4item7parsingNtB7_9ItemTraitNtNtB9_5parse5Parse5parse, symObjAddr: 0x1D820, symBinAddr: 0x354D0, symSize: 0x860 }
  - { offset: 0xA28D1, size: 0x8, addend: 0x0, symName: __RNvXsn_NtNtCsdGrGZaRBwMb_3syn4item7parsingNtB7_9TraitItemNtNtB9_5parse5Parse5parse, symObjAddr: 0x1E5A0, symBinAddr: 0x35EA0, symSize: 0x19C0 }
  - { offset: 0xA2D51, size: 0x8, addend: 0x0, symName: __RNvXsp_NtNtCsdGrGZaRBwMb_3syn4item7parsingNtB7_11TraitItemFnNtNtB9_5parse5Parse5parse, symObjAddr: 0x20C80, symBinAddr: 0x37A00, symSize: 0xAF0 }
  - { offset: 0xA2F5D, size: 0x8, addend: 0x0, symName: __RNvXsr_NtNtCsdGrGZaRBwMb_3syn4item7parsingNtB7_14TraitItemMacroNtNtB9_5parse5Parse5parse, symObjAddr: 0x225F0, symBinAddr: 0x386B0, symSize: 0x410 }
  - { offset: 0xA3071, size: 0x8, addend: 0x0, symName: __RNvXst_NtNtCsdGrGZaRBwMb_3syn4item7parsingNtB7_8ImplItemNtNtB9_5parse5Parse5parse, symObjAddr: 0x22C60, symBinAddr: 0x38C40, symSize: 0x1CB0 }
  - { offset: 0xA3578, size: 0x8, addend: 0x0, symName: __RNvXsx_NtNtCsdGrGZaRBwMb_3syn4item7parsingNtB7_13ImplItemMacroNtNtB9_5parse5Parse5parse, symObjAddr: 0x26A90, symBinAddr: 0x3B040, symSize: 0x410 }
  - { offset: 0xA368C, size: 0x8, addend: 0x0, symName: __RNvXsz_NtNtCsdGrGZaRBwMb_3syn4item7parsingNtB7_16StaticMutabilityNtNtB9_5parse5Parse5parse, symObjAddr: 0x26F70, symBinAddr: 0x3B4A0, symSize: 0xD0 }
  - { offset: 0xA3702, size: 0x8, addend: 0x0, symName: __RNvXNtNtCsdGrGZaRBwMb_3syn4item8printingNtB4_15ItemExternCrateNtNtCs9OU1sGv5X54_5quote9to_tokens8ToTokens9to_tokens, symObjAddr: 0x47E0, symBinAddr: 0x27740, symSize: 0x100 }
  - { offset: 0xA376F, size: 0x8, addend: 0x0, symName: __RNvXs0_NtNtCsdGrGZaRBwMb_3syn4item8printingNtB7_10ItemStaticNtNtCs9OU1sGv5X54_5quote9to_tokens8ToTokens9to_tokens, symObjAddr: 0x5270, symBinAddr: 0x281D0, symSize: 0xE0 }
  - { offset: 0xA37AE, size: 0x8, addend: 0x0, symName: __RNvXs1_NtNtCsdGrGZaRBwMb_3syn4item8printingNtB7_9ItemConstNtNtCs9OU1sGv5X54_5quote9to_tokens8ToTokens9to_tokens, symObjAddr: 0x6E50, symBinAddr: 0x298D0, symSize: 0xF0 }
  - { offset: 0xA37ED, size: 0x8, addend: 0x0, symName: __RNvXs2_NtNtCsdGrGZaRBwMb_3syn4item8printingNtB7_6ItemFnNtNtCs9OU1sGv5X54_5quote9to_tokens8ToTokens9to_tokens, symObjAddr: 0xC060, symBinAddr: 0x2D4B0, symSize: 0xD0 }
  - { offset: 0xA382C, size: 0x8, addend: 0x0, symName: __RNvXs3_NtNtCsdGrGZaRBwMb_3syn4item8printingNtB7_7ItemModNtNtCs9OU1sGv5X54_5quote9to_tokens8ToTokens9to_tokens, symObjAddr: 0xF230, symBinAddr: 0x2E510, symSize: 0x110 }
  - { offset: 0xA3899, size: 0x8, addend: 0x0, symName: __RNvXs4_NtNtCsdGrGZaRBwMb_3syn4item8printingNtB7_14ItemForeignModNtNtCs9OU1sGv5X54_5quote9to_tokens8ToTokens9to_tokens, symObjAddr: 0x10B10, symBinAddr: 0x2E620, symSize: 0x80 }
  - { offset: 0xA38D8, size: 0x8, addend: 0x0, symName: __RNvXs5_NtNtCsdGrGZaRBwMb_3syn4item8printingNtB7_8ItemTypeNtNtCs9OU1sGv5X54_5quote9to_tokens8ToTokens9to_tokens, symObjAddr: 0x12300, symBinAddr: 0x2E6A0, symSize: 0xE0 }
  - { offset: 0xA3917, size: 0x8, addend: 0x0, symName: __RNvXs6_NtNtCsdGrGZaRBwMb_3syn4item8printingNtB7_8ItemEnumNtNtCs9OU1sGv5X54_5quote9to_tokens8ToTokens9to_tokens, symObjAddr: 0x12830, symBinAddr: 0x2E7E0, symSize: 0xC0 }
  - { offset: 0xA3956, size: 0x8, addend: 0x0, symName: __RNvXs7_NtNtCsdGrGZaRBwMb_3syn4item8printingNtB7_10ItemStructNtNtCs9OU1sGv5X54_5quote9to_tokens8ToTokens9to_tokens, symObjAddr: 0x12DC0, symBinAddr: 0x2E8A0, symSize: 0x180 }
  - { offset: 0xA39D1, size: 0x8, addend: 0x0, symName: __RNvXs8_NtNtCsdGrGZaRBwMb_3syn4item8printingNtB7_9ItemUnionNtNtCs9OU1sGv5X54_5quote9to_tokens8ToTokens9to_tokens, symObjAddr: 0x139D0, symBinAddr: 0x2EA20, symSize: 0xC0 }
  - { offset: 0xA3A10, size: 0x8, addend: 0x0, symName: __RNvXs9_NtNtCsdGrGZaRBwMb_3syn4item8printingNtB7_9ItemTraitNtNtCs9OU1sGv5X54_5quote9to_tokens8ToTokens9to_tokens, symObjAddr: 0x13CD0, symBinAddr: 0x2EAE0, symSize: 0x130 }
  - { offset: 0xA3A4F, size: 0x8, addend: 0x0, symName: __RNvXs_NtNtCsdGrGZaRBwMb_3syn4item8printingNtB6_7ItemUseNtNtCs9OU1sGv5X54_5quote9to_tokens8ToTokens9to_tokens, symObjAddr: 0x14840, symBinAddr: 0x2EE40, symSize: 0xA0 }
  - { offset: 0xA3A8E, size: 0x8, addend: 0x0, symName: __RNvXsa_NtNtCsdGrGZaRBwMb_3syn4item8printingNtB7_14ItemTraitAliasNtNtCs9OU1sGv5X54_5quote9to_tokens8ToTokens9to_tokens, symObjAddr: 0x15A10, symBinAddr: 0x2FFD0, symSize: 0xE0 }
  - { offset: 0xA3ACD, size: 0x8, addend: 0x0, symName: __RNvXsb_NtNtCsdGrGZaRBwMb_3syn4item8printingNtB7_8ItemImplNtNtCs9OU1sGv5X54_5quote9to_tokens8ToTokens9to_tokens, symObjAddr: 0x16300, symBinAddr: 0x30880, symSize: 0x160 }
  - { offset: 0xA3B4A, size: 0x8, addend: 0x0, symName: __RNvXsc_NtNtCsdGrGZaRBwMb_3syn4item8printingNtB7_9ItemMacroNtNtCs9OU1sGv5X54_5quote9to_tokens8ToTokens9to_tokens, symObjAddr: 0x18760, symBinAddr: 0x32CA0, symSize: 0x130 }
  - { offset: 0xA3BDB, size: 0x8, addend: 0x0, symName: __RNvXsd_NtNtCsdGrGZaRBwMb_3syn4item8printingNtB7_7UsePathNtNtCs9OU1sGv5X54_5quote9to_tokens8ToTokens9to_tokens, symObjAddr: 0x18E20, symBinAddr: 0x32DD0, symSize: 0x50 }
  - { offset: 0xA3C1A, size: 0x8, addend: 0x0, symName: __RNvXse_NtNtCsdGrGZaRBwMb_3syn4item8printingNtB7_7UseNameNtNtCs9OU1sGv5X54_5quote9to_tokens8ToTokens9to_tokens, symObjAddr: 0x19960, symBinAddr: 0x32E20, symSize: 0x30 }
  - { offset: 0xA3C59, size: 0x8, addend: 0x0, symName: __RNvXsf_NtNtCsdGrGZaRBwMb_3syn4item8printingNtB7_9UseRenameNtNtCs9OU1sGv5X54_5quote9to_tokens8ToTokens9to_tokens, symObjAddr: 0x1A380, symBinAddr: 0x32E50, symSize: 0x50 }
  - { offset: 0xA3C98, size: 0x8, addend: 0x0, symName: __RNvXsg_NtNtCsdGrGZaRBwMb_3syn4item8printingNtB7_7UseGlobNtNtCs9OU1sGv5X54_5quote9to_tokens8ToTokens9to_tokens, symObjAddr: 0x1A820, symBinAddr: 0x332B0, symSize: 0x30 }
  - { offset: 0xA3CD7, size: 0x8, addend: 0x0, symName: __RNvXsh_NtNtCsdGrGZaRBwMb_3syn4item8printingNtB7_8UseGroupNtNtCs9OU1sGv5X54_5quote9to_tokens8ToTokens9to_tokens, symObjAddr: 0x1B570, symBinAddr: 0x332E0, symSize: 0x30 }
  - { offset: 0xA3D16, size: 0x8, addend: 0x0, symName: __RNvXsi_NtNtCsdGrGZaRBwMb_3syn4item8printingNtB7_14TraitItemConstNtNtCs9OU1sGv5X54_5quote9to_tokens8ToTokens9to_tokens, symObjAddr: 0x1BF40, symBinAddr: 0x33C70, symSize: 0x110 }
  - { offset: 0xA3D83, size: 0x8, addend: 0x0, symName: __RNvXsj_NtNtCsdGrGZaRBwMb_3syn4item8printingNtB7_11TraitItemFnNtNtCs9OU1sGv5X54_5quote9to_tokens8ToTokens9to_tokens, symObjAddr: 0x1C9D0, symBinAddr: 0x346C0, symSize: 0xD0 }
  - { offset: 0xA3DE0, size: 0x8, addend: 0x0, symName: __RNvXsk_NtNtCsdGrGZaRBwMb_3syn4item8printingNtB7_13TraitItemTypeNtNtCs9OU1sGv5X54_5quote9to_tokens8ToTokens9to_tokens, symObjAddr: 0x1D680, symBinAddr: 0x35370, symSize: 0x160 }
  - { offset: 0xA3E4D, size: 0x8, addend: 0x0, symName: __RNvXsl_NtNtCsdGrGZaRBwMb_3syn4item8printingNtB7_14TraitItemMacroNtNtCs9OU1sGv5X54_5quote9to_tokens8ToTokens9to_tokens, symObjAddr: 0x1E080, symBinAddr: 0x35D30, symSize: 0x70 }
  - { offset: 0xA3E8C, size: 0x8, addend: 0x0, symName: __RNvXsm_NtNtCsdGrGZaRBwMb_3syn4item8printingNtB7_13ImplItemConstNtNtCs9OU1sGv5X54_5quote9to_tokens8ToTokens9to_tokens, symObjAddr: 0x1E460, symBinAddr: 0x35DA0, symSize: 0x100 }
  - { offset: 0xA3ECB, size: 0x8, addend: 0x0, symName: __RNvXsn_NtNtCsdGrGZaRBwMb_3syn4item8printingNtB7_10ImplItemFnNtNtCs9OU1sGv5X54_5quote9to_tokens8ToTokens9to_tokens, symObjAddr: 0x1FF60, symBinAddr: 0x37860, symSize: 0xA0 }
  - { offset: 0xA3F0A, size: 0x8, addend: 0x0, symName: __RNvXso_NtNtCsdGrGZaRBwMb_3syn4item8printingNtB7_12ImplItemTypeNtNtCs9OU1sGv5X54_5quote9to_tokens8ToTokens9to_tokens, symObjAddr: 0x20B40, symBinAddr: 0x37900, symSize: 0x100 }
  - { offset: 0xA3F49, size: 0x8, addend: 0x0, symName: __RNvXsp_NtNtCsdGrGZaRBwMb_3syn4item8printingNtB7_13ImplItemMacroNtNtCs9OU1sGv5X54_5quote9to_tokens8ToTokens9to_tokens, symObjAddr: 0x21770, symBinAddr: 0x384F0, symSize: 0x70 }
  - { offset: 0xA3F88, size: 0x8, addend: 0x0, symName: __RNvXsq_NtNtCsdGrGZaRBwMb_3syn4item8printingNtB7_13ForeignItemFnNtNtCs9OU1sGv5X54_5quote9to_tokens8ToTokens9to_tokens, symObjAddr: 0x22540, symBinAddr: 0x38630, symSize: 0x80 }
  - { offset: 0xA3FC7, size: 0x8, addend: 0x0, symName: __RNvXsr_NtNtCsdGrGZaRBwMb_3syn4item8printingNtB7_17ForeignItemStaticNtNtCs9OU1sGv5X54_5quote9to_tokens8ToTokens9to_tokens, symObjAddr: 0x22A00, symBinAddr: 0x38AC0, symSize: 0xC0 }
  - { offset: 0xA4006, size: 0x8, addend: 0x0, symName: __RNvXss_NtNtCsdGrGZaRBwMb_3syn4item8printingNtB7_15ForeignItemTypeNtNtCs9OU1sGv5X54_5quote9to_tokens8ToTokens9to_tokens, symObjAddr: 0x22B60, symBinAddr: 0x38B80, symSize: 0xC0 }
  - { offset: 0xA4045, size: 0x8, addend: 0x0, symName: __RNvXst_NtNtCsdGrGZaRBwMb_3syn4item8printingNtB7_16ForeignItemMacroNtNtCs9OU1sGv5X54_5quote9to_tokens8ToTokens9to_tokens, symObjAddr: 0x24910, symBinAddr: 0x3A8F0, symSize: 0x70 }
  - { offset: 0xA4084, size: 0x8, addend: 0x0, symName: __RNvXsu_NtNtCsdGrGZaRBwMb_3syn4item8printingNtB7_9SignatureNtNtCs9OU1sGv5X54_5quote9to_tokens8ToTokens9to_tokens, symObjAddr: 0x25730, symBinAddr: 0x3A960, symSize: 0xE0 }
  - { offset: 0xA40C3, size: 0x8, addend: 0x0, symName: __RNvXsv_NtNtCsdGrGZaRBwMb_3syn4item8printingNtB7_8ReceiverNtNtCs9OU1sGv5X54_5quote9to_tokens8ToTokens9to_tokens, symObjAddr: 0x25950, symBinAddr: 0x3AB20, symSize: 0x450 }
  - { offset: 0xA41B9, size: 0x8, addend: 0x0, symName: __RNvXsw_NtNtCsdGrGZaRBwMb_3syn4item8printingNtB7_8VariadicNtNtCs9OU1sGv5X54_5quote9to_tokens8ToTokens9to_tokens, symObjAddr: 0x26980, symBinAddr: 0x3AF70, symSize: 0xD0 }
  - { offset: 0xA4226, size: 0x8, addend: 0x0, symName: __RNvXsx_NtNtCsdGrGZaRBwMb_3syn4item8printingNtB7_16StaticMutabilityNtNtCs9OU1sGv5X54_5quote9to_tokens8ToTokens9to_tokens, symObjAddr: 0x26EA0, symBinAddr: 0x3B450, symSize: 0x50 }
  - { offset: 0xA4284, size: 0x8, addend: 0x0, symName: __RNvXsA_NtCsdGrGZaRBwMb_3syn4itemNtB5_9TraitItemNtNtCs9OU1sGv5X54_5quote9to_tokens8ToTokens9to_tokens, symObjAddr: 0x13E00, symBinAddr: 0x2EC10, symSize: 0xE0 }
  - { offset: 0xA4351, size: 0x8, addend: 0x0, symName: __RNvXsF_NtCsdGrGZaRBwMb_3syn4itemNtB5_8ImplItemNtNtCs9OU1sGv5X54_5quote9to_tokens8ToTokens9to_tokens, symObjAddr: 0x13FD0, symBinAddr: 0x2ECF0, symSize: 0xE0 }
  - { offset: 0xA441E, size: 0x8, addend: 0x0, symName: __RNvXsI_NtCsdGrGZaRBwMb_3syn4itemNtB5_5FnArgNtNtCs9OU1sGv5X54_5quote9to_tokens8ToTokens9to_tokens, symObjAddr: 0x14130, symBinAddr: 0x2EDD0, symSize: 0x70 }
  - { offset: 0xA4494, size: 0x8, addend: 0x0, symName: __RNvXsk_NtCsdGrGZaRBwMb_3syn4itemNtB5_4ItemNtNtCs9OU1sGv5X54_5quote9to_tokens8ToTokens9to_tokens, symObjAddr: 0x1CAA0, symBinAddr: 0x34790, symSize: 0x2A0 }
  - { offset: 0xA46AA, size: 0x8, addend: 0x0, symName: __RNvXsq_NtCsdGrGZaRBwMb_3syn4itemNtB5_7UseTreeNtNtCs9OU1sGv5X54_5quote9to_tokens8ToTokens9to_tokens, symObjAddr: 0x217E0, symBinAddr: 0x38560, symSize: 0xD0 }
  - { offset: 0xA4777, size: 0x8, addend: 0x0, symName: __RNvXsv_NtCsdGrGZaRBwMb_3syn4itemNtB5_11ForeignItemNtNtCs9OU1sGv5X54_5quote9to_tokens8ToTokens9to_tokens, symObjAddr: 0x25810, symBinAddr: 0x3AA40, symSize: 0xE0 }
  - { offset: 0xA537E, size: 0x8, addend: 0x0, symName: __RNvXs16_NtNtCsdGrGZaRBwMb_3syn3gen5cloneNtNtBa_4item5FnArgNtNtCsieiGu2EXtoJ_4core5clone5Clone5clone, symObjAddr: 0x5350, symBinAddr: 0x282B0, symSize: 0xE0 }
  - { offset: 0xA53E6, size: 0x8, addend: 0x0, symName: __RNvXs17_NtNtCsdGrGZaRBwMb_3syn3gen5cloneNtNtBa_4item11ForeignItemNtNtCsieiGu2EXtoJ_4core5clone5Clone5clone, symObjAddr: 0x5430, symBinAddr: 0x28390, symSize: 0x200 }
  - { offset: 0xA54A8, size: 0x8, addend: 0x0, symName: __RNvXs18_NtNtCsdGrGZaRBwMb_3syn3gen5cloneNtNtBa_4item13ForeignItemFnNtNtCsieiGu2EXtoJ_4core5clone5Clone5clone, symObjAddr: 0x5630, symBinAddr: 0x28590, symSize: 0x1A0 }
  - { offset: 0xA54DC, size: 0x8, addend: 0x0, symName: __RNvXs19_NtNtCsdGrGZaRBwMb_3syn3gen5cloneNtNtBa_4item16ForeignItemMacroNtNtCsieiGu2EXtoJ_4core5clone5Clone5clone, symObjAddr: 0x5890, symBinAddr: 0x28730, symSize: 0x130 }
  - { offset: 0xA5510, size: 0x8, addend: 0x0, symName: __RNvXs1A_NtNtCsdGrGZaRBwMb_3syn3gen5cloneNtNtBa_4item9ItemUnionNtNtCsieiGu2EXtoJ_4core5clone5Clone5clone, symObjAddr: 0x59C0, symBinAddr: 0x28860, symSize: 0x220 }
  - { offset: 0xA5544, size: 0x8, addend: 0x0, symName: __RNvXs1B_NtNtCsdGrGZaRBwMb_3syn3gen5cloneNtNtBa_4item7ItemUseNtNtCsieiGu2EXtoJ_4core5clone5Clone5clone, symObjAddr: 0x5BE0, symBinAddr: 0x28A80, symSize: 0x1D0 }
  - { offset: 0xA5578, size: 0x8, addend: 0x0, symName: __RNvXs1a_NtNtCsdGrGZaRBwMb_3syn3gen5cloneNtNtBa_4item17ForeignItemStaticNtNtCsieiGu2EXtoJ_4core5clone5Clone5clone, symObjAddr: 0x6F40, symBinAddr: 0x299C0, symSize: 0x250 }
  - { offset: 0xA55AC, size: 0x8, addend: 0x0, symName: __RNvXs1b_NtNtCsdGrGZaRBwMb_3syn3gen5cloneNtNtBa_4item15ForeignItemTypeNtNtCsieiGu2EXtoJ_4core5clone5Clone5clone, symObjAddr: 0x7190, symBinAddr: 0x29C10, symSize: 0x210 }
  - { offset: 0xA55E0, size: 0x8, addend: 0x0, symName: __RNvXs1f_NtNtCsdGrGZaRBwMb_3syn3gen5cloneNtNtBa_4item8ImplItemNtNtCsieiGu2EXtoJ_4core5clone5Clone5clone, symObjAddr: 0x73A0, symBinAddr: 0x29E20, symSize: 0x200 }
  - { offset: 0xA56A2, size: 0x8, addend: 0x0, symName: __RNvXs1g_NtNtCsdGrGZaRBwMb_3syn3gen5cloneNtNtBa_4item13ImplItemConstNtNtCsieiGu2EXtoJ_4core5clone5Clone5clone, symObjAddr: 0x75A0, symBinAddr: 0x2A020, symSize: 0x3A0 }
  - { offset: 0xA56D6, size: 0x8, addend: 0x0, symName: __RNvXs1h_NtNtCsdGrGZaRBwMb_3syn3gen5cloneNtNtBa_4item10ImplItemFnNtNtCsieiGu2EXtoJ_4core5clone5Clone5clone, symObjAddr: 0x7940, symBinAddr: 0x2A3C0, symSize: 0x1F0 }
  - { offset: 0xA570A, size: 0x8, addend: 0x0, symName: __RNvXs1i_NtNtCsdGrGZaRBwMb_3syn3gen5cloneNtNtBa_4item13ImplItemMacroNtNtCsieiGu2EXtoJ_4core5clone5Clone5clone, symObjAddr: 0x7B30, symBinAddr: 0x2A5B0, symSize: 0x130 }
  - { offset: 0xA573E, size: 0x8, addend: 0x0, symName: __RNvXs1j_NtNtCsdGrGZaRBwMb_3syn3gen5cloneNtNtBa_4item12ImplItemTypeNtNtCsieiGu2EXtoJ_4core5clone5Clone5clone, symObjAddr: 0x7C60, symBinAddr: 0x2A6E0, symSize: 0x310 }
  - { offset: 0xA5772, size: 0x8, addend: 0x0, symName: __RNvXs1m_NtNtCsdGrGZaRBwMb_3syn3gen5cloneNtNtBa_4item4ItemNtNtCsieiGu2EXtoJ_4core5clone5Clone5clone, symObjAddr: 0x7F80, symBinAddr: 0x2A9F0, symSize: 0x5C0 }
  - { offset: 0xA5987, size: 0x8, addend: 0x0, symName: __RNvXs1n_NtNtCsdGrGZaRBwMb_3syn3gen5cloneNtNtBa_4item9ItemConstNtNtCsieiGu2EXtoJ_4core5clone5Clone5clone, symObjAddr: 0x8540, symBinAddr: 0x2AFB0, symSize: 0x320 }
  - { offset: 0xA59BB, size: 0x8, addend: 0x0, symName: __RNvXs1o_NtNtCsdGrGZaRBwMb_3syn3gen5cloneNtNtBa_4item8ItemEnumNtNtCsieiGu2EXtoJ_4core5clone5Clone5clone, symObjAddr: 0x8860, symBinAddr: 0x2B2D0, symSize: 0x260 }
  - { offset: 0xA59EF, size: 0x8, addend: 0x0, symName: __RNvXs1p_NtNtCsdGrGZaRBwMb_3syn3gen5cloneNtNtBa_4item15ItemExternCrateNtNtCsieiGu2EXtoJ_4core5clone5Clone5clone, symObjAddr: 0x8AC0, symBinAddr: 0x2B530, symSize: 0x200 }
  - { offset: 0xA5A23, size: 0x8, addend: 0x0, symName: __RNvXs1q_NtNtCsdGrGZaRBwMb_3syn3gen5cloneNtNtBa_4item6ItemFnNtNtCsieiGu2EXtoJ_4core5clone5Clone5clone, symObjAddr: 0x8CC0, symBinAddr: 0x2B730, symSize: 0x1A0 }
  - { offset: 0xA5A57, size: 0x8, addend: 0x0, symName: __RNvXs1r_NtNtCsdGrGZaRBwMb_3syn3gen5cloneNtNtBa_4item14ItemForeignModNtNtCsieiGu2EXtoJ_4core5clone5Clone5clone, symObjAddr: 0x8E60, symBinAddr: 0x2B8D0, symSize: 0x170 }
  - { offset: 0xA5A8B, size: 0x8, addend: 0x0, symName: __RNvXs1s_NtNtCsdGrGZaRBwMb_3syn3gen5cloneNtNtBa_4item8ItemImplNtNtCsieiGu2EXtoJ_4core5clone5Clone5clone, symObjAddr: 0x8FD0, symBinAddr: 0x2BA40, symSize: 0x2D0 }
  - { offset: 0xA5ABF, size: 0x8, addend: 0x0, symName: __RNvXs1t_NtNtCsdGrGZaRBwMb_3syn3gen5cloneNtNtBa_4item9ItemMacroNtNtCsieiGu2EXtoJ_4core5clone5Clone5clone, symObjAddr: 0x92A0, symBinAddr: 0x2BD10, symSize: 0x190 }
  - { offset: 0xA5AF3, size: 0x8, addend: 0x0, symName: __RNvXs1u_NtNtCsdGrGZaRBwMb_3syn3gen5cloneNtNtBa_4item7ItemModNtNtCsieiGu2EXtoJ_4core5clone5Clone5clone, symObjAddr: 0x9430, symBinAddr: 0x2BEA0, symSize: 0x240 }
  - { offset: 0xA5B27, size: 0x8, addend: 0x0, symName: __RNvXs1v_NtNtCsdGrGZaRBwMb_3syn3gen5cloneNtNtBa_4item10ItemStaticNtNtCsieiGu2EXtoJ_4core5clone5Clone5clone, symObjAddr: 0x9670, symBinAddr: 0x2C0E0, symSize: 0x2D0 }
  - { offset: 0xA5B5B, size: 0x8, addend: 0x0, symName: __RNvXs1w_NtNtCsdGrGZaRBwMb_3syn3gen5cloneNtNtBa_4item10ItemStructNtNtCsieiGu2EXtoJ_4core5clone5Clone5clone, symObjAddr: 0x9940, symBinAddr: 0x2C3B0, symSize: 0x270 }
  - { offset: 0xA5B8F, size: 0x8, addend: 0x0, symName: __RNvXs1x_NtNtCsdGrGZaRBwMb_3syn3gen5cloneNtNtBa_4item9ItemTraitNtNtCsieiGu2EXtoJ_4core5clone5Clone5clone, symObjAddr: 0x9BB0, symBinAddr: 0x2C620, symSize: 0x3B0 }
  - { offset: 0xA5BC3, size: 0x8, addend: 0x0, symName: __RNvXs1y_NtNtCsdGrGZaRBwMb_3syn3gen5cloneNtNtBa_4item14ItemTraitAliasNtNtCsieiGu2EXtoJ_4core5clone5Clone5clone, symObjAddr: 0x9F60, symBinAddr: 0x2C9D0, symSize: 0x2B0 }
  - { offset: 0xA5BF7, size: 0x8, addend: 0x0, symName: __RNvXs1z_NtNtCsdGrGZaRBwMb_3syn3gen5cloneNtNtBa_4item8ItemTypeNtNtCsieiGu2EXtoJ_4core5clone5Clone5clone, symObjAddr: 0xA210, symBinAddr: 0x2CC80, symSize: 0x2A0 }
  - { offset: 0xA5C2B, size: 0x8, addend: 0x0, symName: __RNvXs2I_NtNtCsdGrGZaRBwMb_3syn3gen5cloneNtNtBa_4item7UseGlobNtNtCsieiGu2EXtoJ_4core5clone5Clone5clone, symObjAddr: 0xB290, symBinAddr: 0x2CF20, symSize: 0x40 }
  - { offset: 0xA5C5F, size: 0x8, addend: 0x0, symName: __RNvXs2J_NtNtCsdGrGZaRBwMb_3syn3gen5cloneNtNtBa_4item8UseGroupNtNtCsieiGu2EXtoJ_4core5clone5Clone5clone, symObjAddr: 0xB3B0, symBinAddr: 0x2CF60, symSize: 0x80 }
  - { offset: 0xA5C93, size: 0x8, addend: 0x0, symName: __RNvXs2K_NtNtCsdGrGZaRBwMb_3syn3gen5cloneNtNtBa_4item7UseNameNtNtCsieiGu2EXtoJ_4core5clone5Clone5clone, symObjAddr: 0xB430, symBinAddr: 0x2CFE0, symSize: 0x50 }
  - { offset: 0xA5CC7, size: 0x8, addend: 0x0, symName: __RNvXs2L_NtNtCsdGrGZaRBwMb_3syn3gen5cloneNtNtBa_4item7UsePathNtNtCsieiGu2EXtoJ_4core5clone5Clone5clone, symObjAddr: 0xB530, symBinAddr: 0x2D030, symSize: 0xC0 }
  - { offset: 0xA5CFB, size: 0x8, addend: 0x0, symName: __RNvXs2M_NtNtCsdGrGZaRBwMb_3syn3gen5cloneNtNtBa_4item9UseRenameNtNtCsieiGu2EXtoJ_4core5clone5Clone5clone, symObjAddr: 0xB5F0, symBinAddr: 0x2D0F0, symSize: 0xC0 }
  - { offset: 0xA5D2F, size: 0x8, addend: 0x0, symName: __RNvXs2N_NtNtCsdGrGZaRBwMb_3syn3gen5cloneNtNtBa_4item7UseTreeNtNtCsieiGu2EXtoJ_4core5clone5Clone5clone, symObjAddr: 0xB770, symBinAddr: 0x2D1B0, symSize: 0x1F0 }
  - { offset: 0xA5DF1, size: 0x8, addend: 0x0, symName: __RNvXs2O_NtNtCsdGrGZaRBwMb_3syn3gen5cloneNtNtBa_4item8VariadicNtNtCsieiGu2EXtoJ_4core5clone5Clone5clone, symObjAddr: 0xB960, symBinAddr: 0x2D3A0, symSize: 0x110 }
  - { offset: 0xA5E25, size: 0x8, addend: 0x0, symName: __RNvXs2b_NtNtCsdGrGZaRBwMb_3syn3gen5cloneNtNtBa_4item8ReceiverNtNtCsieiGu2EXtoJ_4core5clone5Clone5clone, symObjAddr: 0xC830, symBinAddr: 0x2D580, symSize: 0x180 }
  - { offset: 0xA5E59, size: 0x8, addend: 0x0, symName: __RNvXs2d_NtNtCsdGrGZaRBwMb_3syn3gen5cloneNtNtBa_4item9SignatureNtNtCsieiGu2EXtoJ_4core5clone5Clone5clone, symObjAddr: 0xD180, symBinAddr: 0x2D700, symSize: 0x340 }
  - { offset: 0xA5E8D, size: 0x8, addend: 0x0, symName: __RNvXs2e_NtNtCsdGrGZaRBwMb_3syn3gen5cloneNtNtBa_4item16StaticMutabilityNtNtCsieiGu2EXtoJ_4core5clone5Clone5clone, symObjAddr: 0xD4C0, symBinAddr: 0x2DA40, symSize: 0x60 }
  - { offset: 0xA5EDF, size: 0x8, addend: 0x0, symName: __RNvXs2k_NtNtCsdGrGZaRBwMb_3syn3gen5cloneNtNtBa_4item9TraitItemNtNtCsieiGu2EXtoJ_4core5clone5Clone5clone, symObjAddr: 0xD7D0, symBinAddr: 0x2DAA0, symSize: 0x200 }
  - { offset: 0xA5FA1, size: 0x8, addend: 0x0, symName: __RNvXs2l_NtNtCsdGrGZaRBwMb_3syn3gen5cloneNtNtBa_4item14TraitItemConstNtNtCsieiGu2EXtoJ_4core5clone5Clone5clone, symObjAddr: 0xDAC0, symBinAddr: 0x2DCA0, symSize: 0x2A0 }
  - { offset: 0xA5FD5, size: 0x8, addend: 0x0, symName: __RNvXs2m_NtNtCsdGrGZaRBwMb_3syn3gen5cloneNtNtBa_4item11TraitItemFnNtNtCsieiGu2EXtoJ_4core5clone5Clone5clone, symObjAddr: 0xDD60, symBinAddr: 0x2DF40, symSize: 0x190 }
  - { offset: 0xA6009, size: 0x8, addend: 0x0, symName: __RNvXs2n_NtNtCsdGrGZaRBwMb_3syn3gen5cloneNtNtBa_4item14TraitItemMacroNtNtCsieiGu2EXtoJ_4core5clone5Clone5clone, symObjAddr: 0xDF30, symBinAddr: 0x2E0D0, symSize: 0x130 }
  - { offset: 0xA603D, size: 0x8, addend: 0x0, symName: __RNvXs2o_NtNtCsdGrGZaRBwMb_3syn3gen5cloneNtNtBa_4item13TraitItemTypeNtNtCsieiGu2EXtoJ_4core5clone5Clone5clone, symObjAddr: 0xE060, symBinAddr: 0x2E200, symSize: 0x2C0 }
  - { offset: 0xAA226, size: 0x8, addend: 0x0, symName: __RNvMNtCsieiGu2EXtoJ_4core5sliceSTNtNtCsdGrGZaRBwMb_3syn4item5FnArgNtNtBz_5token5CommaE4iterBz_, symObjAddr: 0x2180, symBinAddr: 0x273C0, symSize: 0x20 }
  - { offset: 0xAA25D, size: 0x8, addend: 0x0, symName: __RNvMNtCsieiGu2EXtoJ_4core5sliceSTNtNtCsdGrGZaRBwMb_3syn4item7UseTreeNtNtBz_5token5CommaE4iterBz_, symObjAddr: 0x21A0, symBinAddr: 0x273E0, symSize: 0x20 }
  - { offset: 0xAB471, size: 0x8, addend: 0x0, symName: __RNvXNtNtCsieiGu2EXtoJ_4core5clone6uninitNtNtCsdGrGZaRBwMb_3syn4item5FnArgNtB2_8CopySpec9clone_oneBG_, symObjAddr: 0x48E0, symBinAddr: 0x27840, symSize: 0x50 }
  - { offset: 0xAB4D6, size: 0x8, addend: 0x0, symName: __RNvXNtNtCsieiGu2EXtoJ_4core5clone6uninitNtNtCsdGrGZaRBwMb_3syn4item7UseTreeNtB2_8CopySpec9clone_oneBG_, symObjAddr: 0x4930, symBinAddr: 0x27890, symSize: 0x40 }
  - { offset: 0xAD25A, size: 0x8, addend: 0x0, symName: __RNvMNtCsdGrGZaRBwMb_3syn4itemNtB2_4Item13replace_attrs, symObjAddr: 0x1EE0, symBinAddr: 0x27120, symSize: 0x2A0 }
  - { offset: 0xAD494, size: 0x8, addend: 0x0, symName: __RNvXNtCs9OU1sGv5X54_5quote9to_tokensRNtNtCsdGrGZaRBwMb_3syn4item11ForeignItemNtB2_8ToTokens9to_tokensBD_, symObjAddr: 0x44A0, symBinAddr: 0x27400, symSize: 0x30 }
  - { offset: 0xAD4D3, size: 0x8, addend: 0x0, symName: __RNvXNtCs9OU1sGv5X54_5quote9to_tokensRNtNtCsdGrGZaRBwMb_3syn4item4ItemNtB2_8ToTokens9to_tokensBD_, symObjAddr: 0x44D0, symBinAddr: 0x27430, symSize: 0x30 }
  - { offset: 0xAD512, size: 0x8, addend: 0x0, symName: __RNvXNtCs9OU1sGv5X54_5quote9to_tokensRNtNtCsdGrGZaRBwMb_3syn4item5FnArgNtB2_8ToTokens9to_tokensBD_, symObjAddr: 0x4500, symBinAddr: 0x27460, symSize: 0x30 }
  - { offset: 0xAD551, size: 0x8, addend: 0x0, symName: __RNvXNtCs9OU1sGv5X54_5quote9to_tokensRNtNtCsdGrGZaRBwMb_3syn4item7UseTreeNtB2_8ToTokens9to_tokensBD_, symObjAddr: 0x4530, symBinAddr: 0x27490, symSize: 0x30 }
  - { offset: 0xAD590, size: 0x8, addend: 0x0, symName: __RNvXNtCs9OU1sGv5X54_5quote9to_tokensRNtNtCsdGrGZaRBwMb_3syn4item8ImplItemNtB2_8ToTokens9to_tokensBD_, symObjAddr: 0x4560, symBinAddr: 0x274C0, symSize: 0x30 }
  - { offset: 0xAD5CF, size: 0x8, addend: 0x0, symName: __RNvXNtCs9OU1sGv5X54_5quote9to_tokensRNtNtCsdGrGZaRBwMb_3syn4item9TraitItemNtB2_8ToTokens9to_tokensBD_, symObjAddr: 0x4590, symBinAddr: 0x274F0, symSize: 0x30 }
  - { offset: 0xAD9AC, size: 0x8, addend: 0x0, symName: __RINvMs_NtCslJiobkLta79_5alloc3vecINtB5_3VecReE10retain_mutNCNvMNtCsdGrGZaRBwMb_3syn9lookaheadNtBZ_10Lookahead15error0EB11_, symObjAddr: 0x0, symBinAddr: 0x3B570, symSize: 0x160 }
  - { offset: 0xB5AFE, size: 0x8, addend: 0x0, symName: __RNvXs1_NtCsieiGu2EXtoJ_4core7convertINtNtCslJiobkLta79_5alloc3vec3VechEINtB5_4IntoBy_E4intoCsdGrGZaRBwMb_3syn, symObjAddr: 0x7580, symBinAddr: 0x40F10, symSize: 0x20 }
  - { offset: 0xB5D95, size: 0x8, addend: 0x0, symName: __RINvNvMs_NtCslJiobkLta79_5alloc3vecINtB7_3VecppE10retain_mut12process_loopNCNvMNtCsdGrGZaRBwMb_3syn9lookaheadNtB1f_10Lookahead15error0ReNtNtB9_5alloc6GlobalKb0_EB1h_, symObjAddr: 0x160, symBinAddr: 0x3B6D0, symSize: 0xB0 }
  - { offset: 0xB5EE9, size: 0x8, addend: 0x0, symName: __RINvNvMs_NtCslJiobkLta79_5alloc3vecINtB7_3VecppE10retain_mut12process_loopNCNvMNtCsdGrGZaRBwMb_3syn9lookaheadNtB1f_10Lookahead15error0ReNtNtB9_5alloc6GlobalKb1_EB1h_, symObjAddr: 0x210, symBinAddr: 0x3B780, symSize: 0x130 }
  - { offset: 0xB60DF, size: 0x8, addend: 0x0, symName: __RNvXNvMs_NtCslJiobkLta79_5alloc3vecINtB7_3VecppE10retain_mutINtB2_15BackshiftOnDropReNtNtB9_5alloc6GlobalENtNtNtCsieiGu2EXtoJ_4core3ops4drop4Drop4dropCsdGrGZaRBwMb_3syn, symObjAddr: 0x6EE0, symBinAddr: 0x40AF0, symSize: 0x190 }
  - { offset: 0xB6325, size: 0x8, addend: 0x0, symName: __RNvNvMs_NtCslJiobkLta79_5alloc3vecINtB6_3VecppE17from_raw_parts_in18precondition_checkCsdGrGZaRBwMb_3syn, symObjAddr: 0x5950, symBinAddr: 0x409B0, symSize: 0xA0 }
  - { offset: 0xB6393, size: 0x8, addend: 0x0, symName: __RNvNvMs_NtCslJiobkLta79_5alloc3vecINtB6_3VecppE7set_len18precondition_checkCsdGrGZaRBwMb_3syn, symObjAddr: 0x59F0, symBinAddr: 0x40A50, symSize: 0xA0 }
  - { offset: 0xB679A, size: 0x8, addend: 0x0, symName: __RINvXsh_NtCslJiobkLta79_5alloc3vecINtB6_3VecNtNtCsdGrGZaRBwMb_3syn4attr9AttributeEINtNtNtNtCsieiGu2EXtoJ_4core4iter6traits7collect6ExtendBG_E6extendBw_EBK_, symObjAddr: 0x340, symBinAddr: 0x3B8B0, symSize: 0x40 }
  - { offset: 0xB9ACA, size: 0x8, addend: 0x0, symName: __RNvXs6_NtCslJiobkLta79_5alloc3vecINtB5_3VecNtNtCsdGrGZaRBwMb_3syn4attr9AttributeENtNtNtCsieiGu2EXtoJ_4core3ops5deref5Deref5derefBJ_, symObjAddr: 0x7600, symBinAddr: 0x40F30, symSize: 0x20 }
  - { offset: 0xB9B0A, size: 0x8, addend: 0x0, symName: __RNvXs6_NtCslJiobkLta79_5alloc3vecINtB5_3VecNtNtCsdGrGZaRBwMb_3syn4expr3ArmENtNtNtCsieiGu2EXtoJ_4core3ops5deref5Deref5derefBJ_, symObjAddr: 0x7620, symBinAddr: 0x40F50, symSize: 0x20 }
  - { offset: 0xB9B4A, size: 0x8, addend: 0x0, symName: __RNvXs6_NtCslJiobkLta79_5alloc3vecINtB5_3VecReENtNtNtCsieiGu2EXtoJ_4core3ops5deref5Deref5derefCsdGrGZaRBwMb_3syn, symObjAddr: 0x7660, symBinAddr: 0x40F70, symSize: 0x20 }
  - { offset: 0xB9B8A, size: 0x8, addend: 0x0, symName: __RNvXs6_NtCslJiobkLta79_5alloc3vecINtB5_3VecTNtNtCsdGrGZaRBwMb_3syn2ty4TypeNtNtBK_5token5CommaEENtNtNtCsieiGu2EXtoJ_4core3ops5deref5Deref5derefBK_, symObjAddr: 0x7680, symBinAddr: 0x40F90, symSize: 0x20 }
  - { offset: 0xB9BCA, size: 0x8, addend: 0x0, symName: __RNvXs6_NtCslJiobkLta79_5alloc3vecINtB5_3VecTNtNtCsdGrGZaRBwMb_3syn2ty9BareFnArgNtNtBK_5token5CommaEENtNtNtCsieiGu2EXtoJ_4core3ops5deref5Deref5derefBK_, symObjAddr: 0x76A0, symBinAddr: 0x40FB0, symSize: 0x20 }
  - { offset: 0xB9C0A, size: 0x8, addend: 0x0, symName: __RNvXs6_NtCslJiobkLta79_5alloc3vecINtB5_3VecTNtNtCsdGrGZaRBwMb_3syn3pat3PatNtNtBK_5token2OrEENtNtNtCsieiGu2EXtoJ_4core3ops5deref5Deref5derefBK_, symObjAddr: 0x76C0, symBinAddr: 0x40FD0, symSize: 0x20 }
  - { offset: 0xB9C4A, size: 0x8, addend: 0x0, symName: __RNvXs6_NtCslJiobkLta79_5alloc3vecINtB5_3VecTNtNtCsdGrGZaRBwMb_3syn3pat3PatNtNtBK_5token5CommaEENtNtNtCsieiGu2EXtoJ_4core3ops5deref5Deref5derefBK_, symObjAddr: 0x76E0, symBinAddr: 0x40FF0, symSize: 0x20 }
  - { offset: 0xB9C8A, size: 0x8, addend: 0x0, symName: __RNvXs6_NtCslJiobkLta79_5alloc3vecINtB5_3VecTNtNtCsdGrGZaRBwMb_3syn3pat8FieldPatNtNtBK_5token5CommaEENtNtNtCsieiGu2EXtoJ_4core3ops5deref5Deref5derefBK_, symObjAddr: 0x7700, symBinAddr: 0x41010, symSize: 0x20 }
  - { offset: 0xB9CCA, size: 0x8, addend: 0x0, symName: __RNvXs6_NtCslJiobkLta79_5alloc3vecINtB5_3VecTNtNtCsdGrGZaRBwMb_3syn4data5FieldNtNtBK_5token5CommaEENtNtNtCsieiGu2EXtoJ_4core3ops5deref5Deref5derefBK_, symObjAddr: 0x7720, symBinAddr: 0x41030, symSize: 0x20 }
  - { offset: 0xB9D0A, size: 0x8, addend: 0x0, symName: __RNvXs6_NtCslJiobkLta79_5alloc3vecINtB5_3VecTNtNtCsdGrGZaRBwMb_3syn4data7VariantNtNtBK_5token5CommaEENtNtNtCsieiGu2EXtoJ_4core3ops5deref5Deref5derefBK_, symObjAddr: 0x7740, symBinAddr: 0x41050, symSize: 0x20 }
  - { offset: 0xB9D4A, size: 0x8, addend: 0x0, symName: __RNvXs6_NtCslJiobkLta79_5alloc3vecINtB5_3VecTNtNtCsdGrGZaRBwMb_3syn4expr10FieldValueNtNtBK_5token5CommaEENtNtNtCsieiGu2EXtoJ_4core3ops5deref5Deref5derefBK_, symObjAddr: 0x7760, symBinAddr: 0x41070, symSize: 0x20 }
  - { offset: 0xB9D8A, size: 0x8, addend: 0x0, symName: __RNvXs6_NtCslJiobkLta79_5alloc3vecINtB5_3VecTNtNtCsdGrGZaRBwMb_3syn4expr4ExprNtNtBK_5token5CommaEENtNtNtCsieiGu2EXtoJ_4core3ops5deref5Deref5derefBK_, symObjAddr: 0x7780, symBinAddr: 0x41090, symSize: 0x20 }
  - { offset: 0xB9DCA, size: 0x8, addend: 0x0, symName: __RNvXs6_NtCslJiobkLta79_5alloc3vecINtB5_3VecTNtNtCsdGrGZaRBwMb_3syn4item5FnArgNtNtBK_5token5CommaEENtNtNtCsieiGu2EXtoJ_4core3ops5deref5Deref5derefBK_, symObjAddr: 0x77A0, symBinAddr: 0x410B0, symSize: 0x20 }
  - { offset: 0xB9E0A, size: 0x8, addend: 0x0, symName: __RNvXs6_NtCslJiobkLta79_5alloc3vecINtB5_3VecTNtNtCsdGrGZaRBwMb_3syn4item7UseTreeNtNtBK_5token5CommaEENtNtNtCsieiGu2EXtoJ_4core3ops5deref5Deref5derefBK_, symObjAddr: 0x77C0, symBinAddr: 0x410D0, symSize: 0x20 }
  - { offset: 0xB9E4A, size: 0x8, addend: 0x0, symName: __RNvXs6_NtCslJiobkLta79_5alloc3vecINtB5_3VecTNtNtCsdGrGZaRBwMb_3syn4path11PathSegmentNtNtBK_5token7PathSepEENtNtNtCsieiGu2EXtoJ_4core3ops5deref5Deref5derefBK_, symObjAddr: 0x77E0, symBinAddr: 0x410F0, symSize: 0x20 }
  - { offset: 0xB9E8A, size: 0x8, addend: 0x0, symName: __RNvXs6_NtCslJiobkLta79_5alloc3vecINtB5_3VecTNtNtCsdGrGZaRBwMb_3syn4path15GenericArgumentNtNtBK_5token5CommaEENtNtNtCsieiGu2EXtoJ_4core3ops5deref5Deref5derefBK_, symObjAddr: 0x7800, symBinAddr: 0x41110, symSize: 0x20 }
  - { offset: 0xB9ECA, size: 0x8, addend: 0x0, symName: __RNvXs6_NtCslJiobkLta79_5alloc3vecINtB5_3VecTNtNtCsdGrGZaRBwMb_3syn8generics12GenericParamNtNtBK_5token5CommaEENtNtNtCsieiGu2EXtoJ_4core3ops5deref5Deref5derefBK_, symObjAddr: 0x7820, symBinAddr: 0x41130, symSize: 0x20 }
  - { offset: 0xB9F0A, size: 0x8, addend: 0x0, symName: __RNvXs6_NtCslJiobkLta79_5alloc3vecINtB5_3VecTNtNtCsdGrGZaRBwMb_3syn8generics13CapturedParamNtNtBK_5token5CommaEENtNtNtCsieiGu2EXtoJ_4core3ops5deref5Deref5derefBK_, symObjAddr: 0x7840, symBinAddr: 0x41150, symSize: 0x20 }
  - { offset: 0xB9F4A, size: 0x8, addend: 0x0, symName: __RNvXs6_NtCslJiobkLta79_5alloc3vecINtB5_3VecTNtNtCsdGrGZaRBwMb_3syn8generics14TypeParamBoundNtNtBK_5token4PlusEENtNtNtCsieiGu2EXtoJ_4core3ops5deref5Deref5derefBK_, symObjAddr: 0x7860, symBinAddr: 0x41170, symSize: 0x20 }
  - { offset: 0xB9F8A, size: 0x8, addend: 0x0, symName: __RNvXs6_NtCslJiobkLta79_5alloc3vecINtB5_3VecTNtNtCsdGrGZaRBwMb_3syn8generics14WherePredicateNtNtBK_5token5CommaEENtNtNtCsieiGu2EXtoJ_4core3ops5deref5Deref5derefBK_, symObjAddr: 0x7880, symBinAddr: 0x41190, symSize: 0x20 }
  - { offset: 0xB9FCA, size: 0x8, addend: 0x0, symName: __RNvXs6_NtCslJiobkLta79_5alloc3vecINtB5_3VecTNtNtCsdGrGZaRBwMb_3syn8lifetime8LifetimeNtNtBK_5token4PlusEENtNtNtCsieiGu2EXtoJ_4core3ops5deref5Deref5derefBK_, symObjAddr: 0x78A0, symBinAddr: 0x411B0, symSize: 0x20 }
  - { offset: 0xBA00A, size: 0x8, addend: 0x0, symName: __RNvXs6_NtCslJiobkLta79_5alloc3vecINtB5_3VechENtNtNtCsieiGu2EXtoJ_4core3ops5deref5Deref5derefCsdGrGZaRBwMb_3syn, symObjAddr: 0x78C0, symBinAddr: 0x411D0, symSize: 0x20 }
  - { offset: 0xBA7D0, size: 0x8, addend: 0x0, symName: __RNvXsb_NtCslJiobkLta79_5alloc3vecINtB5_3VecNtNtCsdGrGZaRBwMb_3syn5error12ErrorMessageEINtNtNtCsieiGu2EXtoJ_4core3ops5index5IndexjE5indexBJ_, symObjAddr: 0x8800, symBinAddr: 0x42040, symSize: 0x80 }
  - { offset: 0xBA952, size: 0x8, addend: 0x0, symName: __RNvXsb_NtCslJiobkLta79_5alloc3vecINtB5_3VecReEINtNtNtCsieiGu2EXtoJ_4core3ops5index5IndexjE5indexCsdGrGZaRBwMb_3syn, symObjAddr: 0x8880, symBinAddr: 0x420C0, symSize: 0x80 }
  - { offset: 0xBAAD4, size: 0x8, addend: 0x0, symName: __RNvXsb_NtCslJiobkLta79_5alloc3vecINtB5_3VecTNtNtCsdGrGZaRBwMb_3syn3pat3PatNtNtBK_5token5CommaEEINtNtNtCsieiGu2EXtoJ_4core3ops5index5IndexjE5indexBK_, symObjAddr: 0x8900, symBinAddr: 0x42140, symSize: 0x80 }
  - { offset: 0xBAC56, size: 0x8, addend: 0x0, symName: __RNvXsb_NtCslJiobkLta79_5alloc3vecINtB5_3VecTNtNtCsdGrGZaRBwMb_3syn4path11PathSegmentNtNtBK_5token7PathSepEEINtNtNtCsieiGu2EXtoJ_4core3ops5index5IndexjE5indexBK_, symObjAddr: 0x8980, symBinAddr: 0x421C0, symSize: 0x80 }
  - { offset: 0xBADD8, size: 0x8, addend: 0x0, symName: __RNvXsb_NtCslJiobkLta79_5alloc3vecINtB5_3VechEINtNtNtCsieiGu2EXtoJ_4core3ops5index5IndexINtNtBM_5range9RangeFromjEE5indexCsdGrGZaRBwMb_3syn, symObjAddr: 0x8A00, symBinAddr: 0x42240, symSize: 0x70 }
  - { offset: 0xBAF5A, size: 0x8, addend: 0x0, symName: __RNvXsb_NtCslJiobkLta79_5alloc3vecINtB5_3VechEINtNtNtCsieiGu2EXtoJ_4core3ops5index5IndexjE5indexCsdGrGZaRBwMb_3syn, symObjAddr: 0x8A70, symBinAddr: 0x422B0, symSize: 0x70 }
  - { offset: 0xBB29C, size: 0x8, addend: 0x0, symName: __RNvXs0_NtNtCslJiobkLta79_5alloc3vec11spec_extendINtB7_3VecNtNtCsdGrGZaRBwMb_3syn4attr9AttributeEINtB5_10SpecExtendBU_INtNtB7_9into_iter8IntoIterBU_EE11spec_extendBY_, symObjAddr: 0x7440, symBinAddr: 0x40E80, symSize: 0x90 }
  - { offset: 0xBB309, size: 0x8, addend: 0x0, symName: __RNvXs7_NtCslJiobkLta79_5alloc3vecINtB5_3VecTNtNtCsdGrGZaRBwMb_3syn4path11PathSegmentNtNtBK_5token7PathSepEENtNtNtCsieiGu2EXtoJ_4core3ops5deref8DerefMut9deref_mutBK_, symObjAddr: 0x7900, symBinAddr: 0x411F0, symSize: 0x20 }
  - { offset: 0xBB3DF, size: 0x8, addend: 0x0, symName: __RNvXs9_NtCslJiobkLta79_5alloc3vecINtB5_3VecNtNtCsdGrGZaRBwMb_3syn4attr9AttributeENtNtCsieiGu2EXtoJ_4core5clone5Clone5cloneBJ_, symObjAddr: 0x7940, symBinAddr: 0x41210, symSize: 0x90 }
  - { offset: 0xBB5B0, size: 0x8, addend: 0x0, symName: __RNvXs9_NtCslJiobkLta79_5alloc3vecINtB5_3VecNtNtCsdGrGZaRBwMb_3syn4expr3ArmENtNtCsieiGu2EXtoJ_4core5clone5Clone5cloneBJ_, symObjAddr: 0x79D0, symBinAddr: 0x412A0, symSize: 0x90 }
  - { offset: 0xBB781, size: 0x8, addend: 0x0, symName: __RNvXs9_NtCslJiobkLta79_5alloc3vecINtB5_3VecNtNtCsdGrGZaRBwMb_3syn4item11ForeignItemENtNtCsieiGu2EXtoJ_4core5clone5Clone5cloneBJ_, symObjAddr: 0x7A60, symBinAddr: 0x41330, symSize: 0x90 }
  - { offset: 0xBB952, size: 0x8, addend: 0x0, symName: __RNvXs9_NtCslJiobkLta79_5alloc3vecINtB5_3VecNtNtCsdGrGZaRBwMb_3syn4item4ItemENtNtCsieiGu2EXtoJ_4core5clone5Clone5cloneBJ_, symObjAddr: 0x7AF0, symBinAddr: 0x413C0, symSize: 0x90 }
  - { offset: 0xBBB23, size: 0x8, addend: 0x0, symName: __RNvXs9_NtCslJiobkLta79_5alloc3vecINtB5_3VecNtNtCsdGrGZaRBwMb_3syn4item8ImplItemENtNtCsieiGu2EXtoJ_4core5clone5Clone5cloneBJ_, symObjAddr: 0x7B80, symBinAddr: 0x41450, symSize: 0x90 }
  - { offset: 0xBBCF4, size: 0x8, addend: 0x0, symName: __RNvXs9_NtCslJiobkLta79_5alloc3vecINtB5_3VecNtNtCsdGrGZaRBwMb_3syn4item9TraitItemENtNtCsieiGu2EXtoJ_4core5clone5Clone5cloneBJ_, symObjAddr: 0x7C10, symBinAddr: 0x414E0, symSize: 0x90 }
  - { offset: 0xBBEC5, size: 0x8, addend: 0x0, symName: __RNvXs9_NtCslJiobkLta79_5alloc3vecINtB5_3VecNtNtCsdGrGZaRBwMb_3syn4stmt4StmtENtNtCsieiGu2EXtoJ_4core5clone5Clone5cloneBJ_, symObjAddr: 0x7CA0, symBinAddr: 0x41570, symSize: 0x90 }
  - { offset: 0xBC096, size: 0x8, addend: 0x0, symName: __RNvXs9_NtCslJiobkLta79_5alloc3vecINtB5_3VecTNtNtCsdGrGZaRBwMb_3syn2ty4TypeNtNtBK_5token5CommaEENtNtCsieiGu2EXtoJ_4core5clone5Clone5cloneBK_, symObjAddr: 0x7DC0, symBinAddr: 0x41600, symSize: 0x90 }
  - { offset: 0xBC267, size: 0x8, addend: 0x0, symName: __RNvXs9_NtCslJiobkLta79_5alloc3vecINtB5_3VecTNtNtCsdGrGZaRBwMb_3syn2ty9BareFnArgNtNtBK_5token5CommaEENtNtCsieiGu2EXtoJ_4core5clone5Clone5cloneBK_, symObjAddr: 0x7E50, symBinAddr: 0x41690, symSize: 0x90 }
  - { offset: 0xBC438, size: 0x8, addend: 0x0, symName: __RNvXs9_NtCslJiobkLta79_5alloc3vecINtB5_3VecTNtNtCsdGrGZaRBwMb_3syn3pat3PatNtNtBK_5token2OrEENtNtCsieiGu2EXtoJ_4core5clone5Clone5cloneBK_, symObjAddr: 0x7EE0, symBinAddr: 0x41720, symSize: 0x90 }
  - { offset: 0xBC609, size: 0x8, addend: 0x0, symName: __RNvXs9_NtCslJiobkLta79_5alloc3vecINtB5_3VecTNtNtCsdGrGZaRBwMb_3syn3pat3PatNtNtBK_5token5CommaEENtNtCsieiGu2EXtoJ_4core5clone5Clone5cloneBK_, symObjAddr: 0x7F70, symBinAddr: 0x417B0, symSize: 0x90 }
  - { offset: 0xBC7DA, size: 0x8, addend: 0x0, symName: __RNvXs9_NtCslJiobkLta79_5alloc3vecINtB5_3VecTNtNtCsdGrGZaRBwMb_3syn3pat8FieldPatNtNtBK_5token5CommaEENtNtCsieiGu2EXtoJ_4core5clone5Clone5cloneBK_, symObjAddr: 0x8000, symBinAddr: 0x41840, symSize: 0x90 }
  - { offset: 0xBC9AB, size: 0x8, addend: 0x0, symName: __RNvXs9_NtCslJiobkLta79_5alloc3vecINtB5_3VecTNtNtCsdGrGZaRBwMb_3syn4data5FieldNtNtBK_5token5CommaEENtNtCsieiGu2EXtoJ_4core5clone5Clone5cloneBK_, symObjAddr: 0x8090, symBinAddr: 0x418D0, symSize: 0x90 }
  - { offset: 0xBCB7C, size: 0x8, addend: 0x0, symName: __RNvXs9_NtCslJiobkLta79_5alloc3vecINtB5_3VecTNtNtCsdGrGZaRBwMb_3syn4data7VariantNtNtBK_5token5CommaEENtNtCsieiGu2EXtoJ_4core5clone5Clone5cloneBK_, symObjAddr: 0x8120, symBinAddr: 0x41960, symSize: 0x90 }
  - { offset: 0xBCD4D, size: 0x8, addend: 0x0, symName: __RNvXs9_NtCslJiobkLta79_5alloc3vecINtB5_3VecTNtNtCsdGrGZaRBwMb_3syn4expr10FieldValueNtNtBK_5token5CommaEENtNtCsieiGu2EXtoJ_4core5clone5Clone5cloneBK_, symObjAddr: 0x81B0, symBinAddr: 0x419F0, symSize: 0x90 }
  - { offset: 0xBCF1E, size: 0x8, addend: 0x0, symName: __RNvXs9_NtCslJiobkLta79_5alloc3vecINtB5_3VecTNtNtCsdGrGZaRBwMb_3syn4expr4ExprNtNtBK_5token5CommaEENtNtCsieiGu2EXtoJ_4core5clone5Clone5cloneBK_, symObjAddr: 0x8240, symBinAddr: 0x41A80, symSize: 0x90 }
  - { offset: 0xBD0EF, size: 0x8, addend: 0x0, symName: __RNvXs9_NtCslJiobkLta79_5alloc3vecINtB5_3VecTNtNtCsdGrGZaRBwMb_3syn4item5FnArgNtNtBK_5token5CommaEENtNtCsieiGu2EXtoJ_4core5clone5Clone5cloneBK_, symObjAddr: 0x82D0, symBinAddr: 0x41B10, symSize: 0x90 }
  - { offset: 0xBD2C0, size: 0x8, addend: 0x0, symName: __RNvXs9_NtCslJiobkLta79_5alloc3vecINtB5_3VecTNtNtCsdGrGZaRBwMb_3syn4item7UseTreeNtNtBK_5token5CommaEENtNtCsieiGu2EXtoJ_4core5clone5Clone5cloneBK_, symObjAddr: 0x8360, symBinAddr: 0x41BA0, symSize: 0x90 }
  - { offset: 0xBD491, size: 0x8, addend: 0x0, symName: __RNvXs9_NtCslJiobkLta79_5alloc3vecINtB5_3VecTNtNtCsdGrGZaRBwMb_3syn4path11PathSegmentNtNtBK_5token7PathSepEENtNtCsieiGu2EXtoJ_4core5clone5Clone5cloneBK_, symObjAddr: 0x83F0, symBinAddr: 0x41C30, symSize: 0x90 }
  - { offset: 0xBD662, size: 0x8, addend: 0x0, symName: __RNvXs9_NtCslJiobkLta79_5alloc3vecINtB5_3VecTNtNtCsdGrGZaRBwMb_3syn4path15GenericArgumentNtNtBK_5token5CommaEENtNtCsieiGu2EXtoJ_4core5clone5Clone5cloneBK_, symObjAddr: 0x8480, symBinAddr: 0x41CC0, symSize: 0x90 }
  - { offset: 0xBD833, size: 0x8, addend: 0x0, symName: __RNvXs9_NtCslJiobkLta79_5alloc3vecINtB5_3VecTNtNtCsdGrGZaRBwMb_3syn8generics12GenericParamNtNtBK_5token5CommaEENtNtCsieiGu2EXtoJ_4core5clone5Clone5cloneBK_, symObjAddr: 0x8510, symBinAddr: 0x41D50, symSize: 0x90 }
  - { offset: 0xBDA04, size: 0x8, addend: 0x0, symName: __RNvXs9_NtCslJiobkLta79_5alloc3vecINtB5_3VecTNtNtCsdGrGZaRBwMb_3syn8generics13CapturedParamNtNtBK_5token5CommaEENtNtCsieiGu2EXtoJ_4core5clone5Clone5cloneBK_, symObjAddr: 0x85A0, symBinAddr: 0x41DE0, symSize: 0x90 }
  - { offset: 0xBDBD5, size: 0x8, addend: 0x0, symName: __RNvXs9_NtCslJiobkLta79_5alloc3vecINtB5_3VecTNtNtCsdGrGZaRBwMb_3syn8generics14TypeParamBoundNtNtBK_5token4PlusEENtNtCsieiGu2EXtoJ_4core5clone5Clone5cloneBK_, symObjAddr: 0x8630, symBinAddr: 0x41E70, symSize: 0x90 }
  - { offset: 0xBDDA6, size: 0x8, addend: 0x0, symName: __RNvXs9_NtCslJiobkLta79_5alloc3vecINtB5_3VecTNtNtCsdGrGZaRBwMb_3syn8generics14WherePredicateNtNtBK_5token5CommaEENtNtCsieiGu2EXtoJ_4core5clone5Clone5cloneBK_, symObjAddr: 0x86C0, symBinAddr: 0x41F00, symSize: 0x90 }
  - { offset: 0xBDF77, size: 0x8, addend: 0x0, symName: __RNvXs9_NtCslJiobkLta79_5alloc3vecINtB5_3VecTNtNtCsdGrGZaRBwMb_3syn8lifetime8LifetimeNtNtBK_5token4PlusEENtNtCsieiGu2EXtoJ_4core5clone5Clone5cloneBK_, symObjAddr: 0x8750, symBinAddr: 0x41F90, symSize: 0x90 }
  - { offset: 0xBE14E, size: 0x8, addend: 0x0, symName: __RNvXsc_NtCslJiobkLta79_5alloc3vecINtB5_3VecNtNtCsdGrGZaRBwMb_3syn6buffer5EntryEINtNtNtCsieiGu2EXtoJ_4core3ops5index8IndexMutjE9index_mutBJ_, symObjAddr: 0x8AE0, symBinAddr: 0x42320, symSize: 0x80 }
  - { offset: 0xBE2A2, size: 0x8, addend: 0x0, symName: __RNvXsc_NtCslJiobkLta79_5alloc3vecINtB5_3VechEINtNtNtCsieiGu2EXtoJ_4core3ops5index8IndexMutjE9index_mutCsdGrGZaRBwMb_3syn, symObjAddr: 0x8B60, symBinAddr: 0x423A0, symSize: 0x70 }
  - { offset: 0xBE3FC, size: 0x8, addend: 0x0, symName: __RNvXse_NtCslJiobkLta79_5alloc3vecINtB5_3VecNtNtCsdGrGZaRBwMb_3syn4attr9AttributeENtNtNtNtCsieiGu2EXtoJ_4core4iter6traits7collect12IntoIterator9into_iterBJ_, symObjAddr: 0x8BD0, symBinAddr: 0x42410, symSize: 0x140 }
  - { offset: 0xBE68C, size: 0x8, addend: 0x0, symName: __RNvXse_NtCslJiobkLta79_5alloc3vecINtB5_3VecNtNtCsdGrGZaRBwMb_3syn8generics14TypeParamBoundENtNtNtNtCsieiGu2EXtoJ_4core4iter6traits7collect12IntoIterator9into_iterBJ_, symObjAddr: 0x8F90, symBinAddr: 0x42550, symSize: 0x140 }
  - { offset: 0xBE91C, size: 0x8, addend: 0x0, symName: __RNvXse_NtCslJiobkLta79_5alloc3vecINtB5_3VecTNtNtCsdGrGZaRBwMb_3syn4path11PathSegmentNtNtBK_5token7PathSepEENtNtNtNtCsieiGu2EXtoJ_4core4iter6traits7collect12IntoIterator9into_iterBK_, symObjAddr: 0x9350, symBinAddr: 0x42690, symSize: 0x140 }
  - { offset: 0xBEBAC, size: 0x8, addend: 0x0, symName: __RNvXse_NtCslJiobkLta79_5alloc3vecINtB5_3VecTNtNtCsdGrGZaRBwMb_3syn8generics14TypeParamBoundNtNtBK_5token4PlusEENtNtNtNtCsieiGu2EXtoJ_4core4iter6traits7collect12IntoIterator9into_iterBK_, symObjAddr: 0x9490, symBinAddr: 0x427D0, symSize: 0x140 }
  - { offset: 0xBEE42, size: 0x8, addend: 0x0, symName: __RNvXsf_NtCslJiobkLta79_5alloc3vecRINtB5_3VecNtNtCsdGrGZaRBwMb_3syn4attr9AttributeENtNtNtNtCsieiGu2EXtoJ_4core4iter6traits7collect12IntoIterator9into_iterBK_, symObjAddr: 0x95D0, symBinAddr: 0x42910, symSize: 0x80 }
  - { offset: 0xBF06F, size: 0x8, addend: 0x0, symName: __RNvXsf_NtCslJiobkLta79_5alloc3vecRINtB5_3VecNtNtCsdGrGZaRBwMb_3syn4item11ForeignItemENtNtNtNtCsieiGu2EXtoJ_4core4iter6traits7collect12IntoIterator9into_iterBK_, symObjAddr: 0x9650, symBinAddr: 0x42990, symSize: 0x80 }
  - { offset: 0xBF29C, size: 0x8, addend: 0x0, symName: __RNvXsf_NtCslJiobkLta79_5alloc3vecRINtB5_3VecNtNtCsdGrGZaRBwMb_3syn4item4ItemENtNtNtNtCsieiGu2EXtoJ_4core4iter6traits7collect12IntoIterator9into_iterBK_, symObjAddr: 0x96D0, symBinAddr: 0x42A10, symSize: 0x80 }
  - { offset: 0xBF4C9, size: 0x8, addend: 0x0, symName: __RNvXsf_NtCslJiobkLta79_5alloc3vecRINtB5_3VecNtNtCsdGrGZaRBwMb_3syn4item8ImplItemENtNtNtNtCsieiGu2EXtoJ_4core4iter6traits7collect12IntoIterator9into_iterBK_, symObjAddr: 0x9750, symBinAddr: 0x42A90, symSize: 0x80 }
  - { offset: 0xBF6F6, size: 0x8, addend: 0x0, symName: __RNvXsf_NtCslJiobkLta79_5alloc3vecRINtB5_3VecNtNtCsdGrGZaRBwMb_3syn4item9TraitItemENtNtNtNtCsieiGu2EXtoJ_4core4iter6traits7collect12IntoIterator9into_iterBK_, symObjAddr: 0x97D0, symBinAddr: 0x42B10, symSize: 0x80 }
  - { offset: 0xBF923, size: 0x8, addend: 0x0, symName: __RNvXsf_NtCslJiobkLta79_5alloc3vecRINtB5_3VecNtNtCsdGrGZaRBwMb_3syn4stmt4StmtENtNtNtNtCsieiGu2EXtoJ_4core4iter6traits7collect12IntoIterator9into_iterBK_, symObjAddr: 0x9850, symBinAddr: 0x42B90, symSize: 0x80 }
  - { offset: 0xBFB50, size: 0x8, addend: 0x0, symName: __RNvXsf_NtCslJiobkLta79_5alloc3vecRINtB5_3VecNtNtCsdGrGZaRBwMb_3syn5error12ErrorMessageENtNtNtNtCsieiGu2EXtoJ_4core4iter6traits7collect12IntoIterator9into_iterBK_, symObjAddr: 0x98D0, symBinAddr: 0x42C10, symSize: 0x80 }
  - { offset: 0xBFD83, size: 0x8, addend: 0x0, symName: __RNvXsg_NtCslJiobkLta79_5alloc3vecQINtB5_3VechENtNtNtNtCsieiGu2EXtoJ_4core4iter6traits7collect12IntoIterator9into_iterCsdGrGZaRBwMb_3syn, symObjAddr: 0xA250, symBinAddr: 0x42C90, symSize: 0x80 }
  - { offset: 0xBFFAA, size: 0x8, addend: 0x0, symName: __RNvXsn_NtCslJiobkLta79_5alloc3vecINtB5_3VecNtNtCsdGrGZaRBwMb_3syn4attr9AttributeENtNtNtCsieiGu2EXtoJ_4core3ops4drop4Drop4dropBJ_, symObjAddr: 0xA2D0, symBinAddr: 0x42D10, symSize: 0x30 }
  - { offset: 0xC005A, size: 0x8, addend: 0x0, symName: __RNvXsn_NtCslJiobkLta79_5alloc3vecINtB5_3VecNtNtCsdGrGZaRBwMb_3syn4expr3ArmENtNtNtCsieiGu2EXtoJ_4core3ops4drop4Drop4dropBJ_, symObjAddr: 0xA330, symBinAddr: 0x42D40, symSize: 0x30 }
  - { offset: 0xC010A, size: 0x8, addend: 0x0, symName: __RNvXsn_NtCslJiobkLta79_5alloc3vecINtB5_3VecNtNtCsdGrGZaRBwMb_3syn4expr6ExprIfENtNtNtCsieiGu2EXtoJ_4core3ops4drop4Drop4dropBJ_, symObjAddr: 0xA360, symBinAddr: 0x42D70, symSize: 0x30 }
  - { offset: 0xC01BA, size: 0x8, addend: 0x0, symName: __RNvXsn_NtCslJiobkLta79_5alloc3vecINtB5_3VecNtNtCsdGrGZaRBwMb_3syn4item11ForeignItemENtNtNtCsieiGu2EXtoJ_4core3ops4drop4Drop4dropBJ_, symObjAddr: 0xA390, symBinAddr: 0x42DA0, symSize: 0x30 }
  - { offset: 0xC026A, size: 0x8, addend: 0x0, symName: __RNvXsn_NtCslJiobkLta79_5alloc3vecINtB5_3VecNtNtCsdGrGZaRBwMb_3syn4item4ItemENtNtNtCsieiGu2EXtoJ_4core3ops4drop4Drop4dropBJ_, symObjAddr: 0xA3C0, symBinAddr: 0x42DD0, symSize: 0x30 }
  - { offset: 0xC031A, size: 0x8, addend: 0x0, symName: __RNvXsn_NtCslJiobkLta79_5alloc3vecINtB5_3VecNtNtCsdGrGZaRBwMb_3syn4item8ImplItemENtNtNtCsieiGu2EXtoJ_4core3ops4drop4Drop4dropBJ_, symObjAddr: 0xA3F0, symBinAddr: 0x42E00, symSize: 0x30 }
  - { offset: 0xC03CA, size: 0x8, addend: 0x0, symName: __RNvXsn_NtCslJiobkLta79_5alloc3vecINtB5_3VecNtNtCsdGrGZaRBwMb_3syn4item9TraitItemENtNtNtCsieiGu2EXtoJ_4core3ops4drop4Drop4dropBJ_, symObjAddr: 0xA420, symBinAddr: 0x42E30, symSize: 0x30 }
  - { offset: 0xC047A, size: 0x8, addend: 0x0, symName: __RNvXsn_NtCslJiobkLta79_5alloc3vecINtB5_3VecNtNtCsdGrGZaRBwMb_3syn4stmt4StmtENtNtNtCsieiGu2EXtoJ_4core3ops4drop4Drop4dropBJ_, symObjAddr: 0xA450, symBinAddr: 0x42E60, symSize: 0x30 }
  - { offset: 0xC052A, size: 0x8, addend: 0x0, symName: __RNvXsn_NtCslJiobkLta79_5alloc3vecINtB5_3VecNtNtCsdGrGZaRBwMb_3syn5error12ErrorMessageENtNtNtCsieiGu2EXtoJ_4core3ops4drop4Drop4dropBJ_, symObjAddr: 0xA480, symBinAddr: 0x42E90, symSize: 0x30 }
  - { offset: 0xC05DA, size: 0x8, addend: 0x0, symName: __RNvXsn_NtCslJiobkLta79_5alloc3vecINtB5_3VecNtNtCsdGrGZaRBwMb_3syn6buffer5EntryENtNtNtCsieiGu2EXtoJ_4core3ops4drop4Drop4dropBJ_, symObjAddr: 0xA4B0, symBinAddr: 0x42EC0, symSize: 0x30 }
  - { offset: 0xC068A, size: 0x8, addend: 0x0, symName: __RNvXsn_NtCslJiobkLta79_5alloc3vecINtB5_3VecNtNtCsdGrGZaRBwMb_3syn8generics14TypeParamBoundENtNtNtCsieiGu2EXtoJ_4core3ops4drop4Drop4dropBJ_, symObjAddr: 0xA4E0, symBinAddr: 0x42EF0, symSize: 0x30 }
  - { offset: 0xC073A, size: 0x8, addend: 0x0, symName: __RNvXsn_NtCslJiobkLta79_5alloc3vecINtB5_3VecReENtNtNtCsieiGu2EXtoJ_4core3ops4drop4Drop4dropCsdGrGZaRBwMb_3syn, symObjAddr: 0xA510, symBinAddr: 0x42F20, symSize: 0x20 }
  - { offset: 0xC07EA, size: 0x8, addend: 0x0, symName: __RNvXsn_NtCslJiobkLta79_5alloc3vecINtB5_3VecTNtNtCsdGrGZaRBwMb_3syn2ty4TypeNtNtBK_5token5CommaEENtNtNtCsieiGu2EXtoJ_4core3ops4drop4Drop4dropBK_, symObjAddr: 0xA530, symBinAddr: 0x42F40, symSize: 0x30 }
  - { offset: 0xC089A, size: 0x8, addend: 0x0, symName: __RNvXsn_NtCslJiobkLta79_5alloc3vecINtB5_3VecTNtNtCsdGrGZaRBwMb_3syn2ty9BareFnArgNtNtBK_5token5CommaEENtNtNtCsieiGu2EXtoJ_4core3ops4drop4Drop4dropBK_, symObjAddr: 0xA560, symBinAddr: 0x42F70, symSize: 0x30 }
  - { offset: 0xC094A, size: 0x8, addend: 0x0, symName: __RNvXsn_NtCslJiobkLta79_5alloc3vecINtB5_3VecTNtNtCsdGrGZaRBwMb_3syn3pat3PatNtNtBK_5token2OrEENtNtNtCsieiGu2EXtoJ_4core3ops4drop4Drop4dropBK_, symObjAddr: 0xA590, symBinAddr: 0x42FA0, symSize: 0x30 }
  - { offset: 0xC09FA, size: 0x8, addend: 0x0, symName: __RNvXsn_NtCslJiobkLta79_5alloc3vecINtB5_3VecTNtNtCsdGrGZaRBwMb_3syn3pat3PatNtNtBK_5token5CommaEENtNtNtCsieiGu2EXtoJ_4core3ops4drop4Drop4dropBK_, symObjAddr: 0xA5C0, symBinAddr: 0x42FD0, symSize: 0x30 }
  - { offset: 0xC0AAA, size: 0x8, addend: 0x0, symName: __RNvXsn_NtCslJiobkLta79_5alloc3vecINtB5_3VecTNtNtCsdGrGZaRBwMb_3syn3pat8FieldPatNtNtBK_5token5CommaEENtNtNtCsieiGu2EXtoJ_4core3ops4drop4Drop4dropBK_, symObjAddr: 0xA5F0, symBinAddr: 0x43000, symSize: 0x30 }
  - { offset: 0xC0B5A, size: 0x8, addend: 0x0, symName: __RNvXsn_NtCslJiobkLta79_5alloc3vecINtB5_3VecTNtNtCsdGrGZaRBwMb_3syn4data5FieldNtNtBK_5token5CommaEENtNtNtCsieiGu2EXtoJ_4core3ops4drop4Drop4dropBK_, symObjAddr: 0xA620, symBinAddr: 0x43030, symSize: 0x30 }
  - { offset: 0xC0C0A, size: 0x8, addend: 0x0, symName: __RNvXsn_NtCslJiobkLta79_5alloc3vecINtB5_3VecTNtNtCsdGrGZaRBwMb_3syn4data7VariantNtNtBK_5token5CommaEENtNtNtCsieiGu2EXtoJ_4core3ops4drop4Drop4dropBK_, symObjAddr: 0xA680, symBinAddr: 0x43060, symSize: 0x30 }
  - { offset: 0xC0CBA, size: 0x8, addend: 0x0, symName: __RNvXsn_NtCslJiobkLta79_5alloc3vecINtB5_3VecTNtNtCsdGrGZaRBwMb_3syn4expr10FieldValueNtNtBK_5token5CommaEENtNtNtCsieiGu2EXtoJ_4core3ops4drop4Drop4dropBK_, symObjAddr: 0xA6B0, symBinAddr: 0x43090, symSize: 0x30 }
  - { offset: 0xC0D6A, size: 0x8, addend: 0x0, symName: __RNvXsn_NtCslJiobkLta79_5alloc3vecINtB5_3VecTNtNtCsdGrGZaRBwMb_3syn4expr4ExprNtNtBK_5token5CommaEENtNtNtCsieiGu2EXtoJ_4core3ops4drop4Drop4dropBK_, symObjAddr: 0xA6E0, symBinAddr: 0x430C0, symSize: 0x30 }
  - { offset: 0xC0E1A, size: 0x8, addend: 0x0, symName: __RNvXsn_NtCslJiobkLta79_5alloc3vecINtB5_3VecTNtNtCsdGrGZaRBwMb_3syn4item5FnArgNtNtBK_5token5CommaEENtNtNtCsieiGu2EXtoJ_4core3ops4drop4Drop4dropBK_, symObjAddr: 0xA710, symBinAddr: 0x430F0, symSize: 0x30 }
  - { offset: 0xC0ECA, size: 0x8, addend: 0x0, symName: __RNvXsn_NtCslJiobkLta79_5alloc3vecINtB5_3VecTNtNtCsdGrGZaRBwMb_3syn4item7UseTreeNtNtBK_5token5CommaEENtNtNtCsieiGu2EXtoJ_4core3ops4drop4Drop4dropBK_, symObjAddr: 0xA740, symBinAddr: 0x43120, symSize: 0x30 }
  - { offset: 0xC0F7A, size: 0x8, addend: 0x0, symName: __RNvXsn_NtCslJiobkLta79_5alloc3vecINtB5_3VecTNtNtCsdGrGZaRBwMb_3syn4path11PathSegmentNtNtBK_5token7PathSepEENtNtNtCsieiGu2EXtoJ_4core3ops4drop4Drop4dropBK_, symObjAddr: 0xA770, symBinAddr: 0x43150, symSize: 0x30 }
  - { offset: 0xC102A, size: 0x8, addend: 0x0, symName: __RNvXsn_NtCslJiobkLta79_5alloc3vecINtB5_3VecTNtNtCsdGrGZaRBwMb_3syn4path15GenericArgumentNtNtBK_5token5CommaEENtNtNtCsieiGu2EXtoJ_4core3ops4drop4Drop4dropBK_, symObjAddr: 0xA7A0, symBinAddr: 0x43180, symSize: 0x30 }
  - { offset: 0xC10DA, size: 0x8, addend: 0x0, symName: __RNvXsn_NtCslJiobkLta79_5alloc3vecINtB5_3VecTNtNtCsdGrGZaRBwMb_3syn8generics12GenericParamNtNtBK_5token5CommaEENtNtNtCsieiGu2EXtoJ_4core3ops4drop4Drop4dropBK_, symObjAddr: 0xA7D0, symBinAddr: 0x431B0, symSize: 0x30 }
  - { offset: 0xC118A, size: 0x8, addend: 0x0, symName: __RNvXsn_NtCslJiobkLta79_5alloc3vecINtB5_3VecTNtNtCsdGrGZaRBwMb_3syn8generics13CapturedParamNtNtBK_5token5CommaEENtNtNtCsieiGu2EXtoJ_4core3ops4drop4Drop4dropBK_, symObjAddr: 0xA800, symBinAddr: 0x431E0, symSize: 0x30 }
  - { offset: 0xC123A, size: 0x8, addend: 0x0, symName: __RNvXsn_NtCslJiobkLta79_5alloc3vecINtB5_3VecTNtNtCsdGrGZaRBwMb_3syn8generics14TypeParamBoundNtNtBK_5token4PlusEENtNtNtCsieiGu2EXtoJ_4core3ops4drop4Drop4dropBK_, symObjAddr: 0xA830, symBinAddr: 0x43210, symSize: 0x30 }
  - { offset: 0xC12EA, size: 0x8, addend: 0x0, symName: __RNvXsn_NtCslJiobkLta79_5alloc3vecINtB5_3VecTNtNtCsdGrGZaRBwMb_3syn8generics14WherePredicateNtNtBK_5token5CommaEENtNtNtCsieiGu2EXtoJ_4core3ops4drop4Drop4dropBK_, symObjAddr: 0xA860, symBinAddr: 0x43240, symSize: 0x30 }
  - { offset: 0xC139A, size: 0x8, addend: 0x0, symName: __RNvXsn_NtCslJiobkLta79_5alloc3vecINtB5_3VecTNtNtCsdGrGZaRBwMb_3syn8lifetime8LifetimeNtNtBK_5token4PlusEENtNtNtCsieiGu2EXtoJ_4core3ops4drop4Drop4dropBK_, symObjAddr: 0xA890, symBinAddr: 0x43270, symSize: 0x30 }
  - { offset: 0xC1450, size: 0x8, addend: 0x0, symName: __RNvXsp_NtCslJiobkLta79_5alloc3vecINtB5_3VecNtNtCsdGrGZaRBwMb_3syn5error12ErrorMessageENtNtCsieiGu2EXtoJ_4core3fmt5Debug3fmtBJ_, symObjAddr: 0xABD0, symBinAddr: 0x432A0, symSize: 0x70 }
  - { offset: 0xC1560, size: 0x8, addend: 0x0, symName: __RNvXsp_NtCslJiobkLta79_5alloc3vecINtB5_3VechENtNtCsieiGu2EXtoJ_4core3fmt5Debug3fmtCsdGrGZaRBwMb_3syn, symObjAddr: 0xAC40, symBinAddr: 0x43310, symSize: 0x70 }
  - { offset: 0xC39F3, size: 0x8, addend: 0x0, symName: __RNvXsR_NtCslJiobkLta79_5alloc6stringINtNtB7_3vec3VechEINtNtCsieiGu2EXtoJ_4core7convert4FromNtB5_6StringE4fromCsdGrGZaRBwMb_3syn, symObjAddr: 0x87E0, symBinAddr: 0x42020, symSize: 0x20 }
  - { offset: 0xC3C35, size: 0x8, addend: 0x0, symName: __RNvXNvMs_NtNtCslJiobkLta79_5alloc3ffi5c_strNtB7_7CString3newINtNtBb_3vec3VechENtB2_11SpecNewImpl13spec_new_implCsdGrGZaRBwMb_3syn, symObjAddr: 0x7070, symBinAddr: 0x40C80, symSize: 0x200 }
  - { offset: 0xC932B, size: 0x8, addend: 0x0, symName: __RINvMs_NtCslJiobkLta79_5alloc3vecINtB5_3VecReE10retain_mutNCNvMNtCsdGrGZaRBwMb_3syn9lookaheadNtBZ_10Lookahead15error0EB11_, symObjAddr: 0x0, symBinAddr: 0x3B570, symSize: 0x160 }
  - { offset: 0xC9A8A, size: 0x8, addend: 0x0, symName: __RNvMNtCslJiobkLta79_5alloc3vecINtB2_3VecNtNtCsdGrGZaRBwMb_3syn4attr9AttributeE3newBG_, symObjAddr: 0x3C0, symBinAddr: 0x3B8F0, symSize: 0x30 }
  - { offset: 0xC9AD2, size: 0x8, addend: 0x0, symName: __RNvMNtCslJiobkLta79_5alloc3vecINtB2_3VecNtNtCsdGrGZaRBwMb_3syn4expr3ArmE3newBG_, symObjAddr: 0x450, symBinAddr: 0x3B920, symSize: 0x30 }
  - { offset: 0xC9AEF, size: 0x8, addend: 0x0, symName: __RNvMNtCslJiobkLta79_5alloc3vecINtB2_3VecNtNtCsdGrGZaRBwMb_3syn4expr6ExprIfE3newBG_, symObjAddr: 0x480, symBinAddr: 0x3B950, symSize: 0x30 }
  - { offset: 0xC9B0C, size: 0x8, addend: 0x0, symName: __RNvMNtCslJiobkLta79_5alloc3vecINtB2_3VecNtNtCsdGrGZaRBwMb_3syn4item11ForeignItemE3newBG_, symObjAddr: 0x4B0, symBinAddr: 0x3B980, symSize: 0x30 }
  - { offset: 0xC9B29, size: 0x8, addend: 0x0, symName: __RNvMNtCslJiobkLta79_5alloc3vecINtB2_3VecNtNtCsdGrGZaRBwMb_3syn4item4ItemE3newBG_, symObjAddr: 0x4E0, symBinAddr: 0x3B9B0, symSize: 0x30 }
  - { offset: 0xC9B46, size: 0x8, addend: 0x0, symName: __RNvMNtCslJiobkLta79_5alloc3vecINtB2_3VecNtNtCsdGrGZaRBwMb_3syn4item8ImplItemE3newBG_, symObjAddr: 0x510, symBinAddr: 0x3B9E0, symSize: 0x30 }
  - { offset: 0xC9B63, size: 0x8, addend: 0x0, symName: __RNvMNtCslJiobkLta79_5alloc3vecINtB2_3VecNtNtCsdGrGZaRBwMb_3syn4item9TraitItemE3newBG_, symObjAddr: 0x540, symBinAddr: 0x3BA10, symSize: 0x30 }
  - { offset: 0xC9B80, size: 0x8, addend: 0x0, symName: __RNvMNtCslJiobkLta79_5alloc3vecINtB2_3VecNtNtCsdGrGZaRBwMb_3syn4stmt4StmtE3newBG_, symObjAddr: 0x570, symBinAddr: 0x3BA40, symSize: 0x30 }
  - { offset: 0xC9B9D, size: 0x8, addend: 0x0, symName: __RNvMNtCslJiobkLta79_5alloc3vecINtB2_3VecNtNtCsdGrGZaRBwMb_3syn6buffer5EntryE3newBG_, symObjAddr: 0x5A0, symBinAddr: 0x3BA70, symSize: 0x30 }
  - { offset: 0xC9C1C, size: 0x8, addend: 0x0, symName: __RNvMNtCslJiobkLta79_5alloc3vecINtB2_3VecNtNtCsdGrGZaRBwMb_3syn8generics14TypeParamBoundE13with_capacityBG_, symObjAddr: 0x5D0, symBinAddr: 0x3BAA0, symSize: 0x60 }
  - { offset: 0xC9C94, size: 0x8, addend: 0x0, symName: __RNvMNtCslJiobkLta79_5alloc3vecINtB2_3VecReE3newCsdGrGZaRBwMb_3syn, symObjAddr: 0x630, symBinAddr: 0x3BB00, symSize: 0x30 }
  - { offset: 0xC9CB1, size: 0x8, addend: 0x0, symName: __RNvMNtCslJiobkLta79_5alloc3vecINtB2_3VecTNtNtCsdGrGZaRBwMb_3syn2ty4TypeNtNtBH_5token5CommaEE3newBH_, symObjAddr: 0x660, symBinAddr: 0x3BB30, symSize: 0x30 }
  - { offset: 0xC9CCE, size: 0x8, addend: 0x0, symName: __RNvMNtCslJiobkLta79_5alloc3vecINtB2_3VecTNtNtCsdGrGZaRBwMb_3syn2ty9BareFnArgNtNtBH_5token5CommaEE3newBH_, symObjAddr: 0x690, symBinAddr: 0x3BB60, symSize: 0x30 }
  - { offset: 0xC9CEB, size: 0x8, addend: 0x0, symName: __RNvMNtCslJiobkLta79_5alloc3vecINtB2_3VecTNtNtCsdGrGZaRBwMb_3syn3pat3PatNtNtBH_5token2OrEE3newBH_, symObjAddr: 0x6C0, symBinAddr: 0x3BB90, symSize: 0x30 }
  - { offset: 0xC9D08, size: 0x8, addend: 0x0, symName: __RNvMNtCslJiobkLta79_5alloc3vecINtB2_3VecTNtNtCsdGrGZaRBwMb_3syn3pat3PatNtNtBH_5token5CommaEE3newBH_, symObjAddr: 0x6F0, symBinAddr: 0x3BBC0, symSize: 0x30 }
  - { offset: 0xC9D25, size: 0x8, addend: 0x0, symName: __RNvMNtCslJiobkLta79_5alloc3vecINtB2_3VecTNtNtCsdGrGZaRBwMb_3syn3pat8FieldPatNtNtBH_5token5CommaEE3newBH_, symObjAddr: 0x720, symBinAddr: 0x3BBF0, symSize: 0x30 }
  - { offset: 0xC9D42, size: 0x8, addend: 0x0, symName: __RNvMNtCslJiobkLta79_5alloc3vecINtB2_3VecTNtNtCsdGrGZaRBwMb_3syn4data5FieldNtNtBH_5token5CommaEE3newBH_, symObjAddr: 0x750, symBinAddr: 0x3BC20, symSize: 0x30 }
  - { offset: 0xC9D7F, size: 0x8, addend: 0x0, symName: __RNvMNtCslJiobkLta79_5alloc3vecINtB2_3VecTNtNtCsdGrGZaRBwMb_3syn4data7VariantNtNtBH_5token5CommaEE3newBH_, symObjAddr: 0x7B0, symBinAddr: 0x3BC50, symSize: 0x30 }
  - { offset: 0xC9D9C, size: 0x8, addend: 0x0, symName: __RNvMNtCslJiobkLta79_5alloc3vecINtB2_3VecTNtNtCsdGrGZaRBwMb_3syn4expr10FieldValueNtNtBH_5token5CommaEE3newBH_, symObjAddr: 0x7E0, symBinAddr: 0x3BC80, symSize: 0x30 }
  - { offset: 0xC9DB9, size: 0x8, addend: 0x0, symName: __RNvMNtCslJiobkLta79_5alloc3vecINtB2_3VecTNtNtCsdGrGZaRBwMb_3syn4expr4ExprNtNtBH_5token5CommaEE3newBH_, symObjAddr: 0x810, symBinAddr: 0x3BCB0, symSize: 0x30 }
  - { offset: 0xC9DD6, size: 0x8, addend: 0x0, symName: __RNvMNtCslJiobkLta79_5alloc3vecINtB2_3VecTNtNtCsdGrGZaRBwMb_3syn4item5FnArgNtNtBH_5token5CommaEE3newBH_, symObjAddr: 0x840, symBinAddr: 0x3BCE0, symSize: 0x30 }
  - { offset: 0xC9DF3, size: 0x8, addend: 0x0, symName: __RNvMNtCslJiobkLta79_5alloc3vecINtB2_3VecTNtNtCsdGrGZaRBwMb_3syn4item7UseTreeNtNtBH_5token5CommaEE3newBH_, symObjAddr: 0x870, symBinAddr: 0x3BD10, symSize: 0x30 }
  - { offset: 0xC9E10, size: 0x8, addend: 0x0, symName: __RNvMNtCslJiobkLta79_5alloc3vecINtB2_3VecTNtNtCsdGrGZaRBwMb_3syn4path11PathSegmentNtNtBH_5token7PathSepEE3newBH_, symObjAddr: 0x8A0, symBinAddr: 0x3BD40, symSize: 0x30 }
  - { offset: 0xC9E2D, size: 0x8, addend: 0x0, symName: __RNvMNtCslJiobkLta79_5alloc3vecINtB2_3VecTNtNtCsdGrGZaRBwMb_3syn4path15GenericArgumentNtNtBH_5token5CommaEE3newBH_, symObjAddr: 0x8D0, symBinAddr: 0x3BD70, symSize: 0x30 }
  - { offset: 0xC9E4A, size: 0x8, addend: 0x0, symName: __RNvMNtCslJiobkLta79_5alloc3vecINtB2_3VecTNtNtCsdGrGZaRBwMb_3syn8generics12GenericParamNtNtBH_5token5CommaEE3newBH_, symObjAddr: 0x900, symBinAddr: 0x3BDA0, symSize: 0x30 }
  - { offset: 0xC9E67, size: 0x8, addend: 0x0, symName: __RNvMNtCslJiobkLta79_5alloc3vecINtB2_3VecTNtNtCsdGrGZaRBwMb_3syn8generics13CapturedParamNtNtBH_5token5CommaEE3newBH_, symObjAddr: 0x930, symBinAddr: 0x3BDD0, symSize: 0x30 }
  - { offset: 0xC9E84, size: 0x8, addend: 0x0, symName: __RNvMNtCslJiobkLta79_5alloc3vecINtB2_3VecTNtNtCsdGrGZaRBwMb_3syn8generics14TypeParamBoundNtNtBH_5token4PlusEE3newBH_, symObjAddr: 0x960, symBinAddr: 0x3BE00, symSize: 0x30 }
  - { offset: 0xC9EA1, size: 0x8, addend: 0x0, symName: __RNvMNtCslJiobkLta79_5alloc3vecINtB2_3VecTNtNtCsdGrGZaRBwMb_3syn8generics14WherePredicateNtNtBH_5token5CommaEE3newBH_, symObjAddr: 0x990, symBinAddr: 0x3BE30, symSize: 0x30 }
  - { offset: 0xC9EBE, size: 0x8, addend: 0x0, symName: __RNvMNtCslJiobkLta79_5alloc3vecINtB2_3VecTNtNtCsdGrGZaRBwMb_3syn8lifetime8LifetimeNtNtBH_5token4PlusEE3newBH_, symObjAddr: 0x9C0, symBinAddr: 0x3BE60, symSize: 0x30 }
  - { offset: 0xC9EDB, size: 0x8, addend: 0x0, symName: __RNvMNtCslJiobkLta79_5alloc3vecINtB2_3VechE3newCsdGrGZaRBwMb_3syn, symObjAddr: 0x9F0, symBinAddr: 0x3BE90, symSize: 0x30 }
  - { offset: 0xC9FFE, size: 0x8, addend: 0x0, symName: __RNvMs0_NtCslJiobkLta79_5alloc3vecINtB5_3VechE17extend_from_sliceCsdGrGZaRBwMb_3syn, symObjAddr: 0xA20, symBinAddr: 0x3BEC0, symSize: 0x70 }
  - { offset: 0xCA275, size: 0x8, addend: 0x0, symName: __RNvMs0_NtCslJiobkLta79_5alloc3vecINtB5_3VechE6resizeCsdGrGZaRBwMb_3syn, symObjAddr: 0xA90, symBinAddr: 0x3BF30, symSize: 0xE0 }
  - { offset: 0xCA53C, size: 0x8, addend: 0x0, symName: __RNvMs2_NtCslJiobkLta79_5alloc3vecINtB5_3VechE11extend_withCsdGrGZaRBwMb_3syn, symObjAddr: 0xB70, symBinAddr: 0x3C010, symSize: 0x280 }
  - { offset: 0xCA92D, size: 0x8, addend: 0x0, symName: __RNvMs_NtCslJiobkLta79_5alloc3vecINtB4_3VecNtNtCsdGrGZaRBwMb_3syn4attr9AttributeE15append_elementsBI_, symObjAddr: 0xDF0, symBinAddr: 0x3C290, symSize: 0xC0 }
  - { offset: 0xCAACF, size: 0x8, addend: 0x0, symName: __RNvMs_NtCslJiobkLta79_5alloc3vecINtB4_3VecNtNtCsdGrGZaRBwMb_3syn4attr9AttributeE4pushBI_, symObjAddr: 0xEB0, symBinAddr: 0x3C350, symSize: 0x20 }
  - { offset: 0xCAC7D, size: 0x8, addend: 0x0, symName: __RNvMs_NtCslJiobkLta79_5alloc3vecINtB4_3VecNtNtCsdGrGZaRBwMb_3syn4attr9AttributeE6appendBI_, symObjAddr: 0xED0, symBinAddr: 0x3C370, symSize: 0xC0 }
  - { offset: 0xCAF48, size: 0x8, addend: 0x0, symName: __RNvMs_NtCslJiobkLta79_5alloc3vecINtB4_3VecNtNtCsdGrGZaRBwMb_3syn4attr9AttributeE7reserveBI_, symObjAddr: 0xF90, symBinAddr: 0x3C430, symSize: 0xB0 }
  - { offset: 0xCB139, size: 0x8, addend: 0x0, symName: __RNvMs_NtCslJiobkLta79_5alloc3vecINtB4_3VecNtNtCsdGrGZaRBwMb_3syn4attr9AttributeE7set_lenBI_, symObjAddr: 0x1040, symBinAddr: 0x3C4E0, symSize: 0x70 }
  - { offset: 0xCB282, size: 0x8, addend: 0x0, symName: __RNvMs_NtCslJiobkLta79_5alloc3vecINtB4_3VecNtNtCsdGrGZaRBwMb_3syn4attr9AttributeE8as_sliceBI_, symObjAddr: 0x10B0, symBinAddr: 0x3C550, symSize: 0x50 }
  - { offset: 0xCB361, size: 0x8, addend: 0x0, symName: __RNvMs_NtCslJiobkLta79_5alloc3vecINtB4_3VecNtNtCsdGrGZaRBwMb_3syn4attr9AttributeE8is_emptyBI_, symObjAddr: 0x1100, symBinAddr: 0x3C5A0, symSize: 0x20 }
  - { offset: 0xCB4A0, size: 0x8, addend: 0x0, symName: __RNvMs_NtCslJiobkLta79_5alloc3vecINtB4_3VecNtNtCsdGrGZaRBwMb_3syn4attr9AttributeE8push_mutBI_, symObjAddr: 0x1120, symBinAddr: 0x3C5C0, symSize: 0x130 }
  - { offset: 0xCB67C, size: 0x8, addend: 0x0, symName: __RNvMs_NtCslJiobkLta79_5alloc3vecINtB4_3VecNtNtCsdGrGZaRBwMb_3syn4expr3ArmE3lenBI_, symObjAddr: 0x13B0, symBinAddr: 0x3C6F0, symSize: 0x10 }
  - { offset: 0xCB6BE, size: 0x8, addend: 0x0, symName: __RNvMs_NtCslJiobkLta79_5alloc3vecINtB4_3VecNtNtCsdGrGZaRBwMb_3syn4expr3ArmE4pushBI_, symObjAddr: 0x13C0, symBinAddr: 0x3C700, symSize: 0x20 }
  - { offset: 0xCB794, size: 0x8, addend: 0x0, symName: __RNvMs_NtCslJiobkLta79_5alloc3vecINtB4_3VecNtNtCsdGrGZaRBwMb_3syn4expr3ArmE7set_lenBI_, symObjAddr: 0x13E0, symBinAddr: 0x3C720, symSize: 0x70 }
  - { offset: 0xCB91E, size: 0x8, addend: 0x0, symName: __RNvMs_NtCslJiobkLta79_5alloc3vecINtB4_3VecNtNtCsdGrGZaRBwMb_3syn4expr3ArmE8as_sliceBI_, symObjAddr: 0x1450, symBinAddr: 0x3C790, symSize: 0x50 }
  - { offset: 0xCBAC4, size: 0x8, addend: 0x0, symName: __RNvMs_NtCslJiobkLta79_5alloc3vecINtB4_3VecNtNtCsdGrGZaRBwMb_3syn4expr3ArmE8push_mutBI_, symObjAddr: 0x14A0, symBinAddr: 0x3C7E0, symSize: 0x140 }
  - { offset: 0xCBDD3, size: 0x8, addend: 0x0, symName: __RNvMs_NtCslJiobkLta79_5alloc3vecINtB4_3VecNtNtCsdGrGZaRBwMb_3syn4expr6ExprIfE3popBI_, symObjAddr: 0x15E0, symBinAddr: 0x3C920, symSize: 0x120 }
  - { offset: 0xCBF68, size: 0x8, addend: 0x0, symName: __RNvMs_NtCslJiobkLta79_5alloc3vecINtB4_3VecNtNtCsdGrGZaRBwMb_3syn4expr6ExprIfE4pushBI_, symObjAddr: 0x1700, symBinAddr: 0x3CA40, symSize: 0x20 }
  - { offset: 0xCC099, size: 0x8, addend: 0x0, symName: __RNvMs_NtCslJiobkLta79_5alloc3vecINtB4_3VecNtNtCsdGrGZaRBwMb_3syn4expr6ExprIfE8push_mutBI_, symObjAddr: 0x1720, symBinAddr: 0x3CA60, symSize: 0x130 }
  - { offset: 0xCC25B, size: 0x8, addend: 0x0, symName: __RNvMs_NtCslJiobkLta79_5alloc3vecINtB4_3VecNtNtCsdGrGZaRBwMb_3syn4item11ForeignItemE4pushBI_, symObjAddr: 0x1850, symBinAddr: 0x3CB90, symSize: 0x20 }
  - { offset: 0xCC33E, size: 0x8, addend: 0x0, symName: __RNvMs_NtCslJiobkLta79_5alloc3vecINtB4_3VecNtNtCsdGrGZaRBwMb_3syn4item11ForeignItemE7set_lenBI_, symObjAddr: 0x1870, symBinAddr: 0x3CBB0, symSize: 0x70 }
  - { offset: 0xCC51D, size: 0x8, addend: 0x0, symName: __RNvMs_NtCslJiobkLta79_5alloc3vecINtB4_3VecNtNtCsdGrGZaRBwMb_3syn4item11ForeignItemE8push_mutBI_, symObjAddr: 0x18E0, symBinAddr: 0x3CC20, symSize: 0x140 }
  - { offset: 0xCC6DF, size: 0x8, addend: 0x0, symName: __RNvMs_NtCslJiobkLta79_5alloc3vecINtB4_3VecNtNtCsdGrGZaRBwMb_3syn4item4ItemE4pushBI_, symObjAddr: 0x1A20, symBinAddr: 0x3CD60, symSize: 0x20 }
  - { offset: 0xCC7C2, size: 0x8, addend: 0x0, symName: __RNvMs_NtCslJiobkLta79_5alloc3vecINtB4_3VecNtNtCsdGrGZaRBwMb_3syn4item4ItemE7set_lenBI_, symObjAddr: 0x1A40, symBinAddr: 0x3CD80, symSize: 0x70 }
  - { offset: 0xCC9A1, size: 0x8, addend: 0x0, symName: __RNvMs_NtCslJiobkLta79_5alloc3vecINtB4_3VecNtNtCsdGrGZaRBwMb_3syn4item4ItemE8push_mutBI_, symObjAddr: 0x1AB0, symBinAddr: 0x3CDF0, symSize: 0x140 }
  - { offset: 0xCCB63, size: 0x8, addend: 0x0, symName: __RNvMs_NtCslJiobkLta79_5alloc3vecINtB4_3VecNtNtCsdGrGZaRBwMb_3syn4item8ImplItemE4pushBI_, symObjAddr: 0x1BF0, symBinAddr: 0x3CF30, symSize: 0x20 }
  - { offset: 0xCCC46, size: 0x8, addend: 0x0, symName: __RNvMs_NtCslJiobkLta79_5alloc3vecINtB4_3VecNtNtCsdGrGZaRBwMb_3syn4item8ImplItemE7set_lenBI_, symObjAddr: 0x1C10, symBinAddr: 0x3CF50, symSize: 0x70 }
  - { offset: 0xCCE25, size: 0x8, addend: 0x0, symName: __RNvMs_NtCslJiobkLta79_5alloc3vecINtB4_3VecNtNtCsdGrGZaRBwMb_3syn4item8ImplItemE8push_mutBI_, symObjAddr: 0x1C80, symBinAddr: 0x3CFC0, symSize: 0x140 }
  - { offset: 0xCCFE7, size: 0x8, addend: 0x0, symName: __RNvMs_NtCslJiobkLta79_5alloc3vecINtB4_3VecNtNtCsdGrGZaRBwMb_3syn4item9TraitItemE4pushBI_, symObjAddr: 0x1DC0, symBinAddr: 0x3D100, symSize: 0x20 }
  - { offset: 0xCD0CA, size: 0x8, addend: 0x0, symName: __RNvMs_NtCslJiobkLta79_5alloc3vecINtB4_3VecNtNtCsdGrGZaRBwMb_3syn4item9TraitItemE7set_lenBI_, symObjAddr: 0x1DE0, symBinAddr: 0x3D120, symSize: 0x70 }
  - { offset: 0xCD2A9, size: 0x8, addend: 0x0, symName: __RNvMs_NtCslJiobkLta79_5alloc3vecINtB4_3VecNtNtCsdGrGZaRBwMb_3syn4item9TraitItemE8push_mutBI_, symObjAddr: 0x1E50, symBinAddr: 0x3D190, symSize: 0x140 }
  - { offset: 0xCD46B, size: 0x8, addend: 0x0, symName: __RNvMs_NtCslJiobkLta79_5alloc3vecINtB4_3VecNtNtCsdGrGZaRBwMb_3syn4stmt4StmtE4pushBI_, symObjAddr: 0x1F90, symBinAddr: 0x3D2D0, symSize: 0x20 }
  - { offset: 0xCD54E, size: 0x8, addend: 0x0, symName: __RNvMs_NtCslJiobkLta79_5alloc3vecINtB4_3VecNtNtCsdGrGZaRBwMb_3syn4stmt4StmtE7set_lenBI_, symObjAddr: 0x1FB0, symBinAddr: 0x3D2F0, symSize: 0x70 }
  - { offset: 0xCD72D, size: 0x8, addend: 0x0, symName: __RNvMs_NtCslJiobkLta79_5alloc3vecINtB4_3VecNtNtCsdGrGZaRBwMb_3syn4stmt4StmtE8push_mutBI_, symObjAddr: 0x2020, symBinAddr: 0x3D360, symSize: 0x140 }
  - { offset: 0xCDA3F, size: 0x8, addend: 0x0, symName: __RNvMs_NtCslJiobkLta79_5alloc3vecINtB4_3VecNtNtCsdGrGZaRBwMb_3syn5error12ErrorMessageE17from_raw_parts_inBI_, symObjAddr: 0x2220, symBinAddr: 0x3D4A0, symSize: 0xA0 }
  - { offset: 0xCDBC6, size: 0x8, addend: 0x0, symName: __RNvMs_NtCslJiobkLta79_5alloc3vecINtB4_3VecNtNtCsdGrGZaRBwMb_3syn5error12ErrorMessageE3lenBI_, symObjAddr: 0x22C0, symBinAddr: 0x3D540, symSize: 0x10 }
  - { offset: 0xCDD53, size: 0x8, addend: 0x0, symName: __RNvMs_NtCslJiobkLta79_5alloc3vecINtB4_3VecNtNtCsdGrGZaRBwMb_3syn6buffer5EntryE13shrink_to_fitBI_, symObjAddr: 0x2440, symBinAddr: 0x3D550, symSize: 0xE0 }
  - { offset: 0xCDFCD, size: 0x8, addend: 0x0, symName: __RNvMs_NtCslJiobkLta79_5alloc3vecINtB4_3VecNtNtCsdGrGZaRBwMb_3syn6buffer5EntryE16into_boxed_sliceBI_, symObjAddr: 0x2520, symBinAddr: 0x3D630, symSize: 0x160 }
  - { offset: 0xCE19D, size: 0x8, addend: 0x0, symName: __RNvMs_NtCslJiobkLta79_5alloc3vecINtB4_3VecNtNtCsdGrGZaRBwMb_3syn6buffer5EntryE3lenBI_, symObjAddr: 0x2680, symBinAddr: 0x3D790, symSize: 0x10 }
  - { offset: 0xCE1D2, size: 0x8, addend: 0x0, symName: __RNvMs_NtCslJiobkLta79_5alloc3vecINtB4_3VecNtNtCsdGrGZaRBwMb_3syn6buffer5EntryE4pushBI_, symObjAddr: 0x2690, symBinAddr: 0x3D7A0, symSize: 0x20 }
  - { offset: 0xCE310, size: 0x8, addend: 0x0, symName: __RNvMs_NtCslJiobkLta79_5alloc3vecINtB4_3VecNtNtCsdGrGZaRBwMb_3syn6buffer5EntryE8push_mutBI_, symObjAddr: 0x26B0, symBinAddr: 0x3D7C0, symSize: 0x120 }
  - { offset: 0xCE4D2, size: 0x8, addend: 0x0, symName: __RNvMs_NtCslJiobkLta79_5alloc3vecINtB4_3VecNtNtCsdGrGZaRBwMb_3syn8generics14TypeParamBoundE4pushBI_, symObjAddr: 0x27D0, symBinAddr: 0x3D8E0, symSize: 0x20 }
  - { offset: 0xCE62A, size: 0x8, addend: 0x0, symName: __RNvMs_NtCslJiobkLta79_5alloc3vecINtB4_3VecNtNtCsdGrGZaRBwMb_3syn8generics14TypeParamBoundE8push_mutBI_, symObjAddr: 0x27F0, symBinAddr: 0x3D900, symSize: 0x130 }
  - { offset: 0xCE7DF, size: 0x8, addend: 0x0, symName: __RNvMs_NtCslJiobkLta79_5alloc3vecINtB4_3VecReE3lenCsdGrGZaRBwMb_3syn, symObjAddr: 0x2920, symBinAddr: 0x3DA30, symSize: 0x10 }
  - { offset: 0xCE814, size: 0x8, addend: 0x0, symName: __RNvMs_NtCslJiobkLta79_5alloc3vecINtB4_3VecReE4pushCsdGrGZaRBwMb_3syn, symObjAddr: 0x2930, symBinAddr: 0x3DA40, symSize: 0x20 }
  - { offset: 0xCE8EF, size: 0x8, addend: 0x0, symName: __RNvMs_NtCslJiobkLta79_5alloc3vecINtB4_3VecReE8as_sliceCsdGrGZaRBwMb_3syn, symObjAddr: 0x2950, symBinAddr: 0x3DA60, symSize: 0x50 }
  - { offset: 0xCEA88, size: 0x8, addend: 0x0, symName: __RNvMs_NtCslJiobkLta79_5alloc3vecINtB4_3VecReE8push_mutCsdGrGZaRBwMb_3syn, symObjAddr: 0x29A0, symBinAddr: 0x3DAB0, symSize: 0xF0 }
  - { offset: 0xCEC4B, size: 0x8, addend: 0x0, symName: __RNvMs_NtCslJiobkLta79_5alloc3vecINtB4_3VecTNtNtCsdGrGZaRBwMb_3syn2ty4TypeNtNtBJ_5token5CommaEE3lenBJ_, symObjAddr: 0x2A90, symBinAddr: 0x3DBA0, symSize: 0x10 }
  - { offset: 0xCEC8D, size: 0x8, addend: 0x0, symName: __RNvMs_NtCslJiobkLta79_5alloc3vecINtB4_3VecTNtNtCsdGrGZaRBwMb_3syn2ty4TypeNtNtBJ_5token5CommaEE4pushBJ_, symObjAddr: 0x2AA0, symBinAddr: 0x3DBB0, symSize: 0x20 }
  - { offset: 0xCED63, size: 0x8, addend: 0x0, symName: __RNvMs_NtCslJiobkLta79_5alloc3vecINtB4_3VecTNtNtCsdGrGZaRBwMb_3syn2ty4TypeNtNtBJ_5token5CommaEE7set_lenBJ_, symObjAddr: 0x2AC0, symBinAddr: 0x3DBD0, symSize: 0x70 }
  - { offset: 0xCEEED, size: 0x8, addend: 0x0, symName: __RNvMs_NtCslJiobkLta79_5alloc3vecINtB4_3VecTNtNtCsdGrGZaRBwMb_3syn2ty4TypeNtNtBJ_5token5CommaEE8as_sliceBJ_, symObjAddr: 0x2B30, symBinAddr: 0x3DC40, symSize: 0x50 }
  - { offset: 0xCF093, size: 0x8, addend: 0x0, symName: __RNvMs_NtCslJiobkLta79_5alloc3vecINtB4_3VecTNtNtCsdGrGZaRBwMb_3syn2ty4TypeNtNtBJ_5token5CommaEE8push_mutBJ_, symObjAddr: 0x2B80, symBinAddr: 0x3DC90, symSize: 0x140 }
  - { offset: 0xCF255, size: 0x8, addend: 0x0, symName: __RNvMs_NtCslJiobkLta79_5alloc3vecINtB4_3VecTNtNtCsdGrGZaRBwMb_3syn2ty9BareFnArgNtNtBJ_5token5CommaEE3lenBJ_, symObjAddr: 0x2CC0, symBinAddr: 0x3DDD0, symSize: 0x10 }
  - { offset: 0xCF297, size: 0x8, addend: 0x0, symName: __RNvMs_NtCslJiobkLta79_5alloc3vecINtB4_3VecTNtNtCsdGrGZaRBwMb_3syn2ty9BareFnArgNtNtBJ_5token5CommaEE4pushBJ_, symObjAddr: 0x2CD0, symBinAddr: 0x3DDE0, symSize: 0x20 }
  - { offset: 0xCF36D, size: 0x8, addend: 0x0, symName: __RNvMs_NtCslJiobkLta79_5alloc3vecINtB4_3VecTNtNtCsdGrGZaRBwMb_3syn2ty9BareFnArgNtNtBJ_5token5CommaEE7set_lenBJ_, symObjAddr: 0x2CF0, symBinAddr: 0x3DE00, symSize: 0x70 }
  - { offset: 0xCF4F7, size: 0x8, addend: 0x0, symName: __RNvMs_NtCslJiobkLta79_5alloc3vecINtB4_3VecTNtNtCsdGrGZaRBwMb_3syn2ty9BareFnArgNtNtBJ_5token5CommaEE8as_sliceBJ_, symObjAddr: 0x2D60, symBinAddr: 0x3DE70, symSize: 0x50 }
  - { offset: 0xCF69D, size: 0x8, addend: 0x0, symName: __RNvMs_NtCslJiobkLta79_5alloc3vecINtB4_3VecTNtNtCsdGrGZaRBwMb_3syn2ty9BareFnArgNtNtBJ_5token5CommaEE8push_mutBJ_, symObjAddr: 0x2DB0, symBinAddr: 0x3DEC0, symSize: 0x140 }
  - { offset: 0xCF85F, size: 0x8, addend: 0x0, symName: __RNvMs_NtCslJiobkLta79_5alloc3vecINtB4_3VecTNtNtCsdGrGZaRBwMb_3syn3pat3PatNtNtBJ_5token2OrEE4pushBJ_, symObjAddr: 0x2EF0, symBinAddr: 0x3E000, symSize: 0x20 }
  - { offset: 0xCF942, size: 0x8, addend: 0x0, symName: __RNvMs_NtCslJiobkLta79_5alloc3vecINtB4_3VecTNtNtCsdGrGZaRBwMb_3syn3pat3PatNtNtBJ_5token2OrEE7set_lenBJ_, symObjAddr: 0x2F10, symBinAddr: 0x3E020, symSize: 0x70 }
  - { offset: 0xCFACC, size: 0x8, addend: 0x0, symName: __RNvMs_NtCslJiobkLta79_5alloc3vecINtB4_3VecTNtNtCsdGrGZaRBwMb_3syn3pat3PatNtNtBJ_5token2OrEE8as_sliceBJ_, symObjAddr: 0x2F80, symBinAddr: 0x3E090, symSize: 0x50 }
  - { offset: 0xCFC72, size: 0x8, addend: 0x0, symName: __RNvMs_NtCslJiobkLta79_5alloc3vecINtB4_3VecTNtNtCsdGrGZaRBwMb_3syn3pat3PatNtNtBJ_5token2OrEE8push_mutBJ_, symObjAddr: 0x2FD0, symBinAddr: 0x3E0E0, symSize: 0x140 }
  - { offset: 0xCFE34, size: 0x8, addend: 0x0, symName: __RNvMs_NtCslJiobkLta79_5alloc3vecINtB4_3VecTNtNtCsdGrGZaRBwMb_3syn3pat3PatNtNtBJ_5token5CommaEE3lenBJ_, symObjAddr: 0x3110, symBinAddr: 0x3E220, symSize: 0x10 }
  - { offset: 0xCFE76, size: 0x8, addend: 0x0, symName: __RNvMs_NtCslJiobkLta79_5alloc3vecINtB4_3VecTNtNtCsdGrGZaRBwMb_3syn3pat3PatNtNtBJ_5token5CommaEE4pushBJ_, symObjAddr: 0x3120, symBinAddr: 0x3E230, symSize: 0x20 }
  - { offset: 0xCFF4C, size: 0x8, addend: 0x0, symName: __RNvMs_NtCslJiobkLta79_5alloc3vecINtB4_3VecTNtNtCsdGrGZaRBwMb_3syn3pat3PatNtNtBJ_5token5CommaEE7set_lenBJ_, symObjAddr: 0x3140, symBinAddr: 0x3E250, symSize: 0x70 }
  - { offset: 0xD00D6, size: 0x8, addend: 0x0, symName: __RNvMs_NtCslJiobkLta79_5alloc3vecINtB4_3VecTNtNtCsdGrGZaRBwMb_3syn3pat3PatNtNtBJ_5token5CommaEE8as_sliceBJ_, symObjAddr: 0x31B0, symBinAddr: 0x3E2C0, symSize: 0x50 }
  - { offset: 0xD027C, size: 0x8, addend: 0x0, symName: __RNvMs_NtCslJiobkLta79_5alloc3vecINtB4_3VecTNtNtCsdGrGZaRBwMb_3syn3pat3PatNtNtBJ_5token5CommaEE8push_mutBJ_, symObjAddr: 0x3200, symBinAddr: 0x3E310, symSize: 0x140 }
  - { offset: 0xD043E, size: 0x8, addend: 0x0, symName: __RNvMs_NtCslJiobkLta79_5alloc3vecINtB4_3VecTNtNtCsdGrGZaRBwMb_3syn3pat8FieldPatNtNtBJ_5token5CommaEE4pushBJ_, symObjAddr: 0x3340, symBinAddr: 0x3E450, symSize: 0x20 }
  - { offset: 0xD0521, size: 0x8, addend: 0x0, symName: __RNvMs_NtCslJiobkLta79_5alloc3vecINtB4_3VecTNtNtCsdGrGZaRBwMb_3syn3pat8FieldPatNtNtBJ_5token5CommaEE7set_lenBJ_, symObjAddr: 0x3360, symBinAddr: 0x3E470, symSize: 0x70 }
  - { offset: 0xD06AB, size: 0x8, addend: 0x0, symName: __RNvMs_NtCslJiobkLta79_5alloc3vecINtB4_3VecTNtNtCsdGrGZaRBwMb_3syn3pat8FieldPatNtNtBJ_5token5CommaEE8as_sliceBJ_, symObjAddr: 0x33D0, symBinAddr: 0x3E4E0, symSize: 0x50 }
  - { offset: 0xD0851, size: 0x8, addend: 0x0, symName: __RNvMs_NtCslJiobkLta79_5alloc3vecINtB4_3VecTNtNtCsdGrGZaRBwMb_3syn3pat8FieldPatNtNtBJ_5token5CommaEE8push_mutBJ_, symObjAddr: 0x3420, symBinAddr: 0x3E530, symSize: 0x130 }
  - { offset: 0xD0A6E, size: 0x8, addend: 0x0, symName: __RNvMs_NtCslJiobkLta79_5alloc3vecINtB4_3VecTNtNtCsdGrGZaRBwMb_3syn4data5FieldNtNtBJ_5token5CommaEE3lenBJ_, symObjAddr: 0x35A0, symBinAddr: 0x3E660, symSize: 0x10 }
  - { offset: 0xD0AA3, size: 0x8, addend: 0x0, symName: __RNvMs_NtCslJiobkLta79_5alloc3vecINtB4_3VecTNtNtCsdGrGZaRBwMb_3syn4data5FieldNtNtBJ_5token5CommaEE4pushBJ_, symObjAddr: 0x35B0, symBinAddr: 0x3E670, symSize: 0x20 }
  - { offset: 0xD0B6C, size: 0x8, addend: 0x0, symName: __RNvMs_NtCslJiobkLta79_5alloc3vecINtB4_3VecTNtNtCsdGrGZaRBwMb_3syn4data5FieldNtNtBJ_5token5CommaEE7set_lenBJ_, symObjAddr: 0x35D0, symBinAddr: 0x3E690, symSize: 0x70 }
  - { offset: 0xD0CD3, size: 0x8, addend: 0x0, symName: __RNvMs_NtCslJiobkLta79_5alloc3vecINtB4_3VecTNtNtCsdGrGZaRBwMb_3syn4data5FieldNtNtBJ_5token5CommaEE8as_sliceBJ_, symObjAddr: 0x3640, symBinAddr: 0x3E700, symSize: 0x50 }
  - { offset: 0xD0E79, size: 0x8, addend: 0x0, symName: __RNvMs_NtCslJiobkLta79_5alloc3vecINtB4_3VecTNtNtCsdGrGZaRBwMb_3syn4data5FieldNtNtBJ_5token5CommaEE8push_mutBJ_, symObjAddr: 0x3690, symBinAddr: 0x3E750, symSize: 0x140 }
  - { offset: 0xD103B, size: 0x8, addend: 0x0, symName: __RNvMs_NtCslJiobkLta79_5alloc3vecINtB4_3VecTNtNtCsdGrGZaRBwMb_3syn4data7VariantNtNtBJ_5token5CommaEE4pushBJ_, symObjAddr: 0x37E0, symBinAddr: 0x3E890, symSize: 0x20 }
  - { offset: 0xD111E, size: 0x8, addend: 0x0, symName: __RNvMs_NtCslJiobkLta79_5alloc3vecINtB4_3VecTNtNtCsdGrGZaRBwMb_3syn4data7VariantNtNtBJ_5token5CommaEE7set_lenBJ_, symObjAddr: 0x3800, symBinAddr: 0x3E8B0, symSize: 0x70 }
  - { offset: 0xD12A8, size: 0x8, addend: 0x0, symName: __RNvMs_NtCslJiobkLta79_5alloc3vecINtB4_3VecTNtNtCsdGrGZaRBwMb_3syn4data7VariantNtNtBJ_5token5CommaEE8as_sliceBJ_, symObjAddr: 0x3870, symBinAddr: 0x3E920, symSize: 0x50 }
  - { offset: 0xD144E, size: 0x8, addend: 0x0, symName: __RNvMs_NtCslJiobkLta79_5alloc3vecINtB4_3VecTNtNtCsdGrGZaRBwMb_3syn4data7VariantNtNtBJ_5token5CommaEE8push_mutBJ_, symObjAddr: 0x38C0, symBinAddr: 0x3E970, symSize: 0x140 }
  - { offset: 0xD1610, size: 0x8, addend: 0x0, symName: __RNvMs_NtCslJiobkLta79_5alloc3vecINtB4_3VecTNtNtCsdGrGZaRBwMb_3syn4expr10FieldValueNtNtBJ_5token5CommaEE4pushBJ_, symObjAddr: 0x3A00, symBinAddr: 0x3EAB0, symSize: 0x20 }
  - { offset: 0xD16F3, size: 0x8, addend: 0x0, symName: __RNvMs_NtCslJiobkLta79_5alloc3vecINtB4_3VecTNtNtCsdGrGZaRBwMb_3syn4expr10FieldValueNtNtBJ_5token5CommaEE7set_lenBJ_, symObjAddr: 0x3A20, symBinAddr: 0x3EAD0, symSize: 0x70 }
  - { offset: 0xD187D, size: 0x8, addend: 0x0, symName: __RNvMs_NtCslJiobkLta79_5alloc3vecINtB4_3VecTNtNtCsdGrGZaRBwMb_3syn4expr10FieldValueNtNtBJ_5token5CommaEE8as_sliceBJ_, symObjAddr: 0x3A90, symBinAddr: 0x3EB40, symSize: 0x50 }
  - { offset: 0xD1A23, size: 0x8, addend: 0x0, symName: __RNvMs_NtCslJiobkLta79_5alloc3vecINtB4_3VecTNtNtCsdGrGZaRBwMb_3syn4expr10FieldValueNtNtBJ_5token5CommaEE8push_mutBJ_, symObjAddr: 0x3AE0, symBinAddr: 0x3EB90, symSize: 0x140 }
  - { offset: 0xD1BE5, size: 0x8, addend: 0x0, symName: __RNvMs_NtCslJiobkLta79_5alloc3vecINtB4_3VecTNtNtCsdGrGZaRBwMb_3syn4expr4ExprNtNtBJ_5token5CommaEE3lenBJ_, symObjAddr: 0x3C20, symBinAddr: 0x3ECD0, symSize: 0x10 }
  - { offset: 0xD1C27, size: 0x8, addend: 0x0, symName: __RNvMs_NtCslJiobkLta79_5alloc3vecINtB4_3VecTNtNtCsdGrGZaRBwMb_3syn4expr4ExprNtNtBJ_5token5CommaEE4pushBJ_, symObjAddr: 0x3C30, symBinAddr: 0x3ECE0, symSize: 0x20 }
  - { offset: 0xD1CFD, size: 0x8, addend: 0x0, symName: __RNvMs_NtCslJiobkLta79_5alloc3vecINtB4_3VecTNtNtCsdGrGZaRBwMb_3syn4expr4ExprNtNtBJ_5token5CommaEE7set_lenBJ_, symObjAddr: 0x3C50, symBinAddr: 0x3ED00, symSize: 0x70 }
  - { offset: 0xD1E87, size: 0x8, addend: 0x0, symName: __RNvMs_NtCslJiobkLta79_5alloc3vecINtB4_3VecTNtNtCsdGrGZaRBwMb_3syn4expr4ExprNtNtBJ_5token5CommaEE8as_sliceBJ_, symObjAddr: 0x3CC0, symBinAddr: 0x3ED70, symSize: 0x50 }
  - { offset: 0xD202D, size: 0x8, addend: 0x0, symName: __RNvMs_NtCslJiobkLta79_5alloc3vecINtB4_3VecTNtNtCsdGrGZaRBwMb_3syn4expr4ExprNtNtBJ_5token5CommaEE8push_mutBJ_, symObjAddr: 0x3D10, symBinAddr: 0x3EDC0, symSize: 0x140 }
  - { offset: 0xD21EF, size: 0x8, addend: 0x0, symName: __RNvMs_NtCslJiobkLta79_5alloc3vecINtB4_3VecTNtNtCsdGrGZaRBwMb_3syn4item5FnArgNtNtBJ_5token5CommaEE3lenBJ_, symObjAddr: 0x3E50, symBinAddr: 0x3EF00, symSize: 0x10 }
  - { offset: 0xD2231, size: 0x8, addend: 0x0, symName: __RNvMs_NtCslJiobkLta79_5alloc3vecINtB4_3VecTNtNtCsdGrGZaRBwMb_3syn4item5FnArgNtNtBJ_5token5CommaEE4pushBJ_, symObjAddr: 0x3E60, symBinAddr: 0x3EF10, symSize: 0x20 }
  - { offset: 0xD2307, size: 0x8, addend: 0x0, symName: __RNvMs_NtCslJiobkLta79_5alloc3vecINtB4_3VecTNtNtCsdGrGZaRBwMb_3syn4item5FnArgNtNtBJ_5token5CommaEE7set_lenBJ_, symObjAddr: 0x3E80, symBinAddr: 0x3EF30, symSize: 0x70 }
  - { offset: 0xD2491, size: 0x8, addend: 0x0, symName: __RNvMs_NtCslJiobkLta79_5alloc3vecINtB4_3VecTNtNtCsdGrGZaRBwMb_3syn4item5FnArgNtNtBJ_5token5CommaEE8as_sliceBJ_, symObjAddr: 0x3EF0, symBinAddr: 0x3EFA0, symSize: 0x50 }
  - { offset: 0xD2637, size: 0x8, addend: 0x0, symName: __RNvMs_NtCslJiobkLta79_5alloc3vecINtB4_3VecTNtNtCsdGrGZaRBwMb_3syn4item5FnArgNtNtBJ_5token5CommaEE8push_mutBJ_, symObjAddr: 0x3F40, symBinAddr: 0x3EFF0, symSize: 0x130 }
  - { offset: 0xD27F9, size: 0x8, addend: 0x0, symName: __RNvMs_NtCslJiobkLta79_5alloc3vecINtB4_3VecTNtNtCsdGrGZaRBwMb_3syn4item7UseTreeNtNtBJ_5token5CommaEE4pushBJ_, symObjAddr: 0x4070, symBinAddr: 0x3F120, symSize: 0x20 }
  - { offset: 0xD28DC, size: 0x8, addend: 0x0, symName: __RNvMs_NtCslJiobkLta79_5alloc3vecINtB4_3VecTNtNtCsdGrGZaRBwMb_3syn4item7UseTreeNtNtBJ_5token5CommaEE7set_lenBJ_, symObjAddr: 0x4090, symBinAddr: 0x3F140, symSize: 0x70 }
  - { offset: 0xD2A66, size: 0x8, addend: 0x0, symName: __RNvMs_NtCslJiobkLta79_5alloc3vecINtB4_3VecTNtNtCsdGrGZaRBwMb_3syn4item7UseTreeNtNtBJ_5token5CommaEE8as_sliceBJ_, symObjAddr: 0x4100, symBinAddr: 0x3F1B0, symSize: 0x50 }
  - { offset: 0xD2C0C, size: 0x8, addend: 0x0, symName: __RNvMs_NtCslJiobkLta79_5alloc3vecINtB4_3VecTNtNtCsdGrGZaRBwMb_3syn4item7UseTreeNtNtBJ_5token5CommaEE8push_mutBJ_, symObjAddr: 0x4150, symBinAddr: 0x3F200, symSize: 0x130 }
  - { offset: 0xD2E9C, size: 0x8, addend: 0x0, symName: __RNvMs_NtCslJiobkLta79_5alloc3vecINtB4_3VecTNtNtCsdGrGZaRBwMb_3syn4path11PathSegmentNtNtBJ_5token7PathSepEE12as_mut_sliceBJ_, symObjAddr: 0x4280, symBinAddr: 0x3F330, symSize: 0x50 }
  - { offset: 0xD2F78, size: 0x8, addend: 0x0, symName: __RNvMs_NtCslJiobkLta79_5alloc3vecINtB4_3VecTNtNtCsdGrGZaRBwMb_3syn4path11PathSegmentNtNtBJ_5token7PathSepEE3lenBJ_, symObjAddr: 0x42D0, symBinAddr: 0x3F380, symSize: 0x10 }
  - { offset: 0xD30C6, size: 0x8, addend: 0x0, symName: __RNvMs_NtCslJiobkLta79_5alloc3vecINtB4_3VecTNtNtCsdGrGZaRBwMb_3syn4path11PathSegmentNtNtBJ_5token7PathSepEE3popBJ_, symObjAddr: 0x42E0, symBinAddr: 0x3F390, symSize: 0x120 }
  - { offset: 0xD325B, size: 0x8, addend: 0x0, symName: __RNvMs_NtCslJiobkLta79_5alloc3vecINtB4_3VecTNtNtCsdGrGZaRBwMb_3syn4path11PathSegmentNtNtBJ_5token7PathSepEE4pushBJ_, symObjAddr: 0x4400, symBinAddr: 0x3F4B0, symSize: 0x20 }
  - { offset: 0xD3324, size: 0x8, addend: 0x0, symName: __RNvMs_NtCslJiobkLta79_5alloc3vecINtB4_3VecTNtNtCsdGrGZaRBwMb_3syn4path11PathSegmentNtNtBJ_5token7PathSepEE7set_lenBJ_, symObjAddr: 0x4420, symBinAddr: 0x3F4D0, symSize: 0x70 }
  - { offset: 0xD348B, size: 0x8, addend: 0x0, symName: __RNvMs_NtCslJiobkLta79_5alloc3vecINtB4_3VecTNtNtCsdGrGZaRBwMb_3syn4path11PathSegmentNtNtBJ_5token7PathSepEE8as_sliceBJ_, symObjAddr: 0x4490, symBinAddr: 0x3F540, symSize: 0x50 }
  - { offset: 0xD3631, size: 0x8, addend: 0x0, symName: __RNvMs_NtCslJiobkLta79_5alloc3vecINtB4_3VecTNtNtCsdGrGZaRBwMb_3syn4path11PathSegmentNtNtBJ_5token7PathSepEE8push_mutBJ_, symObjAddr: 0x44E0, symBinAddr: 0x3F590, symSize: 0x130 }
  - { offset: 0xD37F3, size: 0x8, addend: 0x0, symName: __RNvMs_NtCslJiobkLta79_5alloc3vecINtB4_3VecTNtNtCsdGrGZaRBwMb_3syn4path15GenericArgumentNtNtBJ_5token5CommaEE3lenBJ_, symObjAddr: 0x4610, symBinAddr: 0x3F6C0, symSize: 0x10 }
  - { offset: 0xD3835, size: 0x8, addend: 0x0, symName: __RNvMs_NtCslJiobkLta79_5alloc3vecINtB4_3VecTNtNtCsdGrGZaRBwMb_3syn4path15GenericArgumentNtNtBJ_5token5CommaEE4pushBJ_, symObjAddr: 0x4620, symBinAddr: 0x3F6D0, symSize: 0x20 }
  - { offset: 0xD390B, size: 0x8, addend: 0x0, symName: __RNvMs_NtCslJiobkLta79_5alloc3vecINtB4_3VecTNtNtCsdGrGZaRBwMb_3syn4path15GenericArgumentNtNtBJ_5token5CommaEE7set_lenBJ_, symObjAddr: 0x4640, symBinAddr: 0x3F6F0, symSize: 0x70 }
  - { offset: 0xD3A95, size: 0x8, addend: 0x0, symName: __RNvMs_NtCslJiobkLta79_5alloc3vecINtB4_3VecTNtNtCsdGrGZaRBwMb_3syn4path15GenericArgumentNtNtBJ_5token5CommaEE8as_sliceBJ_, symObjAddr: 0x46B0, symBinAddr: 0x3F760, symSize: 0x50 }
  - { offset: 0xD3C3B, size: 0x8, addend: 0x0, symName: __RNvMs_NtCslJiobkLta79_5alloc3vecINtB4_3VecTNtNtCsdGrGZaRBwMb_3syn4path15GenericArgumentNtNtBJ_5token5CommaEE8push_mutBJ_, symObjAddr: 0x4700, symBinAddr: 0x3F7B0, symSize: 0x140 }
  - { offset: 0xD3E58, size: 0x8, addend: 0x0, symName: __RNvMs_NtCslJiobkLta79_5alloc3vecINtB4_3VecTNtNtCsdGrGZaRBwMb_3syn8generics12GenericParamNtNtBJ_5token5CommaEE3lenBJ_, symObjAddr: 0x4890, symBinAddr: 0x3F8F0, symSize: 0x10 }
  - { offset: 0xD3E8D, size: 0x8, addend: 0x0, symName: __RNvMs_NtCslJiobkLta79_5alloc3vecINtB4_3VecTNtNtCsdGrGZaRBwMb_3syn8generics12GenericParamNtNtBJ_5token5CommaEE4pushBJ_, symObjAddr: 0x48A0, symBinAddr: 0x3F900, symSize: 0x20 }
  - { offset: 0xD3F56, size: 0x8, addend: 0x0, symName: __RNvMs_NtCslJiobkLta79_5alloc3vecINtB4_3VecTNtNtCsdGrGZaRBwMb_3syn8generics12GenericParamNtNtBJ_5token5CommaEE7set_lenBJ_, symObjAddr: 0x48C0, symBinAddr: 0x3F920, symSize: 0x70 }
  - { offset: 0xD40BD, size: 0x8, addend: 0x0, symName: __RNvMs_NtCslJiobkLta79_5alloc3vecINtB4_3VecTNtNtCsdGrGZaRBwMb_3syn8generics12GenericParamNtNtBJ_5token5CommaEE8as_sliceBJ_, symObjAddr: 0x4930, symBinAddr: 0x3F990, symSize: 0x50 }
  - { offset: 0xD4263, size: 0x8, addend: 0x0, symName: __RNvMs_NtCslJiobkLta79_5alloc3vecINtB4_3VecTNtNtCsdGrGZaRBwMb_3syn8generics12GenericParamNtNtBJ_5token5CommaEE8push_mutBJ_, symObjAddr: 0x4980, symBinAddr: 0x3F9E0, symSize: 0x140 }
  - { offset: 0xD4425, size: 0x8, addend: 0x0, symName: __RNvMs_NtCslJiobkLta79_5alloc3vecINtB4_3VecTNtNtCsdGrGZaRBwMb_3syn8generics13CapturedParamNtNtBJ_5token5CommaEE4pushBJ_, symObjAddr: 0x4AC0, symBinAddr: 0x3FB20, symSize: 0x20 }
  - { offset: 0xD4508, size: 0x8, addend: 0x0, symName: __RNvMs_NtCslJiobkLta79_5alloc3vecINtB4_3VecTNtNtCsdGrGZaRBwMb_3syn8generics13CapturedParamNtNtBJ_5token5CommaEE7set_lenBJ_, symObjAddr: 0x4AE0, symBinAddr: 0x3FB40, symSize: 0x70 }
  - { offset: 0xD4692, size: 0x8, addend: 0x0, symName: __RNvMs_NtCslJiobkLta79_5alloc3vecINtB4_3VecTNtNtCsdGrGZaRBwMb_3syn8generics13CapturedParamNtNtBJ_5token5CommaEE8as_sliceBJ_, symObjAddr: 0x4B50, symBinAddr: 0x3FBB0, symSize: 0x50 }
  - { offset: 0xD4838, size: 0x8, addend: 0x0, symName: __RNvMs_NtCslJiobkLta79_5alloc3vecINtB4_3VecTNtNtCsdGrGZaRBwMb_3syn8generics13CapturedParamNtNtBJ_5token5CommaEE8push_mutBJ_, symObjAddr: 0x4BA0, symBinAddr: 0x3FC00, symSize: 0x130 }
  - { offset: 0xD49FA, size: 0x8, addend: 0x0, symName: __RNvMs_NtCslJiobkLta79_5alloc3vecINtB4_3VecTNtNtCsdGrGZaRBwMb_3syn8generics14TypeParamBoundNtNtBJ_5token4PlusEE3lenBJ_, symObjAddr: 0x4CD0, symBinAddr: 0x3FD30, symSize: 0x10 }
  - { offset: 0xD4A3C, size: 0x8, addend: 0x0, symName: __RNvMs_NtCslJiobkLta79_5alloc3vecINtB4_3VecTNtNtCsdGrGZaRBwMb_3syn8generics14TypeParamBoundNtNtBJ_5token4PlusEE4pushBJ_, symObjAddr: 0x4CE0, symBinAddr: 0x3FD40, symSize: 0x20 }
  - { offset: 0xD4B12, size: 0x8, addend: 0x0, symName: __RNvMs_NtCslJiobkLta79_5alloc3vecINtB4_3VecTNtNtCsdGrGZaRBwMb_3syn8generics14TypeParamBoundNtNtBJ_5token4PlusEE7set_lenBJ_, symObjAddr: 0x4D00, symBinAddr: 0x3FD60, symSize: 0x70 }
  - { offset: 0xD4C9C, size: 0x8, addend: 0x0, symName: __RNvMs_NtCslJiobkLta79_5alloc3vecINtB4_3VecTNtNtCsdGrGZaRBwMb_3syn8generics14TypeParamBoundNtNtBJ_5token4PlusEE8as_sliceBJ_, symObjAddr: 0x4D70, symBinAddr: 0x3FDD0, symSize: 0x50 }
  - { offset: 0xD4E42, size: 0x8, addend: 0x0, symName: __RNvMs_NtCslJiobkLta79_5alloc3vecINtB4_3VecTNtNtCsdGrGZaRBwMb_3syn8generics14TypeParamBoundNtNtBJ_5token4PlusEE8push_mutBJ_, symObjAddr: 0x4DC0, symBinAddr: 0x3FE20, symSize: 0x130 }
  - { offset: 0xD5004, size: 0x8, addend: 0x0, symName: __RNvMs_NtCslJiobkLta79_5alloc3vecINtB4_3VecTNtNtCsdGrGZaRBwMb_3syn8generics14WherePredicateNtNtBJ_5token5CommaEE3lenBJ_, symObjAddr: 0x4EF0, symBinAddr: 0x3FF50, symSize: 0x10 }
  - { offset: 0xD5046, size: 0x8, addend: 0x0, symName: __RNvMs_NtCslJiobkLta79_5alloc3vecINtB4_3VecTNtNtCsdGrGZaRBwMb_3syn8generics14WherePredicateNtNtBJ_5token5CommaEE4pushBJ_, symObjAddr: 0x4F00, symBinAddr: 0x3FF60, symSize: 0x20 }
  - { offset: 0xD511C, size: 0x8, addend: 0x0, symName: __RNvMs_NtCslJiobkLta79_5alloc3vecINtB4_3VecTNtNtCsdGrGZaRBwMb_3syn8generics14WherePredicateNtNtBJ_5token5CommaEE7set_lenBJ_, symObjAddr: 0x4F20, symBinAddr: 0x3FF80, symSize: 0x70 }
  - { offset: 0xD52A6, size: 0x8, addend: 0x0, symName: __RNvMs_NtCslJiobkLta79_5alloc3vecINtB4_3VecTNtNtCsdGrGZaRBwMb_3syn8generics14WherePredicateNtNtBJ_5token5CommaEE8as_sliceBJ_, symObjAddr: 0x4F90, symBinAddr: 0x3FFF0, symSize: 0x50 }
  - { offset: 0xD544C, size: 0x8, addend: 0x0, symName: __RNvMs_NtCslJiobkLta79_5alloc3vecINtB4_3VecTNtNtCsdGrGZaRBwMb_3syn8generics14WherePredicateNtNtBJ_5token5CommaEE8push_mutBJ_, symObjAddr: 0x4FE0, symBinAddr: 0x40040, symSize: 0x140 }
  - { offset: 0xD560E, size: 0x8, addend: 0x0, symName: __RNvMs_NtCslJiobkLta79_5alloc3vecINtB4_3VecTNtNtCsdGrGZaRBwMb_3syn8lifetime8LifetimeNtNtBJ_5token4PlusEE3lenBJ_, symObjAddr: 0x5120, symBinAddr: 0x40180, symSize: 0x10 }
  - { offset: 0xD5650, size: 0x8, addend: 0x0, symName: __RNvMs_NtCslJiobkLta79_5alloc3vecINtB4_3VecTNtNtCsdGrGZaRBwMb_3syn8lifetime8LifetimeNtNtBJ_5token4PlusEE4pushBJ_, symObjAddr: 0x5130, symBinAddr: 0x40190, symSize: 0x20 }
  - { offset: 0xD5726, size: 0x8, addend: 0x0, symName: __RNvMs_NtCslJiobkLta79_5alloc3vecINtB4_3VecTNtNtCsdGrGZaRBwMb_3syn8lifetime8LifetimeNtNtBJ_5token4PlusEE7set_lenBJ_, symObjAddr: 0x5150, symBinAddr: 0x401B0, symSize: 0x70 }
  - { offset: 0xD58B0, size: 0x8, addend: 0x0, symName: __RNvMs_NtCslJiobkLta79_5alloc3vecINtB4_3VecTNtNtCsdGrGZaRBwMb_3syn8lifetime8LifetimeNtNtBJ_5token4PlusEE8as_sliceBJ_, symObjAddr: 0x51C0, symBinAddr: 0x40220, symSize: 0x50 }
  - { offset: 0xD5A56, size: 0x8, addend: 0x0, symName: __RNvMs_NtCslJiobkLta79_5alloc3vecINtB4_3VecTNtNtCsdGrGZaRBwMb_3syn8lifetime8LifetimeNtNtBJ_5token4PlusEE8push_mutBJ_, symObjAddr: 0x5210, symBinAddr: 0x40270, symSize: 0x130 }
  - { offset: 0xD5D11, size: 0x8, addend: 0x0, symName: __RNvMs_NtCslJiobkLta79_5alloc3vecINtB4_3VechE13shrink_to_fitCsdGrGZaRBwMb_3syn, symObjAddr: 0x5340, symBinAddr: 0x403A0, symSize: 0xE0 }
  - { offset: 0xD5F46, size: 0x8, addend: 0x0, symName: __RNvMs_NtCslJiobkLta79_5alloc3vecINtB4_3VechE16into_boxed_sliceCsdGrGZaRBwMb_3syn, symObjAddr: 0x5420, symBinAddr: 0x40480, symSize: 0x160 }
  - { offset: 0xD6116, size: 0x8, addend: 0x0, symName: __RNvMs_NtCslJiobkLta79_5alloc3vecINtB4_3VechE3lenCsdGrGZaRBwMb_3syn, symObjAddr: 0x5580, symBinAddr: 0x405E0, symSize: 0x10 }
  - { offset: 0xD614B, size: 0x8, addend: 0x0, symName: __RNvMs_NtCslJiobkLta79_5alloc3vecINtB4_3VechE4pushCsdGrGZaRBwMb_3syn, symObjAddr: 0x5590, symBinAddr: 0x405F0, symSize: 0x20 }
  - { offset: 0xD61FF, size: 0x8, addend: 0x0, symName: __RNvMs_NtCslJiobkLta79_5alloc3vecINtB4_3VechE8as_sliceCsdGrGZaRBwMb_3syn, symObjAddr: 0x55B0, symBinAddr: 0x40610, symSize: 0x50 }
  - { offset: 0xD63A5, size: 0x8, addend: 0x0, symName: __RNvMs_NtCslJiobkLta79_5alloc3vecINtB4_3VechE8push_mutCsdGrGZaRBwMb_3syn, symObjAddr: 0x5600, symBinAddr: 0x40660, symSize: 0xC0 }
  - { offset: 0xD6794, size: 0x8, addend: 0x0, symName: __RNvMs_NtCslJiobkLta79_5alloc3vecINtB4_3VechE9split_offCsdGrGZaRBwMb_3syn, symObjAddr: 0x56C0, symBinAddr: 0x40720, symSize: 0x290 }
  - { offset: 0xDACAF, size: 0x8, addend: 0x0, symName: __RINvXNvMNtCslJiobkLta79_5alloc5sliceSp9to_vec_inNtNtCsdGrGZaRBwMb_3syn4expr3ArmNtB3_10ConvertVec6to_vecNtNtB8_5alloc6GlobalEBO_, symObjAddr: 0x0, symBinAddr: 0x43380, symSize: 0x490 }
  - { offset: 0xDC01D, size: 0x8, addend: 0x0, symName: __RINvXNvMNtCslJiobkLta79_5alloc5sliceSp9to_vec_inNtNtCsdGrGZaRBwMb_3syn4expr3ArmNtB3_10ConvertVec6to_vecNtNtB8_5alloc6GlobalEBO_, symObjAddr: 0x0, symBinAddr: 0x43380, symSize: 0x490 }
  - { offset: 0xDC571, size: 0x8, addend: 0x0, symName: __RINvXNvMNtCslJiobkLta79_5alloc5sliceSp9to_vec_inTNtNtCsdGrGZaRBwMb_3syn4expr10FieldValueNtNtBP_5token5CommaENtB3_10ConvertVec6to_vecNtNtB8_5alloc6GlobalEBP_, symObjAddr: 0x490, symBinAddr: 0x43810, symSize: 0x490 }
  - { offset: 0xDCAC5, size: 0x8, addend: 0x0, symName: __RINvXNvMNtCslJiobkLta79_5alloc5sliceSp9to_vec_inTNtNtCsdGrGZaRBwMb_3syn4expr4ExprNtNtBP_5token5CommaENtB3_10ConvertVec6to_vecNtNtB8_5alloc6GlobalEBP_, symObjAddr: 0x920, symBinAddr: 0x43CA0, symSize: 0x490 }
  - { offset: 0xDFB9A, size: 0x8, addend: 0x0, symName: __RNcNtNtNtCsdGrGZaRBwMb_3syn4expr11RangeLimits6Closed0B7_, symObjAddr: 0xDB0, symBinAddr: 0x44130, symSize: 0x20 }
  - { offset: 0xDFBCA, size: 0x8, addend: 0x0, symName: __RNcNtNtNtCsdGrGZaRBwMb_3syn4expr11RangeLimits8HalfOpen0B7_, symObjAddr: 0xDD0, symBinAddr: 0x44150, symSize: 0x30 }
  - { offset: 0xDFC00, size: 0x8, addend: 0x0, symName: __RNcNtNtNtCsdGrGZaRBwMb_3syn4expr4Expr2If0B7_, symObjAddr: 0xE00, symBinAddr: 0x44180, symSize: 0x40 }
  - { offset: 0xDFC2F, size: 0x8, addend: 0x0, symName: __RNcNtNtNtCsdGrGZaRBwMb_3syn4expr4Expr3Let0B7_, symObjAddr: 0xE40, symBinAddr: 0x441C0, symSize: 0x40 }
  - { offset: 0xDFC5E, size: 0x8, addend: 0x0, symName: __RNcNtNtNtCsdGrGZaRBwMb_3syn4expr4Expr3Lit0B7_, symObjAddr: 0xE80, symBinAddr: 0x44200, symSize: 0x40 }
  - { offset: 0xDFC8D, size: 0x8, addend: 0x0, symName: __RNcNtNtNtCsdGrGZaRBwMb_3syn4expr4Expr4Loop0B7_, symObjAddr: 0xEC0, symBinAddr: 0x44240, symSize: 0x40 }
  - { offset: 0xDFCBC, size: 0x8, addend: 0x0, symName: __RNcNtNtNtCsdGrGZaRBwMb_3syn4expr4Expr5Async0B7_, symObjAddr: 0xF00, symBinAddr: 0x44280, symSize: 0x40 }
  - { offset: 0xDFCEB, size: 0x8, addend: 0x0, symName: __RNcNtNtNtCsdGrGZaRBwMb_3syn4expr4Expr5Block0B7_, symObjAddr: 0xF40, symBinAddr: 0x442C0, symSize: 0x40 }
  - { offset: 0xDFD1A, size: 0x8, addend: 0x0, symName: __RNcNtNtNtCsdGrGZaRBwMb_3syn4expr4Expr5Break0B7_, symObjAddr: 0xF80, symBinAddr: 0x44300, symSize: 0x40 }
  - { offset: 0xDFD49, size: 0x8, addend: 0x0, symName: __RNcNtNtNtCsdGrGZaRBwMb_3syn4expr4Expr5Const0B7_, symObjAddr: 0xFC0, symBinAddr: 0x44340, symSize: 0x40 }
  - { offset: 0xDFD78, size: 0x8, addend: 0x0, symName: __RNcNtNtNtCsdGrGZaRBwMb_3syn4expr4Expr5Infer0B7_, symObjAddr: 0x1000, symBinAddr: 0x44380, symSize: 0x30 }
  - { offset: 0xDFDA6, size: 0x8, addend: 0x0, symName: __RNcNtNtNtCsdGrGZaRBwMb_3syn4expr4Expr5Match0B7_, symObjAddr: 0x1030, symBinAddr: 0x443B0, symSize: 0x40 }
  - { offset: 0xDFDD5, size: 0x8, addend: 0x0, symName: __RNcNtNtNtCsdGrGZaRBwMb_3syn4expr4Expr5Range0B7_, symObjAddr: 0x1070, symBinAddr: 0x443F0, symSize: 0x40 }
  - { offset: 0xDFE04, size: 0x8, addend: 0x0, symName: __RNcNtNtNtCsdGrGZaRBwMb_3syn4expr4Expr5Unary0B7_, symObjAddr: 0x10B0, symBinAddr: 0x44430, symSize: 0x40 }
  - { offset: 0xDFE33, size: 0x8, addend: 0x0, symName: __RNcNtNtNtCsdGrGZaRBwMb_3syn4expr4Expr5While0B7_, symObjAddr: 0x10F0, symBinAddr: 0x44470, symSize: 0x40 }
  - { offset: 0xDFE62, size: 0x8, addend: 0x0, symName: __RNcNtNtNtCsdGrGZaRBwMb_3syn4expr4Expr5Yield0B7_, symObjAddr: 0x1130, symBinAddr: 0x444B0, symSize: 0x40 }
  - { offset: 0xDFE91, size: 0x8, addend: 0x0, symName: __RNcNtNtNtCsdGrGZaRBwMb_3syn4expr4Expr6Return0B7_, symObjAddr: 0x1170, symBinAddr: 0x444F0, symSize: 0x40 }
  - { offset: 0xDFEC0, size: 0x8, addend: 0x0, symName: __RNcNtNtNtCsdGrGZaRBwMb_3syn4expr4Expr6Struct0B7_, symObjAddr: 0x11B0, symBinAddr: 0x44530, symSize: 0x40 }
  - { offset: 0xDFEEF, size: 0x8, addend: 0x0, symName: __RNcNtNtNtCsdGrGZaRBwMb_3syn4expr4Expr6Unsafe0B7_, symObjAddr: 0x11F0, symBinAddr: 0x44570, symSize: 0x40 }
  - { offset: 0xDFF1E, size: 0x8, addend: 0x0, symName: __RNcNtNtNtCsdGrGZaRBwMb_3syn4expr4Expr7Closure0B7_, symObjAddr: 0x1230, symBinAddr: 0x445B0, symSize: 0x40 }
  - { offset: 0xDFF4D, size: 0x8, addend: 0x0, symName: __RNcNtNtNtCsdGrGZaRBwMb_3syn4expr4Expr7ForLoop0B7_, symObjAddr: 0x1270, symBinAddr: 0x445F0, symSize: 0x40 }
  - { offset: 0xDFF7C, size: 0x8, addend: 0x0, symName: __RNcNtNtNtCsdGrGZaRBwMb_3syn4expr4Expr8Continue0B7_, symObjAddr: 0x12B0, symBinAddr: 0x44630, symSize: 0x40 }
  - { offset: 0xDFFAB, size: 0x8, addend: 0x0, symName: __RNcNtNtNtCsdGrGZaRBwMb_3syn4expr4Expr8TryBlock0B7_, symObjAddr: 0x12F0, symBinAddr: 0x44670, symSize: 0x40 }
  - { offset: 0xDFFE0, size: 0x8, addend: 0x0, symName: __RNcNtNtNtCsdGrGZaRBwMb_3syn4expr6Member5Named0B7_, symObjAddr: 0x1330, symBinAddr: 0x446B0, symSize: 0x20 }
  - { offset: 0xE0010, size: 0x8, addend: 0x0, symName: __RNcNtNtNtCsdGrGZaRBwMb_3syn4expr6Member7Unnamed0B7_, symObjAddr: 0x1350, symBinAddr: 0x446D0, symSize: 0x20 }
  - { offset: 0xE0046, size: 0x8, addend: 0x0, symName: __RNvXNtNtCsdGrGZaRBwMb_3syn4expr7parsingNtB4_4ExprNtNtB6_5parse5Parse5parse, symObjAddr: 0x42A0, symBinAddr: 0x455D0, symSize: 0x30 }
  - { offset: 0xE007A, size: 0x8, addend: 0x0, symName: __RNvXs4_NtNtCsdGrGZaRBwMb_3syn4expr7parsingNtB7_7ExprLitNtNtB9_5parse5Parse5parse, symObjAddr: 0x78B0, symBinAddr: 0x45E10, symSize: 0x190 }
  - { offset: 0xE00CD, size: 0x8, addend: 0x0, symName: __RNvXs7_NtNtCsdGrGZaRBwMb_3syn4expr7parsingNtB7_6ExprIfNtNtB9_5parse5Parse5parse, symObjAddr: 0x8100, symBinAddr: 0x46060, symSize: 0x1460 }
  - { offset: 0xE0343, size: 0x8, addend: 0x0, symName: __RNvXs8_NtNtCsdGrGZaRBwMb_3syn4expr7parsingNtB7_9ExprInferNtNtB9_5parse5Parse5parse, symObjAddr: 0x9E10, symBinAddr: 0x47500, symSize: 0x250 }
  - { offset: 0xE03D3, size: 0x8, addend: 0x0, symName: __RNvXs9_NtNtCsdGrGZaRBwMb_3syn4expr7parsingNtB7_11ExprForLoopNtNtB9_5parse5Parse5parse, symObjAddr: 0xA0F0, symBinAddr: 0x477C0, symSize: 0xD40 }
  - { offset: 0xE06A2, size: 0x8, addend: 0x0, symName: __RNvXsA_NtNtCsdGrGZaRBwMb_3syn4expr7parsingNtB7_5IndexNtNtB9_5parse5Parse5parse, symObjAddr: 0xB030, symBinAddr: 0x486C0, symSize: 0x300 }
  - { offset: 0xE0749, size: 0x8, addend: 0x0, symName: __RNvXsa_NtNtCsdGrGZaRBwMb_3syn4expr7parsingNtB7_8ExprLoopNtNtB9_5parse5Parse5parse, symObjAddr: 0x12730, symBinAddr: 0x4ACD0, symSize: 0x810 }
  - { offset: 0xE08FC, size: 0x8, addend: 0x0, symName: __RNvXsb_NtNtCsdGrGZaRBwMb_3syn4expr7parsingNtB7_9ExprMatchNtNtB9_5parse5Parse5parse, symObjAddr: 0x12FD0, symBinAddr: 0x4B520, symSize: 0x850 }
  - { offset: 0xE0AED, size: 0x8, addend: 0x0, symName: __RNvXsh_NtNtCsdGrGZaRBwMb_3syn4expr7parsingNtB7_10ExprReturnNtNtB9_5parse5Parse5parse, symObjAddr: 0x147D0, symBinAddr: 0x4C1A0, symSize: 0x270 }
  - { offset: 0xE0B4E, size: 0x8, addend: 0x0, symName: __RNvXsi_NtNtCsdGrGZaRBwMb_3syn4expr7parsingNtB7_12ExprTryBlockNtNtB9_5parse5Parse5parse, symObjAddr: 0x14AD0, symBinAddr: 0x4C460, symSize: 0x290 }
  - { offset: 0xE0BC0, size: 0x8, addend: 0x0, symName: __RNvXsj_NtNtCsdGrGZaRBwMb_3syn4expr7parsingNtB7_9ExprYieldNtNtB9_5parse5Parse5parse, symObjAddr: 0x14E20, symBinAddr: 0x4C770, symSize: 0x270 }
  - { offset: 0xE0C21, size: 0x8, addend: 0x0, symName: __RNvXsk_NtNtCsdGrGZaRBwMb_3syn4expr7parsingNtB7_9ExprAsyncNtNtB9_5parse5Parse5parse, symObjAddr: 0x15F50, symBinAddr: 0x4D860, symSize: 0x390 }
  - { offset: 0xE0CB2, size: 0x8, addend: 0x0, symName: __RNvXsl_NtNtCsdGrGZaRBwMb_3syn4expr7parsingNtB7_9ExprWhileNtNtB9_5parse5Parse5parse, symObjAddr: 0x164D0, symBinAddr: 0x4DDA0, symSize: 0xA80 }
  - { offset: 0xE0EE8, size: 0x8, addend: 0x0, symName: __RNvXsm_NtNtCsdGrGZaRBwMb_3syn4expr7parsingNtB7_9ExprConstNtNtB9_5parse5Parse5parse, symObjAddr: 0x17C00, symBinAddr: 0x4E960, symSize: 0x540 }
  - { offset: 0xE103F, size: 0x8, addend: 0x0, symName: __RNvXsn_NtNtCsdGrGZaRBwMb_3syn4expr7parsingNtB7_5LabelNtNtB9_5parse5Parse5parse, symObjAddr: 0x18310, symBinAddr: 0x4EFF0, symSize: 0x260 }
  - { offset: 0xE10CF, size: 0x8, addend: 0x0, symName: __RNvXsp_NtNtCsdGrGZaRBwMb_3syn4expr7parsingNtB7_12ExprContinueNtNtB9_5parse5Parse5parse, symObjAddr: 0x188D0, symBinAddr: 0x4F4F0, symSize: 0x2A0 }
  - { offset: 0xE1141, size: 0x8, addend: 0x0, symName: __RNvXsq_NtNtCsdGrGZaRBwMb_3syn4expr7parsingNtB7_10FieldValueNtNtB9_5parse5Parse5parse, symObjAddr: 0x18D90, symBinAddr: 0x4F8E0, symSize: 0x6D0 }
  - { offset: 0xE12E0, size: 0x8, addend: 0x0, symName: __RNvXss_NtNtCsdGrGZaRBwMb_3syn4expr7parsingNtB7_10ExprUnsafeNtNtB9_5parse5Parse5parse, symObjAddr: 0x19A50, symBinAddr: 0x50270, symSize: 0x540 }
  - { offset: 0xE1437, size: 0x8, addend: 0x0, symName: __RNvXst_NtNtCsdGrGZaRBwMb_3syn4expr7parsingNtB7_9ExprBlockNtNtB9_5parse5Parse5parse, symObjAddr: 0x1A140, symBinAddr: 0x508E0, symSize: 0x740 }
  - { offset: 0xE15BD, size: 0x8, addend: 0x0, symName: __RNvXsu_NtNtCsdGrGZaRBwMb_3syn4expr7parsingNtB7_11RangeLimitsNtNtB9_5parse5Parse5parse, symObjAddr: 0x1AC90, symBinAddr: 0x513F0, symSize: 0x260 }
  - { offset: 0xE164C, size: 0x8, addend: 0x0, symName: __RNvXsw_NtNtCsdGrGZaRBwMb_3syn4expr7parsingNtB7_8ExprPathNtNtB9_5parse5Parse5parse, symObjAddr: 0x1B1E0, symBinAddr: 0x51880, symSize: 0x310 }
  - { offset: 0xE173A, size: 0x8, addend: 0x0, symName: __RNvXsx_NtNtCsdGrGZaRBwMb_3syn4expr7parsingNtB7_6MemberNtNtB9_5parse5Parse5parse, symObjAddr: 0x1B6E0, symBinAddr: 0x51D00, symSize: 0xD0 }
  - { offset: 0xE176E, size: 0x8, addend: 0x0, symName: __RNvXsz_NtNtCsdGrGZaRBwMb_3syn4expr7parsingNtB7_3ArmNtNtB9_5parse5Parse5parse, symObjAddr: 0x1BBB0, symBinAddr: 0x52110, symSize: 0xB00 }
  - { offset: 0xE19AB, size: 0x8, addend: 0x0, symName: __RNvXNtNtCsdGrGZaRBwMb_3syn4expr8printingNtB4_9ExprArrayNtNtCs9OU1sGv5X54_5quote9to_tokens8ToTokens9to_tokens, symObjAddr: 0x42D0, symBinAddr: 0x45600, symSize: 0x50 }
  - { offset: 0xE19EA, size: 0x8, addend: 0x0, symName: __RNvXs0_NtNtCsdGrGZaRBwMb_3syn4expr8printingNtB7_9ExprAsyncNtNtCs9OU1sGv5X54_5quote9to_tokens8ToTokens9to_tokens, symObjAddr: 0x4600, symBinAddr: 0x45910, symSize: 0x70 }
  - { offset: 0xE1A29, size: 0x8, addend: 0x0, symName: __RNvXs1_NtNtCsdGrGZaRBwMb_3syn4expr8printingNtB7_9ExprAwaitNtNtCs9OU1sGv5X54_5quote9to_tokens8ToTokens9to_tokens, symObjAddr: 0x5710, symBinAddr: 0x45C50, symSize: 0x40 }
  - { offset: 0xE1A68, size: 0x8, addend: 0x0, symName: __RNvXs2_NtNtCsdGrGZaRBwMb_3syn4expr8printingNtB7_10ExprBinaryNtNtCs9OU1sGv5X54_5quote9to_tokens8ToTokens9to_tokens, symObjAddr: 0x69F0, symBinAddr: 0x45D30, symSize: 0x40 }
  - { offset: 0xE1AA7, size: 0x8, addend: 0x0, symName: __RNvXs3_NtNtCsdGrGZaRBwMb_3syn4expr8printingNtB7_9ExprBlockNtNtCs9OU1sGv5X54_5quote9to_tokens8ToTokens9to_tokens, symObjAddr: 0x7590, symBinAddr: 0x45DA0, symSize: 0x70 }
  - { offset: 0xE1AE6, size: 0x8, addend: 0x0, symName: __RNvXs4_NtNtCsdGrGZaRBwMb_3syn4expr8printingNtB7_9ExprBreakNtNtCs9OU1sGv5X54_5quote9to_tokens8ToTokens9to_tokens, symObjAddr: 0x7A40, symBinAddr: 0x45FA0, symSize: 0x40 }
  - { offset: 0xE1B25, size: 0x8, addend: 0x0, symName: __RNvXs5_NtNtCsdGrGZaRBwMb_3syn4expr8printingNtB7_8ExprCallNtNtCs9OU1sGv5X54_5quote9to_tokens8ToTokens9to_tokens, symObjAddr: 0x7FE0, symBinAddr: 0x45FE0, symSize: 0x40 }
  - { offset: 0xE1B64, size: 0x8, addend: 0x0, symName: __RNvXs6_NtNtCsdGrGZaRBwMb_3syn4expr8printingNtB7_8ExprCastNtNtCs9OU1sGv5X54_5quote9to_tokens8ToTokens9to_tokens, symObjAddr: 0x8060, symBinAddr: 0x46020, symSize: 0x40 }
  - { offset: 0xE1BA3, size: 0x8, addend: 0x0, symName: __RNvXs7_NtNtCsdGrGZaRBwMb_3syn4expr8printingNtB7_11ExprClosureNtNtCs9OU1sGv5X54_5quote9to_tokens8ToTokens9to_tokens, symObjAddr: 0x9560, symBinAddr: 0x474C0, symSize: 0x40 }
  - { offset: 0xE1BE2, size: 0x8, addend: 0x0, symName: __RNvXs8_NtNtCsdGrGZaRBwMb_3syn4expr8printingNtB7_9ExprConstNtNtCs9OU1sGv5X54_5quote9to_tokens8ToTokens9to_tokens, symObjAddr: 0xA060, symBinAddr: 0x47750, symSize: 0x70 }
  - { offset: 0xE1C21, size: 0x8, addend: 0x0, symName: __RNvXs9_NtNtCsdGrGZaRBwMb_3syn4expr8printingNtB7_12ExprContinueNtNtCs9OU1sGv5X54_5quote9to_tokens8ToTokens9to_tokens, symObjAddr: 0xAE30, symBinAddr: 0x48500, symSize: 0x60 }
  - { offset: 0xE1C60, size: 0x8, addend: 0x0, symName: __RNvXsA_NtNtCsdGrGZaRBwMb_3syn4expr8printingNtB7_9ExprYieldNtNtCs9OU1sGv5X54_5quote9to_tokens8ToTokens9to_tokens, symObjAddr: 0xB330, symBinAddr: 0x489C0, symSize: 0x40 }
  - { offset: 0xE1C9F, size: 0x8, addend: 0x0, symName: __RNvXsB_NtNtCsdGrGZaRBwMb_3syn4expr8printingNtB7_3ArmNtNtCs9OU1sGv5X54_5quote9to_tokens8ToTokens9to_tokens, symObjAddr: 0xB830, symBinAddr: 0x48B00, symSize: 0x140 }
  - { offset: 0xE1D0C, size: 0x8, addend: 0x0, symName: __RNvXsC_NtNtCsdGrGZaRBwMb_3syn4expr8printingNtB7_10FieldValueNtNtCs9OU1sGv5X54_5quote9to_tokens8ToTokens9to_tokens, symObjAddr: 0xBEB0, symBinAddr: 0x48CE0, symSize: 0xA0 }
  - { offset: 0xE1D69, size: 0x8, addend: 0x0, symName: __RNvXsD_NtNtCsdGrGZaRBwMb_3syn4expr8printingNtB7_5IndexNtNtCs9OU1sGv5X54_5quote9to_tokens8ToTokens9to_tokens, symObjAddr: 0xD560, symBinAddr: 0x48EA0, symSize: 0xC0 }
  - { offset: 0xE1DBF, size: 0x8, addend: 0x0, symName: __RNvXsE_NtNtCsdGrGZaRBwMb_3syn4expr8printingNtB7_5LabelNtNtCs9OU1sGv5X54_5quote9to_tokens8ToTokens9to_tokens, symObjAddr: 0xDB70, symBinAddr: 0x49010, symSize: 0x40 }
  - { offset: 0xE1DFE, size: 0x8, addend: 0x0, symName: __RNvXsF_NtNtCsdGrGZaRBwMb_3syn4expr8printingNtB7_6MemberNtNtCs9OU1sGv5X54_5quote9to_tokens8ToTokens9to_tokens, symObjAddr: 0xE220, symBinAddr: 0x49180, symSize: 0x70 }
  - { offset: 0xE1E71, size: 0x8, addend: 0x0, symName: __RNvXsG_NtNtCsdGrGZaRBwMb_3syn4expr8printingNtB7_11RangeLimitsNtNtCs9OU1sGv5X54_5quote9to_tokens8ToTokens9to_tokens, symObjAddr: 0xE800, symBinAddr: 0x492C0, symSize: 0x70 }
  - { offset: 0xE1EE4, size: 0x8, addend: 0x0, symName: __RNvXsH_NtNtCsdGrGZaRBwMb_3syn4expr8printingNtB7_17PointerMutabilityNtNtCs9OU1sGv5X54_5quote9to_tokens8ToTokens9to_tokens, symObjAddr: 0xEF00, symBinAddr: 0x49470, symSize: 0x70 }
  - { offset: 0xE1F57, size: 0x8, addend: 0x0, symName: __RNvXs_NtNtCsdGrGZaRBwMb_3syn4expr8printingNtB6_10ExprAssignNtNtCs9OU1sGv5X54_5quote9to_tokens8ToTokens9to_tokens, symObjAddr: 0x126F0, symBinAddr: 0x4AC90, symSize: 0x40 }
  - { offset: 0xE1F96, size: 0x8, addend: 0x0, symName: __RNvXsa_NtNtCsdGrGZaRBwMb_3syn4expr8printingNtB7_9ExprFieldNtNtCs9OU1sGv5X54_5quote9to_tokens8ToTokens9to_tokens, symObjAddr: 0x12F40, symBinAddr: 0x4B4E0, symSize: 0x40 }
  - { offset: 0xE1FD5, size: 0x8, addend: 0x0, symName: __RNvXsb_NtNtCsdGrGZaRBwMb_3syn4expr8printingNtB7_11ExprForLoopNtNtCs9OU1sGv5X54_5quote9to_tokens8ToTokens9to_tokens, symObjAddr: 0x13820, symBinAddr: 0x4BD70, symSize: 0x100 }
  - { offset: 0xE2014, size: 0x8, addend: 0x0, symName: __RNvXsc_NtNtCsdGrGZaRBwMb_3syn4expr8printingNtB7_9ExprGroupNtNtCs9OU1sGv5X54_5quote9to_tokens8ToTokens9to_tokens, symObjAddr: 0x139B0, symBinAddr: 0x4BE70, symSize: 0x50 }
  - { offset: 0xE2053, size: 0x8, addend: 0x0, symName: __RNvXsd_NtNtCsdGrGZaRBwMb_3syn4expr8printingNtB7_6ExprIfNtNtCs9OU1sGv5X54_5quote9to_tokens8ToTokens9to_tokens, symObjAddr: 0x13A80, symBinAddr: 0x4BEC0, symSize: 0x210 }
  - { offset: 0xE2129, size: 0x8, addend: 0x0, symName: __RNvXse_NtNtCsdGrGZaRBwMb_3syn4expr8printingNtB7_9ExprIndexNtNtCs9OU1sGv5X54_5quote9to_tokens8ToTokens9to_tokens, symObjAddr: 0x141E0, symBinAddr: 0x4C0D0, symSize: 0x40 }
  - { offset: 0xE2168, size: 0x8, addend: 0x0, symName: __RNvXsf_NtNtCsdGrGZaRBwMb_3syn4expr8printingNtB7_9ExprInferNtNtCs9OU1sGv5X54_5quote9to_tokens8ToTokens9to_tokens, symObjAddr: 0x14680, symBinAddr: 0x4C110, symSize: 0x50 }
  - { offset: 0xE21A7, size: 0x8, addend: 0x0, symName: __RNvXsg_NtNtCsdGrGZaRBwMb_3syn4expr8printingNtB7_7ExprLetNtNtCs9OU1sGv5X54_5quote9to_tokens8ToTokens9to_tokens, symObjAddr: 0x14750, symBinAddr: 0x4C160, symSize: 0x40 }
  - { offset: 0xE21E6, size: 0x8, addend: 0x0, symName: __RNvXsh_NtNtCsdGrGZaRBwMb_3syn4expr8printingNtB7_7ExprLitNtNtCs9OU1sGv5X54_5quote9to_tokens8ToTokens9to_tokens, symObjAddr: 0x14A40, symBinAddr: 0x4C410, symSize: 0x50 }
  - { offset: 0xE2225, size: 0x8, addend: 0x0, symName: __RNvXsi_NtNtCsdGrGZaRBwMb_3syn4expr8printingNtB7_8ExprLoopNtNtCs9OU1sGv5X54_5quote9to_tokens8ToTokens9to_tokens, symObjAddr: 0x14D60, symBinAddr: 0x4C6F0, symSize: 0x80 }
  - { offset: 0xE2264, size: 0x8, addend: 0x0, symName: __RNvXsj_NtNtCsdGrGZaRBwMb_3syn4expr8printingNtB7_9ExprMacroNtNtCs9OU1sGv5X54_5quote9to_tokens8ToTokens9to_tokens, symObjAddr: 0x15090, symBinAddr: 0x4C9E0, symSize: 0x50 }
  - { offset: 0xE22A3, size: 0x8, addend: 0x0, symName: __RNvXsk_NtNtCsdGrGZaRBwMb_3syn4expr8printingNtB7_9ExprMatchNtNtCs9OU1sGv5X54_5quote9to_tokens8ToTokens9to_tokens, symObjAddr: 0x162E0, symBinAddr: 0x4DBF0, symSize: 0xD0 }
  - { offset: 0xE22E2, size: 0x8, addend: 0x0, symName: __RNvXsl_NtNtCsdGrGZaRBwMb_3syn4expr8printingNtB7_14ExprMethodCallNtNtCs9OU1sGv5X54_5quote9to_tokens8ToTokens9to_tokens, symObjAddr: 0x16F50, symBinAddr: 0x4E820, symSize: 0x40 }
  - { offset: 0xE2321, size: 0x8, addend: 0x0, symName: __RNvXsm_NtNtCsdGrGZaRBwMb_3syn4expr8printingNtB7_9ExprParenNtNtCs9OU1sGv5X54_5quote9to_tokens8ToTokens9to_tokens, symObjAddr: 0x18140, symBinAddr: 0x4EEA0, symSize: 0x50 }
  - { offset: 0xE2360, size: 0x8, addend: 0x0, symName: __RNvXsn_NtNtCsdGrGZaRBwMb_3syn4expr8printingNtB7_8ExprPathNtNtCs9OU1sGv5X54_5quote9to_tokens8ToTokens9to_tokens, symObjAddr: 0x18570, symBinAddr: 0x4F250, symSize: 0x60 }
  - { offset: 0xE239F, size: 0x8, addend: 0x0, symName: __RNvXso_NtNtCsdGrGZaRBwMb_3syn4expr8printingNtB7_9ExprRangeNtNtCs9OU1sGv5X54_5quote9to_tokens8ToTokens9to_tokens, symObjAddr: 0x18710, symBinAddr: 0x4F3B0, symSize: 0x40 }
  - { offset: 0xE23DE, size: 0x8, addend: 0x0, symName: __RNvXsp_NtNtCsdGrGZaRBwMb_3syn4expr8printingNtB7_11ExprRawAddrNtNtCs9OU1sGv5X54_5quote9to_tokens8ToTokens9to_tokens, symObjAddr: 0x18B70, symBinAddr: 0x4F790, symSize: 0x40 }
  - { offset: 0xE241D, size: 0x8, addend: 0x0, symName: __RNvXsq_NtNtCsdGrGZaRBwMb_3syn4expr8printingNtB7_13ExprReferenceNtNtCs9OU1sGv5X54_5quote9to_tokens8ToTokens9to_tokens, symObjAddr: 0x19460, symBinAddr: 0x4FFB0, symSize: 0x40 }
  - { offset: 0xE245C, size: 0x8, addend: 0x0, symName: __RNvXsr_NtNtCsdGrGZaRBwMb_3syn4expr8printingNtB7_10ExprRepeatNtNtCs9OU1sGv5X54_5quote9to_tokens8ToTokens9to_tokens, symObjAddr: 0x198A0, symBinAddr: 0x50100, symSize: 0x50 }
  - { offset: 0xE249B, size: 0x8, addend: 0x0, symName: __RNvXss_NtNtCsdGrGZaRBwMb_3syn4expr8printingNtB7_10ExprReturnNtNtCs9OU1sGv5X54_5quote9to_tokens8ToTokens9to_tokens, symObjAddr: 0x19F90, symBinAddr: 0x507B0, symSize: 0x40 }
  - { offset: 0xE24DA, size: 0x8, addend: 0x0, symName: __RNvXst_NtNtCsdGrGZaRBwMb_3syn4expr8printingNtB7_10ExprStructNtNtCs9OU1sGv5X54_5quote9to_tokens8ToTokens9to_tokens, symObjAddr: 0x1A880, symBinAddr: 0x51020, symSize: 0x70 }
  - { offset: 0xE2519, size: 0x8, addend: 0x0, symName: __RNvXsu_NtNtCsdGrGZaRBwMb_3syn4expr8printingNtB7_7ExprTryNtNtCs9OU1sGv5X54_5quote9to_tokens8ToTokens9to_tokens, symObjAddr: 0x1AEF0, symBinAddr: 0x51650, symSize: 0x40 }
  - { offset: 0xE2558, size: 0x8, addend: 0x0, symName: __RNvXsv_NtNtCsdGrGZaRBwMb_3syn4expr8printingNtB7_12ExprTryBlockNtNtCs9OU1sGv5X54_5quote9to_tokens8ToTokens9to_tokens, symObjAddr: 0x1B070, symBinAddr: 0x51750, symSize: 0x60 }
  - { offset: 0xE2597, size: 0x8, addend: 0x0, symName: __RNvXsw_NtNtCsdGrGZaRBwMb_3syn4expr8printingNtB7_9ExprTupleNtNtCs9OU1sGv5X54_5quote9to_tokens8ToTokens9to_tokens, symObjAddr: 0x1B4F0, symBinAddr: 0x51B90, symSize: 0x50 }
  - { offset: 0xE25D6, size: 0x8, addend: 0x0, symName: __RNvXsx_NtNtCsdGrGZaRBwMb_3syn4expr8printingNtB7_9ExprUnaryNtNtCs9OU1sGv5X54_5quote9to_tokens8ToTokens9to_tokens, symObjAddr: 0x1B7B0, symBinAddr: 0x51DD0, symSize: 0x40 }
  - { offset: 0xE2615, size: 0x8, addend: 0x0, symName: __RNvXsy_NtNtCsdGrGZaRBwMb_3syn4expr8printingNtB7_10ExprUnsafeNtNtCs9OU1sGv5X54_5quote9to_tokens8ToTokens9to_tokens, symObjAddr: 0x1BA10, symBinAddr: 0x51FF0, symSize: 0x70 }
  - { offset: 0xE2654, size: 0x8, addend: 0x0, symName: __RNvXsz_NtNtCsdGrGZaRBwMb_3syn4expr8printingNtB7_9ExprWhileNtNtCs9OU1sGv5X54_5quote9to_tokens8ToTokens9to_tokens, symObjAddr: 0x1C6B0, symBinAddr: 0x52C10, symSize: 0xE0 }
  - { offset: 0xE2694, size: 0x8, addend: 0x0, symName: __RNvXsP_NtCsdGrGZaRBwMb_3syn4exprNtB5_4ExprNtNtCs9OU1sGv5X54_5quote9to_tokens8ToTokens9to_tokens, symObjAddr: 0x111C0, symBinAddr: 0x49D30, symSize: 0x640 }
  - { offset: 0xE5501, size: 0x8, addend: 0x0, symName: __RNvXs0_NtNtCsdGrGZaRBwMb_3syn3gen5cloneNtNtB9_4expr3ArmNtNtCsieiGu2EXtoJ_4core5clone5Clone5clone, symObjAddr: 0x43E0, symBinAddr: 0x456F0, symSize: 0x220 }
  - { offset: 0xE5533, size: 0x8, addend: 0x0, symName: __RNvXs11_NtNtCsdGrGZaRBwMb_3syn3gen5cloneNtNtBa_4expr10FieldValueNtNtCsieiGu2EXtoJ_4core5clone5Clone5clone, symObjAddr: 0x46D0, symBinAddr: 0x45980, symSize: 0x180 }
  - { offset: 0xE5567, size: 0x8, addend: 0x0, symName: __RNvXs1C_NtNtCsdGrGZaRBwMb_3syn3gen5cloneNtNtBa_4expr5LabelNtNtCsieiGu2EXtoJ_4core5clone5Clone5clone, symObjAddr: 0x4D30, symBinAddr: 0x45B00, symSize: 0xB0 }
  - { offset: 0xE559B, size: 0x8, addend: 0x0, symName: __RNvXs1K_NtNtCsdGrGZaRBwMb_3syn3gen5cloneNtNtBa_4expr6MemberNtNtCsieiGu2EXtoJ_4core5clone5Clone5clone, symObjAddr: 0x50E0, symBinAddr: 0x45BB0, symSize: 0xA0 }
  - { offset: 0xE5603, size: 0x8, addend: 0x0, symName: __RNvXs1l_NtNtCsdGrGZaRBwMb_3syn3gen5cloneNtNtBa_4expr5IndexNtNtCsieiGu2EXtoJ_4core5clone5Clone5clone, symObjAddr: 0x5B30, symBinAddr: 0x45C90, symSize: 0x30 }
  - { offset: 0xE5637, size: 0x8, addend: 0x0, symName: __RNvXs24_NtNtCsdGrGZaRBwMb_3syn3gen5cloneNtNtBa_4expr17PointerMutabilityNtNtCsieiGu2EXtoJ_4core5clone5Clone5clone, symObjAddr: 0x6240, symBinAddr: 0x45CC0, symSize: 0x70 }
  - { offset: 0xE569F, size: 0x8, addend: 0x0, symName: __RNvXs2a_NtNtCsdGrGZaRBwMb_3syn3gen5cloneNtNtBa_4expr11RangeLimitsNtNtCsieiGu2EXtoJ_4core5clone5Clone5clone, symObjAddr: 0x6D30, symBinAddr: 0x45D70, symSize: 0x30 }
  - { offset: 0xE56D3, size: 0x8, addend: 0x0, symName: __RNvXsA_NtNtCsdGrGZaRBwMb_3syn3gen5cloneNtNtB9_4expr6ExprIfNtNtCsieiGu2EXtoJ_4core5clone5Clone5clone, symObjAddr: 0xAED0, symBinAddr: 0x48560, symSize: 0x160 }
  - { offset: 0xE5707, size: 0x8, addend: 0x0, symName: __RNvXsB_NtNtCsdGrGZaRBwMb_3syn3gen5cloneNtNtB9_4expr9ExprIndexNtNtCsieiGu2EXtoJ_4core5clone5Clone5clone, symObjAddr: 0xB3B0, symBinAddr: 0x48A00, symSize: 0x100 }
  - { offset: 0xE573B, size: 0x8, addend: 0x0, symName: __RNvXsC_NtNtCsdGrGZaRBwMb_3syn3gen5cloneNtNtB9_4expr9ExprInferNtNtCsieiGu2EXtoJ_4core5clone5Clone5clone, symObjAddr: 0xB9B0, symBinAddr: 0x48C40, symSize: 0xA0 }
  - { offset: 0xE576F, size: 0x8, addend: 0x0, symName: __RNvXsD_NtNtCsdGrGZaRBwMb_3syn3gen5cloneNtNtB9_4expr7ExprLetNtNtCsieiGu2EXtoJ_4core5clone5Clone5clone, symObjAddr: 0xCFA0, symBinAddr: 0x48D80, symSize: 0x120 }
  - { offset: 0xE57A3, size: 0x8, addend: 0x0, symName: __RNvXsE_NtNtCsdGrGZaRBwMb_3syn3gen5cloneNtNtB9_4expr7ExprLitNtNtCsieiGu2EXtoJ_4core5clone5Clone5clone, symObjAddr: 0xD660, symBinAddr: 0x48F60, symSize: 0xB0 }
  - { offset: 0xE57D7, size: 0x8, addend: 0x0, symName: __RNvXsF_NtNtCsdGrGZaRBwMb_3syn3gen5cloneNtNtB9_4expr8ExprLoopNtNtCsieiGu2EXtoJ_4core5clone5Clone5clone, symObjAddr: 0xDC50, symBinAddr: 0x49050, symSize: 0x130 }
  - { offset: 0xE580B, size: 0x8, addend: 0x0, symName: __RNvXsG_NtNtCsdGrGZaRBwMb_3syn3gen5cloneNtNtB9_4expr9ExprMacroNtNtCsieiGu2EXtoJ_4core5clone5Clone5clone, symObjAddr: 0xE2D0, symBinAddr: 0x491F0, symSize: 0xD0 }
  - { offset: 0xE583F, size: 0x8, addend: 0x0, symName: __RNvXsH_NtNtCsdGrGZaRBwMb_3syn3gen5cloneNtNtB9_4expr9ExprMatchNtNtCsieiGu2EXtoJ_4core5clone5Clone5clone, symObjAddr: 0xE940, symBinAddr: 0x49330, symSize: 0x140 }
  - { offset: 0xE5873, size: 0x8, addend: 0x0, symName: __RNvXsI_NtNtCsdGrGZaRBwMb_3syn3gen5cloneNtNtB9_4expr14ExprMethodCallNtNtCsieiGu2EXtoJ_4core5clone5Clone5clone, symObjAddr: 0xEFB0, symBinAddr: 0x494E0, symSize: 0x240 }
  - { offset: 0xE58A7, size: 0x8, addend: 0x0, symName: __RNvXsJ_NtNtCsdGrGZaRBwMb_3syn3gen5cloneNtNtB9_4expr9ExprParenNtNtCsieiGu2EXtoJ_4core5clone5Clone5clone, symObjAddr: 0xF720, symBinAddr: 0x49720, symSize: 0xC0 }
  - { offset: 0xE58DB, size: 0x8, addend: 0x0, symName: __RNvXsK_NtNtCsdGrGZaRBwMb_3syn3gen5cloneNtNtB9_4expr8ExprPathNtNtCsieiGu2EXtoJ_4core5clone5Clone5clone, symObjAddr: 0xFCC0, symBinAddr: 0x497E0, symSize: 0x110 }
  - { offset: 0xE590F, size: 0x8, addend: 0x0, symName: __RNvXsL_NtNtCsdGrGZaRBwMb_3syn3gen5cloneNtNtB9_4expr9ExprRangeNtNtCsieiGu2EXtoJ_4core5clone5Clone5clone, symObjAddr: 0x102D0, symBinAddr: 0x498F0, symSize: 0x100 }
  - { offset: 0xE5943, size: 0x8, addend: 0x0, symName: __RNvXsM_NtNtCsdGrGZaRBwMb_3syn3gen5cloneNtNtB9_4expr11ExprRawAddrNtNtCsieiGu2EXtoJ_4core5clone5Clone5clone, symObjAddr: 0x108B0, symBinAddr: 0x499F0, symSize: 0x110 }
  - { offset: 0xE5977, size: 0x8, addend: 0x0, symName: __RNvXsN_NtNtCsdGrGZaRBwMb_3syn3gen5cloneNtNtB9_4expr13ExprReferenceNtNtCsieiGu2EXtoJ_4core5clone5Clone5clone, symObjAddr: 0x10F10, symBinAddr: 0x49B00, symSize: 0x100 }
  - { offset: 0xE59AB, size: 0x8, addend: 0x0, symName: __RNvXsO_NtNtCsdGrGZaRBwMb_3syn3gen5cloneNtNtB9_4expr10ExprRepeatNtNtCsieiGu2EXtoJ_4core5clone5Clone5clone, symObjAddr: 0x11090, symBinAddr: 0x49C00, symSize: 0x130 }
  - { offset: 0xE59DF, size: 0x8, addend: 0x0, symName: __RNvXsP_NtNtCsdGrGZaRBwMb_3syn3gen5cloneNtNtB9_4expr10ExprReturnNtNtCsieiGu2EXtoJ_4core5clone5Clone5clone, symObjAddr: 0x11890, symBinAddr: 0x4A370, symSize: 0xB0 }
  - { offset: 0xE5A13, size: 0x8, addend: 0x0, symName: __RNvXsQ_NtNtCsdGrGZaRBwMb_3syn3gen5cloneNtNtB9_4expr10ExprStructNtNtCsieiGu2EXtoJ_4core5clone5Clone5clone, symObjAddr: 0x11980, symBinAddr: 0x4A420, symSize: 0x230 }
  - { offset: 0xE5A47, size: 0x8, addend: 0x0, symName: __RNvXsR_NtNtCsdGrGZaRBwMb_3syn3gen5cloneNtNtB9_4expr7ExprTryNtNtCsieiGu2EXtoJ_4core5clone5Clone5clone, symObjAddr: 0x11C40, symBinAddr: 0x4A650, symSize: 0xE0 }
  - { offset: 0xE5A7B, size: 0x8, addend: 0x0, symName: __RNvXsS_NtNtCsdGrGZaRBwMb_3syn3gen5cloneNtNtB9_4expr12ExprTryBlockNtNtCsieiGu2EXtoJ_4core5clone5Clone5clone, symObjAddr: 0x11D60, symBinAddr: 0x4A730, symSize: 0xC0 }
  - { offset: 0xE5AAF, size: 0x8, addend: 0x0, symName: __RNvXsT_NtNtCsdGrGZaRBwMb_3syn3gen5cloneNtNtB9_4expr9ExprTupleNtNtCsieiGu2EXtoJ_4core5clone5Clone5clone, symObjAddr: 0x11EB0, symBinAddr: 0x4A7F0, symSize: 0xE0 }
  - { offset: 0xE5AE3, size: 0x8, addend: 0x0, symName: __RNvXsU_NtNtCsdGrGZaRBwMb_3syn3gen5cloneNtNtB9_4expr9ExprUnaryNtNtCsieiGu2EXtoJ_4core5clone5Clone5clone, symObjAddr: 0x11FD0, symBinAddr: 0x4A8D0, symSize: 0xD0 }
  - { offset: 0xE5B17, size: 0x8, addend: 0x0, symName: __RNvXsV_NtNtCsdGrGZaRBwMb_3syn3gen5cloneNtNtB9_4expr10ExprUnsafeNtNtCsieiGu2EXtoJ_4core5clone5Clone5clone, symObjAddr: 0x12130, symBinAddr: 0x4A9A0, symSize: 0xC0 }
  - { offset: 0xE5B4B, size: 0x8, addend: 0x0, symName: __RNvXsW_NtNtCsdGrGZaRBwMb_3syn3gen5cloneNtNtB9_4expr9ExprWhileNtNtCsieiGu2EXtoJ_4core5clone5Clone5clone, symObjAddr: 0x12230, symBinAddr: 0x4AA60, symSize: 0x180 }
  - { offset: 0xE5B7F, size: 0x8, addend: 0x0, symName: __RNvXsX_NtNtCsdGrGZaRBwMb_3syn3gen5cloneNtNtB9_4expr9ExprYieldNtNtCsieiGu2EXtoJ_4core5clone5Clone5clone, symObjAddr: 0x12530, symBinAddr: 0x4ABE0, symSize: 0xB0 }
  - { offset: 0xE5BB3, size: 0x8, addend: 0x0, symName: __RNvXsk_NtNtCsdGrGZaRBwMb_3syn3gen5cloneNtNtB9_4expr4ExprNtNtCsieiGu2EXtoJ_4core5clone5Clone5clone, symObjAddr: 0x15120, symBinAddr: 0x4CA30, symSize: 0xE30 }
  - { offset: 0xE60A6, size: 0x8, addend: 0x0, symName: __RNvXsl_NtNtCsdGrGZaRBwMb_3syn3gen5cloneNtNtB9_4expr9ExprArrayNtNtCsieiGu2EXtoJ_4core5clone5Clone5clone, symObjAddr: 0x163F0, symBinAddr: 0x4DCC0, symSize: 0xE0 }
  - { offset: 0xE60DA, size: 0x8, addend: 0x0, symName: __RNvXsm_NtNtCsdGrGZaRBwMb_3syn3gen5cloneNtNtB9_4expr10ExprAssignNtNtCsieiGu2EXtoJ_4core5clone5Clone5clone, symObjAddr: 0x16FD0, symBinAddr: 0x4E860, symSize: 0x100 }
  - { offset: 0xE610E, size: 0x8, addend: 0x0, symName: __RNvXsn_NtNtCsdGrGZaRBwMb_3syn3gen5cloneNtNtB9_4expr9ExprAsyncNtNtCsieiGu2EXtoJ_4core5clone5Clone5clone, symObjAddr: 0x181D0, symBinAddr: 0x4EEF0, symSize: 0x100 }
  - { offset: 0xE6142, size: 0x8, addend: 0x0, symName: __RNvXso_NtNtCsdGrGZaRBwMb_3syn3gen5cloneNtNtB9_4expr9ExprAwaitNtNtCsieiGu2EXtoJ_4core5clone5Clone5clone, symObjAddr: 0x18610, symBinAddr: 0x4F2B0, symSize: 0x100 }
  - { offset: 0xE6176, size: 0x8, addend: 0x0, symName: __RNvXsp_NtNtCsdGrGZaRBwMb_3syn3gen5cloneNtNtB9_4expr10ExprBinaryNtNtCsieiGu2EXtoJ_4core5clone5Clone5clone, symObjAddr: 0x18790, symBinAddr: 0x4F3F0, symSize: 0x100 }
  - { offset: 0xE61AA, size: 0x8, addend: 0x0, symName: __RNvXsq_NtNtCsdGrGZaRBwMb_3syn3gen5cloneNtNtB9_4expr9ExprBlockNtNtCsieiGu2EXtoJ_4core5clone5Clone5clone, symObjAddr: 0x18C80, symBinAddr: 0x4F7D0, symSize: 0x110 }
  - { offset: 0xE61DE, size: 0x8, addend: 0x0, symName: __RNvXsr_NtNtCsdGrGZaRBwMb_3syn3gen5cloneNtNtB9_4expr9ExprBreakNtNtCsieiGu2EXtoJ_4core5clone5Clone5clone, symObjAddr: 0x194E0, symBinAddr: 0x4FFF0, symSize: 0x110 }
  - { offset: 0xE6212, size: 0x8, addend: 0x0, symName: __RNvXss_NtNtCsdGrGZaRBwMb_3syn3gen5cloneNtNtB9_4expr8ExprCallNtNtCsieiGu2EXtoJ_4core5clone5Clone5clone, symObjAddr: 0x19930, symBinAddr: 0x50150, symSize: 0x120 }
  - { offset: 0xE6246, size: 0x8, addend: 0x0, symName: __RNvXst_NtNtCsdGrGZaRBwMb_3syn3gen5cloneNtNtB9_4expr8ExprCastNtNtCsieiGu2EXtoJ_4core5clone5Clone5clone, symObjAddr: 0x1A010, symBinAddr: 0x507F0, symSize: 0xF0 }
  - { offset: 0xE627A, size: 0x8, addend: 0x0, symName: __RNvXsu_NtNtCsdGrGZaRBwMb_3syn3gen5cloneNtNtB9_4expr11ExprClosureNtNtCsieiGu2EXtoJ_4core5clone5Clone5clone, symObjAddr: 0x1A930, symBinAddr: 0x51090, symSize: 0x360 }
  - { offset: 0xE62AE, size: 0x8, addend: 0x0, symName: __RNvXsv_NtNtCsdGrGZaRBwMb_3syn3gen5cloneNtNtB9_4expr9ExprConstNtNtCsieiGu2EXtoJ_4core5clone5Clone5clone, symObjAddr: 0x1AF70, symBinAddr: 0x51690, symSize: 0xC0 }
  - { offset: 0xE62E2, size: 0x8, addend: 0x0, symName: __RNvXsw_NtNtCsdGrGZaRBwMb_3syn3gen5cloneNtNtB9_4expr12ExprContinueNtNtCsieiGu2EXtoJ_4core5clone5Clone5clone, symObjAddr: 0x1B110, symBinAddr: 0x517B0, symSize: 0xD0 }
  - { offset: 0xE6316, size: 0x8, addend: 0x0, symName: __RNvXsx_NtNtCsdGrGZaRBwMb_3syn3gen5cloneNtNtB9_4expr9ExprFieldNtNtCsieiGu2EXtoJ_4core5clone5Clone5clone, symObjAddr: 0x1B580, symBinAddr: 0x51BE0, symSize: 0x120 }
  - { offset: 0xE634A, size: 0x8, addend: 0x0, symName: __RNvXsy_NtNtCsdGrGZaRBwMb_3syn3gen5cloneNtNtB9_4expr11ExprForLoopNtNtCsieiGu2EXtoJ_4core5clone5Clone5clone, symObjAddr: 0x1B830, symBinAddr: 0x51E10, symSize: 0x1E0 }
  - { offset: 0xE637E, size: 0x8, addend: 0x0, symName: __RNvXsz_NtNtCsdGrGZaRBwMb_3syn3gen5cloneNtNtB9_4expr9ExprGroupNtNtCsieiGu2EXtoJ_4core5clone5Clone5clone, symObjAddr: 0x1BAC0, symBinAddr: 0x52060, symSize: 0xB0 }
  - { offset: 0xE98AF, size: 0x8, addend: 0x0, symName: __RNvMNtCsieiGu2EXtoJ_4core5sliceSNtNtCsdGrGZaRBwMb_3syn4expr3Arm4iterBy_, symObjAddr: 0x1BB0, symBinAddr: 0x44F30, symSize: 0x20 }
  - { offset: 0xE98E6, size: 0x8, addend: 0x0, symName: __RNvMNtCsieiGu2EXtoJ_4core5sliceSTNtNtCsdGrGZaRBwMb_3syn4expr10FieldValueNtNtBz_5token5CommaE4iterBz_, symObjAddr: 0x1BD0, symBinAddr: 0x44F50, symSize: 0x20 }
  - { offset: 0xE991D, size: 0x8, addend: 0x0, symName: __RNvMNtCsieiGu2EXtoJ_4core5sliceSTNtNtCsdGrGZaRBwMb_3syn4expr4ExprNtNtBz_5token5CommaE4iterBz_, symObjAddr: 0x1BF0, symBinAddr: 0x44F70, symSize: 0x20 }
  - { offset: 0xEAA96, size: 0x8, addend: 0x0, symName: __RNvXNtNtCsieiGu2EXtoJ_4core5clone6uninitNtNtCsdGrGZaRBwMb_3syn4expr10FieldValueNtB2_8CopySpec9clone_oneBG_, symObjAddr: 0x4320, symBinAddr: 0x45650, symSize: 0x50 }
  - { offset: 0xEAAFB, size: 0x8, addend: 0x0, symName: __RNvXNtNtCsieiGu2EXtoJ_4core5clone6uninitNtNtCsdGrGZaRBwMb_3syn4expr4ExprNtB2_8CopySpec9clone_oneBG_, symObjAddr: 0x4370, symBinAddr: 0x456A0, symSize: 0x50 }
  - { offset: 0xEBCCB, size: 0x8, addend: 0x0, symName: __RNvMNtCsdGrGZaRBwMb_3syn4exprNtB2_4Expr13replace_attrs, symObjAddr: 0x1370, symBinAddr: 0x446F0, symSize: 0x540 }
  - { offset: 0xEBD70, size: 0x8, addend: 0x0, symName: __RNvMNtCsdGrGZaRBwMb_3syn4exprNtB2_4Expr25parse_without_eager_brace, symObjAddr: 0x18B0, symBinAddr: 0x44C30, symSize: 0x30 }
  - { offset: 0xEBD93, size: 0x8, addend: 0x0, symName: __RNvMNtCsdGrGZaRBwMb_3syn4exprNtB2_4Expr32parse_with_earlier_boundary_rule, symObjAddr: 0x18E0, symBinAddr: 0x44C60, symSize: 0x30 }
  - { offset: 0xEBDB6, size: 0x8, addend: 0x0, symName: __RNvMNtCsdGrGZaRBwMb_3syn4exprNtB2_4Expr4peek, symObjAddr: 0x1910, symBinAddr: 0x44C90, symSize: 0x2A0 }
  - { offset: 0xEBF46, size: 0x8, addend: 0x0, symName: __RNvMs6_NtCsdGrGZaRBwMb_3syn4exprNtB5_6Member8is_named, symObjAddr: 0x2C10, symBinAddr: 0x44F90, symSize: 0x40 }
  - { offset: 0xEC046, size: 0x8, addend: 0x0, symName: __RNvMsv_NtNtCsdGrGZaRBwMb_3syn4expr7parsingNtB7_11RangeLimits14parse_obsolete, symObjAddr: 0x3B20, symBinAddr: 0x44FD0, symSize: 0x3C0 }
  - { offset: 0xEC11C, size: 0x8, addend: 0x0, symName: __RNvMsy_NtNtCsdGrGZaRBwMb_3syn4expr7parsingNtB7_3Arm14parse_multiple, symObjAddr: 0x4060, symBinAddr: 0x45390, symSize: 0x1E0 }
  - { offset: 0xEC184, size: 0x8, addend: 0x0, symName: __RNvXNtCs9OU1sGv5X54_5quote9to_tokensRNtNtCsdGrGZaRBwMb_3syn4expr10FieldValueNtB2_8ToTokens9to_tokensBD_, symObjAddr: 0x4240, symBinAddr: 0x45570, symSize: 0x30 }
  - { offset: 0xEC1C3, size: 0x8, addend: 0x0, symName: __RNvXNtCs9OU1sGv5X54_5quote9to_tokensRNtNtCsdGrGZaRBwMb_3syn4expr4ExprNtB2_8ToTokens9to_tokensBD_, symObjAddr: 0x4270, symBinAddr: 0x455A0, symSize: 0x30 }
  - { offset: 0xECFAA, size: 0x8, addend: 0x0, symName: __RNvNvMsd_NtNtCsieiGu2EXtoJ_4core3num7nonzeroINtB7_7NonZeropE13new_unchecked18precondition_checkCsdGrGZaRBwMb_3syn, symObjAddr: 0x17360, symBinAddr: 0x68330, symSize: 0x80 }
  - { offset: 0xEDA33, size: 0x8, addend: 0x0, symName: __RNvNvMNtNtCsieiGu2EXtoJ_4core3ptr9const_ptrPp20offset_from_unsigned18precondition_checkCsdGrGZaRBwMb_3syn, symObjAddr: 0x171B0, symBinAddr: 0x68180, symSize: 0xA0 }
  - { offset: 0xEDB6C, size: 0x8, addend: 0x0, symName: __RNvNvMNtNtCsieiGu2EXtoJ_4core3ptr9const_ptrPp6offset18precondition_checkCsdGrGZaRBwMb_3syn, symObjAddr: 0x17250, symBinAddr: 0x68220, symSize: 0x110 }
  - { offset: 0xEE249, size: 0x8, addend: 0x0, symName: __RNvXs0_NtCsieiGu2EXtoJ_4core4cellINtB5_4CellNtNtCsdGrGZaRBwMb_3syn6buffer6CursorENtNtB7_5clone5Clone5cloneBK_, symObjAddr: 0x17B50, symBinAddr: 0x68B20, symSize: 0x20 }
  - { offset: 0xEE2A4, size: 0x8, addend: 0x0, symName: __RNvXsD_NtCsieiGu2EXtoJ_4core4cellNtB5_12BorrowRefMutNtNtNtB7_3ops4drop4Drop4dropCsdGrGZaRBwMb_3syn, symObjAddr: 0x191B0, symBinAddr: 0x69260, symSize: 0x20 }
  - { offset: 0xEE314, size: 0x8, addend: 0x0, symName: __RNvXsG_NtCsieiGu2EXtoJ_4core4cellINtB5_6RefMutINtNtCslJiobkLta79_5alloc3vec3VecReEENtNtNtB7_3ops5deref8DerefMut9deref_mutCsdGrGZaRBwMb_3syn, symObjAddr: 0x191D0, symBinAddr: 0x69280, symSize: 0x10 }
  - { offset: 0xF05E6, size: 0x8, addend: 0x0, symName: __RNvXs19_NtCsieiGu2EXtoJ_4core3fmtRNtNtCsdGrGZaRBwMb_3syn5error12ErrorMessageNtB6_5Debug3fmtBA_, symObjAddr: 0x17E20, symBinAddr: 0x68BB0, symSize: 0x20 }
  - { offset: 0xF0632, size: 0x8, addend: 0x0, symName: __RNvXsq_NtCsieiGu2EXtoJ_4core3fmtSNtNtCsdGrGZaRBwMb_3syn5error12ErrorMessageNtB5_5Debug3fmtBz_, symObjAddr: 0x19CE0, symBinAddr: 0x69580, symSize: 0x80 }
  - { offset: 0xF160E, size: 0x8, addend: 0x0, symName: __RINvNtCsieiGu2EXtoJ_4core3mem7replaceINtNtCslJiobkLta79_5alloc3vec3VecNtNtCsdGrGZaRBwMb_3syn4attr9AttributeEEB1a_, symObjAddr: 0x1450, symBinAddr: 0x54090, symSize: 0x40 }
  - { offset: 0xF1654, size: 0x8, addend: 0x0, symName: __RINvNtCsieiGu2EXtoJ_4core3mem7replaceNtNtCsdGrGZaRBwMb_3syn4expr4ExprEBD_, symObjAddr: 0x1490, symBinAddr: 0x540D0, symSize: 0x50 }
  - { offset: 0xF1B63, size: 0x8, addend: 0x0, symName: __RNvXs_NtNtCsieiGu2EXtoJ_4core5slice4iterRSNtNtCsdGrGZaRBwMb_3syn4attr9AttributeNtNtNtNtB8_4iter6traits7collect12IntoIterator9into_iterBI_, symObjAddr: 0x196F0, symBinAddr: 0x69490, symSize: 0x50 }
  - { offset: 0xF1D94, size: 0x8, addend: 0x0, symName: __RNvMNtCsieiGu2EXtoJ_4core5sliceSNtNtCsdGrGZaRBwMb_3syn4attr9Attribute4iterBy_, symObjAddr: 0x4080, symBinAddr: 0x561C0, symSize: 0x20 }
  - { offset: 0xF1DCB, size: 0x8, addend: 0x0, symName: __RNvMNtCsieiGu2EXtoJ_4core5sliceSTNtNtCsdGrGZaRBwMb_3syn8lifetime8LifetimeNtNtBz_5token4PlusE4iterBz_, symObjAddr: 0x40C0, symBinAddr: 0x561E0, symSize: 0x20 }
  - { offset: 0xF2191, size: 0x8, addend: 0x0, symName: __RNvXNtNtCsieiGu2EXtoJ_4core5clone6uninitNtNtCsdGrGZaRBwMb_3syn8lifetime8LifetimeNtB2_8CopySpec9clone_oneBG_, symObjAddr: 0x179D0, symBinAddr: 0x689A0, symSize: 0x50 }
  - { offset: 0xF36CD, size: 0x8, addend: 0x0, symName: __RNvXsB_NtCslJiobkLta79_5alloc6stringNtNtCsieiGu2EXtoJ_4core3fmt9ArgumentsNtB5_12SpecToString14spec_to_stringCsdGrGZaRBwMb_3syn, symObjAddr: 0x19170, symBinAddr: 0x69220, symSize: 0x40 }
  - { offset: 0xF3701, size: 0x8, addend: 0x0, symName: __RNvXsw_NtCslJiobkLta79_5alloc6stringNtNtCsdGrGZaRBwMb_3syn5error5ErrorNtB5_8ToString9to_stringBC_, symObjAddr: 0x19D60, symBinAddr: 0x69600, symSize: 0x30 }
  - { offset: 0xF3738, size: 0x8, addend: 0x0, symName: __RNvXsw_NtCslJiobkLta79_5alloc6stringNtNtCsieiGu2EXtoJ_4core3fmt9ArgumentsNtB5_8ToString9to_stringCsdGrGZaRBwMb_3syn, symObjAddr: 0x19D90, symBinAddr: 0x69630, symSize: 0x30 }
  - { offset: 0xF3775, size: 0x8, addend: 0x0, symName: __RNvXsx_NtCslJiobkLta79_5alloc6stringNtNtCsdGrGZaRBwMb_3syn5error5ErrorNtB5_12SpecToString14spec_to_stringBC_, symObjAddr: 0x19DC0, symBinAddr: 0x69660, symSize: 0x120 }
  - { offset: 0xF3905, size: 0x8, addend: 0x0, symName: __RINvMNtCslJiobkLta79_5alloc5sliceSNtNtCsdGrGZaRBwMb_3syn5error12ErrorMessage8into_vecNtNtB5_5alloc6GlobalEBA_, symObjAddr: 0xD50, symBinAddr: 0x53990, symSize: 0x40 }
  - { offset: 0xF39B9, size: 0x8, addend: 0x0, symName: __RINvXNvMNtCslJiobkLta79_5alloc5sliceSp9to_vec_inNtNtCsdGrGZaRBwMb_3syn4attr9AttributeNtB3_10ConvertVec6to_vecNtNtB8_5alloc6GlobalEBO_, symObjAddr: 0x18F0, symBinAddr: 0x54530, symSize: 0x490 }
  - { offset: 0xF3F0D, size: 0x8, addend: 0x0, symName: __RINvXNvMNtCslJiobkLta79_5alloc5sliceSp9to_vec_inTNtNtCsdGrGZaRBwMb_3syn8lifetime8LifetimeNtNtBP_5token4PlusENtB3_10ConvertVec6to_vecNtNtB8_5alloc6GlobalEBP_, symObjAddr: 0x2210, symBinAddr: 0x549C0, symSize: 0x490 }
  - { offset: 0xF4FAA, size: 0x8, addend: 0x0, symName: __RINvNtNtCsdGrGZaRBwMb_3syn5token7parsing5punctKj1_EB6_, symObjAddr: 0x14E0, symBinAddr: 0x54120, symSize: 0x150 }
  - { offset: 0xF5024, size: 0x8, addend: 0x0, symName: __RINvNtNtCsdGrGZaRBwMb_3syn5token7parsing5punctKj2_EB6_, symObjAddr: 0x1630, symBinAddr: 0x54270, symSize: 0x150 }
  - { offset: 0xF509E, size: 0x8, addend: 0x0, symName: __RINvNtNtCsdGrGZaRBwMb_3syn5token7parsing5punctKj3_EB6_, symObjAddr: 0x1780, symBinAddr: 0x543C0, symSize: 0x170 }
  - { offset: 0xF511E, size: 0x8, addend: 0x0, symName: __RNCNvNtNtCsdGrGZaRBwMb_3syn5token7parsing12punct_helper0B7_, symObjAddr: 0x27E0, symBinAddr: 0x54F90, symSize: 0x4B0 }
  - { offset: 0xF5281, size: 0x8, addend: 0x0, symName: __RNCNvNtNtCsdGrGZaRBwMb_3syn5token7parsing7keyword0B7_, symObjAddr: 0x2C90, symBinAddr: 0x55440, symSize: 0x2E0 }
  - { offset: 0xF5328, size: 0x8, addend: 0x0, symName: __RNvNtNtCsdGrGZaRBwMb_3syn5token7parsing10peek_punct, symObjAddr: 0x16550, symBinAddr: 0x67520, symSize: 0x250 }
  - { offset: 0xF53C9, size: 0x8, addend: 0x0, symName: __RNvNtNtCsdGrGZaRBwMb_3syn5token7parsing12peek_keyword, symObjAddr: 0x167A0, symBinAddr: 0x67770, symSize: 0x100 }
  - { offset: 0xF542E, size: 0x8, addend: 0x0, symName: __RNvNtNtCsdGrGZaRBwMb_3syn5token7parsing12punct_helper, symObjAddr: 0x168A0, symBinAddr: 0x67870, symSize: 0x50 }
  - { offset: 0xF547A, size: 0x8, addend: 0x0, symName: __RNvNtNtCsdGrGZaRBwMb_3syn5token7parsing7keyword, symObjAddr: 0x168F0, symBinAddr: 0x678C0, symSize: 0x40 }
  - { offset: 0xF54BD, size: 0x8, addend: 0x0, symName: __RNvNtNtCsdGrGZaRBwMb_3syn5token8printing5delim, symObjAddr: 0x16930, symBinAddr: 0x67900, symSize: 0xC0 }
  - { offset: 0xF552D, size: 0x8, addend: 0x0, symName: __RNvNtNtCsdGrGZaRBwMb_3syn5token8printing5punct, symObjAddr: 0x169F0, symBinAddr: 0x679C0, symSize: 0x2A0 }
  - { offset: 0xF56C8, size: 0x8, addend: 0x0, symName: __RNvNtNtCsdGrGZaRBwMb_3syn5token8printing7keyword, symObjAddr: 0x16C90, symBinAddr: 0x67C60, symSize: 0x60 }
  - { offset: 0xF5716, size: 0x8, addend: 0x0, symName: __RNvXsq_NtCsdGrGZaRBwMb_3syn5tokenNtNtB7_8lifetime8LifetimeNtB5_5Token4peek, symObjAddr: 0x19BC0, symBinAddr: 0x694E0, symSize: 0x80 }
  - { offset: 0xF5742, size: 0x8, addend: 0x0, symName: __RNvXsq_NtCsdGrGZaRBwMb_3syn5tokenNtNtB7_8lifetime8LifetimeNtB5_5Token7display, symObjAddr: 0x19C40, symBinAddr: 0x69560, symSize: 0x20 }
  - { offset: 0xF5B92, size: 0x8, addend: 0x0, symName: __RNvXNtNtCsdGrGZaRBwMb_3syn8lifetime7parsingNtB4_8LifetimeNtNtB6_5parse5Parse5parse, symObjAddr: 0x17940, symBinAddr: 0x68910, symSize: 0x30 }
  - { offset: 0xF5BCA, size: 0x8, addend: 0x0, symName: __RNvXNtNtCsdGrGZaRBwMb_3syn8lifetime8printingNtB4_8LifetimeNtNtCs9OU1sGv5X54_5quote9to_tokens8ToTokens9to_tokens, symObjAddr: 0x17970, symBinAddr: 0x68940, symSize: 0x60 }
  - { offset: 0xF5C07, size: 0x8, addend: 0x0, symName: __RNvXs0_NtCsdGrGZaRBwMb_3syn8lifetimeNtB5_8LifetimeNtNtCsieiGu2EXtoJ_4core5clone5Clone5clone, symObjAddr: 0x17AF0, symBinAddr: 0x68AC0, symSize: 0x60 }
  - { offset: 0xF71BC, size: 0x8, addend: 0x0, symName: __RNCNvNtNtCsdGrGZaRBwMb_3syn4expr7parsing11multi_index0B7_, symObjAddr: 0x27B0, symBinAddr: 0x54F60, symSize: 0x30 }
  - { offset: 0xF7207, size: 0x8, addend: 0x0, symName: __RNCNvXsA_NtNtCsdGrGZaRBwMb_3syn4expr7parsingNtB9_5IndexNtNtBb_5parse5Parse5parse0Bb_, symObjAddr: 0x3030, symBinAddr: 0x557E0, symSize: 0x50 }
  - { offset: 0xF7248, size: 0x8, addend: 0x0, symName: __RNvNtNtCsdGrGZaRBwMb_3syn4expr7parsing10check_cast, symObjAddr: 0x5E90, symBinAddr: 0x56E60, symSize: 0x300 }
  - { offset: 0xF72F1, size: 0x8, addend: 0x0, symName: __RNvNtNtCsdGrGZaRBwMb_3syn4expr7parsing10expr_attrs, symObjAddr: 0x6190, symBinAddr: 0x57160, symSize: 0x200 }
  - { offset: 0xF7355, size: 0x8, addend: 0x0, symName: __RNvNtNtCsdGrGZaRBwMb_3syn4expr7parsing10expr_break, symObjAddr: 0x6390, symBinAddr: 0x57360, symSize: 0x760 }
  - { offset: 0xF74EA, size: 0x8, addend: 0x0, symName: __RNvNtNtCsdGrGZaRBwMb_3syn4expr7parsing10expr_group, symObjAddr: 0x6AF0, symBinAddr: 0x57AC0, symSize: 0x9C0 }
  - { offset: 0xF76B9, size: 0x8, addend: 0x0, symName: __RNvNtNtCsdGrGZaRBwMb_3syn4expr7parsing10expr_range, symObjAddr: 0x74B0, symBinAddr: 0x58480, symSize: 0x260 }
  - { offset: 0xF77A7, size: 0x8, addend: 0x0, symName: __RNvNtNtCsdGrGZaRBwMb_3syn4expr7parsing10expr_unary, symObjAddr: 0x7710, symBinAddr: 0x586E0, symSize: 0x340 }
  - { offset: 0xF7851, size: 0x8, addend: 0x0, symName: __RNvNtNtCsdGrGZaRBwMb_3syn4expr7parsing10parse_expr, symObjAddr: 0x7A50, symBinAddr: 0x58A20, symSize: 0x12D0 }
  - { offset: 0xF7BD1, size: 0x8, addend: 0x0, symName: __RNvNtNtCsdGrGZaRBwMb_3syn4expr7parsing10unary_expr, symObjAddr: 0x8D20, symBinAddr: 0x59CF0, symSize: 0xC50 }
  - { offset: 0xF7DF1, size: 0x8, addend: 0x0, symName: __RNvNtNtCsdGrGZaRBwMb_3syn4expr7parsing11closure_arg, symObjAddr: 0x9970, symBinAddr: 0x5A940, symSize: 0x1330 }
  - { offset: 0xF8073, size: 0x8, addend: 0x0, symName: __RNvNtNtCsdGrGZaRBwMb_3syn4expr7parsing11expr_become, symObjAddr: 0xACA0, symBinAddr: 0x5BC70, symSize: 0x290 }
  - { offset: 0xF8105, size: 0x8, addend: 0x0, symName: __RNvNtNtCsdGrGZaRBwMb_3syn4expr7parsing11multi_index, symObjAddr: 0xAF30, symBinAddr: 0x5BF00, symSize: 0x8E0 }
  - { offset: 0xF82AD, size: 0x8, addend: 0x0, symName: __RNvNtNtCsdGrGZaRBwMb_3syn4expr7parsing12atom_labeled, symObjAddr: 0xB810, symBinAddr: 0x5C7E0, symSize: 0x8D0 }
  - { offset: 0xF83C2, size: 0x8, addend: 0x0, symName: __RNvNtNtCsdGrGZaRBwMb_3syn4expr7parsing12expr_builtin, symObjAddr: 0xC0E0, symBinAddr: 0x5D0B0, symSize: 0x620 }
  - { offset: 0xF84ED, size: 0x8, addend: 0x0, symName: __RNvNtNtCsdGrGZaRBwMb_3syn4expr7parsing12expr_closure, symObjAddr: 0xC700, symBinAddr: 0x5D6D0, symSize: 0x12F0 }
  - { offset: 0xF88CF, size: 0x8, addend: 0x0, symName: __RNvNtNtCsdGrGZaRBwMb_3syn4expr7parsing12trailer_expr, symObjAddr: 0xD9F0, symBinAddr: 0x5E9C0, symSize: 0x740 }
  - { offset: 0xF8A84, size: 0x8, addend: 0x0, symName: __RNvNtNtCsdGrGZaRBwMb_3syn4expr7parsing14ambiguous_expr, symObjAddr: 0xE130, symBinAddr: 0x5F100, symSize: 0x1C0 }
  - { offset: 0xF8B1E, size: 0x8, addend: 0x0, symName: __RNvNtNtCsdGrGZaRBwMb_3syn4expr7parsing14paren_or_tuple, symObjAddr: 0xE2F0, symBinAddr: 0x5F2C0, symSize: 0x9A0 }
  - { offset: 0xF8CBD, size: 0x8, addend: 0x0, symName: __RNvNtNtCsdGrGZaRBwMb_3syn4expr7parsing14trailer_helper, symObjAddr: 0xEC90, symBinAddr: 0x5FC60, symSize: 0x22E0 }
  - { offset: 0xF90B4, size: 0x8, addend: 0x0, symName: __RNvNtNtCsdGrGZaRBwMb_3syn4expr7parsing15array_or_repeat, symObjAddr: 0x10F70, symBinAddr: 0x61F40, symSize: 0xD60 }
  - { offset: 0xF92F7, size: 0x8, addend: 0x0, symName: __RNvNtNtCsdGrGZaRBwMb_3syn4expr7parsing15parse_binop_rhs, symObjAddr: 0x11CD0, symBinAddr: 0x62CA0, symSize: 0x4B0 }
  - { offset: 0xF93FD, size: 0x8, addend: 0x0, symName: __RNvNtNtCsdGrGZaRBwMb_3syn4expr7parsing15parse_range_end, symObjAddr: 0x12180, symBinAddr: 0x63150, symSize: 0x3F0 }
  - { offset: 0xF9485, size: 0x8, addend: 0x0, symName: __RNvNtNtCsdGrGZaRBwMb_3syn4expr7parsing15peek_precedence, symObjAddr: 0x12570, symBinAddr: 0x63540, symSize: 0x190 }
  - { offset: 0xF94C9, size: 0x8, addend: 0x0, symName: __RNvNtNtCsdGrGZaRBwMb_3syn4expr7parsing18expr_struct_helper, symObjAddr: 0x12700, symBinAddr: 0x636D0, symSize: 0xC50 }
  - { offset: 0xF962B, size: 0x8, addend: 0x0, symName: __RNvNtNtCsdGrGZaRBwMb_3syn4expr7parsing22continue_parsing_early, symObjAddr: 0x13350, symBinAddr: 0x64320, symSize: 0x140 }
  - { offset: 0xF966F, size: 0x8, addend: 0x0, symName: __RNvNtNtCsdGrGZaRBwMb_3syn4expr7parsing23path_or_macro_or_struct, symObjAddr: 0x13490, symBinAddr: 0x64460, symSize: 0x290 }
  - { offset: 0xF9711, size: 0x8, addend: 0x0, symName: __RNvNtNtCsdGrGZaRBwMb_3syn4expr7parsing31rest_of_path_or_macro_or_struct, symObjAddr: 0x13720, symBinAddr: 0x646F0, symSize: 0x720 }
  - { offset: 0xF97DC, size: 0x8, addend: 0x0, symName: __RNvNtNtCsdGrGZaRBwMb_3syn4expr7parsing32parse_with_earlier_boundary_rule, symObjAddr: 0x13E40, symBinAddr: 0x64E10, symSize: 0x1540 }
  - { offset: 0xF9AB3, size: 0x8, addend: 0x0, symName: __RNvNtNtCsdGrGZaRBwMb_3syn4expr7parsing8expr_let, symObjAddr: 0x15380, symBinAddr: 0x66350, symSize: 0x780 }
  - { offset: 0xF9BF8, size: 0x8, addend: 0x0, symName: __RNvNtNtCsdGrGZaRBwMb_3syn4expr7parsing9atom_expr, symObjAddr: 0x15B00, symBinAddr: 0x66AD0, symSize: 0xA50 }
  - { offset: 0xF9E95, size: 0x8, addend: 0x0, symName: __RNcNtNtNtCsdGrGZaRBwMb_3syn4attr4Meta4List0B7_, symObjAddr: 0x3330, symBinAddr: 0x55830, symSize: 0x40 }
  - { offset: 0xF9EC6, size: 0x8, addend: 0x0, symName: __RNcNtNtNtCsdGrGZaRBwMb_3syn4attr4Meta9NameValue0B7_, symObjAddr: 0x3370, symBinAddr: 0x55870, symSize: 0x30 }
  - { offset: 0xF9EFD, size: 0x8, addend: 0x0, symName: __RNvNvXs1_NtCsdGrGZaRBwMb_3syn4attrRSNtB7_9AttributeNtB7_11FilterAttrs5inner8is_inner, symObjAddr: 0x175D0, symBinAddr: 0x685A0, symSize: 0x40 }
  - { offset: 0xF9F31, size: 0x8, addend: 0x0, symName: __RNvNvXs1_NtCsdGrGZaRBwMb_3syn4attrRSNtB7_9AttributeNtB7_11FilterAttrs5outer8is_outer, symObjAddr: 0x17610, symBinAddr: 0x685E0, symSize: 0x40 }
  - { offset: 0xF9F60, size: 0x8, addend: 0x0, symName: __RNvXs1_NtCsdGrGZaRBwMb_3syn4attrRSNtB5_9AttributeNtB5_11FilterAttrs5inner, symObjAddr: 0x181A0, symBinAddr: 0x68F10, symSize: 0x60 }
  - { offset: 0xF9F8E, size: 0x8, addend: 0x0, symName: __RNvXs1_NtCsdGrGZaRBwMb_3syn4attrRSNtB5_9AttributeNtB5_11FilterAttrs5outer, symObjAddr: 0x18200, symBinAddr: 0x68F70, symSize: 0x60 }
  - { offset: 0xF9FC7, size: 0x8, addend: 0x0, symName: __RNvXNtNtCsdGrGZaRBwMb_3syn4attr7parsingNtB4_4MetaNtNtB6_5parse5Parse5parse, symObjAddr: 0x176B0, symBinAddr: 0x68680, symSize: 0x200 }
  - { offset: 0xFA05E, size: 0x8, addend: 0x0, symName: __RNvXNtNtCsdGrGZaRBwMb_3syn4attr8printingNtB4_9AttributeNtNtCs9OU1sGv5X54_5quote9to_tokens8ToTokens9to_tokens, symObjAddr: 0x178B0, symBinAddr: 0x68880, symSize: 0x90 }
  - { offset: 0xFA0BB, size: 0x8, addend: 0x0, symName: __RNvXs0_NtNtCsdGrGZaRBwMb_3syn4attr8printingNtB7_8MetaListNtNtCs9OU1sGv5X54_5quote9to_tokens8ToTokens9to_tokens, symObjAddr: 0x17D70, symBinAddr: 0x68B40, symSize: 0x70 }
  - { offset: 0xFA0FA, size: 0x8, addend: 0x0, symName: __RNvXs1_NtNtCsdGrGZaRBwMb_3syn4attr8printingNtB7_13MetaNameValueNtNtCs9OU1sGv5X54_5quote9to_tokens8ToTokens9to_tokens, symObjAddr: 0x182E0, symBinAddr: 0x69000, symSize: 0x70 }
  - { offset: 0xFA139, size: 0x8, addend: 0x0, symName: __RNvXs_NtNtCsdGrGZaRBwMb_3syn4attr8printingNtB6_4MetaNtNtCs9OU1sGv5X54_5quote9to_tokens8ToTokens9to_tokens, symObjAddr: 0x19640, symBinAddr: 0x693E0, symSize: 0xB0 }
  - { offset: 0xFCADE, size: 0x8, addend: 0x0, symName: __RINvNtCsdGrGZaRBwMb_3syn5error4new2NtNtCslJiobkLta79_5alloc6string6StringEB4_, symObjAddr: 0xDD0, symBinAddr: 0x53A10, symSize: 0x90 }
  - { offset: 0xFCB35, size: 0x8, addend: 0x0, symName: __RINvNtCsdGrGZaRBwMb_3syn5error4new2ReEB4_, symObjAddr: 0xE60, symBinAddr: 0x53AA0, symSize: 0x80 }
  - { offset: 0xFCB8A, size: 0x8, addend: 0x0, symName: __RINvNtCsdGrGZaRBwMb_3syn5error6new_atNtNtCsieiGu2EXtoJ_4core3fmt9ArgumentsEB4_, symObjAddr: 0xEE0, symBinAddr: 0x53B20, symSize: 0x1E0 }
  - { offset: 0xFCC3C, size: 0x8, addend: 0x0, symName: __RINvNtCsdGrGZaRBwMb_3syn5error6new_atNtNtCslJiobkLta79_5alloc6string6StringEB4_, symObjAddr: 0x10C0, symBinAddr: 0x53D00, symSize: 0x1E0 }
  - { offset: 0xFCCEE, size: 0x8, addend: 0x0, symName: __RINvNtCsdGrGZaRBwMb_3syn5error6new_atReEB4_, symObjAddr: 0x12A0, symBinAddr: 0x53EE0, symSize: 0x1B0 }
  - { offset: 0xFCDAF, size: 0x8, addend: 0x0, symName: __RNCNvNvMNtCsdGrGZaRBwMb_3syn5errorNtB6_5Error11new_spanned11new_spanned0B8_, symObjAddr: 0x2F70, symBinAddr: 0x55720, symSize: 0x60 }
  - { offset: 0xFCDE6, size: 0x8, addend: 0x0, symName: __RNCNvNvMNtCsdGrGZaRBwMb_3syn5errorNtB6_5Error11new_spanned11new_spanneds_0B8_, symObjAddr: 0x2FD0, symBinAddr: 0x55780, symSize: 0x60 }
  - { offset: 0xFCE2C, size: 0x8, addend: 0x0, symName: __RNvNvMNtCsdGrGZaRBwMb_3syn5errorNtB4_5Error11new_spanned11new_spanned, symObjAddr: 0x16CF0, symBinAddr: 0x67CC0, symSize: 0x2E0 }
  - { offset: 0xFCEAE, size: 0x8, addend: 0x0, symName: __RNvNvMNtCsdGrGZaRBwMb_3syn5errorNtB4_5Error3new3new, symObjAddr: 0x16FD0, symBinAddr: 0x67FA0, symSize: 0x1E0 }
  - { offset: 0xFCEF0, size: 0x8, addend: 0x0, symName: __RNvNvNtCsdGrGZaRBwMb_3syn5error4new24new2, symObjAddr: 0x173E0, symBinAddr: 0x683B0, symSize: 0x1F0 }
  - { offset: 0xFCF43, size: 0x8, addend: 0x0, symName: __RNvXs0_NtCsdGrGZaRBwMb_3syn5errorNtB5_5ErrorNtNtCsieiGu2EXtoJ_4core3fmt5Debug3fmt, symObjAddr: 0x17A20, symBinAddr: 0x689F0, symSize: 0xD0 }
  - { offset: 0xFCF86, size: 0x8, addend: 0x0, symName: __RNvXs1_NtCsdGrGZaRBwMb_3syn5errorNtB5_12ErrorMessageNtNtCsieiGu2EXtoJ_4core3fmt5Debug3fmt, symObjAddr: 0x18260, symBinAddr: 0x68FD0, symSize: 0x30 }
  - { offset: 0xFCFC9, size: 0x8, addend: 0x0, symName: __RNvXs2_NtCsdGrGZaRBwMb_3syn5errorNtB5_5ErrorNtNtCsieiGu2EXtoJ_4core3fmt7Display3fmt, symObjAddr: 0x18590, symBinAddr: 0x69070, symSize: 0x50 }
  - { offset: 0xFD00C, size: 0x8, addend: 0x0, symName: __RNvXs8_NtCsdGrGZaRBwMb_3syn5errorNtB5_5ErrorINtNtCsieiGu2EXtoJ_4core7convert4FromNtCsaKzlTDPUHDb_11proc_macro28LexErrorE4from, symObjAddr: 0x19000, symBinAddr: 0x691E0, symSize: 0x40 }
  - { offset: 0xFD7EC, size: 0x8, addend: 0x0, symName: __RNCNvMNtCsdGrGZaRBwMb_3syn9lookaheadNtB4_10Lookahead15error0B6_, symObjAddr: 0x26A0, symBinAddr: 0x54E50, symSize: 0x110 }
  - { offset: 0xFD82B, size: 0x8, addend: 0x0, symName: __RNvNtCsdGrGZaRBwMb_3syn9lookahead3new, symObjAddr: 0x5D20, symBinAddr: 0x56CF0, symSize: 0x90 }
  - { offset: 0xFD865, size: 0x8, addend: 0x0, symName: __RNvNtCsdGrGZaRBwMb_3syn9lookahead9peek_impl, symObjAddr: 0x5DB0, symBinAddr: 0x56D80, symSize: 0xE0 }
  - { offset: 0xFD8B2, size: 0x8, addend: 0x0, symName: __RNvXs_NtCsdGrGZaRBwMb_3syn9lookaheadNtB4_14CommaSeparatedNtNtCsieiGu2EXtoJ_4core3fmt7Display3fmt, symObjAddr: 0x192F0, symBinAddr: 0x69290, symSize: 0x150 }
  - { offset: 0xFDB7B, size: 0x8, addend: 0x0, symName: __RNvNtCsdGrGZaRBwMb_3syn5ident6xid_ok, symObjAddr: 0x5C00, symBinAddr: 0x56BE0, symSize: 0x110 }
  - { offset: 0xFDC29, size: 0x8, addend: 0x0, symName: __RNvXs1L_NtNtCsdGrGZaRBwMb_3syn3gen5cloneNtNtBa_4attr4MetaNtNtCsieiGu2EXtoJ_4core5clone5Clone5clone, symObjAddr: 0x17E60, symBinAddr: 0x68BD0, symSize: 0x150 }
  - { offset: 0xFDCAF, size: 0x8, addend: 0x0, symName: __RNvXs1M_NtNtCsdGrGZaRBwMb_3syn3gen5cloneNtNtBa_4attr8MetaListNtNtCsieiGu2EXtoJ_4core5clone5Clone5clone, symObjAddr: 0x17FB0, symBinAddr: 0x68D20, symSize: 0xE0 }
  - { offset: 0xFDCE3, size: 0x8, addend: 0x0, symName: __RNvXs1N_NtNtCsdGrGZaRBwMb_3syn3gen5cloneNtNtBa_4attr13MetaNameValueNtNtCsieiGu2EXtoJ_4core5clone5Clone5clone, symObjAddr: 0x18090, symBinAddr: 0x68E00, symSize: 0x110 }
  - { offset: 0xFDD17, size: 0x8, addend: 0x0, symName: __RNvXs4_NtNtCsdGrGZaRBwMb_3syn3gen5cloneNtNtB9_4attr9AttrStyleNtNtCsieiGu2EXtoJ_4core5clone5Clone5clone, symObjAddr: 0x18C50, symBinAddr: 0x690C0, symSize: 0x20 }
  - { offset: 0xFDD49, size: 0x8, addend: 0x0, symName: __RNvXs5_NtNtCsdGrGZaRBwMb_3syn3gen5cloneNtNtB9_4attr9AttributeNtNtCsieiGu2EXtoJ_4core5clone5Clone5clone, symObjAddr: 0x18D90, symBinAddr: 0x690E0, symSize: 0x100 }
  - { offset: 0xFE347, size: 0x8, addend: 0x0, symName: __RINvMNtCsdGrGZaRBwMb_3syn5errorNtB3_5Error11new_spannedRNtNtB5_2ty4TypeReEB5_, symObjAddr: 0xB0, symBinAddr: 0x52CF0, symSize: 0xB0 }
  - { offset: 0xFE38A, size: 0x8, addend: 0x0, symName: __RINvMNtCsdGrGZaRBwMb_3syn5errorNtB3_5Error3newBt_EB5_, symObjAddr: 0x160, symBinAddr: 0x52DA0, symSize: 0x80 }
  - { offset: 0xFE3C5, size: 0x8, addend: 0x0, symName: __RINvMNtCsdGrGZaRBwMb_3syn5errorNtB3_5Error3newNtCsaKzlTDPUHDb_11proc_macro28LexErrorEB5_, symObjAddr: 0x1E0, symBinAddr: 0x52E20, symSize: 0x70 }
  - { offset: 0xFE4F9, size: 0x8, addend: 0x0, symName: __RINvMNtCsdGrGZaRBwMb_3syn5errorNtB3_5Error3newNtNtCsieiGu2EXtoJ_4core3fmt9ArgumentsEB5_, symObjAddr: 0x250, symBinAddr: 0x52E90, symSize: 0x70 }
  - { offset: 0xFE534, size: 0x8, addend: 0x0, symName: __RINvMNtCsdGrGZaRBwMb_3syn5errorNtB3_5Error3newNtNtCslJiobkLta79_5alloc6string6StringEB5_, symObjAddr: 0x2C0, symBinAddr: 0x52F00, symSize: 0x80 }
  - { offset: 0xFE56F, size: 0x8, addend: 0x0, symName: __RINvMNtCsdGrGZaRBwMb_3syn5errorNtB3_5Error3newNtNtNtCsieiGu2EXtoJ_4core3num5error13ParseIntErrorEB5_, symObjAddr: 0x340, symBinAddr: 0x52F80, symSize: 0x70 }
  - { offset: 0xFE5A8, size: 0x8, addend: 0x0, symName: __RINvMNtCsdGrGZaRBwMb_3syn5errorNtB3_5Error3newReEB5_, symObjAddr: 0x3B0, symBinAddr: 0x52FF0, symSize: 0x70 }
  - { offset: 0xFE627, size: 0x8, addend: 0x0, symName: __RINvMNtCsdGrGZaRBwMb_3syn9lookaheadNtB3_10Lookahead14peekINvNtB5_5token10UnderscoreNtB3_11TokenMarkerEEB5_, symObjAddr: 0x420, symBinAddr: 0x53060, symSize: 0x30 }
  - { offset: 0xFE678, size: 0x8, addend: 0x0, symName: __RINvMNtCsdGrGZaRBwMb_3syn9lookaheadNtB3_10Lookahead14peekINvNtB5_5token2EqNtB3_11TokenMarkerEEB5_, symObjAddr: 0x450, symBinAddr: 0x53090, symSize: 0x30 }
  - { offset: 0xFE6C9, size: 0x8, addend: 0x0, symName: __RINvMNtCsdGrGZaRBwMb_3syn9lookaheadNtB3_10Lookahead14peekINvNtB5_5token2FnNtB3_11TokenMarkerEEB5_, symObjAddr: 0x480, symBinAddr: 0x530C0, symSize: 0x30 }
  - { offset: 0xFE71A, size: 0x8, addend: 0x0, symName: __RINvMNtCsdGrGZaRBwMb_3syn9lookaheadNtB3_10Lookahead14peekINvNtB5_5token2GtNtB3_11TokenMarkerEEB5_, symObjAddr: 0x4B0, symBinAddr: 0x530F0, symSize: 0x30 }
  - { offset: 0xFE76B, size: 0x8, addend: 0x0, symName: __RINvMNtCsdGrGZaRBwMb_3syn9lookaheadNtB3_10Lookahead14peekINvNtB5_5token2IfNtB3_11TokenMarkerEEB5_, symObjAddr: 0x4E0, symBinAddr: 0x53120, symSize: 0x30 }
  - { offset: 0xFE7BC, size: 0x8, addend: 0x0, symName: __RINvMNtCsdGrGZaRBwMb_3syn9lookaheadNtB3_10Lookahead14peekINvNtB5_5token2LtNtB3_11TokenMarkerEEB5_, symObjAddr: 0x510, symBinAddr: 0x53150, symSize: 0x30 }
  - { offset: 0xFE80D, size: 0x8, addend: 0x0, symName: __RINvMNtCsdGrGZaRBwMb_3syn9lookaheadNtB3_10Lookahead14peekINvNtB5_5token3AndNtB3_11TokenMarkerEEB5_, symObjAddr: 0x540, symBinAddr: 0x53180, symSize: 0x30 }
  - { offset: 0xFE85E, size: 0x8, addend: 0x0, symName: __RINvMNtCsdGrGZaRBwMb_3syn9lookaheadNtB3_10Lookahead14peekINvNtB5_5token3DynNtB3_11TokenMarkerEEB5_, symObjAddr: 0x570, symBinAddr: 0x531B0, symSize: 0x30 }
  - { offset: 0xFE8AF, size: 0x8, addend: 0x0, symName: __RINvMNtCsdGrGZaRBwMb_3syn9lookaheadNtB3_10Lookahead14peekINvNtB5_5token3ForNtB3_11TokenMarkerEEB5_, symObjAddr: 0x5A0, symBinAddr: 0x531E0, symSize: 0x30 }
  - { offset: 0xFE900, size: 0x8, addend: 0x0, symName: __RINvMNtCsdGrGZaRBwMb_3syn9lookaheadNtB3_10Lookahead14peekINvNtB5_5token3ModNtB3_11TokenMarkerEEB5_, symObjAddr: 0x5D0, symBinAddr: 0x53210, symSize: 0x30 }
  - { offset: 0xFE951, size: 0x8, addend: 0x0, symName: __RINvMNtCsdGrGZaRBwMb_3syn9lookaheadNtB3_10Lookahead14peekINvNtB5_5token3MutNtB3_11TokenMarkerEEB5_, symObjAddr: 0x600, symBinAddr: 0x53240, symSize: 0x30 }
  - { offset: 0xFE9A2, size: 0x8, addend: 0x0, symName: __RINvMNtCsdGrGZaRBwMb_3syn9lookaheadNtB3_10Lookahead14peekINvNtB5_5token3NotNtB3_11TokenMarkerEEB5_, symObjAddr: 0x630, symBinAddr: 0x53270, symSize: 0x30 }
  - { offset: 0xFE9F3, size: 0x8, addend: 0x0, symName: __RINvMNtCsdGrGZaRBwMb_3syn9lookaheadNtB3_10Lookahead14peekINvNtB5_5token3RefNtB3_11TokenMarkerEEB5_, symObjAddr: 0x660, symBinAddr: 0x532A0, symSize: 0x30 }
  - { offset: 0xFEA44, size: 0x8, addend: 0x0, symName: __RINvMNtCsdGrGZaRBwMb_3syn9lookaheadNtB3_10Lookahead14peekINvNtB5_5token3TryNtB3_11TokenMarkerEEB5_, symObjAddr: 0x690, symBinAddr: 0x532D0, symSize: 0x30 }
  - { offset: 0xFEA95, size: 0x8, addend: 0x0, symName: __RINvMNtCsdGrGZaRBwMb_3syn9lookaheadNtB3_10Lookahead14peekINvNtB5_5token3UseNtB3_11TokenMarkerEEB5_, symObjAddr: 0x6C0, symBinAddr: 0x53300, symSize: 0x30 }
  - { offset: 0xFEAE6, size: 0x8, addend: 0x0, symName: __RINvMNtCsdGrGZaRBwMb_3syn9lookaheadNtB3_10Lookahead14peekINvNtB5_5token4AutoNtB3_11TokenMarkerEEB5_, symObjAddr: 0x6F0, symBinAddr: 0x53330, symSize: 0x30 }
  - { offset: 0xFEB37, size: 0x8, addend: 0x0, symName: __RINvMNtCsdGrGZaRBwMb_3syn9lookaheadNtB3_10Lookahead14peekINvNtB5_5token4EnumNtB3_11TokenMarkerEEB5_, symObjAddr: 0x720, symBinAddr: 0x53360, symSize: 0x30 }
  - { offset: 0xFEB88, size: 0x8, addend: 0x0, symName: __RINvMNtCsdGrGZaRBwMb_3syn9lookaheadNtB3_10Lookahead14peekINvNtB5_5token4ImplNtB3_11TokenMarkerEEB5_, symObjAddr: 0x750, symBinAddr: 0x53390, symSize: 0x30 }
  - { offset: 0xFEBD9, size: 0x8, addend: 0x0, symName: __RINvMNtCsdGrGZaRBwMb_3syn9lookaheadNtB3_10Lookahead14peekINvNtB5_5token4SemiNtB3_11TokenMarkerEEB5_, symObjAddr: 0x780, symBinAddr: 0x533C0, symSize: 0x30 }
  - { offset: 0xFEC2A, size: 0x8, addend: 0x0, symName: __RINvMNtCsdGrGZaRBwMb_3syn9lookaheadNtB3_10Lookahead14peekINvNtB5_5token4StarNtB3_11TokenMarkerEEB5_, symObjAddr: 0x7B0, symBinAddr: 0x533F0, symSize: 0x30 }
  - { offset: 0xFEC7B, size: 0x8, addend: 0x0, symName: __RINvMNtCsdGrGZaRBwMb_3syn9lookaheadNtB3_10Lookahead14peekINvNtB5_5token4TypeNtB3_11TokenMarkerEEB5_, symObjAddr: 0x7E0, symBinAddr: 0x53420, symSize: 0x30 }
  - { offset: 0xFECCC, size: 0x8, addend: 0x0, symName: __RINvMNtCsdGrGZaRBwMb_3syn9lookaheadNtB3_10Lookahead14peekINvNtB5_5token5AsyncNtB3_11TokenMarkerEEB5_, symObjAddr: 0x810, symBinAddr: 0x53450, symSize: 0x30 }
  - { offset: 0xFED1D, size: 0x8, addend: 0x0, symName: __RINvMNtCsdGrGZaRBwMb_3syn9lookaheadNtB3_10Lookahead14peekINvNtB5_5token5BraceNtB3_11TokenMarkerEEB5_, symObjAddr: 0x840, symBinAddr: 0x53480, symSize: 0x30 }
  - { offset: 0xFED6E, size: 0x8, addend: 0x0, symName: __RINvMNtCsdGrGZaRBwMb_3syn9lookaheadNtB3_10Lookahead14peekINvNtB5_5token5ColonNtB3_11TokenMarkerEEB5_, symObjAddr: 0x870, symBinAddr: 0x534B0, symSize: 0x30 }
  - { offset: 0xFEDBF, size: 0x8, addend: 0x0, symName: __RINvMNtCsdGrGZaRBwMb_3syn9lookaheadNtB3_10Lookahead14peekINvNtB5_5token5CommaNtB3_11TokenMarkerEEB5_, symObjAddr: 0x8A0, symBinAddr: 0x534E0, symSize: 0x30 }
  - { offset: 0xFEE10, size: 0x8, addend: 0x0, symName: __RINvMNtCsdGrGZaRBwMb_3syn9lookaheadNtB3_10Lookahead14peekINvNtB5_5token5ConstNtB3_11TokenMarkerEEB5_, symObjAddr: 0x8D0, symBinAddr: 0x53510, symSize: 0x30 }
  - { offset: 0xFEE61, size: 0x8, addend: 0x0, symName: __RINvMNtCsdGrGZaRBwMb_3syn9lookaheadNtB3_10Lookahead14peekINvNtB5_5token5CrateNtB3_11TokenMarkerEEB5_, symObjAddr: 0x900, symBinAddr: 0x53540, symSize: 0x30 }
  - { offset: 0xFEEB2, size: 0x8, addend: 0x0, symName: __RINvMNtCsdGrGZaRBwMb_3syn9lookaheadNtB3_10Lookahead14peekINvNtB5_5token5MacroNtB3_11TokenMarkerEEB5_, symObjAddr: 0x930, symBinAddr: 0x53570, symSize: 0x30 }
  - { offset: 0xFEF03, size: 0x8, addend: 0x0, symName: __RINvMNtCsdGrGZaRBwMb_3syn9lookaheadNtB3_10Lookahead14peekINvNtB5_5token5MinusNtB3_11TokenMarkerEEB5_, symObjAddr: 0x960, symBinAddr: 0x535A0, symSize: 0x30 }
  - { offset: 0xFEF54, size: 0x8, addend: 0x0, symName: __RINvMNtCsdGrGZaRBwMb_3syn9lookaheadNtB3_10Lookahead14peekINvNtB5_5token5ParenNtB3_11TokenMarkerEEB5_, symObjAddr: 0x990, symBinAddr: 0x535D0, symSize: 0x30 }
  - { offset: 0xFEFA5, size: 0x8, addend: 0x0, symName: __RINvMNtCsdGrGZaRBwMb_3syn9lookaheadNtB3_10Lookahead14peekINvNtB5_5token5SuperNtB3_11TokenMarkerEEB5_, symObjAddr: 0x9C0, symBinAddr: 0x53600, symSize: 0x30 }
  - { offset: 0xFEFF6, size: 0x8, addend: 0x0, symName: __RINvMNtCsdGrGZaRBwMb_3syn9lookaheadNtB3_10Lookahead14peekINvNtB5_5token5TraitNtB3_11TokenMarkerEEB5_, symObjAddr: 0x9F0, symBinAddr: 0x53630, symSize: 0x30 }
  - { offset: 0xFF047, size: 0x8, addend: 0x0, symName: __RINvMNtCsdGrGZaRBwMb_3syn9lookaheadNtB3_10Lookahead14peekINvNtB5_5token5UnionNtB3_11TokenMarkerEEB5_, symObjAddr: 0xA20, symBinAddr: 0x53660, symSize: 0x30 }
  - { offset: 0xFF098, size: 0x8, addend: 0x0, symName: __RINvMNtCsdGrGZaRBwMb_3syn9lookaheadNtB3_10Lookahead14peekINvNtB5_5token5WhereNtB3_11TokenMarkerEEB5_, symObjAddr: 0xA50, symBinAddr: 0x53690, symSize: 0x30 }
  - { offset: 0xFF0E9, size: 0x8, addend: 0x0, symName: __RINvMNtCsdGrGZaRBwMb_3syn9lookaheadNtB3_10Lookahead14peekINvNtB5_5token6DotDotNtB3_11TokenMarkerEEB5_, symObjAddr: 0xA80, symBinAddr: 0x536C0, symSize: 0x30 }
  - { offset: 0xFF13A, size: 0x8, addend: 0x0, symName: __RINvMNtCsdGrGZaRBwMb_3syn9lookaheadNtB3_10Lookahead14peekINvNtB5_5token6ExternNtB3_11TokenMarkerEEB5_, symObjAddr: 0xAB0, symBinAddr: 0x536F0, symSize: 0x30 }
  - { offset: 0xFF18B, size: 0x8, addend: 0x0, symName: __RINvMNtCsdGrGZaRBwMb_3syn9lookaheadNtB3_10Lookahead14peekINvNtB5_5token6StaticNtB3_11TokenMarkerEEB5_, symObjAddr: 0xAE0, symBinAddr: 0x53720, symSize: 0x30 }
  - { offset: 0xFF1DC, size: 0x8, addend: 0x0, symName: __RINvMNtCsdGrGZaRBwMb_3syn9lookaheadNtB3_10Lookahead14peekINvNtB5_5token6StructNtB3_11TokenMarkerEEB5_, symObjAddr: 0xB10, symBinAddr: 0x53750, symSize: 0x30 }
  - { offset: 0xFF22D, size: 0x8, addend: 0x0, symName: __RINvMNtCsdGrGZaRBwMb_3syn9lookaheadNtB3_10Lookahead14peekINvNtB5_5token6UnsafeNtB3_11TokenMarkerEEB5_, symObjAddr: 0xB40, symBinAddr: 0x53780, symSize: 0x30 }
  - { offset: 0xFF27E, size: 0x8, addend: 0x0, symName: __RINvMNtCsdGrGZaRBwMb_3syn9lookaheadNtB3_10Lookahead14peekINvNtB5_5token7BracketNtB3_11TokenMarkerEEB5_, symObjAddr: 0xB70, symBinAddr: 0x537B0, symSize: 0x30 }
  - { offset: 0xFF2CF, size: 0x8, addend: 0x0, symName: __RINvMNtCsdGrGZaRBwMb_3syn9lookaheadNtB3_10Lookahead14peekINvNtB5_5token7DefaultNtB3_11TokenMarkerEEB5_, symObjAddr: 0xBA0, symBinAddr: 0x537E0, symSize: 0x30 }
  - { offset: 0xFF320, size: 0x8, addend: 0x0, symName: __RINvMNtCsdGrGZaRBwMb_3syn9lookaheadNtB3_10Lookahead14peekINvNtB5_5token7PathSepNtB3_11TokenMarkerEEB5_, symObjAddr: 0xBD0, symBinAddr: 0x53810, symSize: 0x30 }
  - { offset: 0xFF371, size: 0x8, addend: 0x0, symName: __RINvMNtCsdGrGZaRBwMb_3syn9lookaheadNtB3_10Lookahead14peekINvNtB5_5token8DotDotEqNtB3_11TokenMarkerEEB5_, symObjAddr: 0xC00, symBinAddr: 0x53840, symSize: 0x30 }
  - { offset: 0xFF3C2, size: 0x8, addend: 0x0, symName: __RINvMNtCsdGrGZaRBwMb_3syn9lookaheadNtB3_10Lookahead14peekINvNtB5_5token8SelfTypeNtB3_11TokenMarkerEEB5_, symObjAddr: 0xC30, symBinAddr: 0x53870, symSize: 0x30 }
  - { offset: 0xFF413, size: 0x8, addend: 0x0, symName: __RINvMNtCsdGrGZaRBwMb_3syn9lookaheadNtB3_10Lookahead14peekINvNtB5_5token9SelfValueNtB3_11TokenMarkerEEB5_, symObjAddr: 0xC60, symBinAddr: 0x538A0, symSize: 0x30 }
  - { offset: 0xFF464, size: 0x8, addend: 0x0, symName: __RINvMNtCsdGrGZaRBwMb_3syn9lookaheadNtB3_10Lookahead14peekNvNtB5_3lit3LitEB5_, symObjAddr: 0xC90, symBinAddr: 0x538D0, symSize: 0x30 }
  - { offset: 0xFF4B5, size: 0x8, addend: 0x0, symName: __RINvMNtCsdGrGZaRBwMb_3syn9lookaheadNtB3_10Lookahead14peekNvNtB5_3lit6LitStrEB5_, symObjAddr: 0xCC0, symBinAddr: 0x53900, symSize: 0x30 }
  - { offset: 0xFF506, size: 0x8, addend: 0x0, symName: __RINvMNtCsdGrGZaRBwMb_3syn9lookaheadNtB3_10Lookahead14peekNvNtB5_5ident5IdentEB5_, symObjAddr: 0xCF0, symBinAddr: 0x53930, symSize: 0x30 }
  - { offset: 0xFF557, size: 0x8, addend: 0x0, symName: __RINvMNtCsdGrGZaRBwMb_3syn9lookaheadNtB3_10Lookahead14peekNvNtB5_8lifetime8LifetimeEB5_, symObjAddr: 0xD20, symBinAddr: 0x53960, symSize: 0x30 }
  - { offset: 0xFF627, size: 0x8, addend: 0x0, symName: __RINvMs_NtNtCsieiGu2EXtoJ_4core3fmt2rtNtB7_9Arguments6new_v1Kj2_KBW_ECsdGrGZaRBwMb_3syn, symObjAddr: 0xD90, symBinAddr: 0x539D0, symSize: 0x40 }
  - { offset: 0xFFF4A, size: 0x8, addend: 0x0, symName: __RNvMNtCsdGrGZaRBwMb_3syn4attrNtB2_9Attribute11parse_inner, symObjAddr: 0x33A0, symBinAddr: 0x558A0, symSize: 0x160 }
  - { offset: 0xFFFA3, size: 0x8, addend: 0x0, symName: __RNvMNtCsdGrGZaRBwMb_3syn4attrNtB2_9Attribute11parse_outer, symObjAddr: 0x3500, symBinAddr: 0x55A00, symSize: 0x1E0 }
  - { offset: 0x100009, size: 0x8, addend: 0x0, symName: __RNvMNtCsdGrGZaRBwMb_3syn4attrNtB2_9Attribute4path, symObjAddr: 0x36E0, symBinAddr: 0x55BE0, symSize: 0x20 }
  - { offset: 0x100038, size: 0x8, addend: 0x0, symName: __RNvMNtCsdGrGZaRBwMb_3syn5errorNtB2_5Error16to_compile_error, symObjAddr: 0x3700, symBinAddr: 0x55C00, symSize: 0x110 }
  - { offset: 0x1000C1, size: 0x8, addend: 0x0, symName: __RNvMNtCsdGrGZaRBwMb_3syn9lookaheadNtB2_10Lookahead15error, symObjAddr: 0x3BD0, symBinAddr: 0x55D10, symSize: 0x4B0 }
  - { offset: 0x100240, size: 0x8, addend: 0x0, symName: __RNvMs7_NtCsieiGu2EXtoJ_4core4cellINtB5_4CellINtNtB7_6option6OptionINtNtCslJiobkLta79_5alloc2rc2RcIBw_NtNtCsdGrGZaRBwMb_3syn5parse10UnexpectedEEEE3newB1F_, symObjAddr: 0x42D0, symBinAddr: 0x56200, symSize: 0x10 }
  - { offset: 0x1002A1, size: 0x8, addend: 0x0, symName: __RNvMs7_NtCsieiGu2EXtoJ_4core4cellINtB5_4CellINtNtB7_6option6OptionINtNtCslJiobkLta79_5alloc2rc2RcIBw_NtNtCsdGrGZaRBwMb_3syn5parse10UnexpectedEEEE3setB1F_, symObjAddr: 0x42E0, symBinAddr: 0x56210, symSize: 0x30 }
  - { offset: 0x100327, size: 0x8, addend: 0x0, symName: __RNvMs7_NtCsieiGu2EXtoJ_4core4cellINtB5_4CellNtNtCsdGrGZaRBwMb_3syn5parse10UnexpectedE3newBK_, symObjAddr: 0x4310, symBinAddr: 0x56240, symSize: 0x30 }
  - { offset: 0x10039D, size: 0x8, addend: 0x0, symName: __RNvMs7_NtCsieiGu2EXtoJ_4core4cellINtB5_4CellNtNtCsdGrGZaRBwMb_3syn5parse10UnexpectedE3setBK_, symObjAddr: 0x4340, symBinAddr: 0x56270, symSize: 0x40 }
  - { offset: 0x100414, size: 0x8, addend: 0x0, symName: __RNvMs7_NtCsieiGu2EXtoJ_4core4cellINtB5_4CellNtNtCsdGrGZaRBwMb_3syn6buffer6CursorE3newBK_, symObjAddr: 0x4380, symBinAddr: 0x562B0, symSize: 0x20 }
  - { offset: 0x100475, size: 0x8, addend: 0x0, symName: __RNvMs7_NtCsieiGu2EXtoJ_4core4cellINtB5_4CellNtNtCsdGrGZaRBwMb_3syn6buffer6CursorE3setBK_, symObjAddr: 0x43A0, symBinAddr: 0x562D0, symSize: 0x20 }
  - { offset: 0x1004EB, size: 0x8, addend: 0x0, symName: __RNvMs8_NtCsieiGu2EXtoJ_4core4cellINtB5_4CellNtNtCsdGrGZaRBwMb_3syn6buffer6CursorE3getBK_, symObjAddr: 0x43C0, symBinAddr: 0x562F0, symSize: 0x20 }
  - { offset: 0x100575, size: 0x8, addend: 0x0, symName: __RNvMs9_NtCsieiGu2EXtoJ_4core3fmtNtB5_9Formatter9write_fmtCsdGrGZaRBwMb_3syn, symObjAddr: 0x43E0, symBinAddr: 0x56310, symSize: 0x190 }
  - { offset: 0x100628, size: 0x8, addend: 0x0, symName: __RNvMs_NtCsdGrGZaRBwMb_3syn4attrNtB4_4Meta4path, symObjAddr: 0x4B80, symBinAddr: 0x564A0, symSize: 0xA0 }
  - { offset: 0x1006B2, size: 0x8, addend: 0x0, symName: __RNvMs_NtCsdGrGZaRBwMb_3syn5errorNtB4_12ErrorMessage16to_compile_error, symObjAddr: 0x4C20, symBinAddr: 0x56540, symSize: 0x4C0 }
  - { offset: 0x100786, size: 0x8, addend: 0x0, symName: __RNvMsa_NtCsieiGu2EXtoJ_4core4cellINtB5_4CellINtNtB7_6option6OptionINtNtCslJiobkLta79_5alloc2rc2RcIBw_NtNtCsdGrGZaRBwMb_3syn5parse10UnexpectedEEEE4takeB1F_, symObjAddr: 0x50E0, symBinAddr: 0x56A00, symSize: 0x30 }
  - { offset: 0x100815, size: 0x8, addend: 0x0, symName: __RNvMsa_NtCsieiGu2EXtoJ_4core4cellINtB5_4CellNtNtCsdGrGZaRBwMb_3syn5parse10UnexpectedE4takeBK_, symObjAddr: 0x5110, symBinAddr: 0x56A30, symSize: 0x50 }
  - { offset: 0x10087C, size: 0x8, addend: 0x0, symName: __RNvMsh_NtCsieiGu2EXtoJ_4core4cellINtB5_7RefCellINtNtCslJiobkLta79_5alloc3vec3VecReEE10into_innerCsdGrGZaRBwMb_3syn, symObjAddr: 0x5160, symBinAddr: 0x56A80, symSize: 0x20 }
  - { offset: 0x1008B8, size: 0x8, addend: 0x0, symName: __RNvMsh_NtCsieiGu2EXtoJ_4core4cellINtB5_7RefCellINtNtCslJiobkLta79_5alloc3vec3VecReEE3newCsdGrGZaRBwMb_3syn, symObjAddr: 0x5180, symBinAddr: 0x56AA0, symSize: 0x40 }
  - { offset: 0x10092D, size: 0x8, addend: 0x0, symName: __RNvMsi_NtCsieiGu2EXtoJ_4core4cellINtB5_7RefCellINtNtCslJiobkLta79_5alloc3vec3VecReEE10borrow_mutCsdGrGZaRBwMb_3syn, symObjAddr: 0x51C0, symBinAddr: 0x56AE0, symSize: 0x60 }
  - { offset: 0x100A04, size: 0x8, addend: 0x0, symName: __RNvMsi_NtCsieiGu2EXtoJ_4core4cellINtB5_7RefCellINtNtCslJiobkLta79_5alloc3vec3VecReEE14try_borrow_mutCsdGrGZaRBwMb_3syn, symObjAddr: 0x5220, symBinAddr: 0x56B40, symSize: 0xA0 }
  - { offset: 0x100C35, size: 0x8, addend: 0x0, symName: __RNvXNtCs9OU1sGv5X54_5quote9to_tokensRNtNtCsdGrGZaRBwMb_3syn4attr9AttributeNtB2_8ToTokens9to_tokensBD_, symObjAddr: 0x17650, symBinAddr: 0x68620, symSize: 0x30 }
  - { offset: 0x100C74, size: 0x8, addend: 0x0, symName: __RNvXNtCs9OU1sGv5X54_5quote9to_tokensRNtNtCsdGrGZaRBwMb_3syn8lifetime8LifetimeNtB2_8ToTokens9to_tokensBD_, symObjAddr: 0x17680, symBinAddr: 0x68650, symSize: 0x30 }
  - { offset: 0x1011EA, size: 0x8, addend: 0x0, symName: __RINvMNtCsieiGu2EXtoJ_4core3stre3getINtNtNtB5_3ops5range5RangejEECsdGrGZaRBwMb_3syn, symObjAddr: 0x0, symBinAddr: 0x69780, symSize: 0x40 }
  - { offset: 0x105333, size: 0x8, addend: 0x0, symName: __RNCNvNtNtCsdGrGZaRBwMb_3syn4item7parsing22parse_rest_of_receiver0B7_, symObjAddr: 0x2A0, symBinAddr: 0x69A20, symSize: 0x30 }
  - { offset: 0x10537E, size: 0x8, addend: 0x0, symName: __RNCNvXsp_NtNtCsdGrGZaRBwMb_3syn4item7parsingNtB9_11TraitItemFnNtNtBb_5parse5Parse5parse0Bb_, symObjAddr: 0x3A0, symBinAddr: 0x69B20, symSize: 0x50 }
  - { offset: 0x105487, size: 0x8, addend: 0x0, symName: __RNvNtNtCsdGrGZaRBwMb_3syn4item7parsing10parse_impl, symObjAddr: 0x31D0, symBinAddr: 0x6C820, symSize: 0x1EA0 }
  - { offset: 0x1058F1, size: 0x8, addend: 0x0, symName: __RNvNtNtCsdGrGZaRBwMb_3syn4item7parsing12parse_macro2, symObjAddr: 0x5070, symBinAddr: 0x6E6C0, symSize: 0xAA0 }
  - { offset: 0x105AA6, size: 0x8, addend: 0x0, symName: __RNvNtNtCsdGrGZaRBwMb_3syn4item7parsing13parse_fn_args, symObjAddr: 0x5B10, symBinAddr: 0x6F160, symSize: 0xE20 }
  - { offset: 0x105CD0, size: 0x8, addend: 0x0, symName: __RNvNtNtCsdGrGZaRBwMb_3syn4item7parsing14parse_item_use, symObjAddr: 0x6930, symBinAddr: 0x6FF80, symSize: 0x8A0 }
  - { offset: 0x105EC3, size: 0x8, addend: 0x0, symName: __RNvNtNtCsdGrGZaRBwMb_3syn4item7parsing14parse_use_tree, symObjAddr: 0x71D0, symBinAddr: 0x70820, symSize: 0x15B0 }
  - { offset: 0x1061B6, size: 0x8, addend: 0x0, symName: __RNvNtNtCsdGrGZaRBwMb_3syn4item7parsing14peek_signature, symObjAddr: 0x8780, symBinAddr: 0x71DD0, symSize: 0x370 }
  - { offset: 0x10620A, size: 0x8, addend: 0x0, symName: __RNvNtNtCsdGrGZaRBwMb_3syn4item7parsing15parse_item_type, symObjAddr: 0x8AF0, symBinAddr: 0x72140, symSize: 0x780 }
  - { offset: 0x106341, size: 0x8, addend: 0x0, symName: __RNvNtNtCsdGrGZaRBwMb_3syn4item7parsing15parse_signature, symObjAddr: 0x9270, symBinAddr: 0x728C0, symSize: 0x1180 }
  - { offset: 0x10669C, size: 0x8, addend: 0x0, symName: __RNvNtNtCsdGrGZaRBwMb_3syn4item7parsing16parse_rest_of_fn, symObjAddr: 0xA3F0, symBinAddr: 0x73A40, symSize: 0x6B0 }
  - { offset: 0x1067E8, size: 0x8, addend: 0x0, symName: __RNvNtNtCsdGrGZaRBwMb_3syn4item7parsing18parse_impl_item_fn, symObjAddr: 0xAAA0, symBinAddr: 0x740F0, symSize: 0xB30 }
  - { offset: 0x106A27, size: 0x8, addend: 0x0, symName: __RNvNtNtCsdGrGZaRBwMb_3syn4item7parsing18parse_rest_of_item, symObjAddr: 0xB5D0, symBinAddr: 0x74C20, symSize: 0x42E0 }
  - { offset: 0x10730C, size: 0x8, addend: 0x0, symName: __RNvNtNtCsdGrGZaRBwMb_3syn4item7parsing19parse_rest_of_trait, symObjAddr: 0xF8B0, symBinAddr: 0x78F00, symSize: 0xD30 }
  - { offset: 0x10752C, size: 0x8, addend: 0x0, symName: __RNvNtNtCsdGrGZaRBwMb_3syn4item7parsing20parse_impl_item_type, symObjAddr: 0x105E0, symBinAddr: 0x79C30, symSize: 0x6F0 }
  - { offset: 0x107654, size: 0x8, addend: 0x0, symName: __RNvNtNtCsdGrGZaRBwMb_3syn4item7parsing20parse_receiver_begin, symObjAddr: 0x10CD0, symBinAddr: 0x7A320, symSize: 0x4C0 }
  - { offset: 0x10776F, size: 0x8, addend: 0x0, symName: __RNvNtNtCsdGrGZaRBwMb_3syn4item7parsing21parse_trait_item_type, symObjAddr: 0x11190, symBinAddr: 0x7A7E0, symSize: 0x610 }
  - { offset: 0x107859, size: 0x8, addend: 0x0, symName: __RNvNtNtCsdGrGZaRBwMb_3syn4item7parsing22parse_rest_of_receiver, symObjAddr: 0x117A0, symBinAddr: 0x7ADF0, symSize: 0x880 }
  - { offset: 0x1079D6, size: 0x8, addend: 0x0, symName: __RNvNtNtCsdGrGZaRBwMb_3syn4item7parsing23parse_foreign_item_type, symObjAddr: 0x12020, symBinAddr: 0x7B670, symSize: 0x5C0 }
  - { offset: 0x107ACE, size: 0x8, addend: 0x0, symName: __RNvNtNtCsdGrGZaRBwMb_3syn4item7parsing24parse_fn_arg_or_variadic, symObjAddr: 0x125E0, symBinAddr: 0x7BC30, symSize: 0x1000 }
  - { offset: 0x107CD6, size: 0x8, addend: 0x0, symName: __RNvNtNtCsdGrGZaRBwMb_3syn4item7parsing25parse_rest_of_trait_alias, symObjAddr: 0x135E0, symBinAddr: 0x7CC30, symSize: 0x860 }
  - { offset: 0x107E3F, size: 0x8, addend: 0x0, symName: __RNvNtNtCsdGrGZaRBwMb_3syn4item7parsing26parse_start_of_trait_alias, symObjAddr: 0x13E40, symBinAddr: 0x7D490, symSize: 0x620 }
  - { offset: 0x107FC7, size: 0x8, addend: 0x0, symName: __RNvNtNtCsdGrGZaRBwMb_3syn4item7parsing26parse_trait_or_trait_alias, symObjAddr: 0x14460, symBinAddr: 0x7DAB0, symSize: 0x6C0 }
  - { offset: 0x10825E, size: 0x8, addend: 0x0, symName: __RNvXNtNtCsdGrGZaRBwMb_3syn11restriction7parsingNtB4_10VisibilityNtNtB6_5parse5Parse5parse, symObjAddr: 0x150E0, symBinAddr: 0x7E2B0, symSize: 0x2D0 }
  - { offset: 0x1082F6, size: 0x8, addend: 0x0, symName: __RNvXNtNtCsdGrGZaRBwMb_3syn11restriction8printingNtB4_10VisibilityNtNtCs9OU1sGv5X54_5quote9to_tokens8ToTokens9to_tokens, symObjAddr: 0x153B0, symBinAddr: 0x7E580, symSize: 0x90 }
  - { offset: 0x10836C, size: 0x8, addend: 0x0, symName: __RNvXs_NtNtCsdGrGZaRBwMb_3syn11restriction8printingNtB6_13VisRestrictedNtNtCs9OU1sGv5X54_5quote9to_tokens8ToTokens9to_tokens, symObjAddr: 0x17020, symBinAddr: 0x7F3E0, symSize: 0x50 }
  - { offset: 0x108854, size: 0x8, addend: 0x0, symName: __RNCNvNtNtCsdGrGZaRBwMb_3syn8generics8printing20print_const_argument0B7_, symObjAddr: 0x2D0, symBinAddr: 0x69A50, symSize: 0x40 }
  - { offset: 0x10889A, size: 0x8, addend: 0x0, symName: __RNCNvXs5_NtNtCsdGrGZaRBwMb_3syn8generics8printingNtB9_10TraitBoundNtNtCs9OU1sGv5X54_5quote9to_tokens8ToTokens9to_tokens0Bb_, symObjAddr: 0x340, symBinAddr: 0x69AC0, symSize: 0x60 }
  - { offset: 0x1088D8, size: 0x8, addend: 0x0, symName: __RNvNtNtCsdGrGZaRBwMb_3syn8generics8printing20print_const_argument, symObjAddr: 0x14B20, symBinAddr: 0x7E170, symSize: 0x140 }
  - { offset: 0x108F4B, size: 0x8, addend: 0x0, symName: __RNCNvXNtNtCsdGrGZaRBwMb_3syn6derive8printingNtB6_11DeriveInputNtNtCs9OU1sGv5X54_5quote9to_tokens8ToTokens9to_tokens0B8_, symObjAddr: 0x310, symBinAddr: 0x69A90, symSize: 0x30 }
  - { offset: 0x10921C, size: 0x8, addend: 0x0, symName: __RNvXs2Q_NtNtCsdGrGZaRBwMb_3syn3gen5cloneNtNtBa_11restriction13VisRestrictedNtNtCsieiGu2EXtoJ_4core5clone5Clone5clone, symObjAddr: 0x16130, symBinAddr: 0x7ECC0, symSize: 0xA0 }
  - { offset: 0x109250, size: 0x8, addend: 0x0, symName: __RNvXs2R_NtNtCsdGrGZaRBwMb_3syn3gen5cloneNtNtBa_11restriction10VisibilityNtNtCsieiGu2EXtoJ_4core5clone5Clone5clone, symObjAddr: 0x161D0, symBinAddr: 0x7ED60, symSize: 0xD0 }
  - { offset: 0x1092C0, size: 0x8, addend: 0x0, symName: __RNvXsZ_NtNtCsdGrGZaRBwMb_3syn3gen5cloneNtNtB9_11restriction15FieldMutabilityNtNtCsieiGu2EXtoJ_4core5clone5Clone5clone, symObjAddr: 0x16F60, symBinAddr: 0x7F320, symSize: 0x20 }
  - { offset: 0x10D1AB, size: 0x8, addend: 0x0, symName: __RINvMNtCsieiGu2EXtoJ_4core3stre3getINtNtNtB5_3ops5range5RangejEECsdGrGZaRBwMb_3syn, symObjAddr: 0x0, symBinAddr: 0x69780, symSize: 0x40 }
  - { offset: 0x10D1F1, size: 0x8, addend: 0x0, symName: __RINvMNtCsieiGu2EXtoJ_4core3stre3getINtNtNtB5_3ops5range9RangeFromjEECsdGrGZaRBwMb_3syn, symObjAddr: 0x40, symBinAddr: 0x697C0, symSize: 0x30 }
  - { offset: 0x10D237, size: 0x8, addend: 0x0, symName: __RINvMNtCsieiGu2EXtoJ_4core3stre5parseNtCsaKzlTDPUHDb_11proc_macro27LiteralECsdGrGZaRBwMb_3syn, symObjAddr: 0x70, symBinAddr: 0x697F0, symSize: 0x30 }
  - { offset: 0x10D26E, size: 0x8, addend: 0x0, symName: __RINvMNtCsieiGu2EXtoJ_4core3stre5parsemECsdGrGZaRBwMb_3syn, symObjAddr: 0xA0, symBinAddr: 0x69820, symSize: 0x30 }
  - { offset: 0x10D2B2, size: 0x8, addend: 0x0, symName: __RINvMNtCsieiGu2EXtoJ_4core3stre5rfindcECsdGrGZaRBwMb_3syn, symObjAddr: 0xD0, symBinAddr: 0x69850, symSize: 0xD0 }
  - { offset: 0x10D33F, size: 0x8, addend: 0x0, symName: __RINvMNtCsieiGu2EXtoJ_4core3stre5splitcECsdGrGZaRBwMb_3syn, symObjAddr: 0x1A0, symBinAddr: 0x69920, symSize: 0xB0 }
  - { offset: 0x10D385, size: 0x8, addend: 0x0, symName: __RINvMNtCsieiGu2EXtoJ_4core3stre9ends_withcECsdGrGZaRBwMb_3syn, symObjAddr: 0x250, symBinAddr: 0x699D0, symSize: 0x30 }
  - { offset: 0x10D3CB, size: 0x8, addend: 0x0, symName: __RNvMNtCsieiGu2EXtoJ_4core3stre3lenCsdGrGZaRBwMb_3syn, symObjAddr: 0x3F0, symBinAddr: 0x69B70, symSize: 0x20 }
  - { offset: 0x10D3F7, size: 0x8, addend: 0x0, symName: __RNvMNtCsieiGu2EXtoJ_4core3stre5bytesCsdGrGZaRBwMb_3syn, symObjAddr: 0x410, symBinAddr: 0x69B90, symSize: 0x20 }
  - { offset: 0x10D465, size: 0x8, addend: 0x0, symName: __RNvMNtCsieiGu2EXtoJ_4core3stre5charsCsdGrGZaRBwMb_3syn, symObjAddr: 0x430, symBinAddr: 0x69BB0, symSize: 0x20 }
  - { offset: 0x10D4D3, size: 0x8, addend: 0x0, symName: __RNvMNtCsieiGu2EXtoJ_4core3stre8is_emptyCsdGrGZaRBwMb_3syn, symObjAddr: 0x450, symBinAddr: 0x69BD0, symSize: 0x20 }
  - { offset: 0x10D6C0, size: 0x8, addend: 0x0, symName: __RNvXs_NtCsieiGu2EXtoJ_4core3streINtNtB6_7convert5AsRefShE6as_refCsdGrGZaRBwMb_3syn, symObjAddr: 0x17000, symBinAddr: 0x7F3C0, symSize: 0x20 }
  - { offset: 0x10D806, size: 0x8, addend: 0x0, symName: __RINvNtCsieiGu2EXtoJ_4core3cmp3minjECsdGrGZaRBwMb_3syn, symObjAddr: 0x280, symBinAddr: 0x69A00, symSize: 0x20 }
  - { offset: 0x10D947, size: 0x8, addend: 0x0, symName: __RNvXsa_NtCsieiGu2EXtoJ_4core3cmpNtB5_8OrderingNtB5_9PartialEq2eqCsdGrGZaRBwMb_3syn, symObjAddr: 0x17070, symBinAddr: 0x7F430, symSize: 0x20 }
  - { offset: 0x10EC3C, size: 0x8, addend: 0x0, symName: __RNvXsZ_NtNtCsieiGu2EXtoJ_4core3fmt3numjNtB7_5Debug3fmtCsdGrGZaRBwMb_3syn, symObjAddr: 0x16F80, symBinAddr: 0x7F340, symSize: 0x80 }
  - { offset: 0x10ED0E, size: 0x8, addend: 0x0, symName: __RNvXs1_NtCsieiGu2EXtoJ_4core7convertNtNtCslJiobkLta79_5alloc6string6StringINtB5_4IntoINtNtBC_3vec3VechEE4intoCsdGrGZaRBwMb_3syn, symObjAddr: 0x15F30, symBinAddr: 0x7EAE0, symSize: 0x20 }
  - { offset: 0x10EE65, size: 0x8, addend: 0x0, symName: __RNvYINtNtNtCslJiobkLta79_5alloc3vec9into_iter8IntoIterNtNtCsdGrGZaRBwMb_3syn4attr9AttributeENtNtNtNtCsieiGu2EXtoJ_4core4iter6traits10exact_size17ExactSizeIterator3lenBU_, symObjAddr: 0x17570, symBinAddr: 0x7F780, symSize: 0xE0 }
  - { offset: 0x10EF65, size: 0x8, addend: 0x0, symName: __RNvYINtNtNtCslJiobkLta79_5alloc3vec9into_iter8IntoIterNtNtCsdGrGZaRBwMb_3syn8generics14TypeParamBoundENtNtNtNtCsieiGu2EXtoJ_4core4iter6traits10exact_size17ExactSizeIterator3lenBU_, symObjAddr: 0x17730, symBinAddr: 0x7F860, symSize: 0xE0 }
  - { offset: 0x10F065, size: 0x8, addend: 0x0, symName: __RNvYINtNtNtCslJiobkLta79_5alloc3vec9into_iter8IntoIterTNtNtCsdGrGZaRBwMb_3syn4path11PathSegmentNtNtBV_5token7PathSepEENtNtNtNtCsieiGu2EXtoJ_4core4iter6traits10exact_size17ExactSizeIterator3lenBV_, symObjAddr: 0x179D0, symBinAddr: 0x7F940, symSize: 0xE0 }
  - { offset: 0x10F165, size: 0x8, addend: 0x0, symName: __RNvYINtNtNtCslJiobkLta79_5alloc3vec9into_iter8IntoIterTNtNtCsdGrGZaRBwMb_3syn8generics14TypeParamBoundNtNtBV_5token4PlusEENtNtNtNtCsieiGu2EXtoJ_4core4iter6traits10exact_size17ExactSizeIterator3lenBV_, symObjAddr: 0x17AB0, symBinAddr: 0x7FA20, symSize: 0xE0 }
  - { offset: 0x10FCC8, size: 0x8, addend: 0x0, symName: __RNvXNvXsd_NtNtCslJiobkLta79_5alloc3vec9into_iterINtB8_8IntoIterppENtNtNtCsieiGu2EXtoJ_4core3ops4drop4Drop4dropINtB2_9DropGuardNtNtCsdGrGZaRBwMb_3syn4attr9AttributeNtNtBc_5alloc6GlobalEB12_4dropB24_, symObjAddr: 0x15640, symBinAddr: 0x7E810, symSize: 0x70 }
  - { offset: 0x10FDDD, size: 0x8, addend: 0x0, symName: __RNvXNvXsd_NtNtCslJiobkLta79_5alloc3vec9into_iterINtB8_8IntoIterppENtNtNtCsieiGu2EXtoJ_4core3ops4drop4Drop4dropINtB2_9DropGuardNtNtCsdGrGZaRBwMb_3syn8generics14TypeParamBoundNtNtBc_5alloc6GlobalEB12_4dropB24_, symObjAddr: 0x15720, symBinAddr: 0x7E880, symSize: 0x70 }
  - { offset: 0x10FEF2, size: 0x8, addend: 0x0, symName: __RNvXNvXsd_NtNtCslJiobkLta79_5alloc3vec9into_iterINtB8_8IntoIterppENtNtNtCsieiGu2EXtoJ_4core3ops4drop4Drop4dropINtB2_9DropGuardTNtNtCsdGrGZaRBwMb_3syn4path11PathSegmentNtNtB25_5token7PathSepENtNtBc_5alloc6GlobalEB12_4dropB25_, symObjAddr: 0x15870, symBinAddr: 0x7E8F0, symSize: 0x70 }
  - { offset: 0x110007, size: 0x8, addend: 0x0, symName: __RNvXNvXsd_NtNtCslJiobkLta79_5alloc3vec9into_iterINtB8_8IntoIterppENtNtNtCsieiGu2EXtoJ_4core3ops4drop4Drop4dropINtB2_9DropGuardTNtNtCsdGrGZaRBwMb_3syn8generics14TypeParamBoundNtNtB25_5token4PlusENtNtBc_5alloc6GlobalEB12_4dropB25_, symObjAddr: 0x158E0, symBinAddr: 0x7E960, symSize: 0x70 }
  - { offset: 0x1101BA, size: 0x8, addend: 0x0, symName: __RNvXsd_NtNtCslJiobkLta79_5alloc3vec9into_iterINtB5_8IntoIterNtNtCsdGrGZaRBwMb_3syn4attr9AttributeENtNtNtCsieiGu2EXtoJ_4core3ops4drop4Drop4dropB10_, symObjAddr: 0x17090, symBinAddr: 0x7F450, symSize: 0x90 }
  - { offset: 0x110255, size: 0x8, addend: 0x0, symName: __RNvXsd_NtNtCslJiobkLta79_5alloc3vec9into_iterINtB5_8IntoIterNtNtCsdGrGZaRBwMb_3syn8generics14TypeParamBoundENtNtNtCsieiGu2EXtoJ_4core3ops4drop4Drop4dropB10_, symObjAddr: 0x171B0, symBinAddr: 0x7F4E0, symSize: 0x90 }
  - { offset: 0x1102F0, size: 0x8, addend: 0x0, symName: __RNvXsd_NtNtCslJiobkLta79_5alloc3vec9into_iterINtB5_8IntoIterTNtNtCsdGrGZaRBwMb_3syn4path11PathSegmentNtNtB11_5token7PathSepEENtNtNtCsieiGu2EXtoJ_4core3ops4drop4Drop4dropB11_, symObjAddr: 0x17360, symBinAddr: 0x7F570, symSize: 0x90 }
  - { offset: 0x11038B, size: 0x8, addend: 0x0, symName: __RNvXsd_NtNtCslJiobkLta79_5alloc3vec9into_iterINtB5_8IntoIterTNtNtCsdGrGZaRBwMb_3syn8generics14TypeParamBoundNtNtB11_5token4PlusEENtNtNtCsieiGu2EXtoJ_4core3ops4drop4Drop4dropB11_, symObjAddr: 0x173F0, symBinAddr: 0x7F600, symSize: 0x90 }
  - { offset: 0x11042C, size: 0x8, addend: 0x0, symName: __RNvXs3_NtNtCslJiobkLta79_5alloc3vec9into_iterINtB5_8IntoIterNtNtCsdGrGZaRBwMb_3syn4attr9AttributeENtNtNtNtCsieiGu2EXtoJ_4core4iter6traits8iterator8Iterator9size_hintB10_, symObjAddr: 0x162A0, symBinAddr: 0x7EE30, symSize: 0x60 }
  - { offset: 0x110487, size: 0x8, addend: 0x0, symName: __RNvXs3_NtNtCslJiobkLta79_5alloc3vec9into_iterINtB5_8IntoIterNtNtCsdGrGZaRBwMb_3syn8generics14TypeParamBoundENtNtNtNtCsieiGu2EXtoJ_4core4iter6traits8iterator8Iterator4nextB10_, symObjAddr: 0x16460, symBinAddr: 0x7EE90, symSize: 0x100 }
  - { offset: 0x1105E5, size: 0x8, addend: 0x0, symName: __RNvXs3_NtNtCslJiobkLta79_5alloc3vec9into_iterINtB5_8IntoIterNtNtCsdGrGZaRBwMb_3syn8generics14TypeParamBoundENtNtNtNtCsieiGu2EXtoJ_4core4iter6traits8iterator8Iterator9size_hintB10_, symObjAddr: 0x16560, symBinAddr: 0x7EF90, symSize: 0x60 }
  - { offset: 0x110640, size: 0x8, addend: 0x0, symName: __RNvXs3_NtNtCslJiobkLta79_5alloc3vec9into_iterINtB5_8IntoIterTNtNtCsdGrGZaRBwMb_3syn4path11PathSegmentNtNtB11_5token7PathSepEENtNtNtNtCsieiGu2EXtoJ_4core4iter6traits8iterator8Iterator4nextB11_, symObjAddr: 0x16880, symBinAddr: 0x7EFF0, symSize: 0x100 }
  - { offset: 0x11079E, size: 0x8, addend: 0x0, symName: __RNvXs3_NtNtCslJiobkLta79_5alloc3vec9into_iterINtB5_8IntoIterTNtNtCsdGrGZaRBwMb_3syn4path11PathSegmentNtNtB11_5token7PathSepEENtNtNtNtCsieiGu2EXtoJ_4core4iter6traits8iterator8Iterator9size_hintB11_, symObjAddr: 0x16980, symBinAddr: 0x7F0F0, symSize: 0x60 }
  - { offset: 0x1107F9, size: 0x8, addend: 0x0, symName: __RNvXs3_NtNtCslJiobkLta79_5alloc3vec9into_iterINtB5_8IntoIterTNtNtCsdGrGZaRBwMb_3syn8generics14TypeParamBoundNtNtB11_5token4PlusEENtNtNtNtCsieiGu2EXtoJ_4core4iter6traits8iterator8Iterator4nextB11_, symObjAddr: 0x169E0, symBinAddr: 0x7F150, symSize: 0x110 }
  - { offset: 0x110957, size: 0x8, addend: 0x0, symName: __RNvXs3_NtNtCslJiobkLta79_5alloc3vec9into_iterINtB5_8IntoIterTNtNtCsdGrGZaRBwMb_3syn8generics14TypeParamBoundNtNtB11_5token4PlusEENtNtNtNtCsieiGu2EXtoJ_4core4iter6traits8iterator8Iterator9size_hintB11_, symObjAddr: 0x16AF0, symBinAddr: 0x7F260, symSize: 0x60 }
  - { offset: 0x1116CF, size: 0x8, addend: 0x0, symName: __RNvXss_NtCslJiobkLta79_5alloc6stringNtB5_6StringNtNtNtCsieiGu2EXtoJ_4core3ops5deref5Deref5derefCsdGrGZaRBwMb_3syn, symObjAddr: 0x174F0, symBinAddr: 0x7F700, symSize: 0x20 }
  - { offset: 0x111766, size: 0x8, addend: 0x0, symName: __RNvXs1I_NtCslJiobkLta79_5alloc6stringNtB6_6StringNtB6_12SpecToString14spec_to_stringCsdGrGZaRBwMb_3syn, symObjAddr: 0x15E00, symBinAddr: 0x7E9D0, symSize: 0xB0 }
  - { offset: 0x1119D6, size: 0x8, addend: 0x0, symName: __RNvXs1U_NtCslJiobkLta79_5alloc6stringReNtB6_12SpecToString14spec_to_stringCsdGrGZaRBwMb_3syn, symObjAddr: 0x15EB0, symBinAddr: 0x7EA80, symSize: 0x60 }
  - { offset: 0x111B00, size: 0x8, addend: 0x0, symName: __RNvXs1g_NtCslJiobkLta79_5alloc6stringNtB6_13FromUtf8ErrorNtNtCsieiGu2EXtoJ_4core3fmt5Debug3fmtCsdGrGZaRBwMb_3syn, symObjAddr: 0x15F70, symBinAddr: 0x7EB00, symSize: 0x90 }
  - { offset: 0x111B7D, size: 0x8, addend: 0x0, symName: __RNvXs1n_NtCslJiobkLta79_5alloc6stringNtB6_6StringINtNtCsieiGu2EXtoJ_4core3cmp9PartialEqReE2eqCsdGrGZaRBwMb_3syn, symObjAddr: 0x16000, symBinAddr: 0x7EB90, symSize: 0x130 }
  - { offset: 0x111E5F, size: 0x8, addend: 0x0, symName: __RNvXsT_NtCslJiobkLta79_5alloc6stringNtB5_6StringNtNtCsieiGu2EXtoJ_4core3fmt5Write10write_charCsdGrGZaRBwMb_3syn, symObjAddr: 0x16E80, symBinAddr: 0x7F2C0, symSize: 0x30 }
  - { offset: 0x111E9C, size: 0x8, addend: 0x0, symName: __RNvXsT_NtCslJiobkLta79_5alloc6stringNtB5_6StringNtNtCsieiGu2EXtoJ_4core3fmt5Write9write_strCsdGrGZaRBwMb_3syn, symObjAddr: 0x16EB0, symBinAddr: 0x7F2F0, symSize: 0x30 }
  - { offset: 0x111EDF, size: 0x8, addend: 0x0, symName: __RNvXsm_NtCslJiobkLta79_5alloc6stringNtB5_6StringNtNtCsieiGu2EXtoJ_4core3fmt5Debug3fmtCsdGrGZaRBwMb_3syn, symObjAddr: 0x17480, symBinAddr: 0x7F690, symSize: 0x70 }
  - { offset: 0x112044, size: 0x8, addend: 0x0, symName: __RNvXsw_NtCslJiobkLta79_5alloc6stringNtB5_6StringNtB5_8ToString9to_stringCsdGrGZaRBwMb_3syn, symObjAddr: 0x17510, symBinAddr: 0x7F720, symSize: 0x30 }
  - { offset: 0x11207B, size: 0x8, addend: 0x0, symName: __RNvXsw_NtCslJiobkLta79_5alloc6stringReNtB5_8ToString9to_stringCsdGrGZaRBwMb_3syn, symObjAddr: 0x17540, symBinAddr: 0x7F750, symSize: 0x30 }
  - { offset: 0x112296, size: 0x8, addend: 0x0, symName: __RNvXNvMs_NtNtCslJiobkLta79_5alloc3ffi5c_strNtB7_7CString3newNtNtBb_6string6StringNtB2_11SpecNewImpl13spec_new_implCsdGrGZaRBwMb_3syn, symObjAddr: 0x15440, symBinAddr: 0x7E610, symSize: 0x200 }
  - { offset: 0x112B22, size: 0x8, addend: 0x0, symName: __RNvMNtCslJiobkLta79_5alloc6stringNtB2_6String10into_bytesCsdGrGZaRBwMb_3syn, symObjAddr: 0x470, symBinAddr: 0x69BF0, symSize: 0x20 }
  - { offset: 0x112C0C, size: 0x8, addend: 0x0, symName: __RNvMNtCslJiobkLta79_5alloc6stringNtB2_6String13with_capacityCsdGrGZaRBwMb_3syn, symObjAddr: 0x490, symBinAddr: 0x69C10, symSize: 0x70 }
  - { offset: 0x112D0B, size: 0x8, addend: 0x0, symName: __RNvMNtCslJiobkLta79_5alloc6stringNtB2_6String14into_boxed_strCsdGrGZaRBwMb_3syn, symObjAddr: 0x500, symBinAddr: 0x69C80, symSize: 0x70 }
  - { offset: 0x112E1D, size: 0x8, addend: 0x0, symName: __RNvMNtCslJiobkLta79_5alloc6stringNtB2_6String3lenCsdGrGZaRBwMb_3syn, symObjAddr: 0x570, symBinAddr: 0x69CF0, symSize: 0x10 }
  - { offset: 0x112E65, size: 0x8, addend: 0x0, symName: __RNvMNtCslJiobkLta79_5alloc6stringNtB2_6String3newCsdGrGZaRBwMb_3syn, symObjAddr: 0x580, symBinAddr: 0x69D00, symSize: 0x40 }
  - { offset: 0x113031, size: 0x8, addend: 0x0, symName: __RNvMNtCslJiobkLta79_5alloc6stringNtB2_6String4pushCsdGrGZaRBwMb_3syn, symObjAddr: 0x5C0, symBinAddr: 0x69D40, symSize: 0x130 }
  - { offset: 0x113318, size: 0x8, addend: 0x0, symName: __RNvMNtCslJiobkLta79_5alloc6stringNtB2_6String6as_strCsdGrGZaRBwMb_3syn, symObjAddr: 0x6F0, symBinAddr: 0x69E70, symSize: 0x60 }
  - { offset: 0x1135ED, size: 0x8, addend: 0x0, symName: __RNvMNtCslJiobkLta79_5alloc6stringNtB2_6String6insertCsdGrGZaRBwMb_3syn, symObjAddr: 0x750, symBinAddr: 0x69ED0, symSize: 0x370 }
  - { offset: 0x113B01, size: 0x8, addend: 0x0, symName: __RNvMNtCslJiobkLta79_5alloc6stringNtB2_6String8is_emptyCsdGrGZaRBwMb_3syn, symObjAddr: 0xAC0, symBinAddr: 0x6A240, symSize: 0x20 }
  - { offset: 0x113C0F, size: 0x8, addend: 0x0, symName: __RNvMNtCslJiobkLta79_5alloc6stringNtB2_6String8push_strCsdGrGZaRBwMb_3syn, symObjAddr: 0xAE0, symBinAddr: 0x6A260, symSize: 0x50 }
  - { offset: 0x113ECD, size: 0x8, addend: 0x0, symName: __RNvMNtCslJiobkLta79_5alloc6stringNtB2_6String8truncateCsdGrGZaRBwMb_3syn, symObjAddr: 0xB30, symBinAddr: 0x6A2B0, symSize: 0x1C0 }
  - { offset: 0x11425E, size: 0x8, addend: 0x0, symName: __RNvMNtCslJiobkLta79_5alloc6stringNtB2_6String9from_utf8CsdGrGZaRBwMb_3syn, symObjAddr: 0xCF0, symBinAddr: 0x6A470, symSize: 0x1C0 }
  - { offset: 0x11441D, size: 0x8, addend: 0x0, symName: __RNvMNtCslJiobkLta79_5alloc6stringNtB2_6String9split_offCsdGrGZaRBwMb_3syn, symObjAddr: 0xEB0, symBinAddr: 0x6A630, symSize: 0x180 }
  - { offset: 0x114684, size: 0x8, addend: 0x0, symName: __RNvMs_NtNtCsdGrGZaRBwMb_3syn11restriction7parsingNtB6_10Visibility7is_some, symObjAddr: 0x1100, symBinAddr: 0x6A7B0, symSize: 0x50 }
  - { offset: 0x114702, size: 0x8, addend: 0x0, symName: __RNvMs_NtNtCsdGrGZaRBwMb_3syn11restriction7parsingNtB6_10Visibility9parse_pub, symObjAddr: 0x1150, symBinAddr: 0x6A800, symSize: 0xAF0 }
  - { offset: 0x1148E7, size: 0x8, addend: 0x0, symName: __RNvMs_NtNtCsdGrGZaRBwMb_3syn4item7parsingNtB4_16FlexibleItemType21parse_optional_bounds, symObjAddr: 0x1C40, symBinAddr: 0x6B2F0, symSize: 0x4A0 }
  - { offset: 0x1149D0, size: 0x8, addend: 0x0, symName: __RNvMs_NtNtCsdGrGZaRBwMb_3syn4item7parsingNtB4_16FlexibleItemType25parse_optional_definition, symObjAddr: 0x20E0, symBinAddr: 0x6B790, symSize: 0x230 }
  - { offset: 0x114A86, size: 0x8, addend: 0x0, symName: __RNvMs_NtNtCsdGrGZaRBwMb_3syn4item7parsingNtB4_16FlexibleItemType5parse, symObjAddr: 0x2310, symBinAddr: 0x6B9C0, symSize: 0xDB0 }
  - { offset: 0x114D60, size: 0x8, addend: 0x0, symName: __RNvMs_NtNtCslJiobkLta79_5alloc3vec9into_iterINtB4_8IntoIterNtNtCsdGrGZaRBwMb_3syn4attr9AttributeE8as_sliceBZ_, symObjAddr: 0x30C0, symBinAddr: 0x6C770, symSize: 0x60 }
  - { offset: 0x114DC6, size: 0x8, addend: 0x0, symName: __RNvMsy_NtNtCsdGrGZaRBwMb_3syn4item7parsingNtNtB9_11restriction10Visibility12is_inherited, symObjAddr: 0x3180, symBinAddr: 0x6C7D0, symSize: 0x50 }
  - { offset: 0x1158DF, size: 0x8, addend: 0x0, symName: __RINvNtNtCsdGrGZaRBwMb_3syn3lit5value11backslash_uShEB6_, symObjAddr: 0x0, symBinAddr: 0x7FB00, symSize: 0x500 }
  - { offset: 0x116197, size: 0x8, addend: 0x0, symName: __RNvXs_NtNtCslJiobkLta79_5alloc3vec15set_len_on_dropNtB4_12SetLenOnDropNtNtNtCsieiGu2EXtoJ_4core3ops4drop4Drop4dropCsdGrGZaRBwMb_3syn, symObjAddr: 0x18670, symBinAddr: 0x93DD0, symSize: 0x20 }
  - { offset: 0x116D36, size: 0x8, addend: 0x0, symName: __RINvXNvMNtCslJiobkLta79_5alloc5sliceSp9to_vec_inTNtNtCsdGrGZaRBwMb_3syn3pat3PatNtNtBP_5token2OrENtB3_10ConvertVec6to_vecNtNtB8_5alloc6GlobalEBP_, symObjAddr: 0x10F0, symBinAddr: 0x80BF0, symSize: 0x4A0 }
  - { offset: 0x11728A, size: 0x8, addend: 0x0, symName: __RINvXNvMNtCslJiobkLta79_5alloc5sliceSp9to_vec_inTNtNtCsdGrGZaRBwMb_3syn3pat3PatNtNtBP_5token5CommaENtB3_10ConvertVec6to_vecNtNtB8_5alloc6GlobalEBP_, symObjAddr: 0x1590, symBinAddr: 0x81090, symSize: 0x4A0 }
  - { offset: 0x1177DE, size: 0x8, addend: 0x0, symName: __RINvXNvMNtCslJiobkLta79_5alloc5sliceSp9to_vec_inTNtNtCsdGrGZaRBwMb_3syn3pat8FieldPatNtNtBP_5token5CommaENtB3_10ConvertVec6to_vecNtNtB8_5alloc6GlobalEBP_, symObjAddr: 0x1A30, symBinAddr: 0x81530, symSize: 0x490 }
  - { offset: 0x118A51, size: 0x8, addend: 0x0, symName: __RNvXs5_NtNtCsieiGu2EXtoJ_4core3str6traitsINtNtNtB9_3ops5range5RangejEINtNtNtB9_5slice5index10SliceIndexeE3getCsdGrGZaRBwMb_3syn, symObjAddr: 0x17590, symBinAddr: 0x93730, symSize: 0x1F0 }
  - { offset: 0x118C1C, size: 0x8, addend: 0x0, symName: __RNvXs9_NtNtCsieiGu2EXtoJ_4core3str6traitsINtNtNtB9_3ops5range9RangeFromjEINtNtNtB9_5slice5index10SliceIndexeE3getCsdGrGZaRBwMb_3syn, symObjAddr: 0x17ED0, symBinAddr: 0x93BB0, symSize: 0x130 }
  - { offset: 0x11B346, size: 0x8, addend: 0x0, symName: __RNvXs5_NtNtCsieiGu2EXtoJ_4core5slice5indexINtNtNtB9_3ops5range9RangeFromjEINtB5_10SliceIndexShE3getCsdGrGZaRBwMb_3syn, symObjAddr: 0x17780, symBinAddr: 0x93920, symSize: 0x80 }
  - { offset: 0x11B694, size: 0x8, addend: 0x0, symName: __RNvMNtCsieiGu2EXtoJ_4core5sliceSTNtNtCsdGrGZaRBwMb_3syn3pat3PatNtNtBz_5token2OrE4iterBz_, symObjAddr: 0x29E0, symBinAddr: 0x824E0, symSize: 0x20 }
  - { offset: 0x11B6CB, size: 0x8, addend: 0x0, symName: __RNvMNtCsieiGu2EXtoJ_4core5sliceSTNtNtCsdGrGZaRBwMb_3syn3pat3PatNtNtBz_5token5CommaE4iterBz_, symObjAddr: 0x2A00, symBinAddr: 0x82500, symSize: 0x20 }
  - { offset: 0x11B702, size: 0x8, addend: 0x0, symName: __RNvMNtCsieiGu2EXtoJ_4core5sliceSTNtNtCsdGrGZaRBwMb_3syn3pat8FieldPatNtNtBz_5token5CommaE4iterBz_, symObjAddr: 0x2A20, symBinAddr: 0x82520, symSize: 0x20 }
  - { offset: 0x11BE6E, size: 0x8, addend: 0x0, symName: __RINvYNtNtCsaKzlTDPUHDb_11proc_macro212token_stream8IntoIterNtNtNtNtCsieiGu2EXtoJ_4core4iter6traits8iterator8Iterator4foldINtNtB13_6option6OptionNtB7_9TokenTreeEINvNvBV_4last4someB2i_EECsdGrGZaRBwMb_3syn, symObjAddr: 0x1EC0, symBinAddr: 0x819C0, symSize: 0x230 }
  - { offset: 0x11BF06, size: 0x8, addend: 0x0, symName: __RNvYNtNtCsaKzlTDPUHDb_11proc_macro212token_stream8IntoIterNtNtNtNtCsieiGu2EXtoJ_4core4iter6traits8iterator8Iterator4lastCsdGrGZaRBwMb_3syn, symObjAddr: 0x194C0, symBinAddr: 0x940C0, symSize: 0x30 }
  - { offset: 0x11C8C3, size: 0x8, addend: 0x0, symName: __RNvNvNtCsieiGu2EXtoJ_4core9ub_checks23maybe_is_nonoverlapping7runtimeCsdGrGZaRBwMb_3syn, symObjAddr: 0x10A60, symBinAddr: 0x8FAA0, symSize: 0xC0 }
  - { offset: 0x11CA80, size: 0x8, addend: 0x0, symName: __RNvXNtNtCsieiGu2EXtoJ_4core5clone6uninitNtNtCsdGrGZaRBwMb_3syn3pat3PatNtB2_8CopySpec9clone_oneBG_, symObjAddr: 0x13270, symBinAddr: 0x91E50, symSize: 0x50 }
  - { offset: 0x11CAE5, size: 0x8, addend: 0x0, symName: __RNvXNtNtCsieiGu2EXtoJ_4core5clone6uninitNtNtCsdGrGZaRBwMb_3syn3pat8FieldPatNtB2_8CopySpec9clone_oneBG_, symObjAddr: 0x132C0, symBinAddr: 0x91EA0, symSize: 0x40 }
  - { offset: 0x11F1F1, size: 0x8, addend: 0x0, symName: __RNCNvXNtNtCsdGrGZaRBwMb_3syn4stmt8printingNtB6_5BlockNtNtCs9OU1sGv5X54_5quote9to_tokens8ToTokens9to_tokens0B8_, symObjAddr: 0x26F0, symBinAddr: 0x821F0, symSize: 0x30 }
  - { offset: 0x11F238, size: 0x8, addend: 0x0, symName: __RNCNvXs0_NtNtCsdGrGZaRBwMb_3syn4stmt8printingNtB9_5LocalNtNtCs9OU1sGv5X54_5quote9to_tokens8ToTokens9to_tokens0Bb_, symObjAddr: 0x2720, symBinAddr: 0x82220, symSize: 0x40 }
  - { offset: 0x11F97C, size: 0x8, addend: 0x0, symName: __RNcNtNtNtCsdGrGZaRBwMb_3syn3pat3Pat11TupleStruct0B7_, symObjAddr: 0x2760, symBinAddr: 0x82260, symSize: 0x40 }
  - { offset: 0x11F9AB, size: 0x8, addend: 0x0, symName: __RNcNtNtNtCsdGrGZaRBwMb_3syn3pat3Pat4Wild0B7_, symObjAddr: 0x27A0, symBinAddr: 0x822A0, symSize: 0x40 }
  - { offset: 0x11F9D9, size: 0x8, addend: 0x0, symName: __RNcNtNtNtCsdGrGZaRBwMb_3syn3pat3Pat5Ident0B7_, symObjAddr: 0x27E0, symBinAddr: 0x822E0, symSize: 0x40 }
  - { offset: 0x11FA08, size: 0x8, addend: 0x0, symName: __RNcNtNtNtCsdGrGZaRBwMb_3syn3pat3Pat5Slice0B7_, symObjAddr: 0x2820, symBinAddr: 0x82320, symSize: 0x40 }
  - { offset: 0x11FA37, size: 0x8, addend: 0x0, symName: __RNcNtNtNtCsdGrGZaRBwMb_3syn3pat3Pat6Struct0B7_, symObjAddr: 0x2860, symBinAddr: 0x82360, symSize: 0x30 }
  - { offset: 0x11FA66, size: 0x8, addend: 0x0, symName: __RNcNtNtNtCsdGrGZaRBwMb_3syn3pat3Pat8Verbatim0B7_, symObjAddr: 0x2890, symBinAddr: 0x82390, symSize: 0x40 }
  - { offset: 0x11FA94, size: 0x8, addend: 0x0, symName: __RNcNtNtNtCsdGrGZaRBwMb_3syn3pat3Pat9Reference0B7_, symObjAddr: 0x28D0, symBinAddr: 0x823D0, symSize: 0x40 }
  - { offset: 0x11FB7C, size: 0x8, addend: 0x0, symName: __RNvNtNtCsdGrGZaRBwMb_3syn3pat7parsing10pat_struct, symObjAddr: 0x99A0, symBinAddr: 0x889E0, symSize: 0xD40 }
  - { offset: 0x11FD4A, size: 0x8, addend: 0x0, symName: __RNvNtNtCsdGrGZaRBwMb_3syn3pat7parsing13pat_reference, symObjAddr: 0xA6E0, symBinAddr: 0x89720, symSize: 0x420 }
  - { offset: 0x11FDF4, size: 0x8, addend: 0x0, symName: __RNvNtNtCsdGrGZaRBwMb_3syn3pat7parsing14multi_pat_impl, symObjAddr: 0xAB00, symBinAddr: 0x89B40, symSize: 0x680 }
  - { offset: 0x11FF29, size: 0x8, addend: 0x0, symName: __RNvNtNtCsdGrGZaRBwMb_3syn3pat7parsing15pat_range_bound, symObjAddr: 0xB180, symBinAddr: 0x8A1C0, symSize: 0x730 }
  - { offset: 0x11FFD2, size: 0x8, addend: 0x0, symName: __RNvNtNtCsdGrGZaRBwMb_3syn3pat7parsing16pat_lit_or_range, symObjAddr: 0xB8B0, symBinAddr: 0x8A8F0, symSize: 0x610 }
  - { offset: 0x1200EF, size: 0x8, addend: 0x0, symName: __RNvNtNtCsdGrGZaRBwMb_3syn3pat7parsing16pat_tuple_struct, symObjAddr: 0xBEC0, symBinAddr: 0x8AF00, symSize: 0x710 }
  - { offset: 0x12023A, size: 0x8, addend: 0x0, symName: __RNvNtNtCsdGrGZaRBwMb_3syn3pat7parsing18pat_paren_or_tuple, symObjAddr: 0xC5D0, symBinAddr: 0x8B610, symSize: 0x7E0 }
  - { offset: 0x120384, size: 0x8, addend: 0x0, symName: __RNvNtNtCsdGrGZaRBwMb_3syn3pat7parsing19pat_range_half_open, symObjAddr: 0xCDB0, symBinAddr: 0x8BDF0, symSize: 0x490 }
  - { offset: 0x12045C, size: 0x8, addend: 0x0, symName: __RNvNtNtCsdGrGZaRBwMb_3syn3pat7parsing36pat_path_or_macro_or_struct_or_range, symObjAddr: 0xD240, symBinAddr: 0x8C280, symSize: 0xA40 }
  - { offset: 0x120554, size: 0x8, addend: 0x0, symName: __RNvNtNtCsdGrGZaRBwMb_3syn3pat7parsing7pat_box, symObjAddr: 0xDC80, symBinAddr: 0x8CCC0, symSize: 0x2A0 }
  - { offset: 0x1205DF, size: 0x8, addend: 0x0, symName: __RNvNtNtCsdGrGZaRBwMb_3syn3pat7parsing8pat_wild, symObjAddr: 0xDF20, symBinAddr: 0x8CF60, symSize: 0x180 }
  - { offset: 0x12062B, size: 0x8, addend: 0x0, symName: __RNvNtNtCsdGrGZaRBwMb_3syn3pat7parsing9field_pat, symObjAddr: 0xE0A0, symBinAddr: 0x8D0E0, symSize: 0xDE0 }
  - { offset: 0x12086B, size: 0x8, addend: 0x0, symName: __RNvNtNtCsdGrGZaRBwMb_3syn3pat7parsing9pat_const, symObjAddr: 0xEE80, symBinAddr: 0x8DEC0, symSize: 0x500 }
  - { offset: 0x12097F, size: 0x8, addend: 0x0, symName: __RNvNtNtCsdGrGZaRBwMb_3syn3pat7parsing9pat_ident, symObjAddr: 0xF380, symBinAddr: 0x8E3C0, symSize: 0x810 }
  - { offset: 0x120AF1, size: 0x8, addend: 0x0, symName: __RNvNtNtCsdGrGZaRBwMb_3syn3pat7parsing9pat_range, symObjAddr: 0xFB90, symBinAddr: 0x8EBD0, symSize: 0x690 }
  - { offset: 0x120BF8, size: 0x8, addend: 0x0, symName: __RNvNtNtCsdGrGZaRBwMb_3syn3pat7parsing9pat_slice, symObjAddr: 0x10220, symBinAddr: 0x8F260, symSize: 0x840 }
  - { offset: 0x120DC9, size: 0x8, addend: 0x0, symName: __RNvXNtNtCsdGrGZaRBwMb_3syn3pat8printingNtB4_8PatIdentNtNtCs9OU1sGv5X54_5quote9to_tokens8ToTokens9to_tokens, symObjAddr: 0x10FE0, symBinAddr: 0x8FFD0, symSize: 0xE0 }
  - { offset: 0x120E36, size: 0x8, addend: 0x0, symName: __RNvXs0_NtNtCsdGrGZaRBwMb_3syn3pat8printingNtB7_8PatParenNtNtCs9OU1sGv5X54_5quote9to_tokens8ToTokens9to_tokens, symObjAddr: 0x13550, symBinAddr: 0x91EE0, symSize: 0x60 }
  - { offset: 0x120E75, size: 0x8, addend: 0x0, symName: __RNvXs1_NtNtCsdGrGZaRBwMb_3syn3pat8printingNtB7_12PatReferenceNtNtCs9OU1sGv5X54_5quote9to_tokens8ToTokens9to_tokens, symObjAddr: 0x150B0, symBinAddr: 0x93470, symSize: 0x80 }
  - { offset: 0x120EB4, size: 0x8, addend: 0x0, symName: __RNvXs2_NtNtCsdGrGZaRBwMb_3syn3pat8printingNtB7_7PatRestNtNtCs9OU1sGv5X54_5quote9to_tokens8ToTokens9to_tokens, symObjAddr: 0x15D10, symBinAddr: 0x93590, symSize: 0x60 }
  - { offset: 0x120EF3, size: 0x8, addend: 0x0, symName: __RNvXs3_NtNtCsdGrGZaRBwMb_3syn3pat8printingNtB7_8PatSliceNtNtCs9OU1sGv5X54_5quote9to_tokens8ToTokens9to_tokens, symObjAddr: 0x17070, symBinAddr: 0x935F0, symSize: 0x60 }
  - { offset: 0x120F32, size: 0x8, addend: 0x0, symName: __RNvXs4_NtNtCsdGrGZaRBwMb_3syn3pat8printingNtB7_9PatStructNtNtCs9OU1sGv5X54_5quote9to_tokens8ToTokens9to_tokens, symObjAddr: 0x17460, symBinAddr: 0x93650, symSize: 0x80 }
  - { offset: 0x120F71, size: 0x8, addend: 0x0, symName: __RNvXs5_NtNtCsdGrGZaRBwMb_3syn3pat8printingNtB7_8PatTupleNtNtCs9OU1sGv5X54_5quote9to_tokens8ToTokens9to_tokens, symObjAddr: 0x17530, symBinAddr: 0x936D0, symSize: 0x60 }
  - { offset: 0x120FB0, size: 0x8, addend: 0x0, symName: __RNvXs6_NtNtCsdGrGZaRBwMb_3syn3pat8printingNtB7_14PatTupleStructNtNtCs9OU1sGv5X54_5quote9to_tokens8ToTokens9to_tokens, symObjAddr: 0x17850, symBinAddr: 0x939A0, symSize: 0x80 }
  - { offset: 0x120FEF, size: 0x8, addend: 0x0, symName: __RNvXs7_NtNtCsdGrGZaRBwMb_3syn3pat8printingNtB7_7PatTypeNtNtCs9OU1sGv5X54_5quote9to_tokens8ToTokens9to_tokens, symObjAddr: 0x17910, symBinAddr: 0x93A20, symSize: 0x80 }
  - { offset: 0x12102E, size: 0x8, addend: 0x0, symName: __RNvXs8_NtNtCsdGrGZaRBwMb_3syn3pat8printingNtB7_7PatWildNtNtCs9OU1sGv5X54_5quote9to_tokens8ToTokens9to_tokens, symObjAddr: 0x17D90, symBinAddr: 0x93AA0, symSize: 0x60 }
  - { offset: 0x12106D, size: 0x8, addend: 0x0, symName: __RNvXs9_NtNtCsdGrGZaRBwMb_3syn3pat8printingNtB7_8FieldPatNtNtCs9OU1sGv5X54_5quote9to_tokens8ToTokens9to_tokens, symObjAddr: 0x17E20, symBinAddr: 0x93B00, symSize: 0xB0 }
  - { offset: 0x1210CA, size: 0x8, addend: 0x0, symName: __RNvXs_NtNtCsdGrGZaRBwMb_3syn3pat8printingNtB6_5PatOrNtNtCs9OU1sGv5X54_5quote9to_tokens8ToTokens9to_tokens, symObjAddr: 0x18600, symBinAddr: 0x93D60, symSize: 0x70 }
  - { offset: 0x12110A, size: 0x8, addend: 0x0, symName: __RNvXse_NtCsdGrGZaRBwMb_3syn3patNtB5_3PatNtNtCs9OU1sGv5X54_5quote9to_tokens8ToTokens9to_tokens, symObjAddr: 0x187C0, symBinAddr: 0x93DF0, symSize: 0x2D0 }
  - { offset: 0x1215FB, size: 0x8, addend: 0x0, symName: __RINvNtNtCsdGrGZaRBwMb_3syn3lit5value11backslash_uShEB6_, symObjAddr: 0x0, symBinAddr: 0x7FB00, symSize: 0x500 }
  - { offset: 0x121786, size: 0x8, addend: 0x0, symName: __RINvNtNtCsdGrGZaRBwMb_3syn3lit5value11backslash_ueEB6_, symObjAddr: 0x500, symBinAddr: 0x80000, symSize: 0x3C0 }
  - { offset: 0x121870, size: 0x8, addend: 0x0, symName: __RINvNtNtCsdGrGZaRBwMb_3syn3lit5value11backslash_xShEB6_, symObjAddr: 0x8C0, symBinAddr: 0x803C0, symSize: 0x390 }
  - { offset: 0x121910, size: 0x8, addend: 0x0, symName: __RINvNtNtCsdGrGZaRBwMb_3syn3lit5value11backslash_xeEB6_, symObjAddr: 0xC50, symBinAddr: 0x80750, symSize: 0x380 }
  - { offset: 0x121989, size: 0x8, addend: 0x0, symName: __RINvNtNtCsdGrGZaRBwMb_3syn3lit5value4byteShEB6_, symObjAddr: 0xFD0, symBinAddr: 0x80AD0, symSize: 0x90 }
  - { offset: 0x1219E5, size: 0x8, addend: 0x0, symName: __RINvNtNtCsdGrGZaRBwMb_3syn3lit5value4byteeEB6_, symObjAddr: 0x1060, symBinAddr: 0x80B60, symSize: 0x90 }
  - { offset: 0x121A46, size: 0x8, addend: 0x0, symName: __RNCNvNtNtCsdGrGZaRBwMb_3syn3lit5value15parse_lit_float0B7_, symObjAddr: 0x26C0, symBinAddr: 0x821C0, symSize: 0x30 }
  - { offset: 0x121A87, size: 0x8, addend: 0x0, symName: __RNvNtNtCsdGrGZaRBwMb_3syn3lit5value13parse_lit_int, symObjAddr: 0x4350, symBinAddr: 0x83390, symSize: 0xAF0 }
  - { offset: 0x121BD6, size: 0x8, addend: 0x0, symName: __RNvNtNtCsdGrGZaRBwMb_3syn3lit5value13parse_lit_str, symObjAddr: 0x4E40, symBinAddr: 0x83E80, symSize: 0xB0 }
  - { offset: 0x121C04, size: 0x8, addend: 0x0, symName: __RNvNtNtCsdGrGZaRBwMb_3syn3lit5value14parse_lit_byte, symObjAddr: 0x4EF0, symBinAddr: 0x83F30, symSize: 0x640 }
  - { offset: 0x121DFE, size: 0x8, addend: 0x0, symName: __RNvNtNtCsdGrGZaRBwMb_3syn3lit5value14parse_lit_char, symObjAddr: 0x5530, symBinAddr: 0x84570, symSize: 0x780 }
  - { offset: 0x121FB0, size: 0x8, addend: 0x0, symName: __RNvNtNtCsdGrGZaRBwMb_3syn3lit5value15parse_lit_c_str, symObjAddr: 0x5CB0, symBinAddr: 0x84CF0, symSize: 0x120 }
  - { offset: 0x12202A, size: 0x8, addend: 0x0, symName: __RNvNtNtCsdGrGZaRBwMb_3syn3lit5value15parse_lit_float, symObjAddr: 0x5DD0, symBinAddr: 0x84E10, symSize: 0xD30 }
  - { offset: 0x1221A6, size: 0x8, addend: 0x0, symName: __RNvNtNtCsdGrGZaRBwMb_3syn3lit5value17parse_lit_str_raw, symObjAddr: 0x6B00, symBinAddr: 0x85B40, symSize: 0x5F0 }
  - { offset: 0x122310, size: 0x8, addend: 0x0, symName: __RNvNtNtCsdGrGZaRBwMb_3syn3lit5value18parse_lit_byte_str, symObjAddr: 0x70F0, symBinAddr: 0x86130, symSize: 0x120 }
  - { offset: 0x12238A, size: 0x8, addend: 0x0, symName: __RNvNtNtCsdGrGZaRBwMb_3syn3lit5value19parse_lit_c_str_raw, symObjAddr: 0x7210, symBinAddr: 0x86250, symSize: 0x340 }
  - { offset: 0x122487, size: 0x8, addend: 0x0, symName: __RNvNtNtCsdGrGZaRBwMb_3syn3lit5value20parse_lit_str_cooked, symObjAddr: 0x7550, symBinAddr: 0x86590, symSize: 0xA60 }
  - { offset: 0x12265D, size: 0x8, addend: 0x0, symName: __RNvNtNtCsdGrGZaRBwMb_3syn3lit5value22parse_lit_byte_str_raw, symObjAddr: 0x7FB0, symBinAddr: 0x86FF0, symSize: 0x280 }
  - { offset: 0x12271D, size: 0x8, addend: 0x0, symName: __RNvNtNtCsdGrGZaRBwMb_3syn3lit5value22parse_lit_c_str_cooked, symObjAddr: 0x8230, symBinAddr: 0x87270, symSize: 0xD20 }
  - { offset: 0x122A11, size: 0x8, addend: 0x0, symName: __RNvNtNtCsdGrGZaRBwMb_3syn3lit5value25parse_lit_byte_str_cooked, symObjAddr: 0x8F50, symBinAddr: 0x87F90, symSize: 0xA10 }
  - { offset: 0x122C97, size: 0x8, addend: 0x0, symName: __RNvNtNtCsdGrGZaRBwMb_3syn3lit5value8next_chr, symObjAddr: 0x9960, symBinAddr: 0x889A0, symSize: 0x40 }
  - { offset: 0x122DCE, size: 0x8, addend: 0x0, symName: __RNCNvNtCsdGrGZaRBwMb_3syn3mac15parse_delimiter0B5_, symObjAddr: 0x20F0, symBinAddr: 0x81BF0, symSize: 0x5D0 }
  - { offset: 0x122E60, size: 0x8, addend: 0x0, symName: __RNvNtCsdGrGZaRBwMb_3syn3mac15parse_delimiter, symObjAddr: 0x4320, symBinAddr: 0x83360, symSize: 0x30 }
  - { offset: 0x122E96, size: 0x8, addend: 0x0, symName: __RNvXNtNtCsdGrGZaRBwMb_3syn3mac7parsingNtB4_5MacroNtNtB6_5parse5Parse5parse, symObjAddr: 0x10BD0, symBinAddr: 0x8FBC0, symSize: 0x410 }
  - { offset: 0x122F4C, size: 0x8, addend: 0x0, symName: __RNvXs_NtNtCsdGrGZaRBwMb_3syn3mac8printingNtB6_5MacroNtNtCs9OU1sGv5X54_5quote9to_tokens8ToTokens9to_tokens, symObjAddr: 0x18130, symBinAddr: 0x93CE0, symSize: 0x80 }
  - { offset: 0x124DC3, size: 0x8, addend: 0x0, symName: __RNvXNtNtCsdGrGZaRBwMb_3syn6derive7parsingNtB4_11DeriveInputNtNtB6_5parse5Parse5parse, symObjAddr: 0x114D0, symBinAddr: 0x900B0, symSize: 0x19E0 }
  - { offset: 0x1251EE, size: 0x8, addend: 0x0, symName: __RNvXNtNtCsdGrGZaRBwMb_3syn6derive8printingNtB4_11DeriveInputNtNtCs9OU1sGv5X54_5quote9to_tokens8ToTokens9to_tokens, symObjAddr: 0x12EB0, symBinAddr: 0x91A90, symSize: 0x3C0 }
  - { offset: 0x12560F, size: 0x8, addend: 0x0, symName: __RNvXs10_NtNtCsdGrGZaRBwMb_3syn3gen5cloneNtNtBa_3pat8FieldPatNtNtCsieiGu2EXtoJ_4core5clone5Clone5clone, symObjAddr: 0x135B0, symBinAddr: 0x91F40, symSize: 0x110 }
  - { offset: 0x125643, size: 0x8, addend: 0x0, symName: __RNvXs1I_NtNtCsdGrGZaRBwMb_3syn3gen5cloneNtNtBa_3mac5MacroNtNtCsieiGu2EXtoJ_4core5clone5Clone5clone, symObjAddr: 0x138B0, symBinAddr: 0x92050, symSize: 0x120 }
  - { offset: 0x125677, size: 0x8, addend: 0x0, symName: __RNvXs1J_NtNtCsdGrGZaRBwMb_3syn3gen5cloneNtNtBa_3mac14MacroDelimiterNtNtCsieiGu2EXtoJ_4core5clone5Clone5clone, symObjAddr: 0x139D0, symBinAddr: 0x92170, symSize: 0xF0 }
  - { offset: 0x1256FD, size: 0x8, addend: 0x0, symName: __RNvXs1P_NtNtCsdGrGZaRBwMb_3syn3gen5cloneNtNtBa_3pat3PatNtNtCsieiGu2EXtoJ_4core5clone5Clone5clone, symObjAddr: 0x13B70, symBinAddr: 0x92260, symSize: 0x6B0 }
  - { offset: 0x125931, size: 0x8, addend: 0x0, symName: __RNvXs1Q_NtNtCsdGrGZaRBwMb_3syn3gen5cloneNtNtBa_3pat8PatIdentNtNtCsieiGu2EXtoJ_4core5clone5Clone5clone, symObjAddr: 0x14220, symBinAddr: 0x92910, symSize: 0x170 }
  - { offset: 0x125965, size: 0x8, addend: 0x0, symName: __RNvXs1R_NtNtCsdGrGZaRBwMb_3syn3gen5cloneNtNtBa_3pat5PatOrNtNtCsieiGu2EXtoJ_4core5clone5Clone5clone, symObjAddr: 0x14390, symBinAddr: 0x92A80, symSize: 0xF0 }
  - { offset: 0x125999, size: 0x8, addend: 0x0, symName: __RNvXs1S_NtNtCsdGrGZaRBwMb_3syn3gen5cloneNtNtBa_3pat8PatParenNtNtCsieiGu2EXtoJ_4core5clone5Clone5clone, symObjAddr: 0x14480, symBinAddr: 0x92B70, symSize: 0xC0 }
  - { offset: 0x1259CD, size: 0x8, addend: 0x0, symName: __RNvXs1T_NtNtCsdGrGZaRBwMb_3syn3gen5cloneNtNtBa_3pat12PatReferenceNtNtCsieiGu2EXtoJ_4core5clone5Clone5clone, symObjAddr: 0x14540, symBinAddr: 0x92C30, symSize: 0x100 }
  - { offset: 0x125A01, size: 0x8, addend: 0x0, symName: __RNvXs1U_NtNtCsdGrGZaRBwMb_3syn3gen5cloneNtNtBa_3pat7PatRestNtNtCsieiGu2EXtoJ_4core5clone5Clone5clone, symObjAddr: 0x14640, symBinAddr: 0x92D30, symSize: 0xB0 }
  - { offset: 0x125A35, size: 0x8, addend: 0x0, symName: __RNvXs1V_NtNtCsdGrGZaRBwMb_3syn3gen5cloneNtNtBa_3pat8PatSliceNtNtCsieiGu2EXtoJ_4core5clone5Clone5clone, symObjAddr: 0x146F0, symBinAddr: 0x92DE0, symSize: 0xE0 }
  - { offset: 0x125A69, size: 0x8, addend: 0x0, symName: __RNvXs1W_NtNtCsdGrGZaRBwMb_3syn3gen5cloneNtNtBa_3pat9PatStructNtNtCsieiGu2EXtoJ_4core5clone5Clone5clone, symObjAddr: 0x147D0, symBinAddr: 0x92EC0, symSize: 0x220 }
  - { offset: 0x125A9D, size: 0x8, addend: 0x0, symName: __RNvXs1X_NtNtCsdGrGZaRBwMb_3syn3gen5cloneNtNtBa_3pat8PatTupleNtNtCsieiGu2EXtoJ_4core5clone5Clone5clone, symObjAddr: 0x149F0, symBinAddr: 0x930E0, symSize: 0xE0 }
  - { offset: 0x125AD1, size: 0x8, addend: 0x0, symName: __RNvXs1Y_NtNtCsdGrGZaRBwMb_3syn3gen5cloneNtNtBa_3pat14PatTupleStructNtNtCsieiGu2EXtoJ_4core5clone5Clone5clone, symObjAddr: 0x14AD0, symBinAddr: 0x931C0, symSize: 0x1B0 }
  - { offset: 0x125B05, size: 0x8, addend: 0x0, symName: __RNvXs1Z_NtNtCsdGrGZaRBwMb_3syn3gen5cloneNtNtBa_3pat7PatTypeNtNtCsieiGu2EXtoJ_4core5clone5Clone5clone, symObjAddr: 0x14D30, symBinAddr: 0x93370, symSize: 0x100 }
  - { offset: 0x125B39, size: 0x8, addend: 0x0, symName: __RNvXs20_NtNtCsdGrGZaRBwMb_3syn3gen5cloneNtNtBa_3pat7PatWildNtNtCsieiGu2EXtoJ_4core5clone5Clone5clone, symObjAddr: 0x15130, symBinAddr: 0x934F0, symSize: 0xA0 }
  - { offset: 0x1278A1, size: 0x8, addend: 0x0, symName: __RNvMNtCsdGrGZaRBwMb_3syn3macNtB2_14MacroDelimiter4span, symObjAddr: 0x2910, symBinAddr: 0x82410, symSize: 0x80 }
  - { offset: 0x12791A, size: 0x8, addend: 0x0, symName: __RNvMNtCsdGrGZaRBwMb_3syn3macNtB2_14MacroDelimiter8is_brace, symObjAddr: 0x2990, symBinAddr: 0x82490, symSize: 0x50 }
  - { offset: 0x127949, size: 0x8, addend: 0x0, symName: __RNvMNtNtCsdGrGZaRBwMb_3syn3mac8printingNtB4_14MacroDelimiter8surround, symObjAddr: 0x2A40, symBinAddr: 0x82540, symSize: 0x200 }
  - { offset: 0x127A60, size: 0x8, addend: 0x0, symName: __RNvMNtNtCsdGrGZaRBwMb_3syn3pat7parsingNtB4_3Pat12parse_single, symObjAddr: 0x2C80, symBinAddr: 0x82740, symSize: 0x840 }
  - { offset: 0x127AB1, size: 0x8, addend: 0x0, symName: __RNvMNtNtCsdGrGZaRBwMb_3syn3pat7parsingNtB4_3Pat29parse_multi_with_leading_vert, symObjAddr: 0x34C0, symBinAddr: 0x82F80, symSize: 0xD0 }
  - { offset: 0x127B10, size: 0x8, addend: 0x0, symName: __RNvMs0_NtNtCsdGrGZaRBwMb_3syn3pat7parsingNtB5_13PatRangeBound8into_pat, symObjAddr: 0x3590, symBinAddr: 0x83050, symSize: 0x170 }
  - { offset: 0x127B89, size: 0x8, addend: 0x0, symName: __RNvMs0_NtNtCsdGrGZaRBwMb_3syn3pat7parsingNtB5_13PatRangeBound9into_expr, symObjAddr: 0x3700, symBinAddr: 0x831C0, symSize: 0x1A0 }
  - { offset: 0x127DF9, size: 0x8, addend: 0x0, symName: __RNvXNtCs9OU1sGv5X54_5quote9to_tokensRNtNtCsdGrGZaRBwMb_3syn3pat3PatNtB2_8ToTokens9to_tokensBD_, symObjAddr: 0x10B20, symBinAddr: 0x8FB60, symSize: 0x30 }
  - { offset: 0x127E38, size: 0x8, addend: 0x0, symName: __RNvXNtCs9OU1sGv5X54_5quote9to_tokensRNtNtCsdGrGZaRBwMb_3syn3pat8FieldPatNtB2_8ToTokens9to_tokensBD_, symObjAddr: 0x10B50, symBinAddr: 0x8FB90, symSize: 0x30 }
  - { offset: 0x128212, size: 0x8, addend: 0x0, symName: __RINvMs_NtCsdGrGZaRBwMb_3syn4pathNtB5_4Path8is_identeEB7_, symObjAddr: 0x0, symBinAddr: 0x940F0, symSize: 0x80 }
  - { offset: 0x12ED75, size: 0x8, addend: 0x0, symName: __RINvYINtNtNtCsieiGu2EXtoJ_4core5slice4iter4IterNtNtCsdGrGZaRBwMb_3syn4attr9AttributeENtNtNtNtBa_4iter6traits8iterator8Iterator6filterFG0_RL1_RL0_BJ_EbEBN_, symObjAddr: 0xB10, symBinAddr: 0x94BE0, symSize: 0x20 }
  - { offset: 0x12EDD9, size: 0x8, addend: 0x0, symName: __RNvYINtNtNtCsieiGu2EXtoJ_4core5slice4iter4IterNtNtCsdGrGZaRBwMb_3syn4expr3ArmENtNtNtNtB9_4iter6traits8iterator8Iterator9enumerateBM_, symObjAddr: 0xC3B0, symBinAddr: 0x9DF40, symSize: 0x20 }
  - { offset: 0x12EE25, size: 0x8, addend: 0x0, symName: __RNvYINtNtNtCsieiGu2EXtoJ_4core5slice4iter4IterhENtNtNtNtB9_4iter6traits8iterator8Iterator3revCsdGrGZaRBwMb_3syn, symObjAddr: 0xC3D0, symBinAddr: 0x9DF60, symSize: 0x20 }
  - { offset: 0x12EE68, size: 0x8, addend: 0x0, symName: __RNvXNtNtNtCsieiGu2EXtoJ_4core4iter6traits7collectINtNtNtB8_5slice4iter4IterNtCsaKzlTDPUHDb_11proc_macro24SpanENtB2_12IntoIterator9into_iterCsdGrGZaRBwMb_3syn, symObjAddr: 0x5A60, symBinAddr: 0x99410, symSize: 0x20 }
  - { offset: 0x12EE9F, size: 0x8, addend: 0x0, symName: __RNvXNtNtNtCsieiGu2EXtoJ_4core4iter6traits7collectINtNtNtB8_5slice4iter4IterNtNtCsdGrGZaRBwMb_3syn4attr9AttributeENtB2_12IntoIterator9into_iterB1f_, symObjAddr: 0x5A80, symBinAddr: 0x99430, symSize: 0x20 }
  - { offset: 0x12EED6, size: 0x8, addend: 0x0, symName: __RNvXNtNtNtCsieiGu2EXtoJ_4core4iter6traits7collectINtNtNtB8_5slice4iter4IterNtNtCsdGrGZaRBwMb_3syn4item11ForeignItemENtB2_12IntoIterator9into_iterB1f_, symObjAddr: 0x5AC0, symBinAddr: 0x99450, symSize: 0x20 }
  - { offset: 0x12EF0D, size: 0x8, addend: 0x0, symName: __RNvXNtNtNtCsieiGu2EXtoJ_4core4iter6traits7collectINtNtNtB8_5slice4iter4IterNtNtCsdGrGZaRBwMb_3syn4item4ItemENtB2_12IntoIterator9into_iterB1f_, symObjAddr: 0x5AE0, symBinAddr: 0x99470, symSize: 0x20 }
  - { offset: 0x12EF44, size: 0x8, addend: 0x0, symName: __RNvXNtNtNtCsieiGu2EXtoJ_4core4iter6traits7collectINtNtNtB8_5slice4iter4IterNtNtCsdGrGZaRBwMb_3syn4item8ImplItemENtB2_12IntoIterator9into_iterB1f_, symObjAddr: 0x5B00, symBinAddr: 0x99490, symSize: 0x20 }
  - { offset: 0x12EF7B, size: 0x8, addend: 0x0, symName: __RNvXNtNtNtCsieiGu2EXtoJ_4core4iter6traits7collectINtNtNtB8_5slice4iter4IterNtNtCsdGrGZaRBwMb_3syn4item9TraitItemENtB2_12IntoIterator9into_iterB1f_, symObjAddr: 0x5B20, symBinAddr: 0x994B0, symSize: 0x20 }
  - { offset: 0x12EFB2, size: 0x8, addend: 0x0, symName: __RNvXNtNtNtCsieiGu2EXtoJ_4core4iter6traits7collectINtNtNtB8_5slice4iter4IterNtNtCsdGrGZaRBwMb_3syn4stmt4StmtENtB2_12IntoIterator9into_iterB1f_, symObjAddr: 0x5B40, symBinAddr: 0x994D0, symSize: 0x20 }
  - { offset: 0x12EFE9, size: 0x8, addend: 0x0, symName: __RNvXNtNtNtCsieiGu2EXtoJ_4core4iter6traits7collectINtNtNtB8_5slice4iter4IterNtNtCsdGrGZaRBwMb_3syn5error12ErrorMessageENtB2_12IntoIterator9into_iterB1f_, symObjAddr: 0x5B60, symBinAddr: 0x994F0, symSize: 0x20 }
  - { offset: 0x12F4AA, size: 0x8, addend: 0x0, symName: __RINvXs2E_NtNtCsieiGu2EXtoJ_4core5slice4iterINtB7_4IterNtNtCsdGrGZaRBwMb_3syn4attr9AttributeENtNtNtNtBb_4iter6traits8iterator8Iterator4findQFG0_RL1_RL0_BQ_EbEBU_, symObjAddr: 0x9D0, symBinAddr: 0x94AA0, symSize: 0xA0 }
  - { offset: 0x12F50F, size: 0x8, addend: 0x0, symName: __RINvXs2E_NtNtCsieiGu2EXtoJ_4core5slice4iterINtB7_4IterhENtNtNtNtBb_4iter6traits8iterator8Iterator4findNCNvNtNtCsdGrGZaRBwMb_3syn3lit5value15parse_lit_float0EB1K_, symObjAddr: 0xA70, symBinAddr: 0x94B40, symSize: 0xA0 }
  - { offset: 0x12F574, size: 0x8, addend: 0x0, symName: __RNvXs2E_NtNtCsieiGu2EXtoJ_4core5slice4iterINtB6_4IterNtCsaKzlTDPUHDb_11proc_macro24SpanENtNtNtNtBa_4iter6traits8iterator8Iterator4nextCsdGrGZaRBwMb_3syn, symObjAddr: 0x7110, symBinAddr: 0x9A580, symSize: 0x90 }
  - { offset: 0x12F695, size: 0x8, addend: 0x0, symName: __RNvXs2E_NtNtCsieiGu2EXtoJ_4core5slice4iterINtB6_4IterNtNtCsdGrGZaRBwMb_3syn4attr9AttributeENtNtNtNtBa_4iter6traits8iterator8Iterator4nextBT_, symObjAddr: 0x71A0, symBinAddr: 0x9A610, symSize: 0x90 }
  - { offset: 0x12F7B6, size: 0x8, addend: 0x0, symName: __RNvXs2E_NtNtCsieiGu2EXtoJ_4core5slice4iterINtB6_4IterNtNtCsdGrGZaRBwMb_3syn4expr3ArmENtNtNtNtBa_4iter6traits8iterator8Iterator4nextBT_, symObjAddr: 0x7230, symBinAddr: 0x9A6A0, symSize: 0x90 }
  - { offset: 0x12F8D7, size: 0x8, addend: 0x0, symName: __RNvXs2E_NtNtCsieiGu2EXtoJ_4core5slice4iterINtB6_4IterNtNtCsdGrGZaRBwMb_3syn4item11ForeignItemENtNtNtNtBa_4iter6traits8iterator8Iterator4nextBT_, symObjAddr: 0x72C0, symBinAddr: 0x9A730, symSize: 0x90 }
  - { offset: 0x12F9F8, size: 0x8, addend: 0x0, symName: __RNvXs2E_NtNtCsieiGu2EXtoJ_4core5slice4iterINtB6_4IterNtNtCsdGrGZaRBwMb_3syn4item4ItemENtNtNtNtBa_4iter6traits8iterator8Iterator4nextBT_, symObjAddr: 0x7350, symBinAddr: 0x9A7C0, symSize: 0x90 }
  - { offset: 0x12FB19, size: 0x8, addend: 0x0, symName: __RNvXs2E_NtNtCsieiGu2EXtoJ_4core5slice4iterINtB6_4IterNtNtCsdGrGZaRBwMb_3syn4item8ImplItemENtNtNtNtBa_4iter6traits8iterator8Iterator4nextBT_, symObjAddr: 0x73E0, symBinAddr: 0x9A850, symSize: 0x90 }
  - { offset: 0x12FC3A, size: 0x8, addend: 0x0, symName: __RNvXs2E_NtNtCsieiGu2EXtoJ_4core5slice4iterINtB6_4IterNtNtCsdGrGZaRBwMb_3syn4item9TraitItemENtNtNtNtBa_4iter6traits8iterator8Iterator4nextBT_, symObjAddr: 0x7470, symBinAddr: 0x9A8E0, symSize: 0x90 }
  - { offset: 0x12FD5B, size: 0x8, addend: 0x0, symName: __RNvXs2E_NtNtCsieiGu2EXtoJ_4core5slice4iterINtB6_4IterNtNtCsdGrGZaRBwMb_3syn4stmt4StmtENtNtNtNtBa_4iter6traits8iterator8Iterator4nextBT_, symObjAddr: 0x7500, symBinAddr: 0x9A970, symSize: 0x90 }
  - { offset: 0x12FE7C, size: 0x8, addend: 0x0, symName: __RNvXs2E_NtNtCsieiGu2EXtoJ_4core5slice4iterINtB6_4IterNtNtCsdGrGZaRBwMb_3syn5error12ErrorMessageENtNtNtNtBa_4iter6traits8iterator8Iterator4nextBT_, symObjAddr: 0x7590, symBinAddr: 0x9AA00, symSize: 0x90 }
  - { offset: 0x12FF9D, size: 0x8, addend: 0x0, symName: __RNvXs2E_NtNtCsieiGu2EXtoJ_4core5slice4iterINtB6_4IterTNtNtCsdGrGZaRBwMb_3syn2ty4TypeNtNtBU_5token5CommaEENtNtNtNtBa_4iter6traits8iterator8Iterator4nextBU_, symObjAddr: 0x7620, symBinAddr: 0x9AA90, symSize: 0x90 }
  - { offset: 0x1300BE, size: 0x8, addend: 0x0, symName: __RNvXs2E_NtNtCsieiGu2EXtoJ_4core5slice4iterINtB6_4IterTNtNtCsdGrGZaRBwMb_3syn2ty9BareFnArgNtNtBU_5token5CommaEENtNtNtNtBa_4iter6traits8iterator8Iterator4nextBU_, symObjAddr: 0x76B0, symBinAddr: 0x9AB20, symSize: 0x90 }
  - { offset: 0x1301DF, size: 0x8, addend: 0x0, symName: __RNvXs2E_NtNtCsieiGu2EXtoJ_4core5slice4iterINtB6_4IterTNtNtCsdGrGZaRBwMb_3syn3pat3PatNtNtBU_5token2OrEENtNtNtNtBa_4iter6traits8iterator8Iterator4nextBU_, symObjAddr: 0x7740, symBinAddr: 0x9ABB0, symSize: 0x90 }
  - { offset: 0x130300, size: 0x8, addend: 0x0, symName: __RNvXs2E_NtNtCsieiGu2EXtoJ_4core5slice4iterINtB6_4IterTNtNtCsdGrGZaRBwMb_3syn3pat3PatNtNtBU_5token5CommaEENtNtNtNtBa_4iter6traits8iterator8Iterator4nextBU_, symObjAddr: 0x77D0, symBinAddr: 0x9AC40, symSize: 0x90 }
  - { offset: 0x130421, size: 0x8, addend: 0x0, symName: __RNvXs2E_NtNtCsieiGu2EXtoJ_4core5slice4iterINtB6_4IterTNtNtCsdGrGZaRBwMb_3syn3pat8FieldPatNtNtBU_5token5CommaEENtNtNtNtBa_4iter6traits8iterator8Iterator4nextBU_, symObjAddr: 0x7860, symBinAddr: 0x9ACD0, symSize: 0x90 }
  - { offset: 0x130542, size: 0x8, addend: 0x0, symName: __RNvXs2E_NtNtCsieiGu2EXtoJ_4core5slice4iterINtB6_4IterTNtNtCsdGrGZaRBwMb_3syn4data5FieldNtNtBU_5token5CommaEENtNtNtNtBa_4iter6traits8iterator8Iterator4nextBU_, symObjAddr: 0x78F0, symBinAddr: 0x9AD60, symSize: 0x90 }
  - { offset: 0x130663, size: 0x8, addend: 0x0, symName: __RNvXs2E_NtNtCsieiGu2EXtoJ_4core5slice4iterINtB6_4IterTNtNtCsdGrGZaRBwMb_3syn4data7VariantNtNtBU_5token5CommaEENtNtNtNtBa_4iter6traits8iterator8Iterator4nextBU_, symObjAddr: 0x7980, symBinAddr: 0x9ADF0, symSize: 0x90 }
  - { offset: 0x130784, size: 0x8, addend: 0x0, symName: __RNvXs2E_NtNtCsieiGu2EXtoJ_4core5slice4iterINtB6_4IterTNtNtCsdGrGZaRBwMb_3syn4expr10FieldValueNtNtBU_5token5CommaEENtNtNtNtBa_4iter6traits8iterator8Iterator4nextBU_, symObjAddr: 0x7A10, symBinAddr: 0x9AE80, symSize: 0x90 }
  - { offset: 0x1308A5, size: 0x8, addend: 0x0, symName: __RNvXs2E_NtNtCsieiGu2EXtoJ_4core5slice4iterINtB6_4IterTNtNtCsdGrGZaRBwMb_3syn4expr4ExprNtNtBU_5token5CommaEENtNtNtNtBa_4iter6traits8iterator8Iterator4nextBU_, symObjAddr: 0x7AA0, symBinAddr: 0x9AF10, symSize: 0x90 }
  - { offset: 0x1309C6, size: 0x8, addend: 0x0, symName: __RNvXs2E_NtNtCsieiGu2EXtoJ_4core5slice4iterINtB6_4IterTNtNtCsdGrGZaRBwMb_3syn4item5FnArgNtNtBU_5token5CommaEENtNtNtNtBa_4iter6traits8iterator8Iterator4nextBU_, symObjAddr: 0x7B30, symBinAddr: 0x9AFA0, symSize: 0x90 }
  - { offset: 0x130AE7, size: 0x8, addend: 0x0, symName: __RNvXs2E_NtNtCsieiGu2EXtoJ_4core5slice4iterINtB6_4IterTNtNtCsdGrGZaRBwMb_3syn4item7UseTreeNtNtBU_5token5CommaEENtNtNtNtBa_4iter6traits8iterator8Iterator4nextBU_, symObjAddr: 0x7BC0, symBinAddr: 0x9B030, symSize: 0x90 }
  - { offset: 0x130C08, size: 0x8, addend: 0x0, symName: __RNvXs2E_NtNtCsieiGu2EXtoJ_4core5slice4iterINtB6_4IterTNtNtCsdGrGZaRBwMb_3syn4path11PathSegmentNtNtBU_5token7PathSepEENtNtNtNtBa_4iter6traits8iterator8Iterator4nextBU_, symObjAddr: 0x7C50, symBinAddr: 0x9B0C0, symSize: 0x90 }
  - { offset: 0x130D29, size: 0x8, addend: 0x0, symName: __RNvXs2E_NtNtCsieiGu2EXtoJ_4core5slice4iterINtB6_4IterTNtNtCsdGrGZaRBwMb_3syn4path15GenericArgumentNtNtBU_5token5CommaEENtNtNtNtBa_4iter6traits8iterator8Iterator4nextBU_, symObjAddr: 0x7CE0, symBinAddr: 0x9B150, symSize: 0x90 }
  - { offset: 0x130E4A, size: 0x8, addend: 0x0, symName: __RNvXs2E_NtNtCsieiGu2EXtoJ_4core5slice4iterINtB6_4IterTNtNtCsdGrGZaRBwMb_3syn8generics12GenericParamNtNtBU_5token5CommaEENtNtNtNtBa_4iter6traits8iterator8Iterator4nextBU_, symObjAddr: 0x7D70, symBinAddr: 0x9B1E0, symSize: 0x90 }
  - { offset: 0x130F6B, size: 0x8, addend: 0x0, symName: __RNvXs2E_NtNtCsieiGu2EXtoJ_4core5slice4iterINtB6_4IterTNtNtCsdGrGZaRBwMb_3syn8generics13CapturedParamNtNtBU_5token5CommaEENtNtNtNtBa_4iter6traits8iterator8Iterator4nextBU_, symObjAddr: 0x7E00, symBinAddr: 0x9B270, symSize: 0x90 }
  - { offset: 0x13108C, size: 0x8, addend: 0x0, symName: __RNvXs2E_NtNtCsieiGu2EXtoJ_4core5slice4iterINtB6_4IterTNtNtCsdGrGZaRBwMb_3syn8generics14TypeParamBoundNtNtBU_5token4PlusEENtNtNtNtBa_4iter6traits8iterator8Iterator4nextBU_, symObjAddr: 0x7E90, symBinAddr: 0x9B300, symSize: 0x90 }
  - { offset: 0x1311AD, size: 0x8, addend: 0x0, symName: __RNvXs2E_NtNtCsieiGu2EXtoJ_4core5slice4iterINtB6_4IterTNtNtCsdGrGZaRBwMb_3syn8generics14WherePredicateNtNtBU_5token5CommaEENtNtNtNtBa_4iter6traits8iterator8Iterator4nextBU_, symObjAddr: 0x7F20, symBinAddr: 0x9B390, symSize: 0x90 }
  - { offset: 0x1312CE, size: 0x8, addend: 0x0, symName: __RNvXs2E_NtNtCsieiGu2EXtoJ_4core5slice4iterINtB6_4IterTNtNtCsdGrGZaRBwMb_3syn8lifetime8LifetimeNtNtBU_5token4PlusEENtNtNtNtBa_4iter6traits8iterator8Iterator4nextBU_, symObjAddr: 0x7FB0, symBinAddr: 0x9B420, symSize: 0x90 }
  - { offset: 0x131C5F, size: 0x8, addend: 0x0, symName: __RNvXs2F_NtNtCsieiGu2EXtoJ_4core5slice4iterINtB6_4IterNtCsaKzlTDPUHDb_11proc_macro24SpanENtNtNtNtBa_4iter6traits12double_ended19DoubleEndedIterator9next_backCsdGrGZaRBwMb_3syn, symObjAddr: 0x8040, symBinAddr: 0x9B4B0, symSize: 0x100 }
  - { offset: 0x131DAE, size: 0x8, addend: 0x0, symName: __RNvXs2F_NtNtCsieiGu2EXtoJ_4core5slice4iterINtB6_4IterTNtNtCsdGrGZaRBwMb_3syn4data5FieldNtNtBU_5token5CommaEENtNtNtNtBa_4iter6traits12double_ended19DoubleEndedIterator9next_backBU_, symObjAddr: 0x8140, symBinAddr: 0x9B5B0, symSize: 0x100 }
  - { offset: 0x131EFD, size: 0x8, addend: 0x0, symName: __RNvXs2F_NtNtCsieiGu2EXtoJ_4core5slice4iterINtB6_4IterTNtNtCsdGrGZaRBwMb_3syn4path11PathSegmentNtNtBU_5token7PathSepEENtNtNtNtBa_4iter6traits12double_ended19DoubleEndedIterator9next_backBU_, symObjAddr: 0x8340, symBinAddr: 0x9B6B0, symSize: 0x100 }
  - { offset: 0x13204C, size: 0x8, addend: 0x0, symName: __RNvXs2F_NtNtCsieiGu2EXtoJ_4core5slice4iterINtB6_4IterTNtNtCsdGrGZaRBwMb_3syn8generics12GenericParamNtNtBU_5token5CommaEENtNtNtNtBa_4iter6traits12double_ended19DoubleEndedIterator9next_backBU_, symObjAddr: 0x8440, symBinAddr: 0x9B7B0, symSize: 0x100 }
  - { offset: 0x13219B, size: 0x8, addend: 0x0, symName: __RNvXs2F_NtNtCsieiGu2EXtoJ_4core5slice4iterINtB6_4IterTNtNtCsdGrGZaRBwMb_3syn8generics14TypeParamBoundNtNtBU_5token4PlusEENtNtNtNtBa_4iter6traits12double_ended19DoubleEndedIterator9next_backBU_, symObjAddr: 0x8540, symBinAddr: 0x9B8B0, symSize: 0x100 }
  - { offset: 0x1322EA, size: 0x8, addend: 0x0, symName: __RNvXs2F_NtNtCsieiGu2EXtoJ_4core5slice4iterINtB6_4IterhENtNtNtNtBa_4iter6traits12double_ended19DoubleEndedIterator9next_backCsdGrGZaRBwMb_3syn, symObjAddr: 0x8640, symBinAddr: 0x9B9B0, symSize: 0x100 }
  - { offset: 0x1324B6, size: 0x8, addend: 0x0, symName: __RNvXs2M_NtNtCsieiGu2EXtoJ_4core5slice4iterINtB6_7IterMutTNtNtCsdGrGZaRBwMb_3syn4path11PathSegmentNtNtBX_5token7PathSepEENtNtNtNtBa_4iter6traits8iterator8Iterator4nextBX_, symObjAddr: 0x87D0, symBinAddr: 0x9BAB0, symSize: 0x90 }
  - { offset: 0x1325C2, size: 0x8, addend: 0x0, symName: __RNvXs2M_NtNtCsieiGu2EXtoJ_4core5slice4iterINtB6_7IterMuthENtNtNtNtBa_4iter6traits8iterator8Iterator4nextCsdGrGZaRBwMb_3syn, symObjAddr: 0x88F0, symBinAddr: 0x9BB40, symSize: 0x90 }
  - { offset: 0x1326D4, size: 0x8, addend: 0x0, symName: __RNvXs2N_NtNtCsieiGu2EXtoJ_4core5slice4iterINtB6_7IterMutTNtNtCsdGrGZaRBwMb_3syn4path11PathSegmentNtNtBX_5token7PathSepEENtNtNtNtBa_4iter6traits12double_ended19DoubleEndedIterator9next_backBX_, symObjAddr: 0x8A80, symBinAddr: 0x9BBD0, symSize: 0x100 }
  - { offset: 0x132829, size: 0x8, addend: 0x0, symName: __RNvXs5_NtNtCsieiGu2EXtoJ_4core5slice4iterINtB5_4IterTNtNtCsdGrGZaRBwMb_3syn4data5FieldNtNtBT_5token5CommaEENtNtB9_5clone5Clone5cloneBT_, symObjAddr: 0xA290, symBinAddr: 0x9C4B0, symSize: 0x20 }
  - { offset: 0x13285E, size: 0x8, addend: 0x0, symName: __RNvXs5_NtNtCsieiGu2EXtoJ_4core5slice4iterINtB5_4IterTNtNtCsdGrGZaRBwMb_3syn4path11PathSegmentNtNtBT_5token7PathSepEENtNtB9_5clone5Clone5cloneBT_, symObjAddr: 0xA2D0, symBinAddr: 0x9C4D0, symSize: 0x20 }
  - { offset: 0x132893, size: 0x8, addend: 0x0, symName: __RNvXs5_NtNtCsieiGu2EXtoJ_4core5slice4iterINtB5_4IterTNtNtCsdGrGZaRBwMb_3syn8generics12GenericParamNtNtBT_5token5CommaEENtNtB9_5clone5Clone5cloneBT_, symObjAddr: 0xA2F0, symBinAddr: 0x9C4F0, symSize: 0x20 }
  - { offset: 0x1328C8, size: 0x8, addend: 0x0, symName: __RNvXs5_NtNtCsieiGu2EXtoJ_4core5slice4iterINtB5_4IterTNtNtCsdGrGZaRBwMb_3syn8generics14TypeParamBoundNtNtBT_5token4PlusEENtNtB9_5clone5Clone5cloneBT_, symObjAddr: 0xA310, symBinAddr: 0x9C510, symSize: 0x20 }
  - { offset: 0x132957, size: 0x8, addend: 0x0, symName: __RNvXs_NtNtCsieiGu2EXtoJ_4core5slice4iterRSReNtNtNtNtB8_4iter6traits7collect12IntoIterator9into_iterCsdGrGZaRBwMb_3syn, symObjAddr: 0xBDD0, symBinAddr: 0x9DC60, symSize: 0x50 }
  - { offset: 0x132C2A, size: 0x8, addend: 0x0, symName: __RNvMNtCsieiGu2EXtoJ_4core5sliceSTNtNtCsdGrGZaRBwMb_3syn4path11PathSegmentNtNtBz_5token7PathSepE4iterBz_, symObjAddr: 0x1730, symBinAddr: 0x954C0, symSize: 0x20 }
  - { offset: 0x132C61, size: 0x8, addend: 0x0, symName: __RNvMNtCsieiGu2EXtoJ_4core5sliceSTNtNtCsdGrGZaRBwMb_3syn4path11PathSegmentNtNtBz_5token7PathSepE8iter_mutBz_, symObjAddr: 0x1750, symBinAddr: 0x954E0, symSize: 0x20 }
  - { offset: 0x132C98, size: 0x8, addend: 0x0, symName: __RNvMNtCsieiGu2EXtoJ_4core5sliceSTNtNtCsdGrGZaRBwMb_3syn4path15GenericArgumentNtNtBz_5token5CommaE4iterBz_, symObjAddr: 0x1770, symBinAddr: 0x95500, symSize: 0x20 }
  - { offset: 0x132D94, size: 0x8, addend: 0x0, symName: __RNvNvMNtNtCsieiGu2EXtoJ_4core5alloc6layoutNtB4_6Layout25from_size_align_unchecked18precondition_checkCsdGrGZaRBwMb_3syn, symObjAddr: 0x5710, symBinAddr: 0x990C0, symSize: 0xB0 }
  - { offset: 0x1338B8, size: 0x8, addend: 0x0, symName: __RNvXNtNtCsieiGu2EXtoJ_4core5clone6uninitNtNtCsdGrGZaRBwMb_3syn4path11PathSegmentNtB2_8CopySpec9clone_oneBG_, symObjAddr: 0x5990, symBinAddr: 0x99340, symSize: 0x40 }
  - { offset: 0x13391D, size: 0x8, addend: 0x0, symName: __RNvXNtNtCsieiGu2EXtoJ_4core5clone6uninitNtNtCsdGrGZaRBwMb_3syn4path15GenericArgumentNtB2_8CopySpec9clone_oneBG_, symObjAddr: 0x59D0, symBinAddr: 0x99380, symSize: 0x50 }
  - { offset: 0x133982, size: 0x8, addend: 0x0, symName: __RNvXNtNtCsieiGu2EXtoJ_4core5clone6uninitNtNtCsdGrGZaRBwMb_3syn4path4PathNtB2_8CopySpec9clone_oneBG_, symObjAddr: 0x5A20, symBinAddr: 0x993D0, symSize: 0x40 }
  - { offset: 0x134A46, size: 0x8, addend: 0x0, symName: __RNcNtNtNtCsdGrGZaRBwMb_3syn4path15GenericArgument5Const0B7_, symObjAddr: 0x16F0, symBinAddr: 0x95480, symSize: 0x40 }
  - { offset: 0x134A76, size: 0x8, addend: 0x0, symName: __RNvXNtCsdGrGZaRBwMb_3syn4pathNtB2_4PathINtNtCsieiGu2EXtoJ_4core7convert4FromNtCsaKzlTDPUHDb_11proc_macro25IdentE4fromB4_, symObjAddr: 0x57F0, symBinAddr: 0x991A0, symSize: 0x170 }
  - { offset: 0x134ACD, size: 0x8, addend: 0x0, symName: __RNvXNtNtCsdGrGZaRBwMb_3syn4path7parsingNtB4_4PathNtNtB6_5parse5Parse5parse, symObjAddr: 0x5960, symBinAddr: 0x99310, symSize: 0x30 }
  - { offset: 0x134B01, size: 0x8, addend: 0x0, symName: __RNvXs1_NtNtCsdGrGZaRBwMb_3syn4path7parsingNtB7_30AngleBracketedGenericArgumentsNtNtB9_5parse5Parse5parse, symObjAddr: 0x6A20, symBinAddr: 0x99EF0, symSize: 0xD0 }
  - { offset: 0x134B71, size: 0x8, addend: 0x0, symName: __RNvXs2_NtNtCsdGrGZaRBwMb_3syn4path7parsingNtB7_29ParenthesizedGenericArgumentsNtNtB9_5parse5Parse5parse, symObjAddr: 0x8F10, symBinAddr: 0x9BE40, symSize: 0x4A0 }
  - { offset: 0x134C4D, size: 0x8, addend: 0x0, symName: __RNvXs_NtNtCsdGrGZaRBwMb_3syn4path7parsingNtB6_15GenericArgumentNtNtB8_5parse5Parse5parse, symObjAddr: 0xA860, symBinAddr: 0x9C6F0, symSize: 0x1570 }
  - { offset: 0x134F1F, size: 0x8, addend: 0x0, symName: __RNvXs0_NtCsdGrGZaRBwMb_3syn4pathNtB5_11PathSegmentINtNtCsieiGu2EXtoJ_4core7convert4FromNtCsaKzlTDPUHDb_11proc_macro25IdentE4fromB7_, symObjAddr: 0x5B80, symBinAddr: 0x99510, symSize: 0x70 }
  - { offset: 0x134F60, size: 0x8, addend: 0x0, symName: __RNvXs0_NtNtCsdGrGZaRBwMb_3syn4path8printingNtB7_4PathNtNtCs9OU1sGv5X54_5quote9to_tokens8ToTokens9to_tokens, symObjAddr: 0x5BF0, symBinAddr: 0x99580, symSize: 0x40 }
  - { offset: 0x134F9F, size: 0x8, addend: 0x0, symName: __RNvXs3_NtNtCsdGrGZaRBwMb_3syn4path8printingNtB7_15GenericArgumentNtNtCs9OU1sGv5X54_5quote9to_tokens8ToTokens9to_tokens, symObjAddr: 0x9A50, symBinAddr: 0x9C2E0, symSize: 0x120 }
  - { offset: 0x13508A, size: 0x8, addend: 0x0, symName: __RNvXs4_NtNtCsdGrGZaRBwMb_3syn4path8printingNtB7_30AngleBracketedGenericArgumentsNtNtCs9OU1sGv5X54_5quote9to_tokens8ToTokens9to_tokens, symObjAddr: 0xA0C0, symBinAddr: 0x9C400, symSize: 0x40 }
  - { offset: 0x1350C9, size: 0x8, addend: 0x0, symName: __RNvXs5_NtNtCsdGrGZaRBwMb_3syn4path8printingNtB7_9AssocTypeNtNtCs9OU1sGv5X54_5quote9to_tokens8ToTokens9to_tokens, symObjAddr: 0xA220, symBinAddr: 0x9C440, symSize: 0x70 }
  - { offset: 0x135108, size: 0x8, addend: 0x0, symName: __RNvXs6_NtNtCsdGrGZaRBwMb_3syn4path8printingNtB7_10AssocConstNtNtCs9OU1sGv5X54_5quote9to_tokens8ToTokens9to_tokens, symObjAddr: 0xA330, symBinAddr: 0x9C530, symSize: 0x70 }
  - { offset: 0x135147, size: 0x8, addend: 0x0, symName: __RNvXs7_NtNtCsdGrGZaRBwMb_3syn4path8printingNtB7_10ConstraintNtNtCs9OU1sGv5X54_5quote9to_tokens8ToTokens9to_tokens, symObjAddr: 0xA430, symBinAddr: 0x9C5A0, symSize: 0x60 }
  - { offset: 0x1356FC, size: 0x8, addend: 0x0, symName: __RNCNvXNtNtCsdGrGZaRBwMb_3syn2ty8printingNtB6_9TypeSliceNtNtCs9OU1sGv5X54_5quote9to_tokens8ToTokens9to_tokens0B8_, symObjAddr: 0xFF0, symBinAddr: 0x94D80, symSize: 0x30 }
  - { offset: 0x135743, size: 0x8, addend: 0x0, symName: __RNCNvXs2_NtNtCsdGrGZaRBwMb_3syn2ty8printingNtB9_10TypeBareFnNtNtCs9OU1sGv5X54_5quote9to_tokens8ToTokens9to_tokens0Bb_, symObjAddr: 0x1050, symBinAddr: 0x94DE0, symSize: 0xC0 }
  - { offset: 0x1357BE, size: 0x8, addend: 0x0, symName: __RNCNvXs4_NtNtCsdGrGZaRBwMb_3syn2ty8printingNtB9_9TypeTupleNtNtCs9OU1sGv5X54_5quote9to_tokens8ToTokens9to_tokens0Bb_, symObjAddr: 0x1220, symBinAddr: 0x94FB0, symSize: 0x80 }
  - { offset: 0x135805, size: 0x8, addend: 0x0, symName: __RNCNvXs8_NtNtCsdGrGZaRBwMb_3syn2ty8printingNtB9_9TypeGroupNtNtCs9OU1sGv5X54_5quote9to_tokens8ToTokens9to_tokens0Bb_, symObjAddr: 0x1330, symBinAddr: 0x950C0, symSize: 0x30 }
  - { offset: 0x13584C, size: 0x8, addend: 0x0, symName: __RNCNvXs9_NtNtCsdGrGZaRBwMb_3syn2ty8printingNtB9_9TypeParenNtNtCs9OU1sGv5X54_5quote9to_tokens8ToTokens9to_tokens0Bb_, symObjAddr: 0x1360, symBinAddr: 0x950F0, symSize: 0x30 }
  - { offset: 0x135893, size: 0x8, addend: 0x0, symName: __RNCNvXs_NtNtCsdGrGZaRBwMb_3syn2ty8printingNtB8_9TypeArrayNtNtCs9OU1sGv5X54_5quote9to_tokens8ToTokens9to_tokens0Ba_, symObjAddr: 0x13F0, symBinAddr: 0x95180, symSize: 0x60 }
  - { offset: 0x136A81, size: 0x8, addend: 0x0, symName: __RNCNvXNtNtCsdGrGZaRBwMb_3syn4attr8printingNtB6_9AttributeNtNtCs9OU1sGv5X54_5quote9to_tokens8ToTokens9to_tokens0B8_, symObjAddr: 0x1020, symBinAddr: 0x94DB0, symSize: 0x30 }
  - { offset: 0x1386D5, size: 0x8, addend: 0x0, symName: __RNCNvXs2_NtNtCsdGrGZaRBwMb_3syn4item8printingNtB9_6ItemFnNtNtCs9OU1sGv5X54_5quote9to_tokens8ToTokens9to_tokens0Bb_, symObjAddr: 0x1110, symBinAddr: 0x94EA0, symSize: 0xB0 }
  - { offset: 0x13871C, size: 0x8, addend: 0x0, symName: __RNCNvXs3_NtNtCsdGrGZaRBwMb_3syn4item8printingNtB9_7ItemModNtNtCs9OU1sGv5X54_5quote9to_tokens8ToTokens9to_tokens0Bb_, symObjAddr: 0x11C0, symBinAddr: 0x94F50, symSize: 0x60 }
  - { offset: 0x138776, size: 0x8, addend: 0x0, symName: __RNCNvXs4_NtNtCsdGrGZaRBwMb_3syn4item8printingNtB9_14ItemForeignModNtNtCs9OU1sGv5X54_5quote9to_tokens8ToTokens9to_tokens0Bb_, symObjAddr: 0x12A0, symBinAddr: 0x95030, symSize: 0x60 }
  - { offset: 0x1387BD, size: 0x8, addend: 0x0, symName: __RNCNvXs6_NtNtCsdGrGZaRBwMb_3syn4item8printingNtB9_8ItemEnumNtNtCs9OU1sGv5X54_5quote9to_tokens8ToTokens9to_tokens0Bb_, symObjAddr: 0x1300, symBinAddr: 0x95090, symSize: 0x30 }
  - { offset: 0x138804, size: 0x8, addend: 0x0, symName: __RNCNvXs9_NtNtCsdGrGZaRBwMb_3syn4item8printingNtB9_9ItemTraitNtNtCs9OU1sGv5X54_5quote9to_tokens8ToTokens9to_tokens0Bb_, symObjAddr: 0x1390, symBinAddr: 0x95120, symSize: 0x60 }
  - { offset: 0x13884B, size: 0x8, addend: 0x0, symName: __RNCNvXsb_NtNtCsdGrGZaRBwMb_3syn4item8printingNtB9_8ItemImplNtNtCs9OU1sGv5X54_5quote9to_tokens8ToTokens9to_tokens0Bb_, symObjAddr: 0x1450, symBinAddr: 0x951E0, symSize: 0x60 }
  - { offset: 0x138892, size: 0x8, addend: 0x0, symName: __RNCNvXsc_NtNtCsdGrGZaRBwMb_3syn4item8printingNtB9_9ItemMacroNtNtCs9OU1sGv5X54_5quote9to_tokens8ToTokens9to_tokens0Bb_, symObjAddr: 0x14B0, symBinAddr: 0x95240, symSize: 0x30 }
  - { offset: 0x1388CD, size: 0x8, addend: 0x0, symName: __RNCNvXsc_NtNtCsdGrGZaRBwMb_3syn4item8printingNtB9_9ItemMacroNtNtCs9OU1sGv5X54_5quote9to_tokens8ToTokens9to_tokenss0_0Bb_, symObjAddr: 0x14E0, symBinAddr: 0x95270, symSize: 0x30 }
  - { offset: 0x138908, size: 0x8, addend: 0x0, symName: __RNCNvXsc_NtNtCsdGrGZaRBwMb_3syn4item8printingNtB9_9ItemMacroNtNtCs9OU1sGv5X54_5quote9to_tokens8ToTokens9to_tokenss_0Bb_, symObjAddr: 0x1510, symBinAddr: 0x952A0, symSize: 0x30 }
  - { offset: 0x13894F, size: 0x8, addend: 0x0, symName: __RNCNvXsh_NtNtCsdGrGZaRBwMb_3syn4item8printingNtB9_8UseGroupNtNtCs9OU1sGv5X54_5quote9to_tokens8ToTokens9to_tokens0Bb_, symObjAddr: 0x1540, symBinAddr: 0x952D0, symSize: 0x30 }
  - { offset: 0x138996, size: 0x8, addend: 0x0, symName: __RNCNvXsj_NtNtCsdGrGZaRBwMb_3syn4item8printingNtB9_11TraitItemFnNtNtCs9OU1sGv5X54_5quote9to_tokens8ToTokens9to_tokens0Bb_, symObjAddr: 0x1570, symBinAddr: 0x95300, symSize: 0x60 }
  - { offset: 0x1389F0, size: 0x8, addend: 0x0, symName: __RNCNvXsn_NtNtCsdGrGZaRBwMb_3syn4item8printingNtB9_10ImplItemFnNtNtCs9OU1sGv5X54_5quote9to_tokens8ToTokens9to_tokens0Bb_, symObjAddr: 0x15D0, symBinAddr: 0x95360, symSize: 0x60 }
  - { offset: 0x138A37, size: 0x8, addend: 0x0, symName: __RNCNvXsu_NtNtCsdGrGZaRBwMb_3syn4item8printingNtB9_9SignatureNtNtCs9OU1sGv5X54_5quote9to_tokens8ToTokens9to_tokens0Bb_, symObjAddr: 0x1630, symBinAddr: 0x953C0, symSize: 0xC0 }
  - { offset: 0x1395CA, size: 0x8, addend: 0x0, symName: __RNCNvXNtCsdGrGZaRBwMb_3syn3extNtCsaKzlTDPUHDb_11proc_macro25IdentNtB4_8IdentExt9parse_any0B6_, symObjAddr: 0xE70, symBinAddr: 0x94C00, symSize: 0x180 }
  - { offset: 0x1398CE, size: 0x8, addend: 0x0, symName: __RNvXs1O_NtNtCsdGrGZaRBwMb_3syn3gen5cloneNtNtBa_4path29ParenthesizedGenericArgumentsNtNtCsieiGu2EXtoJ_4core5clone5Clone5clone, symObjAddr: 0x5E10, symBinAddr: 0x99720, symSize: 0xC0 }
  - { offset: 0x139902, size: 0x8, addend: 0x0, symName: __RNvXs1_NtNtCsdGrGZaRBwMb_3syn3gen5cloneNtNtB9_4path10AssocConstNtNtCsieiGu2EXtoJ_4core5clone5Clone5clone, symObjAddr: 0x68B0, symBinAddr: 0x99D80, symSize: 0x170 }
  - { offset: 0x139934, size: 0x8, addend: 0x0, symName: __RNvXs1c_NtNtCsdGrGZaRBwMb_3syn3gen5cloneNtNtBa_4path15GenericArgumentNtNtCsieiGu2EXtoJ_4core5clone5Clone5clone, symObjAddr: 0x6B50, symBinAddr: 0x99FC0, symSize: 0x270 }
  - { offset: 0x139A14, size: 0x8, addend: 0x0, symName: __RNvXs21_NtNtCsdGrGZaRBwMb_3syn3gen5cloneNtNtBa_4path4PathNtNtCsieiGu2EXtoJ_4core5clone5Clone5clone, symObjAddr: 0x6DC0, symBinAddr: 0x9A230, symSize: 0x80 }
  - { offset: 0x139A48, size: 0x8, addend: 0x0, symName: __RNvXs22_NtNtCsdGrGZaRBwMb_3syn3gen5cloneNtNtBa_4path13PathArgumentsNtNtCsieiGu2EXtoJ_4core5clone5Clone5clone, symObjAddr: 0x6E40, symBinAddr: 0x9A2B0, symSize: 0x120 }
  - { offset: 0x139AB0, size: 0x8, addend: 0x0, symName: __RNvXs23_NtNtCsdGrGZaRBwMb_3syn3gen5cloneNtNtBa_4path11PathSegmentNtNtCsieiGu2EXtoJ_4core5clone5Clone5clone, symObjAddr: 0x6F60, symBinAddr: 0x9A3D0, symSize: 0xB0 }
  - { offset: 0x139AE4, size: 0x8, addend: 0x0, symName: __RNvXs28_NtNtCsdGrGZaRBwMb_3syn3gen5cloneNtNtBa_4path5QSelfNtNtCsieiGu2EXtoJ_4core5clone5Clone5clone, symObjAddr: 0x7010, symBinAddr: 0x9A480, symSize: 0x100 }
  - { offset: 0x139B18, size: 0x8, addend: 0x0, symName: __RNvXs2_NtNtCsdGrGZaRBwMb_3syn3gen5cloneNtNtB9_4path9AssocTypeNtNtCsieiGu2EXtoJ_4core5clone5Clone5clone, symObjAddr: 0x8CC0, symBinAddr: 0x9BCD0, symSize: 0x170 }
  - { offset: 0x139B4A, size: 0x8, addend: 0x0, symName: __RNvXs_NtNtCsdGrGZaRBwMb_3syn3gen5cloneNtNtB8_4path30AngleBracketedGenericArgumentsNtNtCsieiGu2EXtoJ_4core5clone5Clone5clone, symObjAddr: 0xA730, symBinAddr: 0x9C600, symSize: 0xF0 }
  - { offset: 0x139B7C, size: 0x8, addend: 0x0, symName: __RNvXse_NtNtCsdGrGZaRBwMb_3syn3gen5cloneNtNtB9_4path10ConstraintNtNtCsieiGu2EXtoJ_4core5clone5Clone5clone, symObjAddr: 0xC090, symBinAddr: 0x9DCB0, symSize: 0x150 }
  - { offset: 0x13A882, size: 0x8, addend: 0x0, symName: __RNvYINtNtCslJiobkLta79_5alloc2rc7RcInnerINtNtCsieiGu2EXtoJ_4core4cell4CellNtNtCsdGrGZaRBwMb_3syn5parse10UnexpectedEENtB5_10RcInnerPtr10inc_strongB1e_, symObjAddr: 0xC310, symBinAddr: 0x9DEA0, symSize: 0x80 }
  - { offset: 0x13A9A4, size: 0x8, addend: 0x0, symName: __RNvYINtNtCslJiobkLta79_5alloc2rc7RcInnerINtNtCsieiGu2EXtoJ_4core4cell4CellNtNtCsdGrGZaRBwMb_3syn5parse10UnexpectedEENtB5_10RcInnerPtr6strongB1e_, symObjAddr: 0xC390, symBinAddr: 0x9DF20, symSize: 0x20 }
  - { offset: 0x13A9FF, size: 0x8, addend: 0x0, symName: __RNvXs19_NtCslJiobkLta79_5alloc2rcINtB6_4WeakINtNtCsieiGu2EXtoJ_4core4cell4CellNtNtCsdGrGZaRBwMb_3syn5parse10UnexpectedERNtNtB8_5alloc6GlobalENtNtNtBL_3ops4drop4Drop4dropB1i_, symObjAddr: 0x5CB0, symBinAddr: 0x995C0, symSize: 0x160 }
  - { offset: 0x13AC85, size: 0x8, addend: 0x0, symName: __RNvXsu_NtCslJiobkLta79_5alloc2rcINtB5_2RcINtNtCsieiGu2EXtoJ_4core4cell4CellNtNtCsdGrGZaRBwMb_3syn5parse10UnexpectedEENtNtNtBI_3ops4drop4Drop4dropB1f_, symObjAddr: 0xC270, symBinAddr: 0x9DE00, symSize: 0x60 }
  - { offset: 0x13AE8F, size: 0x8, addend: 0x0, symName: __RNvXsv_NtCslJiobkLta79_5alloc2rcINtB5_2RcINtNtCsieiGu2EXtoJ_4core4cell4CellNtNtCsdGrGZaRBwMb_3syn5parse10UnexpectedEENtNtBI_5clone5Clone5cloneB1f_, symObjAddr: 0xC2D0, symBinAddr: 0x9DE60, symSize: 0x40 }
  - { offset: 0x13C512, size: 0x8, addend: 0x0, symName: __RNvXs1_NtCslJiobkLta79_5alloc7raw_vecINtB5_6RawVecNtNtCsdGrGZaRBwMb_3syn4attr9AttributeENtNtNtCsieiGu2EXtoJ_4core3ops4drop4Drop4dropBQ_, symObjAddr: 0x6250, symBinAddr: 0x997E0, symSize: 0x30 }
  - { offset: 0x13C54E, size: 0x8, addend: 0x0, symName: __RNvXs1_NtCslJiobkLta79_5alloc7raw_vecINtB5_6RawVecNtNtCsdGrGZaRBwMb_3syn4expr3ArmENtNtNtCsieiGu2EXtoJ_4core3ops4drop4Drop4dropBQ_, symObjAddr: 0x62B0, symBinAddr: 0x99810, symSize: 0x30 }
  - { offset: 0x13C58A, size: 0x8, addend: 0x0, symName: __RNvXs1_NtCslJiobkLta79_5alloc7raw_vecINtB5_6RawVecNtNtCsdGrGZaRBwMb_3syn4expr6ExprIfENtNtNtCsieiGu2EXtoJ_4core3ops4drop4Drop4dropBQ_, symObjAddr: 0x62E0, symBinAddr: 0x99840, symSize: 0x30 }
  - { offset: 0x13C5C6, size: 0x8, addend: 0x0, symName: __RNvXs1_NtCslJiobkLta79_5alloc7raw_vecINtB5_6RawVecNtNtCsdGrGZaRBwMb_3syn4item11ForeignItemENtNtNtCsieiGu2EXtoJ_4core3ops4drop4Drop4dropBQ_, symObjAddr: 0x6310, symBinAddr: 0x99870, symSize: 0x30 }
  - { offset: 0x13C602, size: 0x8, addend: 0x0, symName: __RNvXs1_NtCslJiobkLta79_5alloc7raw_vecINtB5_6RawVecNtNtCsdGrGZaRBwMb_3syn4item4ItemENtNtNtCsieiGu2EXtoJ_4core3ops4drop4Drop4dropBQ_, symObjAddr: 0x6340, symBinAddr: 0x998A0, symSize: 0x30 }
  - { offset: 0x13C63E, size: 0x8, addend: 0x0, symName: __RNvXs1_NtCslJiobkLta79_5alloc7raw_vecINtB5_6RawVecNtNtCsdGrGZaRBwMb_3syn4item8ImplItemENtNtNtCsieiGu2EXtoJ_4core3ops4drop4Drop4dropBQ_, symObjAddr: 0x6370, symBinAddr: 0x998D0, symSize: 0x30 }
  - { offset: 0x13C67A, size: 0x8, addend: 0x0, symName: __RNvXs1_NtCslJiobkLta79_5alloc7raw_vecINtB5_6RawVecNtNtCsdGrGZaRBwMb_3syn4item9TraitItemENtNtNtCsieiGu2EXtoJ_4core3ops4drop4Drop4dropBQ_, symObjAddr: 0x63A0, symBinAddr: 0x99900, symSize: 0x30 }
  - { offset: 0x13C6B6, size: 0x8, addend: 0x0, symName: __RNvXs1_NtCslJiobkLta79_5alloc7raw_vecINtB5_6RawVecNtNtCsdGrGZaRBwMb_3syn4stmt4StmtENtNtNtCsieiGu2EXtoJ_4core3ops4drop4Drop4dropBQ_, symObjAddr: 0x63D0, symBinAddr: 0x99930, symSize: 0x30 }
  - { offset: 0x13C6F2, size: 0x8, addend: 0x0, symName: __RNvXs1_NtCslJiobkLta79_5alloc7raw_vecINtB5_6RawVecNtNtCsdGrGZaRBwMb_3syn5error12ErrorMessageENtNtNtCsieiGu2EXtoJ_4core3ops4drop4Drop4dropBQ_, symObjAddr: 0x6400, symBinAddr: 0x99960, symSize: 0x30 }
  - { offset: 0x13C72E, size: 0x8, addend: 0x0, symName: __RNvXs1_NtCslJiobkLta79_5alloc7raw_vecINtB5_6RawVecNtNtCsdGrGZaRBwMb_3syn6buffer5EntryENtNtNtCsieiGu2EXtoJ_4core3ops4drop4Drop4dropBQ_, symObjAddr: 0x6430, symBinAddr: 0x99990, symSize: 0x30 }
  - { offset: 0x13C76A, size: 0x8, addend: 0x0, symName: __RNvXs1_NtCslJiobkLta79_5alloc7raw_vecINtB5_6RawVecNtNtCsdGrGZaRBwMb_3syn8generics14TypeParamBoundENtNtNtCsieiGu2EXtoJ_4core3ops4drop4Drop4dropBQ_, symObjAddr: 0x6460, symBinAddr: 0x999C0, symSize: 0x30 }
  - { offset: 0x13C7A6, size: 0x8, addend: 0x0, symName: __RNvXs1_NtCslJiobkLta79_5alloc7raw_vecINtB5_6RawVecReENtNtNtCsieiGu2EXtoJ_4core3ops4drop4Drop4dropCsdGrGZaRBwMb_3syn, symObjAddr: 0x6490, symBinAddr: 0x999F0, symSize: 0x30 }
  - { offset: 0x13C7E2, size: 0x8, addend: 0x0, symName: __RNvXs1_NtCslJiobkLta79_5alloc7raw_vecINtB5_6RawVecTNtNtCsdGrGZaRBwMb_3syn2ty4TypeNtNtBR_5token5CommaEENtNtNtCsieiGu2EXtoJ_4core3ops4drop4Drop4dropBR_, symObjAddr: 0x64C0, symBinAddr: 0x99A20, symSize: 0x30 }
  - { offset: 0x13C81E, size: 0x8, addend: 0x0, symName: __RNvXs1_NtCslJiobkLta79_5alloc7raw_vecINtB5_6RawVecTNtNtCsdGrGZaRBwMb_3syn2ty9BareFnArgNtNtBR_5token5CommaEENtNtNtCsieiGu2EXtoJ_4core3ops4drop4Drop4dropBR_, symObjAddr: 0x64F0, symBinAddr: 0x99A50, symSize: 0x30 }
  - { offset: 0x13C85A, size: 0x8, addend: 0x0, symName: __RNvXs1_NtCslJiobkLta79_5alloc7raw_vecINtB5_6RawVecTNtNtCsdGrGZaRBwMb_3syn3pat3PatNtNtBR_5token2OrEENtNtNtCsieiGu2EXtoJ_4core3ops4drop4Drop4dropBR_, symObjAddr: 0x6520, symBinAddr: 0x99A80, symSize: 0x30 }
  - { offset: 0x13C896, size: 0x8, addend: 0x0, symName: __RNvXs1_NtCslJiobkLta79_5alloc7raw_vecINtB5_6RawVecTNtNtCsdGrGZaRBwMb_3syn3pat3PatNtNtBR_5token5CommaEENtNtNtCsieiGu2EXtoJ_4core3ops4drop4Drop4dropBR_, symObjAddr: 0x6550, symBinAddr: 0x99AB0, symSize: 0x30 }
  - { offset: 0x13C8D2, size: 0x8, addend: 0x0, symName: __RNvXs1_NtCslJiobkLta79_5alloc7raw_vecINtB5_6RawVecTNtNtCsdGrGZaRBwMb_3syn3pat8FieldPatNtNtBR_5token5CommaEENtNtNtCsieiGu2EXtoJ_4core3ops4drop4Drop4dropBR_, symObjAddr: 0x6580, symBinAddr: 0x99AE0, symSize: 0x30 }
  - { offset: 0x13C90E, size: 0x8, addend: 0x0, symName: __RNvXs1_NtCslJiobkLta79_5alloc7raw_vecINtB5_6RawVecTNtNtCsdGrGZaRBwMb_3syn4data5FieldNtNtBR_5token5CommaEENtNtNtCsieiGu2EXtoJ_4core3ops4drop4Drop4dropBR_, symObjAddr: 0x65B0, symBinAddr: 0x99B10, symSize: 0x30 }
  - { offset: 0x13C94A, size: 0x8, addend: 0x0, symName: __RNvXs1_NtCslJiobkLta79_5alloc7raw_vecINtB5_6RawVecTNtNtCsdGrGZaRBwMb_3syn4data7VariantNtNtBR_5token5CommaEENtNtNtCsieiGu2EXtoJ_4core3ops4drop4Drop4dropBR_, symObjAddr: 0x6610, symBinAddr: 0x99B40, symSize: 0x30 }
  - { offset: 0x13C986, size: 0x8, addend: 0x0, symName: __RNvXs1_NtCslJiobkLta79_5alloc7raw_vecINtB5_6RawVecTNtNtCsdGrGZaRBwMb_3syn4expr10FieldValueNtNtBR_5token5CommaEENtNtNtCsieiGu2EXtoJ_4core3ops4drop4Drop4dropBR_, symObjAddr: 0x6640, symBinAddr: 0x99B70, symSize: 0x30 }
  - { offset: 0x13C9C2, size: 0x8, addend: 0x0, symName: __RNvXs1_NtCslJiobkLta79_5alloc7raw_vecINtB5_6RawVecTNtNtCsdGrGZaRBwMb_3syn4expr4ExprNtNtBR_5token5CommaEENtNtNtCsieiGu2EXtoJ_4core3ops4drop4Drop4dropBR_, symObjAddr: 0x6670, symBinAddr: 0x99BA0, symSize: 0x30 }
  - { offset: 0x13C9FE, size: 0x8, addend: 0x0, symName: __RNvXs1_NtCslJiobkLta79_5alloc7raw_vecINtB5_6RawVecTNtNtCsdGrGZaRBwMb_3syn4item5FnArgNtNtBR_5token5CommaEENtNtNtCsieiGu2EXtoJ_4core3ops4drop4Drop4dropBR_, symObjAddr: 0x66A0, symBinAddr: 0x99BD0, symSize: 0x30 }
  - { offset: 0x13CA3A, size: 0x8, addend: 0x0, symName: __RNvXs1_NtCslJiobkLta79_5alloc7raw_vecINtB5_6RawVecTNtNtCsdGrGZaRBwMb_3syn4item7UseTreeNtNtBR_5token5CommaEENtNtNtCsieiGu2EXtoJ_4core3ops4drop4Drop4dropBR_, symObjAddr: 0x66D0, symBinAddr: 0x99C00, symSize: 0x30 }
  - { offset: 0x13CA76, size: 0x8, addend: 0x0, symName: __RNvXs1_NtCslJiobkLta79_5alloc7raw_vecINtB5_6RawVecTNtNtCsdGrGZaRBwMb_3syn4path11PathSegmentNtNtBR_5token7PathSepEENtNtNtCsieiGu2EXtoJ_4core3ops4drop4Drop4dropBR_, symObjAddr: 0x6700, symBinAddr: 0x99C30, symSize: 0x30 }
  - { offset: 0x13CAB2, size: 0x8, addend: 0x0, symName: __RNvXs1_NtCslJiobkLta79_5alloc7raw_vecINtB5_6RawVecTNtNtCsdGrGZaRBwMb_3syn4path15GenericArgumentNtNtBR_5token5CommaEENtNtNtCsieiGu2EXtoJ_4core3ops4drop4Drop4dropBR_, symObjAddr: 0x6730, symBinAddr: 0x99C60, symSize: 0x30 }
  - { offset: 0x13CAEE, size: 0x8, addend: 0x0, symName: __RNvXs1_NtCslJiobkLta79_5alloc7raw_vecINtB5_6RawVecTNtNtCsdGrGZaRBwMb_3syn8generics12GenericParamNtNtBR_5token5CommaEENtNtNtCsieiGu2EXtoJ_4core3ops4drop4Drop4dropBR_, symObjAddr: 0x6760, symBinAddr: 0x99C90, symSize: 0x30 }
  - { offset: 0x13CB2A, size: 0x8, addend: 0x0, symName: __RNvXs1_NtCslJiobkLta79_5alloc7raw_vecINtB5_6RawVecTNtNtCsdGrGZaRBwMb_3syn8generics13CapturedParamNtNtBR_5token5CommaEENtNtNtCsieiGu2EXtoJ_4core3ops4drop4Drop4dropBR_, symObjAddr: 0x6790, symBinAddr: 0x99CC0, symSize: 0x30 }
  - { offset: 0x13CB66, size: 0x8, addend: 0x0, symName: __RNvXs1_NtCslJiobkLta79_5alloc7raw_vecINtB5_6RawVecTNtNtCsdGrGZaRBwMb_3syn8generics14TypeParamBoundNtNtBR_5token4PlusEENtNtNtCsieiGu2EXtoJ_4core3ops4drop4Drop4dropBR_, symObjAddr: 0x67C0, symBinAddr: 0x99CF0, symSize: 0x30 }
  - { offset: 0x13CBA2, size: 0x8, addend: 0x0, symName: __RNvXs1_NtCslJiobkLta79_5alloc7raw_vecINtB5_6RawVecTNtNtCsdGrGZaRBwMb_3syn8generics14WherePredicateNtNtBR_5token5CommaEENtNtNtCsieiGu2EXtoJ_4core3ops4drop4Drop4dropBR_, symObjAddr: 0x67F0, symBinAddr: 0x99D20, symSize: 0x30 }
  - { offset: 0x13CBDE, size: 0x8, addend: 0x0, symName: __RNvXs1_NtCslJiobkLta79_5alloc7raw_vecINtB5_6RawVecTNtNtCsdGrGZaRBwMb_3syn8lifetime8LifetimeNtNtBR_5token4PlusEENtNtNtCsieiGu2EXtoJ_4core3ops4drop4Drop4dropBR_, symObjAddr: 0x6820, symBinAddr: 0x99D50, symSize: 0x30 }
  - { offset: 0x13CC7E, size: 0x8, addend: 0x0, symName: __RINvXNvMNtCslJiobkLta79_5alloc5sliceSp9to_vec_inTNtNtCsdGrGZaRBwMb_3syn4path11PathSegmentNtNtBP_5token7PathSepENtB3_10ConvertVec6to_vecNtNtB8_5alloc6GlobalEBP_, symObjAddr: 0xA0, symBinAddr: 0x94170, symSize: 0x490 }
  - { offset: 0x13D1D2, size: 0x8, addend: 0x0, symName: __RINvXNvMNtCslJiobkLta79_5alloc5sliceSp9to_vec_inTNtNtCsdGrGZaRBwMb_3syn4path15GenericArgumentNtNtBP_5token5CommaENtB3_10ConvertVec6to_vecNtNtB8_5alloc6GlobalEBP_, symObjAddr: 0x530, symBinAddr: 0x94600, symSize: 0x4A0 }
  - { offset: 0x13DE26, size: 0x8, addend: 0x0, symName: __RINvMs_NtCsdGrGZaRBwMb_3syn4pathNtB5_4Path8is_identeEB7_, symObjAddr: 0x0, symBinAddr: 0x940F0, symSize: 0x80 }
  - { offset: 0x13E741, size: 0x8, addend: 0x0, symName: __RNvMs0_NtCslJiobkLta79_5alloc7raw_vecINtB5_6RawVecNtNtCsdGrGZaRBwMb_3syn4attr9AttributeE8grow_oneBQ_, symObjAddr: 0x1790, symBinAddr: 0x95520, symSize: 0x90 }
  - { offset: 0x13E7F3, size: 0x8, addend: 0x0, symName: __RNvMs0_NtCslJiobkLta79_5alloc7raw_vecINtB5_6RawVecNtNtCsdGrGZaRBwMb_3syn4expr3ArmE8grow_oneBQ_, symObjAddr: 0x18B0, symBinAddr: 0x955B0, symSize: 0x90 }
  - { offset: 0x13E8A5, size: 0x8, addend: 0x0, symName: __RNvMs0_NtCslJiobkLta79_5alloc7raw_vecINtB5_6RawVecNtNtCsdGrGZaRBwMb_3syn4expr6ExprIfE8grow_oneBQ_, symObjAddr: 0x1940, symBinAddr: 0x95640, symSize: 0x90 }
  - { offset: 0x13E957, size: 0x8, addend: 0x0, symName: __RNvMs0_NtCslJiobkLta79_5alloc7raw_vecINtB5_6RawVecNtNtCsdGrGZaRBwMb_3syn4item11ForeignItemE8grow_oneBQ_, symObjAddr: 0x19D0, symBinAddr: 0x956D0, symSize: 0x90 }
  - { offset: 0x13EA09, size: 0x8, addend: 0x0, symName: __RNvMs0_NtCslJiobkLta79_5alloc7raw_vecINtB5_6RawVecNtNtCsdGrGZaRBwMb_3syn4item4ItemE8grow_oneBQ_, symObjAddr: 0x1A60, symBinAddr: 0x95760, symSize: 0x90 }
  - { offset: 0x13EABB, size: 0x8, addend: 0x0, symName: __RNvMs0_NtCslJiobkLta79_5alloc7raw_vecINtB5_6RawVecNtNtCsdGrGZaRBwMb_3syn4item8ImplItemE8grow_oneBQ_, symObjAddr: 0x1AF0, symBinAddr: 0x957F0, symSize: 0x90 }
  - { offset: 0x13EB6D, size: 0x8, addend: 0x0, symName: __RNvMs0_NtCslJiobkLta79_5alloc7raw_vecINtB5_6RawVecNtNtCsdGrGZaRBwMb_3syn4item9TraitItemE8grow_oneBQ_, symObjAddr: 0x1B80, symBinAddr: 0x95880, symSize: 0x90 }
  - { offset: 0x13EC1F, size: 0x8, addend: 0x0, symName: __RNvMs0_NtCslJiobkLta79_5alloc7raw_vecINtB5_6RawVecNtNtCsdGrGZaRBwMb_3syn4stmt4StmtE8grow_oneBQ_, symObjAddr: 0x1C10, symBinAddr: 0x95910, symSize: 0x90 }
  - { offset: 0x13ECD8, size: 0x8, addend: 0x0, symName: __RNvMs0_NtCslJiobkLta79_5alloc7raw_vecINtB5_6RawVecNtNtCsdGrGZaRBwMb_3syn6buffer5EntryE8grow_oneBQ_, symObjAddr: 0x1CA0, symBinAddr: 0x959A0, symSize: 0x90 }
  - { offset: 0x13EFB9, size: 0x8, addend: 0x0, symName: __RNvMs0_NtCslJiobkLta79_5alloc7raw_vecINtB5_6RawVecNtNtCsdGrGZaRBwMb_3syn6buffer5EntryE8into_boxBQ_, symObjAddr: 0x1D30, symBinAddr: 0x95A30, symSize: 0x90 }
  - { offset: 0x13F1B9, size: 0x8, addend: 0x0, symName: __RNvMs0_NtCslJiobkLta79_5alloc7raw_vecINtB5_6RawVecNtNtCsdGrGZaRBwMb_3syn8generics14TypeParamBoundE8grow_oneBQ_, symObjAddr: 0x1DC0, symBinAddr: 0x95AC0, symSize: 0x90 }
  - { offset: 0x13F26B, size: 0x8, addend: 0x0, symName: __RNvMs0_NtCslJiobkLta79_5alloc7raw_vecINtB5_6RawVecTNtNtCsdGrGZaRBwMb_3syn2ty4TypeNtNtBR_5token5CommaEE8grow_oneBR_, symObjAddr: 0x1E50, symBinAddr: 0x95B50, symSize: 0x90 }
  - { offset: 0x13F31D, size: 0x8, addend: 0x0, symName: __RNvMs0_NtCslJiobkLta79_5alloc7raw_vecINtB5_6RawVecTNtNtCsdGrGZaRBwMb_3syn2ty9BareFnArgNtNtBR_5token5CommaEE8grow_oneBR_, symObjAddr: 0x1EE0, symBinAddr: 0x95BE0, symSize: 0x90 }
  - { offset: 0x13F3CF, size: 0x8, addend: 0x0, symName: __RNvMs0_NtCslJiobkLta79_5alloc7raw_vecINtB5_6RawVecTNtNtCsdGrGZaRBwMb_3syn3pat3PatNtNtBR_5token2OrEE8grow_oneBR_, symObjAddr: 0x1F70, symBinAddr: 0x95C70, symSize: 0x90 }
  - { offset: 0x13F481, size: 0x8, addend: 0x0, symName: __RNvMs0_NtCslJiobkLta79_5alloc7raw_vecINtB5_6RawVecTNtNtCsdGrGZaRBwMb_3syn3pat3PatNtNtBR_5token5CommaEE8grow_oneBR_, symObjAddr: 0x2000, symBinAddr: 0x95D00, symSize: 0x90 }
  - { offset: 0x13F533, size: 0x8, addend: 0x0, symName: __RNvMs0_NtCslJiobkLta79_5alloc7raw_vecINtB5_6RawVecTNtNtCsdGrGZaRBwMb_3syn3pat8FieldPatNtNtBR_5token5CommaEE8grow_oneBR_, symObjAddr: 0x2090, symBinAddr: 0x95D90, symSize: 0x90 }
  - { offset: 0x13F5E5, size: 0x8, addend: 0x0, symName: __RNvMs0_NtCslJiobkLta79_5alloc7raw_vecINtB5_6RawVecTNtNtCsdGrGZaRBwMb_3syn4data5FieldNtNtBR_5token5CommaEE8grow_oneBR_, symObjAddr: 0x2120, symBinAddr: 0x95E20, symSize: 0x90 }
  - { offset: 0x13F697, size: 0x8, addend: 0x0, symName: __RNvMs0_NtCslJiobkLta79_5alloc7raw_vecINtB5_6RawVecTNtNtCsdGrGZaRBwMb_3syn4data7VariantNtNtBR_5token5CommaEE8grow_oneBR_, symObjAddr: 0x21B0, symBinAddr: 0x95EB0, symSize: 0x90 }
  - { offset: 0x13F749, size: 0x8, addend: 0x0, symName: __RNvMs0_NtCslJiobkLta79_5alloc7raw_vecINtB5_6RawVecTNtNtCsdGrGZaRBwMb_3syn4expr10FieldValueNtNtBR_5token5CommaEE8grow_oneBR_, symObjAddr: 0x2240, symBinAddr: 0x95F40, symSize: 0x90 }
  - { offset: 0x13F7FB, size: 0x8, addend: 0x0, symName: __RNvMs0_NtCslJiobkLta79_5alloc7raw_vecINtB5_6RawVecTNtNtCsdGrGZaRBwMb_3syn4expr4ExprNtNtBR_5token5CommaEE8grow_oneBR_, symObjAddr: 0x22D0, symBinAddr: 0x95FD0, symSize: 0x90 }
  - { offset: 0x13F8AD, size: 0x8, addend: 0x0, symName: __RNvMs0_NtCslJiobkLta79_5alloc7raw_vecINtB5_6RawVecTNtNtCsdGrGZaRBwMb_3syn4item5FnArgNtNtBR_5token5CommaEE8grow_oneBR_, symObjAddr: 0x2360, symBinAddr: 0x96060, symSize: 0x90 }
  - { offset: 0x13F95F, size: 0x8, addend: 0x0, symName: __RNvMs0_NtCslJiobkLta79_5alloc7raw_vecINtB5_6RawVecTNtNtCsdGrGZaRBwMb_3syn4item7UseTreeNtNtBR_5token5CommaEE8grow_oneBR_, symObjAddr: 0x23F0, symBinAddr: 0x960F0, symSize: 0x90 }
  - { offset: 0x13FA11, size: 0x8, addend: 0x0, symName: __RNvMs0_NtCslJiobkLta79_5alloc7raw_vecINtB5_6RawVecTNtNtCsdGrGZaRBwMb_3syn4path11PathSegmentNtNtBR_5token7PathSepEE8grow_oneBR_, symObjAddr: 0x2480, symBinAddr: 0x96180, symSize: 0x90 }
  - { offset: 0x13FAC3, size: 0x8, addend: 0x0, symName: __RNvMs0_NtCslJiobkLta79_5alloc7raw_vecINtB5_6RawVecTNtNtCsdGrGZaRBwMb_3syn4path15GenericArgumentNtNtBR_5token5CommaEE8grow_oneBR_, symObjAddr: 0x2510, symBinAddr: 0x96210, symSize: 0x90 }
  - { offset: 0x13FB75, size: 0x8, addend: 0x0, symName: __RNvMs0_NtCslJiobkLta79_5alloc7raw_vecINtB5_6RawVecTNtNtCsdGrGZaRBwMb_3syn8generics12GenericParamNtNtBR_5token5CommaEE8grow_oneBR_, symObjAddr: 0x25A0, symBinAddr: 0x962A0, symSize: 0x90 }
  - { offset: 0x13FC27, size: 0x8, addend: 0x0, symName: __RNvMs0_NtCslJiobkLta79_5alloc7raw_vecINtB5_6RawVecTNtNtCsdGrGZaRBwMb_3syn8generics13CapturedParamNtNtBR_5token5CommaEE8grow_oneBR_, symObjAddr: 0x2630, symBinAddr: 0x96330, symSize: 0x90 }
  - { offset: 0x13FCD9, size: 0x8, addend: 0x0, symName: __RNvMs0_NtCslJiobkLta79_5alloc7raw_vecINtB5_6RawVecTNtNtCsdGrGZaRBwMb_3syn8generics14TypeParamBoundNtNtBR_5token4PlusEE8grow_oneBR_, symObjAddr: 0x26C0, symBinAddr: 0x963C0, symSize: 0x90 }
  - { offset: 0x13FD8B, size: 0x8, addend: 0x0, symName: __RNvMs0_NtCslJiobkLta79_5alloc7raw_vecINtB5_6RawVecTNtNtCsdGrGZaRBwMb_3syn8generics14WherePredicateNtNtBR_5token5CommaEE8grow_oneBR_, symObjAddr: 0x2750, symBinAddr: 0x96450, symSize: 0x90 }
  - { offset: 0x13FE3D, size: 0x8, addend: 0x0, symName: __RNvMs0_NtCslJiobkLta79_5alloc7raw_vecINtB5_6RawVecTNtNtCsdGrGZaRBwMb_3syn8lifetime8LifetimeNtNtBR_5token4PlusEE8grow_oneBR_, symObjAddr: 0x27E0, symBinAddr: 0x964E0, symSize: 0x90 }
  - { offset: 0x13FEFF, size: 0x8, addend: 0x0, symName: __RNvMs0_NtNtCsdGrGZaRBwMb_3syn4path7parsingNtB7_30AngleBracketedGenericArguments15parse_turbofish, symObjAddr: 0x2940, symBinAddr: 0x96570, symSize: 0xD0 }
  - { offset: 0x13FF5E, size: 0x8, addend: 0x0, symName: __RNvMs0_NtNtCsdGrGZaRBwMb_3syn4path7parsingNtB7_30AngleBracketedGenericArguments8do_parse, symObjAddr: 0x2A10, symBinAddr: 0x96640, symSize: 0x540 }
  - { offset: 0x140082, size: 0x8, addend: 0x0, symName: __RNvMs2_NtCsdGrGZaRBwMb_3syn4pathNtB5_13PathArguments7is_none, symObjAddr: 0x3000, symBinAddr: 0x96B80, symSize: 0x60 }
  - { offset: 0x1400A4, size: 0x8, addend: 0x0, symName: __RNvMs2_NtCsdGrGZaRBwMb_3syn4pathNtB5_13PathArguments8is_empty, symObjAddr: 0x3060, symBinAddr: 0x96BE0, symSize: 0x90 }
  - { offset: 0x140167, size: 0x8, addend: 0x0, symName: __RNvMs2_NtCslJiobkLta79_5alloc7raw_vecNtB5_11RawVecInner14current_memoryCsdGrGZaRBwMb_3syn, symObjAddr: 0x30F0, symBinAddr: 0x96C70, symSize: 0x170 }
  - { offset: 0x1403D4, size: 0x8, addend: 0x0, symName: __RNvMs2_NtCslJiobkLta79_5alloc7raw_vecNtB5_11RawVecInner16shrink_uncheckedCsdGrGZaRBwMb_3syn, symObjAddr: 0x3260, symBinAddr: 0x96DE0, symSize: 0x3E0 }
  - { offset: 0x14077D, size: 0x8, addend: 0x0, symName: __RNvMs2_NtCslJiobkLta79_5alloc7raw_vecNtB5_11RawVecInner6shrinkCsdGrGZaRBwMb_3syn, symObjAddr: 0x3640, symBinAddr: 0x971C0, symSize: 0xE0 }
  - { offset: 0x140840, size: 0x8, addend: 0x0, symName: __RNvMs4_NtNtCsdGrGZaRBwMb_3syn4path7parsingNtB7_11PathSegment12parse_helper, symObjAddr: 0x37B0, symBinAddr: 0x972A0, symSize: 0x790 }
  - { offset: 0x140A42, size: 0x8, addend: 0x0, symName: __RNvMs4_NtNtCsieiGu2EXtoJ_4core5slice4iterINtB5_4IterNtCsaKzlTDPUHDb_11proc_macro24SpanE3newCsdGrGZaRBwMb_3syn, symObjAddr: 0x3F40, symBinAddr: 0x97A30, symSize: 0x50 }
  - { offset: 0x140BEF, size: 0x8, addend: 0x0, symName: __RNvMs4_NtNtCsieiGu2EXtoJ_4core5slice4iterINtB5_4IterNtNtCsdGrGZaRBwMb_3syn4attr9AttributeE3newBS_, symObjAddr: 0x3F90, symBinAddr: 0x97A80, symSize: 0x50 }
  - { offset: 0x140DB6, size: 0x8, addend: 0x0, symName: __RNvMs4_NtNtCsieiGu2EXtoJ_4core5slice4iterINtB5_4IterNtNtCsdGrGZaRBwMb_3syn4expr3ArmE3newBS_, symObjAddr: 0x3FE0, symBinAddr: 0x97AD0, symSize: 0x50 }
  - { offset: 0x140FCB, size: 0x8, addend: 0x0, symName: __RNvMs4_NtNtCsieiGu2EXtoJ_4core5slice4iterINtB5_4IterTNtNtCsdGrGZaRBwMb_3syn2ty4TypeNtNtBT_5token5CommaEE3newBT_, symObjAddr: 0x4080, symBinAddr: 0x97B20, symSize: 0x50 }
  - { offset: 0x141192, size: 0x8, addend: 0x0, symName: __RNvMs4_NtNtCsieiGu2EXtoJ_4core5slice4iterINtB5_4IterTNtNtCsdGrGZaRBwMb_3syn2ty9BareFnArgNtNtBT_5token5CommaEE3newBT_, symObjAddr: 0x40D0, symBinAddr: 0x97B70, symSize: 0x50 }
  - { offset: 0x141359, size: 0x8, addend: 0x0, symName: __RNvMs4_NtNtCsieiGu2EXtoJ_4core5slice4iterINtB5_4IterTNtNtCsdGrGZaRBwMb_3syn3pat3PatNtNtBT_5token2OrEE3newBT_, symObjAddr: 0x4120, symBinAddr: 0x97BC0, symSize: 0x50 }
  - { offset: 0x141520, size: 0x8, addend: 0x0, symName: __RNvMs4_NtNtCsieiGu2EXtoJ_4core5slice4iterINtB5_4IterTNtNtCsdGrGZaRBwMb_3syn3pat3PatNtNtBT_5token5CommaEE3newBT_, symObjAddr: 0x4170, symBinAddr: 0x97C10, symSize: 0x50 }
  - { offset: 0x1416E7, size: 0x8, addend: 0x0, symName: __RNvMs4_NtNtCsieiGu2EXtoJ_4core5slice4iterINtB5_4IterTNtNtCsdGrGZaRBwMb_3syn3pat8FieldPatNtNtBT_5token5CommaEE3newBT_, symObjAddr: 0x41C0, symBinAddr: 0x97C60, symSize: 0x50 }
  - { offset: 0x1418AE, size: 0x8, addend: 0x0, symName: __RNvMs4_NtNtCsieiGu2EXtoJ_4core5slice4iterINtB5_4IterTNtNtCsdGrGZaRBwMb_3syn4data5FieldNtNtBT_5token5CommaEE3newBT_, symObjAddr: 0x4210, symBinAddr: 0x97CB0, symSize: 0x50 }
  - { offset: 0x141A75, size: 0x8, addend: 0x0, symName: __RNvMs4_NtNtCsieiGu2EXtoJ_4core5slice4iterINtB5_4IterTNtNtCsdGrGZaRBwMb_3syn4data7VariantNtNtBT_5token5CommaEE3newBT_, symObjAddr: 0x4260, symBinAddr: 0x97D00, symSize: 0x50 }
  - { offset: 0x141C3C, size: 0x8, addend: 0x0, symName: __RNvMs4_NtNtCsieiGu2EXtoJ_4core5slice4iterINtB5_4IterTNtNtCsdGrGZaRBwMb_3syn4expr10FieldValueNtNtBT_5token5CommaEE3newBT_, symObjAddr: 0x42B0, symBinAddr: 0x97D50, symSize: 0x50 }
  - { offset: 0x141E03, size: 0x8, addend: 0x0, symName: __RNvMs4_NtNtCsieiGu2EXtoJ_4core5slice4iterINtB5_4IterTNtNtCsdGrGZaRBwMb_3syn4expr4ExprNtNtBT_5token5CommaEE3newBT_, symObjAddr: 0x4300, symBinAddr: 0x97DA0, symSize: 0x50 }
  - { offset: 0x141FCA, size: 0x8, addend: 0x0, symName: __RNvMs4_NtNtCsieiGu2EXtoJ_4core5slice4iterINtB5_4IterTNtNtCsdGrGZaRBwMb_3syn4item5FnArgNtNtBT_5token5CommaEE3newBT_, symObjAddr: 0x4350, symBinAddr: 0x97DF0, symSize: 0x50 }
  - { offset: 0x142191, size: 0x8, addend: 0x0, symName: __RNvMs4_NtNtCsieiGu2EXtoJ_4core5slice4iterINtB5_4IterTNtNtCsdGrGZaRBwMb_3syn4item7UseTreeNtNtBT_5token5CommaEE3newBT_, symObjAddr: 0x43A0, symBinAddr: 0x97E40, symSize: 0x50 }
  - { offset: 0x1422EC, size: 0x8, addend: 0x0, symName: __RNvMs4_NtNtCsieiGu2EXtoJ_4core5slice4iterINtB5_4IterTNtNtCsdGrGZaRBwMb_3syn4path11PathSegmentNtNtBT_5token7PathSepEE3newBT_, symObjAddr: 0x43F0, symBinAddr: 0x97E90, symSize: 0x50 }
  - { offset: 0x142447, size: 0x8, addend: 0x0, symName: __RNvMs4_NtNtCsieiGu2EXtoJ_4core5slice4iterINtB5_4IterTNtNtCsdGrGZaRBwMb_3syn4path15GenericArgumentNtNtBT_5token5CommaEE3newBT_, symObjAddr: 0x4440, symBinAddr: 0x97EE0, symSize: 0x50 }
  - { offset: 0x14260E, size: 0x8, addend: 0x0, symName: __RNvMs4_NtNtCsieiGu2EXtoJ_4core5slice4iterINtB5_4IterTNtNtCsdGrGZaRBwMb_3syn8generics12GenericParamNtNtBT_5token5CommaEE3newBT_, symObjAddr: 0x4490, symBinAddr: 0x97F30, symSize: 0x50 }
  - { offset: 0x1427D5, size: 0x8, addend: 0x0, symName: __RNvMs4_NtNtCsieiGu2EXtoJ_4core5slice4iterINtB5_4IterTNtNtCsdGrGZaRBwMb_3syn8generics13CapturedParamNtNtBT_5token5CommaEE3newBT_, symObjAddr: 0x44E0, symBinAddr: 0x97F80, symSize: 0x50 }
  - { offset: 0x14299C, size: 0x8, addend: 0x0, symName: __RNvMs4_NtNtCsieiGu2EXtoJ_4core5slice4iterINtB5_4IterTNtNtCsdGrGZaRBwMb_3syn8generics14TypeParamBoundNtNtBT_5token4PlusEE3newBT_, symObjAddr: 0x4530, symBinAddr: 0x97FD0, symSize: 0x50 }
  - { offset: 0x142B63, size: 0x8, addend: 0x0, symName: __RNvMs4_NtNtCsieiGu2EXtoJ_4core5slice4iterINtB5_4IterTNtNtCsdGrGZaRBwMb_3syn8generics14WherePredicateNtNtBT_5token5CommaEE3newBT_, symObjAddr: 0x4580, symBinAddr: 0x98020, symSize: 0x50 }
  - { offset: 0x142D2A, size: 0x8, addend: 0x0, symName: __RNvMs4_NtNtCsieiGu2EXtoJ_4core5slice4iterINtB5_4IterTNtNtCsdGrGZaRBwMb_3syn8lifetime8LifetimeNtNtBT_5token4PlusEE3newBT_, symObjAddr: 0x45D0, symBinAddr: 0x98070, symSize: 0x50 }
  - { offset: 0x142E35, size: 0x8, addend: 0x0, symName: __RNvMs5_NtCslJiobkLta79_5alloc2rcINtB5_2RcINtNtCsieiGu2EXtoJ_4core4cell4CellNtNtCsdGrGZaRBwMb_3syn5parse10UnexpectedEE9drop_slowB1f_, symObjAddr: 0x4620, symBinAddr: 0x980C0, symSize: 0x70 }
  - { offset: 0x142E95, size: 0x8, addend: 0x0, symName: __RNvMs5_NtNtCsdGrGZaRBwMb_3syn4path7parsingNtB7_4Path10parse_rest, symObjAddr: 0x4690, symBinAddr: 0x98130, symSize: 0x2E0 }
  - { offset: 0x142F69, size: 0x8, addend: 0x0, symName: __RNvMs5_NtNtCsdGrGZaRBwMb_3syn4path7parsingNtB7_4Path12is_mod_style, symObjAddr: 0x4970, symBinAddr: 0x98410, symSize: 0x70 }
  - { offset: 0x142F8C, size: 0x8, addend: 0x0, symName: __RNvMs5_NtNtCsdGrGZaRBwMb_3syn4path7parsingNtB7_4Path12parse_helper, symObjAddr: 0x49E0, symBinAddr: 0x98480, symSize: 0x430 }
  - { offset: 0x14307F, size: 0x8, addend: 0x0, symName: __RNvMs5_NtNtCsdGrGZaRBwMb_3syn4path7parsingNtB7_4Path15parse_mod_style, symObjAddr: 0x4E10, symBinAddr: 0x988B0, symSize: 0x640 }
  - { offset: 0x1431D9, size: 0x8, addend: 0x0, symName: __RNvMs6_NtCslJiobkLta79_5alloc2rcINtB5_2RcINtNtCsieiGu2EXtoJ_4core4cell4CellNtNtCsdGrGZaRBwMb_3syn5parse10UnexpectedEE3newB1f_, symObjAddr: 0x5450, symBinAddr: 0x98EF0, symSize: 0xB0 }
  - { offset: 0x1432FB, size: 0x8, addend: 0x0, symName: __RNvMs_NtCsdGrGZaRBwMb_3syn4pathNtB4_4Path9get_ident, symObjAddr: 0x5550, symBinAddr: 0x98FA0, symSize: 0xB0 }
  - { offset: 0x1433C3, size: 0x8, addend: 0x0, symName: __RNvMsa_NtNtCsieiGu2EXtoJ_4core5slice4iterINtB5_7IterMutTNtNtCsdGrGZaRBwMb_3syn4path11PathSegmentNtNtBW_5token7PathSepEE3newBW_, symObjAddr: 0x5650, symBinAddr: 0x99050, symSize: 0x50 }
  - { offset: 0x1434F9, size: 0x8, addend: 0x0, symName: __RNvMsd_NtCslJiobkLta79_5alloc2rcINtB5_2RcINtNtCsieiGu2EXtoJ_4core4cell4CellNtNtCsdGrGZaRBwMb_3syn5parse10UnexpectedEE6ptr_eqB1f_, symObjAddr: 0x56F0, symBinAddr: 0x990A0, symSize: 0x20 }
  - { offset: 0x143573, size: 0x8, addend: 0x0, symName: __RNvXNtCs9OU1sGv5X54_5quote9to_tokensRNtNtCsdGrGZaRBwMb_3syn4path15GenericArgumentNtB2_8ToTokens9to_tokensBD_, symObjAddr: 0x57C0, symBinAddr: 0x99170, symSize: 0x30 }
  - { offset: 0x144EFD, size: 0x8, addend: 0x0, symName: __RINvMsG_CsaKzlTDPUHDb_11proc_macro2NtB6_7Literal7subspanINtNtNtCsieiGu2EXtoJ_4core3ops5range5RangejEECsdGrGZaRBwMb_3syn, symObjAddr: 0x0, symBinAddr: 0x9DF80, symSize: 0x30 }
  - { offset: 0x146317, size: 0x8, addend: 0x0, symName: __RNvXsw_NtCslJiobkLta79_5alloc6stringNtCsaKzlTDPUHDb_11proc_macro27LiteralNtB5_8ToString9to_stringCsdGrGZaRBwMb_3syn, symObjAddr: 0x17190, symBinAddr: 0xB36F0, symSize: 0x30 }
  - { offset: 0x14634E, size: 0x8, addend: 0x0, symName: __RNvXsw_NtCslJiobkLta79_5alloc6stringNtCsaKzlTDPUHDb_11proc_macro28LexErrorNtB5_8ToString9to_stringCsdGrGZaRBwMb_3syn, symObjAddr: 0x171C0, symBinAddr: 0xB3720, symSize: 0x30 }
  - { offset: 0x14638B, size: 0x8, addend: 0x0, symName: __RNvXsx_NtCslJiobkLta79_5alloc6stringNtCsaKzlTDPUHDb_11proc_macro27LiteralNtB5_12SpecToString14spec_to_stringCsdGrGZaRBwMb_3syn, symObjAddr: 0x171F0, symBinAddr: 0xB3750, symSize: 0x120 }
  - { offset: 0x146457, size: 0x8, addend: 0x0, symName: __RNvXsx_NtCslJiobkLta79_5alloc6stringNtCsaKzlTDPUHDb_11proc_macro28LexErrorNtB5_12SpecToString14spec_to_stringCsdGrGZaRBwMb_3syn, symObjAddr: 0x17310, symBinAddr: 0xB3870, symSize: 0x120 }
  - { offset: 0x14655A, size: 0x8, addend: 0x0, symName: __RINvXNvMNtCslJiobkLta79_5alloc5sliceSp9to_vec_inNtNtCsdGrGZaRBwMb_3syn4stmt4StmtNtB3_10ConvertVec6to_vecNtNtB8_5alloc6GlobalEBO_, symObjAddr: 0xB350, symBinAddr: 0xA8BE0, symSize: 0x490 }
  - { offset: 0x1470CF, size: 0x8, addend: 0x0, symName: __RNvXs2_NtCslJiobkLta79_5alloc3streNtNtB7_6borrow7ToOwned8to_ownedCsdGrGZaRBwMb_3syn, symObjAddr: 0x15830, symBinAddr: 0xB2A00, symSize: 0x50 }
  - { offset: 0x147E1E, size: 0x8, addend: 0x0, symName: __RNCNvMs5_NtNtCsdGrGZaRBwMb_3syn4path7parsingNtB9_4Path12is_mod_style0Bb_, symObjAddr: 0xB7E0, symBinAddr: 0xA9070, symSize: 0x30 }
  - { offset: 0x147E60, size: 0x8, addend: 0x0, symName: __RNvNtNtCsdGrGZaRBwMb_3syn4path7parsing14const_argument, symObjAddr: 0xFEC0, symBinAddr: 0xAD540, symSize: 0x600 }
  - { offset: 0x147F5E, size: 0x8, addend: 0x0, symName: __RNvNtNtCsdGrGZaRBwMb_3syn4path7parsing5qpath, symObjAddr: 0x104C0, symBinAddr: 0xADB40, symSize: 0xF20 }
  - { offset: 0x14A9FE, size: 0x8, addend: 0x0, symName: __RNCNvNtNtCsdGrGZaRBwMb_3syn4expr8printing10print_expr0B7_, symObjAddr: 0xB810, symBinAddr: 0xA90A0, symSize: 0xA90 }
  - { offset: 0x14AF3D, size: 0x8, addend: 0x0, symName: __RNCNvNtNtCsdGrGZaRBwMb_3syn4expr8printing15print_expr_call0B7_, symObjAddr: 0xC2A0, symBinAddr: 0xA9B30, symSize: 0x30 }
  - { offset: 0x14AF7E, size: 0x8, addend: 0x0, symName: __RNCNvNtNtCsdGrGZaRBwMb_3syn4expr8printing15print_expr_cast0B7_, symObjAddr: 0xC2D0, symBinAddr: 0xA9B60, symSize: 0x170 }
  - { offset: 0x14B01A, size: 0x8, addend: 0x0, symName: __RNCNvNtNtCsdGrGZaRBwMb_3syn4expr8printing16print_expr_index0B7_, symObjAddr: 0xC440, symBinAddr: 0xA9CD0, symSize: 0x30 }
  - { offset: 0x14B05B, size: 0x8, addend: 0x0, symName: __RNCNvNtNtCsdGrGZaRBwMb_3syn4expr8printing16print_expr_range0B7_, symObjAddr: 0xC470, symBinAddr: 0xA9D00, symSize: 0x370 }
  - { offset: 0x14B153, size: 0x8, addend: 0x0, symName: __RNCNvNtNtCsdGrGZaRBwMb_3syn4expr8printing17print_expr_assign0B7_, symObjAddr: 0xC7E0, symBinAddr: 0xAA070, symSize: 0x1F0 }
  - { offset: 0x14B1EF, size: 0x8, addend: 0x0, symName: __RNCNvNtNtCsdGrGZaRBwMb_3syn4expr8printing17print_expr_binary0B7_, symObjAddr: 0xC9D0, symBinAddr: 0xAA260, symSize: 0x440 }
  - { offset: 0x14B2E6, size: 0x8, addend: 0x0, symName: __RNCNvNtNtCsdGrGZaRBwMb_3syn4expr8printing18print_expr_closure0B7_, symObjAddr: 0xCE10, symBinAddr: 0xAA6A0, symSize: 0x90 }
  - { offset: 0x14B327, size: 0x8, addend: 0x0, symName: __RNCNvNtNtCsdGrGZaRBwMb_3syn4expr8printing19print_subexpression0B7_, symObjAddr: 0xCEA0, symBinAddr: 0xAA730, symSize: 0x40 }
  - { offset: 0x14B39B, size: 0x8, addend: 0x0, symName: __RNCNvNtNtCsdGrGZaRBwMb_3syn4expr8printing22print_expr_method_call0B7_, symObjAddr: 0xCEE0, symBinAddr: 0xAA770, symSize: 0x30 }
  - { offset: 0x14B3E1, size: 0x8, addend: 0x0, symName: __RNCNvXNtNtCsdGrGZaRBwMb_3syn4expr8printingNtB6_9ExprArrayNtNtCs9OU1sGv5X54_5quote9to_tokens8ToTokens9to_tokens0B8_, symObjAddr: 0xCF10, symBinAddr: 0xAA7A0, symSize: 0x30 }
  - { offset: 0x14B428, size: 0x8, addend: 0x0, symName: __RNCNvXs3_NtNtCsdGrGZaRBwMb_3syn4expr8printingNtB9_9ExprBlockNtNtCs9OU1sGv5X54_5quote9to_tokens8ToTokens9to_tokens0Bb_, symObjAddr: 0xCF40, symBinAddr: 0xAA7D0, symSize: 0x50 }
  - { offset: 0x14B46F, size: 0x8, addend: 0x0, symName: __RNCNvXs8_NtNtCsdGrGZaRBwMb_3syn4expr8printingNtB9_9ExprConstNtNtCs9OU1sGv5X54_5quote9to_tokens8ToTokens9to_tokens0Bb_, symObjAddr: 0xCF90, symBinAddr: 0xAA820, symSize: 0x50 }
  - { offset: 0x14B4B6, size: 0x8, addend: 0x0, symName: __RNCNvXsb_NtNtCsdGrGZaRBwMb_3syn4expr8printingNtB9_11ExprForLoopNtNtCs9OU1sGv5X54_5quote9to_tokens8ToTokens9to_tokens0Bb_, symObjAddr: 0xCFE0, symBinAddr: 0xAA870, symSize: 0x50 }
  - { offset: 0x14B4FD, size: 0x8, addend: 0x0, symName: __RNCNvXsc_NtNtCsdGrGZaRBwMb_3syn4expr8printingNtB9_9ExprGroupNtNtCs9OU1sGv5X54_5quote9to_tokens8ToTokens9to_tokens0Bb_, symObjAddr: 0xD030, symBinAddr: 0xAA8C0, symSize: 0x30 }
  - { offset: 0x14B544, size: 0x8, addend: 0x0, symName: __RNCNvXsd_NtNtCsdGrGZaRBwMb_3syn4expr8printingNtB9_6ExprIfNtNtCs9OU1sGv5X54_5quote9to_tokens8ToTokens9to_tokens0Bb_, symObjAddr: 0xD060, symBinAddr: 0xAA8F0, symSize: 0x40 }
