---
triple:          'x86_64-apple-darwin'
binary-path:     '/Users/kema/git/rust-serv/target/debug/build/generic-array-2c950e0b97472349/build_script_build-2c950e0b97472349'
relocations:
  - { offset: 0x1E, size: 0x8, addend: 0x0, symName: __RINvMs_NtNtCsieiGu2EXtoJ_4core3fmt2rtNtB7_9Arguments9new_constKj1_ECseQi3eifYlAI_18build_script_build, symObjAddr: 0x0, symBinAddr: 0x100000B90, symSize: 0x40 }
  - { offset: 0x68, size: 0x8, addend: 0x0, symName: __RNCINvNtCsHUR1vrdMJt_3std2rt10lang_startuE0CseQi3eifYlAI_18build_script_build, symObjAddr: 0xA0, symBinAddr: 0x100000C30, symSize: 0x30 }
  - { offset: 0xD2, size: 0x8, addend: 0x0, symName: __RINvNtCsHUR1vrdMJt_3std2rt10lang_startuECseQi3eifYlAI_18build_script_build, symObjAddr: 0x40, symBinAddr: 0x100000BD0, symSize: 0x40 }
  - { offset: 0x13C, size: 0x8, addend: 0x0, symName: __RINvNtNtCsHUR1vrdMJt_3std3sys9backtrace28___rust_begin_short_backtraceFEuuECseQi3eifYlAI_18build_script_build, symObjAddr: 0x80, symBinAddr: 0x100000C10, symSize: 0x20 }
  - { offset: 0x224, size: 0x8, addend: 0x0, symName: __RNvXsZ_NtCsHUR1vrdMJt_3std7processuNtB5_11Termination6reportCseQi3eifYlAI_18build_script_build, symObjAddr: 0x150, symBinAddr: 0x100000CE0, symSize: 0x10 }
  - { offset: 0x5A3, size: 0x8, addend: 0x0, symName: __RNSNvYNCINvNtCsHUR1vrdMJt_3std2rt10lang_startuE0INtNtNtCsieiGu2EXtoJ_4core3ops8function6FnOnceuE9call_once6vtableCseQi3eifYlAI_18build_script_build, symObjAddr: 0xD0, symBinAddr: 0x100000C60, symSize: 0x20 }
  - { offset: 0x5E7, size: 0x8, addend: 0x0, symName: __RNvYFEuINtNtNtCsieiGu2EXtoJ_4core3ops8function6FnOnceuE9call_onceCseQi3eifYlAI_18build_script_build, symObjAddr: 0x160, symBinAddr: 0x100000CF0, symSize: 0x20 }
  - { offset: 0x627, size: 0x8, addend: 0x0, symName: __RNvYNCINvNtCsHUR1vrdMJt_3std2rt10lang_startuE0INtNtNtCsieiGu2EXtoJ_4core3ops8function6FnOnceuE9call_onceCseQi3eifYlAI_18build_script_build, symObjAddr: 0x180, symBinAddr: 0x100000D10, symSize: 0x40 }
  - { offset: 0x7C7, size: 0x8, addend: 0x0, symName: __RINvMs_NtNtCsieiGu2EXtoJ_4core3fmt2rtNtB7_9Arguments9new_constKj1_ECseQi3eifYlAI_18build_script_build, symObjAddr: 0x0, symBinAddr: 0x100000B90, symSize: 0x40 }
  - { offset: 0x81B, size: 0x8, addend: 0x0, symName: __RNvCseQi3eifYlAI_18build_script_build4main, symObjAddr: 0xF0, symBinAddr: 0x100000C80, symSize: 0x60 }
  - { offset: 0x881, size: 0x8, addend: 0x0, symName: __RINvMsx_NtNtCsieiGu2EXtoJ_4core3str7patternNtB6_14TwoWaySearcher4nextNtB6_14RejectAndMatchECsdyTLQ062UJx_13version_check, symObjAddr: 0x0, symBinAddr: 0x100000DE0, symSize: 0x620 }
  - { offset: 0x205D, size: 0x8, addend: 0x0, symName: __RNvXs0_NtNtCsieiGu2EXtoJ_4core3str7patternNtB5_12CharSearcherNtB5_15ReverseSearcher15next_match_backCsdyTLQ062UJx_13version_check, symObjAddr: 0x23F0, symBinAddr: 0x100002070, symSize: 0x4B0 }
  - { offset: 0x26BC, size: 0x8, addend: 0x0, symName: __RNvXst_NtNtCsieiGu2EXtoJ_4core3str7patternReNtB5_7Pattern12is_suffix_ofCsdyTLQ062UJx_13version_check, symObjAddr: 0x3540, symBinAddr: 0x100003180, symSize: 0x40 }
  - { offset: 0x26F9, size: 0x8, addend: 0x0, symName: __RNvXst_NtNtCsieiGu2EXtoJ_4core3str7patternReNtB5_7Pattern13into_searcherCsdyTLQ062UJx_13version_check, symObjAddr: 0x3580, symBinAddr: 0x1000031C0, symSize: 0x50 }
  - { offset: 0x2760, size: 0x8, addend: 0x0, symName: __RNvXst_NtNtCsieiGu2EXtoJ_4core3str7patternReNtB5_7Pattern15strip_suffix_ofCsdyTLQ062UJx_13version_check, symObjAddr: 0x38C0, symBinAddr: 0x100003210, symSize: 0xE0 }
  - { offset: 0x28A7, size: 0x8, addend: 0x0, symName: __RNvXs2_NtNtCsieiGu2EXtoJ_4core3str7patterncNtB5_7Pattern12is_suffix_ofCsdyTLQ062UJx_13version_check, symObjAddr: 0x28A0, symBinAddr: 0x100002520, symSize: 0x80 }
  - { offset: 0x2950, size: 0x8, addend: 0x0, symName: __RNvXs2_NtNtCsieiGu2EXtoJ_4core3str7patterncNtB5_7Pattern13into_searcherCsdyTLQ062UJx_13version_check, symObjAddr: 0x2920, symBinAddr: 0x1000025A0, symSize: 0x120 }
  - { offset: 0x2A71, size: 0x8, addend: 0x0, symName: __RNvXs7_NtNtCsieiGu2EXtoJ_4core3str7patternINtB5_18MultiCharEqPatternNvMNtNtB9_4char7methodsc13is_whitespaceENtB5_7Pattern13into_searcherCsdyTLQ062UJx_13version_check, symObjAddr: 0x2A40, symBinAddr: 0x1000026C0, symSize: 0xB0 }
  - { offset: 0x2AD3, size: 0x8, addend: 0x0, symName: __RNvXs8_NtNtCsieiGu2EXtoJ_4core3str7patternINtB5_19MultiCharEqSearcherNvMNtNtB9_4char7methodsc13is_whitespaceENtB5_8Searcher4nextCsdyTLQ062UJx_13version_check, symObjAddr: 0x2AF0, symBinAddr: 0x100002770, symSize: 0x160 }
  - { offset: 0x2C01, size: 0x8, addend: 0x0, symName: __RNvXs9_NtNtCsieiGu2EXtoJ_4core3str7patternINtB5_19MultiCharEqSearcherNvMNtNtB9_4char7methodsc13is_whitespaceENtB5_15ReverseSearcher9next_backCsdyTLQ062UJx_13version_check, symObjAddr: 0x2C50, symBinAddr: 0x1000028D0, symSize: 0x160 }
  - { offset: 0x2D2F, size: 0x8, addend: 0x0, symName: __RNvXs_NtNtCsieiGu2EXtoJ_4core3str7patternNtB4_12CharSearcherNtB4_8Searcher10next_matchCsdyTLQ062UJx_13version_check, symObjAddr: 0x2DB0, symBinAddr: 0x100002A30, symSize: 0x4A0 }
  - { offset: 0x32D4, size: 0x8, addend: 0x0, symName: __RNvXs_NtNtCsieiGu2EXtoJ_4core3str7patternNtB4_12CharSearcherNtB4_8Searcher4nextCsdyTLQ062UJx_13version_check, symObjAddr: 0x3250, symBinAddr: 0x100002ED0, symSize: 0x230 }
  - { offset: 0x35A3, size: 0x8, addend: 0x0, symName: __RNvXs_NtNtCsieiGu2EXtoJ_4core3str7patternNtB4_12CharSearcherNtB4_8Searcher8haystackCsdyTLQ062UJx_13version_check, symObjAddr: 0x3480, symBinAddr: 0x100003100, symSize: 0x20 }
  - { offset: 0x35D7, size: 0x8, addend: 0x0, symName: __RNvXso_NtNtCsieiGu2EXtoJ_4core3str7patternINtB5_21CharPredicateSearcherNvMNtNtB9_4char7methodsc13is_whitespaceENtB5_8Searcher11next_rejectCsdyTLQ062UJx_13version_check, symObjAddr: 0x34A0, symBinAddr: 0x100003120, symSize: 0x30 }
  - { offset: 0x3614, size: 0x8, addend: 0x0, symName: __RNvXsp_NtNtCsieiGu2EXtoJ_4core3str7patternINtB5_21CharPredicateSearcherNvMNtNtB9_4char7methodsc13is_whitespaceENtB5_15ReverseSearcher16next_reject_backCsdyTLQ062UJx_13version_check, symObjAddr: 0x34D0, symBinAddr: 0x100003150, symSize: 0x30 }
  - { offset: 0x371F, size: 0x8, addend: 0x0, symName: __RNvXsv_NtNtCsieiGu2EXtoJ_4core3str7patternNtB5_11StrSearcherNtB5_8Searcher10next_matchCsdyTLQ062UJx_13version_check, symObjAddr: 0x39A0, symBinAddr: 0x1000032F0, symSize: 0x170 }
  - { offset: 0x37AC, size: 0x8, addend: 0x0, symName: __RNvXsv_NtNtCsieiGu2EXtoJ_4core3str7patternNtB5_11StrSearcherNtB5_8Searcher4nextCsdyTLQ062UJx_13version_check, symObjAddr: 0x3B10, symBinAddr: 0x100003460, symSize: 0x500 }
  - { offset: 0x3AB8, size: 0x8, addend: 0x0, symName: __RNvXsv_NtNtCsieiGu2EXtoJ_4core3str7patternNtB5_11StrSearcherNtB5_8Searcher8haystackCsdyTLQ062UJx_13version_check, symObjAddr: 0x4010, symBinAddr: 0x100003960, symSize: 0x20 }
  - { offset: 0x3AEC, size: 0x8, addend: 0x0, symName: __RNvXsw_NtNtCsieiGu2EXtoJ_4core3str7patternNtB5_11StrSearcherNtB5_15ReverseSearcher9next_backCsdyTLQ062UJx_13version_check, symObjAddr: 0x4030, symBinAddr: 0x100003980, symSize: 0x4E0 }
  - { offset: 0x3DDE, size: 0x8, addend: 0x0, symName: __RNvXsy_NtNtCsieiGu2EXtoJ_4core3str7patternNtB5_9MatchOnlyNtB5_14TwoWayStrategy16use_early_rejectCsdyTLQ062UJx_13version_check, symObjAddr: 0x4510, symBinAddr: 0x100003E60, symSize: 0x10 }
  - { offset: 0x3DFC, size: 0x8, addend: 0x0, symName: __RNvXsy_NtNtCsieiGu2EXtoJ_4core3str7patternNtB5_9MatchOnlyNtB5_14TwoWayStrategy8matchingCsdyTLQ062UJx_13version_check, symObjAddr: 0x4520, symBinAddr: 0x100003E70, symSize: 0x20 }
  - { offset: 0x3E39, size: 0x8, addend: 0x0, symName: __RNvXsy_NtNtCsieiGu2EXtoJ_4core3str7patternNtB5_9MatchOnlyNtB5_14TwoWayStrategy9rejectingCsdyTLQ062UJx_13version_check, symObjAddr: 0x4540, symBinAddr: 0x100003E90, symSize: 0x20 }
  - { offset: 0x3E7C, size: 0x8, addend: 0x0, symName: __RNvXsz_NtNtCsieiGu2EXtoJ_4core3str7patternNtB5_14RejectAndMatchNtB5_14TwoWayStrategy16use_early_rejectCsdyTLQ062UJx_13version_check, symObjAddr: 0x4560, symBinAddr: 0x100003EB0, symSize: 0x10 }
  - { offset: 0x3E9A, size: 0x8, addend: 0x0, symName: __RNvXsz_NtNtCsieiGu2EXtoJ_4core3str7patternNtB5_14RejectAndMatchNtB5_14TwoWayStrategy8matchingCsdyTLQ062UJx_13version_check, symObjAddr: 0x4570, symBinAddr: 0x100003EC0, symSize: 0x20 }
  - { offset: 0x3ED7, size: 0x8, addend: 0x0, symName: __RNvXsz_NtNtCsieiGu2EXtoJ_4core3str7patternNtB5_14RejectAndMatchNtB5_14TwoWayStrategy9rejectingCsdyTLQ062UJx_13version_check, symObjAddr: 0x4590, symBinAddr: 0x100003EE0, symSize: 0x20 }
  - { offset: 0x3F1A, size: 0x8, addend: 0x0, symName: __RNvYINtNtNtCsieiGu2EXtoJ_4core3str7pattern19MultiCharEqSearcherNvMNtNtB9_4char7methodsc13is_whitespaceENtB5_15ReverseSearcher16next_reject_backCsdyTLQ062UJx_13version_check, symObjAddr: 0x45B0, symBinAddr: 0x100003F00, symSize: 0x90 }
  - { offset: 0x3F7F, size: 0x8, addend: 0x0, symName: __RNvYNtNtNtCsieiGu2EXtoJ_4core3str7pattern11StrSearcherNtB4_15ReverseSearcher16next_reject_backCsdyTLQ062UJx_13version_check, symObjAddr: 0x46D0, symBinAddr: 0x100004020, symSize: 0x90 }
  - { offset: 0x3FEA, size: 0x8, addend: 0x0, symName: __RNvYINtNtNtCsieiGu2EXtoJ_4core3str7pattern19MultiCharEqSearcherNvMNtNtB9_4char7methodsc13is_whitespaceENtB5_8Searcher11next_rejectCsdyTLQ062UJx_13version_check, symObjAddr: 0x4640, symBinAddr: 0x100003F90, symSize: 0x90 }
  - { offset: 0x404F, size: 0x8, addend: 0x0, symName: __RNvYNtNtNtCsieiGu2EXtoJ_4core3str7pattern12CharSearcherNtB4_8Searcher11next_rejectCsdyTLQ062UJx_13version_check, symObjAddr: 0x4760, symBinAddr: 0x1000040B0, symSize: 0x90 }
  - { offset: 0x4C10, size: 0x8, addend: 0x0, symName: __RINvMsx_NtNtCsieiGu2EXtoJ_4core3str7patternNtB6_14TwoWaySearcher4nextNtB6_14RejectAndMatchECsdyTLQ062UJx_13version_check, symObjAddr: 0x0, symBinAddr: 0x100000DE0, symSize: 0x620 }
  - { offset: 0x4FAD, size: 0x8, addend: 0x0, symName: __RINvMsx_NtNtCsieiGu2EXtoJ_4core3str7patternNtB6_14TwoWaySearcher4nextNtB6_9MatchOnlyECsdyTLQ062UJx_13version_check, symObjAddr: 0x620, symBinAddr: 0x100001400, symSize: 0x620 }
  - { offset: 0x532C, size: 0x8, addend: 0x0, symName: __RINvMsx_NtNtCsieiGu2EXtoJ_4core3str7patternNtB6_14TwoWaySearcher9next_backNtB6_14RejectAndMatchECsdyTLQ062UJx_13version_check, symObjAddr: 0xC40, symBinAddr: 0x100001A20, symSize: 0x650 }
  - { offset: 0x5FEB, size: 0x8, addend: 0x0, symName: __RNvYNtNtNtNtCsHUR1vrdMJt_3std3sys5stdio4unix6StderrNtNtBa_2io5Write9write_allCsdyTLQ062UJx_13version_check, symObjAddr: 0x39E0, symBinAddr: 0x1000064E0, symSize: 0x2E0 }
  - { offset: 0x6191, size: 0x8, addend: 0x0, symName: __RNvYNtNtNtNtCsHUR1vrdMJt_3std3sys5stdio4unix6StderrNtNtBa_2io5Write9write_fmtCsdyTLQ062UJx_13version_check, symObjAddr: 0x3CC0, symBinAddr: 0x1000067C0, symSize: 0x170 }
  - { offset: 0x63FD, size: 0x8, addend: 0x0, symName: __RNCNvMNtCsdyTLQ062UJx_13version_check7versionNtB4_7Version4read0B6_, symObjAddr: 0x18A0, symBinAddr: 0x1000052D0, symSize: 0x50 }
  - { offset: 0x6430, size: 0x8, addend: 0x0, symName: __RNCNvMNtCsdyTLQ062UJx_13version_check7versionNtB4_7Version4reads_0B6_, symObjAddr: 0x18F0, symBinAddr: 0x100005320, symSize: 0x80 }
  - { offset: 0x647B, size: 0x8, addend: 0x0, symName: __RNCNvMNtCsdyTLQ062UJx_13version_check7versionNtB4_7Version5parse0B6_, symObjAddr: 0x1970, symBinAddr: 0x1000053A0, symSize: 0x50 }
  - { offset: 0x657A, size: 0x8, addend: 0x0, symName: __RNvXs6_NtCsdyTLQ062UJx_13version_check7versionNtB5_7VersionNtNtCsieiGu2EXtoJ_4core3cmp10PartialOrd11partial_cmpB7_, symObjAddr: 0x34B0, symBinAddr: 0x100006410, symSize: 0x20 }
  - { offset: 0x67DC, size: 0x8, addend: 0x0, symName: __RNvYNtNtCsdyTLQ062UJx_13version_check7version7VersionNtNtCsieiGu2EXtoJ_4core3cmp10PartialOrd2geB6_, symObjAddr: 0x3940, symBinAddr: 0x100006490, symSize: 0x50 }
  - { offset: 0x6CDA, size: 0x8, addend: 0x0, symName: __RNvNvMs1_NtNtCsieiGu2EXtoJ_4core3ptr8non_nullINtB7_7NonNullpE13new_unchecked18precondition_checkCsdyTLQ062UJx_13version_check, symObjAddr: 0x2A10, symBinAddr: 0x100005B80, symSize: 0x90 }
  - { offset: 0x6D67, size: 0x8, addend: 0x0, symName: __RINvNtCsieiGu2EXtoJ_4core3ptr13drop_in_placeINtNtB4_6option6OptionINtNtCslJiobkLta79_5alloc5boxed3BoxSmEEECsdyTLQ062UJx_13version_check, symObjAddr: 0x350, symBinAddr: 0x100004260, symSize: 0x40 }
  - { offset: 0x6D96, size: 0x8, addend: 0x0, symName: __RINvNtCsieiGu2EXtoJ_4core3ptr13drop_in_placeINtNtB4_6option6OptionNtNtCslJiobkLta79_5alloc6string6StringEECsdyTLQ062UJx_13version_check, symObjAddr: 0x390, symBinAddr: 0x1000042A0, symSize: 0x40 }
  - { offset: 0x6DC5, size: 0x8, addend: 0x0, symName: __RINvNtCsieiGu2EXtoJ_4core3ptr13drop_in_placeINtNtB4_6option6OptionNtNtNtCsHUR1vrdMJt_3std3ffi6os_str8OsStringEECsdyTLQ062UJx_13version_check, symObjAddr: 0x3D0, symBinAddr: 0x1000042E0, symSize: 0x40 }
  - { offset: 0x6DF4, size: 0x8, addend: 0x0, symName: __RINvNtCsieiGu2EXtoJ_4core3ptr13drop_in_placeINtNtB4_6option6OptionNtNtNtCslJiobkLta79_5alloc3ffi5c_str7CStringEECsdyTLQ062UJx_13version_check, symObjAddr: 0x410, symBinAddr: 0x100004320, symSize: 0x40 }
  - { offset: 0x6E23, size: 0x8, addend: 0x0, symName: __RINvNtCsieiGu2EXtoJ_4core3ptr13drop_in_placeINtNtB4_6option6OptionNtNtNtNtNtCsHUR1vrdMJt_3std3sys7process4unix6common5StdioEECsdyTLQ062UJx_13version_check, symObjAddr: 0x450, symBinAddr: 0x100004360, symSize: 0x40 }
  - { offset: 0x6E52, size: 0x8, addend: 0x0, symName: __RINvNtCsieiGu2EXtoJ_4core3ptr13drop_in_placeINtNtB4_6result6ResultNtNtCsHUR1vrdMJt_3std7process6OutputNtNtNtB16_2io5error5ErrorEECsdyTLQ062UJx_13version_check, symObjAddr: 0x4D0, symBinAddr: 0x1000043A0, symSize: 0x50 }
  - { offset: 0x6E81, size: 0x8, addend: 0x0, symName: __RINvNtCsieiGu2EXtoJ_4core3ptr13drop_in_placeINtNtB4_6result6ResultNtNtCslJiobkLta79_5alloc6string6StringNtB14_13FromUtf8ErrorEECsdyTLQ062UJx_13version_check, symObjAddr: 0x520, symBinAddr: 0x1000043F0, symSize: 0x50 }
  - { offset: 0x6EB0, size: 0x8, addend: 0x0, symName: __RINvNtCsieiGu2EXtoJ_4core3ptr13drop_in_placeINtNtB4_6result6ResultuNtNtNtCsHUR1vrdMJt_3std2io5error5ErrorEECsdyTLQ062UJx_13version_check, symObjAddr: 0x570, symBinAddr: 0x100004440, symSize: 0x40 }
  - { offset: 0x6EDF, size: 0x8, addend: 0x0, symName: __RINvNtCsieiGu2EXtoJ_4core3ptr13drop_in_placeINtNtCslJiobkLta79_5alloc3vec3VecINtNtBL_5boxed3BoxDINtNtNtB4_3ops8function5FnMutuEp6OutputINtNtB4_6result6ResultuNtNtNtCsHUR1vrdMJt_3std2io5error5ErrorENtNtB4_6marker4SyncNtB3b_4SendEL_EEECsdyTLQ062UJx_13version_check, symObjAddr: 0x5B0, symBinAddr: 0x100004480, symSize: 0x50 }
  - { offset: 0x6F0E, size: 0x8, addend: 0x0, symName: __RINvNtCsieiGu2EXtoJ_4core3ptr13drop_in_placeINtNtCslJiobkLta79_5alloc3vec3VecPaEECsdyTLQ062UJx_13version_check, symObjAddr: 0x600, symBinAddr: 0x1000044D0, symSize: 0x50 }
  - { offset: 0x6F3D, size: 0x8, addend: 0x0, symName: __RINvNtCsieiGu2EXtoJ_4core3ptr13drop_in_placeINtNtCslJiobkLta79_5alloc3vec3VechEECsdyTLQ062UJx_13version_check, symObjAddr: 0x650, symBinAddr: 0x100004520, symSize: 0x50 }
  - { offset: 0x6F6C, size: 0x8, addend: 0x0, symName: __RINvNtCsieiGu2EXtoJ_4core3ptr13drop_in_placeINtNtCslJiobkLta79_5alloc5boxed3BoxDINtNtNtB4_3ops8function5FnMutuEp6OutputINtNtB4_6result6ResultuNtNtNtCsHUR1vrdMJt_3std2io5error5ErrorENtNtB4_6marker4SyncNtB2V_4SendEL_EECsdyTLQ062UJx_13version_check, symObjAddr: 0x6A0, symBinAddr: 0x100004570, symSize: 0x70 }
  - { offset: 0x6F9B, size: 0x8, addend: 0x0, symName: __RINvNtCsieiGu2EXtoJ_4core3ptr13drop_in_placeINtNtCslJiobkLta79_5alloc5boxed3BoxDNtNtB4_5error5ErrorNtNtB4_6marker4SyncNtB1B_4SendEL_EECsdyTLQ062UJx_13version_check, symObjAddr: 0x710, symBinAddr: 0x1000045E0, symSize: 0x70 }
  - { offset: 0x6FCA, size: 0x8, addend: 0x0, symName: __RINvNtCsieiGu2EXtoJ_4core3ptr13drop_in_placeINtNtCslJiobkLta79_5alloc5boxed3BoxNtNtNtCsHUR1vrdMJt_3std2io5error6CustomEECsdyTLQ062UJx_13version_check, symObjAddr: 0x780, symBinAddr: 0x100004650, symSize: 0x50 }
  - { offset: 0x6FF9, size: 0x8, addend: 0x0, symName: __RINvNtCsieiGu2EXtoJ_4core3ptr13drop_in_placeINtNtCslJiobkLta79_5alloc5boxed3BoxShEECsdyTLQ062UJx_13version_check, symObjAddr: 0x7D0, symBinAddr: 0x1000046A0, symSize: 0x20 }
  - { offset: 0x7028, size: 0x8, addend: 0x0, symName: __RINvNtCsieiGu2EXtoJ_4core3ptr13drop_in_placeINtNtCslJiobkLta79_5alloc5boxed3BoxSmEECsdyTLQ062UJx_13version_check, symObjAddr: 0x7F0, symBinAddr: 0x1000046C0, symSize: 0x20 }
  - { offset: 0x7057, size: 0x8, addend: 0x0, symName: __RINvNtCsieiGu2EXtoJ_4core3ptr13drop_in_placeINtNtCslJiobkLta79_5alloc7raw_vec6RawVecINtNtBL_5boxed3BoxDINtNtNtB4_3ops8function5FnMutuEp6OutputINtNtB4_6result6ResultuNtNtNtCsHUR1vrdMJt_3std2io5error5ErrorENtNtB4_6marker4SyncNtB3i_4SendEL_EEECsdyTLQ062UJx_13version_check, symObjAddr: 0x850, symBinAddr: 0x1000046E0, symSize: 0x20 }
  - { offset: 0x7086, size: 0x8, addend: 0x0, symName: __RINvNtCsieiGu2EXtoJ_4core3ptr13drop_in_placeINtNtCslJiobkLta79_5alloc7raw_vec6RawVecPaEECsdyTLQ062UJx_13version_check, symObjAddr: 0x870, symBinAddr: 0x100004700, symSize: 0x20 }
  - { offset: 0x70B5, size: 0x8, addend: 0x0, symName: __RINvNtCsieiGu2EXtoJ_4core3ptr13drop_in_placeINtNtCslJiobkLta79_5alloc7raw_vec6RawVechEECsdyTLQ062UJx_13version_check, symObjAddr: 0x890, symBinAddr: 0x100004720, symSize: 0x20 }
  - { offset: 0x70E4, size: 0x8, addend: 0x0, symName: __RINvNtCsieiGu2EXtoJ_4core3ptr13drop_in_placeINtNtNtCsHUR1vrdMJt_3std2io5error9ErrorDataINtNtCslJiobkLta79_5alloc5boxed3BoxNtBJ_6CustomEEECsdyTLQ062UJx_13version_check, symObjAddr: 0x8B0, symBinAddr: 0x100004740, symSize: 0x30 }
  - { offset: 0x7113, size: 0x8, addend: 0x0, symName: __RINvNtCsieiGu2EXtoJ_4core3ptr13drop_in_placeINtNtNtNtCslJiobkLta79_5alloc11collections5btree3map8BTreeMapNtNtNtCsHUR1vrdMJt_3std3ffi6os_str8OsStringINtNtB4_6option6OptionB1F_EEECsdyTLQ062UJx_13version_check, symObjAddr: 0x8E0, symBinAddr: 0x100004770, symSize: 0x20 }
  - { offset: 0x7142, size: 0x8, addend: 0x0, symName: __RINvNtCsieiGu2EXtoJ_4core3ptr13drop_in_placeINtNtNtNtCslJiobkLta79_5alloc11collections5btree3map8IntoIterNtNtNtCsHUR1vrdMJt_3std3ffi6os_str8OsStringINtNtB4_6option6OptionB1F_EEECsdyTLQ062UJx_13version_check, symObjAddr: 0x900, symBinAddr: 0x100004790, symSize: 0x20 }
  - { offset: 0x7171, size: 0x8, addend: 0x0, symName: __RINvNtCsieiGu2EXtoJ_4core3ptr13drop_in_placeINtNvMsT_NtNtNtCslJiobkLta79_5alloc11collections5btree4nodeINtBP_6HandleINtBP_7NodeRefNtNtBP_6marker5DyingpppENtB26_2KVE12drop_key_val7DropperINtNtB4_6option6OptionNtNtNtCsHUR1vrdMJt_3std3ffi6os_str8OsStringEEECsdyTLQ062UJx_13version_check, symObjAddr: 0x920, symBinAddr: 0x1000047B0, symSize: 0x20 }
  - { offset: 0x71A0, size: 0x8, addend: 0x0, symName: __RINvNtCsieiGu2EXtoJ_4core3ptr13drop_in_placeINtNvNtCsHUR1vrdMJt_3std2io17default_write_fmt7AdapterNtNtNtNtBN_3sys5stdio4unix6StderrEECsdyTLQ062UJx_13version_check, symObjAddr: 0x940, symBinAddr: 0x1000047D0, symSize: 0x20 }
  - { offset: 0x71CF, size: 0x8, addend: 0x0, symName: __RINvNtCsieiGu2EXtoJ_4core3ptr13drop_in_placeINtNvXsw_NtNtNtCslJiobkLta79_5alloc11collections5btree3mapINtBP_8IntoIterpppENtNtNtB4_3ops4drop4Drop4drop9DropGuardNtNtNtCsHUR1vrdMJt_3std3ffi6os_str8OsStringINtNtB4_6option6OptionB2x_ENtNtBV_5alloc6GlobalEECsdyTLQ062UJx_13version_check, symObjAddr: 0x960, symBinAddr: 0x1000047F0, symSize: 0x20 }
  - { offset: 0x71FE, size: 0x8, addend: 0x0, symName: __RINvNtCsieiGu2EXtoJ_4core3ptr13drop_in_placeNtNtCsHUR1vrdMJt_3std3env8VarErrorECsdyTLQ062UJx_13version_check, symObjAddr: 0x980, symBinAddr: 0x100004810, symSize: 0x40 }
  - { offset: 0x722D, size: 0x8, addend: 0x0, symName: __RINvNtCsieiGu2EXtoJ_4core3ptr13drop_in_placeNtNtCsHUR1vrdMJt_3std7process6OutputECsdyTLQ062UJx_13version_check, symObjAddr: 0x9C0, symBinAddr: 0x100004850, symSize: 0x60 }
  - { offset: 0x725C, size: 0x8, addend: 0x0, symName: __RINvNtCsieiGu2EXtoJ_4core3ptr13drop_in_placeNtNtCsHUR1vrdMJt_3std7process7CommandECsdyTLQ062UJx_13version_check, symObjAddr: 0xA20, symBinAddr: 0x1000048B0, symSize: 0x20 }
  - { offset: 0x728B, size: 0x8, addend: 0x0, symName: __RINvNtCsieiGu2EXtoJ_4core3ptr13drop_in_placeNtNtCslJiobkLta79_5alloc6string13FromUtf8ErrorECsdyTLQ062UJx_13version_check, symObjAddr: 0xA40, symBinAddr: 0x1000048D0, symSize: 0x20 }
  - { offset: 0x72BA, size: 0x8, addend: 0x0, symName: __RINvNtCsieiGu2EXtoJ_4core3ptr13drop_in_placeNtNtCslJiobkLta79_5alloc6string6StringECsdyTLQ062UJx_13version_check, symObjAddr: 0xA60, symBinAddr: 0x1000048F0, symSize: 0x20 }
  - { offset: 0x72E9, size: 0x8, addend: 0x0, symName: __RINvNtCsieiGu2EXtoJ_4core3ptr13drop_in_placeNtNtNtCsHUR1vrdMJt_3std2io5error5ErrorECsdyTLQ062UJx_13version_check, symObjAddr: 0xA80, symBinAddr: 0x100004910, symSize: 0x20 }
  - { offset: 0x7318, size: 0x8, addend: 0x0, symName: __RINvNtCsieiGu2EXtoJ_4core3ptr13drop_in_placeNtNtNtCsHUR1vrdMJt_3std2io5error6CustomECsdyTLQ062UJx_13version_check, symObjAddr: 0xAA0, symBinAddr: 0x100004930, symSize: 0x20 }
  - { offset: 0x7347, size: 0x8, addend: 0x0, symName: __RINvNtCsieiGu2EXtoJ_4core3ptr13drop_in_placeNtNtNtCsHUR1vrdMJt_3std3ffi6os_str8OsStringECsdyTLQ062UJx_13version_check, symObjAddr: 0xAC0, symBinAddr: 0x100004950, symSize: 0x20 }
  - { offset: 0x7376, size: 0x8, addend: 0x0, symName: __RINvNtCsieiGu2EXtoJ_4core3ptr13drop_in_placeNtNtNtCslJiobkLta79_5alloc3ffi5c_str7CStringECsdyTLQ062UJx_13version_check, symObjAddr: 0xAE0, symBinAddr: 0x100004970, symSize: 0x50 }
  - { offset: 0x73A5, size: 0x8, addend: 0x0, symName: __RINvNtCsieiGu2EXtoJ_4core3ptr13drop_in_placeNtNtNtNtCsHUR1vrdMJt_3std2io5error14repr_bitpacked4ReprECsdyTLQ062UJx_13version_check, symObjAddr: 0xB30, symBinAddr: 0x1000049C0, symSize: 0x20 }
  - { offset: 0x73D4, size: 0x8, addend: 0x0, symName: __RINvNtCsieiGu2EXtoJ_4core3ptr13drop_in_placeNtNtNtNtCsHUR1vrdMJt_3std2os2fd5owned7OwnedFdECsdyTLQ062UJx_13version_check, symObjAddr: 0xB50, symBinAddr: 0x1000049E0, symSize: 0x20 }
  - { offset: 0x7403, size: 0x8, addend: 0x0, symName: __RINvNtCsieiGu2EXtoJ_4core3ptr13drop_in_placeNtNtNtNtCsHUR1vrdMJt_3std3sys2fd4unix8FileDescECsdyTLQ062UJx_13version_check, symObjAddr: 0xB70, symBinAddr: 0x100004A00, symSize: 0x20 }
  - { offset: 0x7432, size: 0x8, addend: 0x0, symName: __RINvNtCsieiGu2EXtoJ_4core3ptr13drop_in_placeNtNtNtNtCsHUR1vrdMJt_3std3sys6os_str5bytes3BufECsdyTLQ062UJx_13version_check, symObjAddr: 0xB90, symBinAddr: 0x100004A20, symSize: 0x20 }
  - { offset: 0x7461, size: 0x8, addend: 0x0, symName: __RINvNtCsieiGu2EXtoJ_4core3ptr13drop_in_placeNtNtNtNtCsHUR1vrdMJt_3std3sys7process3env10CommandEnvECsdyTLQ062UJx_13version_check, symObjAddr: 0xBB0, symBinAddr: 0x100004A40, symSize: 0x20 }
  - { offset: 0x7490, size: 0x8, addend: 0x0, symName: __RINvNtCsieiGu2EXtoJ_4core3ptr13drop_in_placeNtNtNtNtNtCsHUR1vrdMJt_3std3sys7process4unix6common5StdioECsdyTLQ062UJx_13version_check, symObjAddr: 0xBD0, symBinAddr: 0x100004A60, symSize: 0x30 }
  - { offset: 0x74BF, size: 0x8, addend: 0x0, symName: __RINvNtCsieiGu2EXtoJ_4core3ptr13drop_in_placeNtNtNtNtNtCsHUR1vrdMJt_3std3sys7process4unix6common7CommandECsdyTLQ062UJx_13version_check, symObjAddr: 0xC00, symBinAddr: 0x100004A90, symSize: 0x1D0 }
  - { offset: 0x74EE, size: 0x8, addend: 0x0, symName: __RINvNtCsieiGu2EXtoJ_4core3ptr13drop_in_placeNtNtNtNtNtNtCsHUR1vrdMJt_3std3sys7process4unix6common13cstring_array12CStringArrayECsdyTLQ062UJx_13version_check, symObjAddr: 0xDD0, symBinAddr: 0x100004C60, symSize: 0x50 }
  - { offset: 0x751D, size: 0x8, addend: 0x0, symName: __RINvNtCsieiGu2EXtoJ_4core3ptr13drop_in_placeNtNvNtNtNtCslJiobkLta79_5alloc11collections5btree3mem7replace10PanicGuardECsdyTLQ062UJx_13version_check, symObjAddr: 0xE20, symBinAddr: 0x100004CB0, symSize: 0x20 }
  - { offset: 0x754C, size: 0x8, addend: 0x0, symName: __RINvNtCsieiGu2EXtoJ_4core3ptr13drop_in_placeSINtNtCslJiobkLta79_5alloc5boxed3BoxDINtNtNtB4_3ops8function5FnMutuEp6OutputINtNtB4_6result6ResultuNtNtNtCsHUR1vrdMJt_3std2io5error5ErrorENtNtB4_6marker4SyncNtB2W_4SendEL_EECsdyTLQ062UJx_13version_check, symObjAddr: 0xE40, symBinAddr: 0x100004CD0, symSize: 0xA0 }
  - { offset: 0x760D, size: 0x8, addend: 0x0, symName: __RNvNvMNtNtCsieiGu2EXtoJ_4core3ptr9const_ptrPp20offset_from_unsigned18precondition_checkCsdyTLQ062UJx_13version_check, symObjAddr: 0x2970, symBinAddr: 0x100005AE0, symSize: 0xA0 }
  - { offset: 0x77E4, size: 0x8, addend: 0x0, symName: __RNvNvNtCsieiGu2EXtoJ_4core3ptr19copy_nonoverlapping18precondition_checkCsdyTLQ062UJx_13version_check, symObjAddr: 0x2AA0, symBinAddr: 0x100005C10, symSize: 0x4B0 }
  - { offset: 0x88DC, size: 0x8, addend: 0x0, symName: __RINvNtNtCsieiGu2EXtoJ_4core3str11validations15next_code_pointINtNtNtB6_5slice4iter4IterhEECsdyTLQ062UJx_13version_check, symObjAddr: 0x1020, symBinAddr: 0x100004D70, symSize: 0x260 }
  - { offset: 0x8B95, size: 0x8, addend: 0x0, symName: __RINvNtNtCsieiGu2EXtoJ_4core3str11validations23next_code_point_reverseINtNtNtB6_5slice4iter4IterhEECsdyTLQ062UJx_13version_check, symObjAddr: 0x1280, symBinAddr: 0x100004FD0, symSize: 0x290 }
  - { offset: 0x8E61, size: 0x8, addend: 0x0, symName: __RNvXs3_NtNtCsieiGu2EXtoJ_4core3str7patternNvMNtNtB9_4char7methodsc13is_whitespaceNtB5_11MultiCharEq7matchesCsdyTLQ062UJx_13version_check, symObjAddr: 0x3490, symBinAddr: 0x1000063F0, symSize: 0x20 }
  - { offset: 0x8EAD, size: 0x8, addend: 0x0, symName: __RNvXsr_NtNtCsieiGu2EXtoJ_4core3str7patternNvMNtNtB9_4char7methodsc13is_whitespaceNtB5_7Pattern13into_searcherCsdyTLQ062UJx_13version_check, symObjAddr: 0x38C0, symBinAddr: 0x100006450, symSize: 0x40 }
  - { offset: 0x92E3, size: 0x8, addend: 0x0, symName: __RNvXNtNtCsieiGu2EXtoJ_4core3ops12control_flowINtB2_11ControlFlowReENtNtB4_9try_trait3Try11from_outputCsdyTLQ062UJx_13version_check, symObjAddr: 0x3210, symBinAddr: 0x100006380, symSize: 0x10 }
  - { offset: 0x9321, size: 0x8, addend: 0x0, symName: __RNvXNtNtCsieiGu2EXtoJ_4core3ops12control_flowINtB2_11ControlFlowReENtNtB4_9try_trait3Try6branchCsdyTLQ062UJx_13version_check, symObjAddr: 0x3220, symBinAddr: 0x100006390, symSize: 0x60 }
  - { offset: 0x939F, size: 0x8, addend: 0x0, symName: __RNvXs_NtNtCsieiGu2EXtoJ_4core3ops12control_flowINtB4_11ControlFlowReEINtNtB6_9try_trait12FromResidualIBK_B12_NtNtB8_7convert10InfallibleEE13from_residualCsdyTLQ062UJx_13version_check, symObjAddr: 0x3870, symBinAddr: 0x100006430, symSize: 0x20 }
  - { offset: 0x955A, size: 0x8, addend: 0x0, symName: __RNvYNvMNtNtCsieiGu2EXtoJ_4core4char7methodsc13is_whitespaceINtNtNtB9_3ops8function5FnMutTcEE8call_mutCsdyTLQ062UJx_13version_check, symObjAddr: 0x3E30, symBinAddr: 0x100006930, symSize: 0x20 }
  - { offset: 0x963A, size: 0x8, addend: 0x0, symName: __RNCINvNvNtNtNtNtCsieiGu2EXtoJ_4core4iter6traits8iterator8Iterator4find5checkReQNCNvCsdyTLQ062UJx_13version_check35version_and_date_from_rustc_version0E0B1j_, symObjAddr: 0x1770, symBinAddr: 0x100005260, symSize: 0x70 }
  - { offset: 0x96A7, size: 0x8, addend: 0x0, symName: __RNCNvXs_NvNtNtNtNtCsieiGu2EXtoJ_4core4iter6traits8iterator8Iterator10advance_byINtNtNtBg_3str4iter5SplitReENtB6_13SpecAdvanceBy15spec_advance_by0CsdyTLQ062UJx_13version_check, symObjAddr: 0x1A80, symBinAddr: 0x1000053F0, symSize: 0x30 }
  - { offset: 0x96F4, size: 0x8, addend: 0x0, symName: __RNCNvXs_NvNtNtNtNtCsieiGu2EXtoJ_4core4iter6traits8iterator8Iterator10advance_byINtNtNtBg_3str4iter5SplitcENtB6_13SpecAdvanceBy15spec_advance_by0CsdyTLQ062UJx_13version_check, symObjAddr: 0x1AB0, symBinAddr: 0x100005420, symSize: 0x30 }
  - { offset: 0x9741, size: 0x8, addend: 0x0, symName: __RNCNvXs_NvNtNtNtNtCsieiGu2EXtoJ_4core4iter6traits8iterator8Iterator10advance_byINtNtNtBg_3str4iter6SplitNReENtB6_13SpecAdvanceBy15spec_advance_by0CsdyTLQ062UJx_13version_check, symObjAddr: 0x1AE0, symBinAddr: 0x100005450, symSize: 0x30 }
  - { offset: 0x9828, size: 0x8, addend: 0x0, symName: __RNvMNtNtCsieiGu2EXtoJ_4core4char7methodsc13is_whitespaceCsdyTLQ062UJx_13version_check, symObjAddr: 0x22B0, symBinAddr: 0x100005710, symSize: 0x60 }
  - { offset: 0x986C, size: 0x8, addend: 0x0, symName: __RNvMNtNtCsieiGu2EXtoJ_4core4char7methodsc8to_digitCsdyTLQ062UJx_13version_check, symObjAddr: 0x2310, symBinAddr: 0x100005770, symSize: 0xF0 }
  - { offset: 0x996C, size: 0x8, addend: 0x0, symName: __RNvNtNtCsieiGu2EXtoJ_4core4char7methods15encode_utf8_rawCsdyTLQ062UJx_13version_check, symObjAddr: 0x2750, symBinAddr: 0x1000058C0, symSize: 0xE0 }
  - { offset: 0x9A6C, size: 0x8, addend: 0x0, symName: __RNvNtNtCsieiGu2EXtoJ_4core4char7methods25encode_utf8_raw_uncheckedCsdyTLQ062UJx_13version_check, symObjAddr: 0x2830, symBinAddr: 0x1000059A0, symSize: 0x140 }
  - { offset: 0x9C89, size: 0x8, addend: 0x0, symName: __RNvNvXs0_NtNtCsieiGu2EXtoJ_4core5slice5indexjINtB7_10SliceIndexSpE13get_unchecked18precondition_checkCsdyTLQ062UJx_13version_check, symObjAddr: 0x3010, symBinAddr: 0x100006180, symSize: 0xA0 }
  - { offset: 0x9CF7, size: 0x8, addend: 0x0, symName: __RNvNvXs0_NtNtCsieiGu2EXtoJ_4core5slice5indexjINtB7_10SliceIndexSpE17get_unchecked_mut18precondition_checkCsdyTLQ062UJx_13version_check, symObjAddr: 0x30B0, symBinAddr: 0x100006220, symSize: 0xA0 }
  - { offset: 0x9D6B, size: 0x8, addend: 0x0, symName: __RNvNvXs2_NtNtCsieiGu2EXtoJ_4core5slice5indexINtNtNtBb_3ops5range5RangejEINtB7_10SliceIndexSpE13get_unchecked18precondition_checkCsdyTLQ062UJx_13version_check, symObjAddr: 0x3150, symBinAddr: 0x1000062C0, symSize: 0xC0 }
  - { offset: 0x9F30, size: 0x8, addend: 0x0, symName: __RNvNvNtCsieiGu2EXtoJ_4core9ub_checks23maybe_is_nonoverlapping7runtimeCsdyTLQ062UJx_13version_check, symObjAddr: 0x2F50, symBinAddr: 0x1000060C0, symSize: 0xC0 }
  - { offset: 0xAA52, size: 0x8, addend: 0x0, symName: __RINvMsk_NtCsHUR1vrdMJt_3std7processNtB6_7Command3argReECsdyTLQ062UJx_13version_check, symObjAddr: 0x1B0, symBinAddr: 0x100004140, symSize: 0x60 }
  - { offset: 0xAA8D, size: 0x8, addend: 0x0, symName: __RINvMsk_NtCsHUR1vrdMJt_3std7processNtB6_7Command3newNtNtCslJiobkLta79_5alloc6string6StringECsdyTLQ062UJx_13version_check, symObjAddr: 0x210, symBinAddr: 0x1000041A0, symSize: 0xC0 }
  - { offset: 0xAB85, size: 0x8, addend: 0x0, symName: __RNvMNtCsdyTLQ062UJx_13version_check7versionNtB2_7Version4read, symObjAddr: 0x1EB0, symBinAddr: 0x100005480, symSize: 0x40 }
  - { offset: 0xAB98, size: 0x8, addend: 0x0, symName: __RNvMNtCsdyTLQ062UJx_13version_check7versionNtB2_7Version5parse, symObjAddr: 0x1EF0, symBinAddr: 0x1000054C0, symSize: 0x210 }
  - { offset: 0xAC69, size: 0x8, addend: 0x0, symName: __RNvMNtCsdyTLQ062UJx_13version_check7versionNtB2_7Version8from_mmp, symObjAddr: 0x2270, symBinAddr: 0x1000056D0, symSize: 0x40 }
  - { offset: 0xACD6, size: 0x8, addend: 0x0, symName: __RNvMs1_NtNtCsieiGu2EXtoJ_4core3ptr8non_nullINtB5_7NonNullhE20offset_from_unsignedCsdyTLQ062UJx_13version_check, symObjAddr: 0x2400, symBinAddr: 0x100005860, symSize: 0x60 }
  - { offset: 0xB58D, size: 0x8, addend: 0x0, symName: __RNvMsy_NtCsieiGu2EXtoJ_4core3numt16from_ascii_radixCsdyTLQ062UJx_13version_check, symObjAddr: 0x2F00, symBinAddr: 0x1000085C0, symSize: 0x5E0 }
  - { offset: 0xB81F, size: 0x8, addend: 0x0, symName: __RNvNvMs3_NtCsieiGu2EXtoJ_4core3numi13unchecked_neg18precondition_checkCsdyTLQ062UJx_13version_check, symObjAddr: 0x3590, symBinAddr: 0x100008C50, symSize: 0xB0 }
  - { offset: 0xB90A, size: 0x8, addend: 0x0, symName: __RNvNvMs9_NtCsieiGu2EXtoJ_4core3numj13unchecked_add18precondition_checkCsdyTLQ062UJx_13version_check, symObjAddr: 0x3640, symBinAddr: 0x100008D00, symSize: 0xA0 }
  - { offset: 0xB9C8, size: 0x8, addend: 0x0, symName: __RNvNvMs9_NtCsieiGu2EXtoJ_4core3numj13unchecked_sub18precondition_checkCsdyTLQ062UJx_13version_check, symObjAddr: 0x36E0, symBinAddr: 0x100008DA0, symSize: 0xA0 }
  - { offset: 0xBB2D, size: 0x8, addend: 0x0, symName: __RNvXsx_NtCsieiGu2EXtoJ_4core3numtNtNtNtB7_3str6traits7FromStr8from_strCsdyTLQ062UJx_13version_check, symObjAddr: 0x4A80, symBinAddr: 0x100009CE0, symSize: 0x40 }
  - { offset: 0xBBB0, size: 0x8, addend: 0x0, symName: __RNvXs12_NtNtCsieiGu2EXtoJ_4core3cmp5implsyNtB8_10PartialOrd11partial_cmpCsdyTLQ062UJx_13version_check, symObjAddr: 0x3F50, symBinAddr: 0x1000095B0, symSize: 0x20 }
  - { offset: 0xC509, size: 0x8, addend: 0x0, symName: __RINvMNtCsieiGu2EXtoJ_4core3stre12trim_matchesNvMNtNtB5_4char7methodsc13is_whitespaceECsdyTLQ062UJx_13version_check, symObjAddr: 0x40, symBinAddr: 0x100006950, symSize: 0x180 }
  - { offset: 0xC6E0, size: 0x8, addend: 0x0, symName: __RINvMNtCsieiGu2EXtoJ_4core3stre16trim_end_matchesNvMNtNtB5_4char7methodsc13is_whitespaceECsdyTLQ062UJx_13version_check, symObjAddr: 0x1C0, symBinAddr: 0x100006AD0, symSize: 0x110 }
  - { offset: 0xC852, size: 0x8, addend: 0x0, symName: __RINvMNtCsieiGu2EXtoJ_4core3stre16trim_end_matchesReECsdyTLQ062UJx_13version_check, symObjAddr: 0x2D0, symBinAddr: 0x100006BE0, symSize: 0x140 }
  - { offset: 0xC990, size: 0x8, addend: 0x0, symName: __RINvMNtCsieiGu2EXtoJ_4core3stre17trim_left_matchescECsdyTLQ062UJx_13version_check, symObjAddr: 0x440, symBinAddr: 0x100006D20, symSize: 0x20 }
  - { offset: 0xC9D6, size: 0x8, addend: 0x0, symName: __RINvMNtCsieiGu2EXtoJ_4core3stre18trim_right_matchesReECsdyTLQ062UJx_13version_check, symObjAddr: 0x460, symBinAddr: 0x100006D40, symSize: 0x30 }
  - { offset: 0xCA6C, size: 0x8, addend: 0x0, symName: __RINvMNtCsieiGu2EXtoJ_4core3stre18trim_start_matchesNvMNtNtB5_4char7methodsc13is_whitespaceECsdyTLQ062UJx_13version_check, symObjAddr: 0x490, symBinAddr: 0x100006D70, symSize: 0x100 }
  - { offset: 0xCC56, size: 0x8, addend: 0x0, symName: __RINvMNtCsieiGu2EXtoJ_4core3stre18trim_start_matchescECsdyTLQ062UJx_13version_check, symObjAddr: 0x590, symBinAddr: 0x100006E70, symSize: 0x110 }
  - { offset: 0xCDF0, size: 0x8, addend: 0x0, symName: __RINvMNtCsieiGu2EXtoJ_4core3stre5parsetECsdyTLQ062UJx_13version_check, symObjAddr: 0x6A0, symBinAddr: 0x100006F80, symSize: 0x30 }
  - { offset: 0xCE27, size: 0x8, addend: 0x0, symName: __RINvMNtCsieiGu2EXtoJ_4core3stre5splitReECsdyTLQ062UJx_13version_check, symObjAddr: 0x6D0, symBinAddr: 0x100006FB0, symSize: 0xD0 }
  - { offset: 0xCE6D, size: 0x8, addend: 0x0, symName: __RINvMNtCsieiGu2EXtoJ_4core3stre5splitcECsdyTLQ062UJx_13version_check, symObjAddr: 0x7A0, symBinAddr: 0x100007080, symSize: 0xB0 }
  - { offset: 0xCEE6, size: 0x8, addend: 0x0, symName: __RINvMNtCsieiGu2EXtoJ_4core3stre6splitnReECsdyTLQ062UJx_13version_check, symObjAddr: 0x850, symBinAddr: 0x100007130, symSize: 0x100 }
  - { offset: 0xCF61, size: 0x8, addend: 0x0, symName: __RINvMNtCsieiGu2EXtoJ_4core3stre9ends_withReECsdyTLQ062UJx_13version_check, symObjAddr: 0x990, symBinAddr: 0x100007230, symSize: 0x40 }
  - { offset: 0xCFA7, size: 0x8, addend: 0x0, symName: __RINvMNtCsieiGu2EXtoJ_4core3stre9ends_withcECsdyTLQ062UJx_13version_check, symObjAddr: 0x9D0, symBinAddr: 0x100007270, symSize: 0x30 }
  - { offset: 0xD00B, size: 0x8, addend: 0x0, symName: __RNvMNtCsieiGu2EXtoJ_4core3stre10trim_rightCsdyTLQ062UJx_13version_check, symObjAddr: 0x2B30, symBinAddr: 0x100008240, symSize: 0x20 }
  - { offset: 0xD057, size: 0x8, addend: 0x0, symName: __RNvMNtCsieiGu2EXtoJ_4core3stre4trimCsdyTLQ062UJx_13version_check, symObjAddr: 0x2B70, symBinAddr: 0x100008260, symSize: 0x20 }
  - { offset: 0xD085, size: 0x8, addend: 0x0, symName: __RNvMNtCsieiGu2EXtoJ_4core3stre5charsCsdyTLQ062UJx_13version_check, symObjAddr: 0x2B90, symBinAddr: 0x100008280, symSize: 0x20 }
  - { offset: 0xD127, size: 0x8, addend: 0x0, symName: __RNvMNtCsieiGu2EXtoJ_4core3stre5linesCsdyTLQ062UJx_13version_check, symObjAddr: 0x2BB0, symBinAddr: 0x1000082A0, symSize: 0xE0 }
  - { offset: 0xD1D5, size: 0x8, addend: 0x0, symName: __RNvMNtCsieiGu2EXtoJ_4core3stre9trim_leftCsdyTLQ062UJx_13version_check, symObjAddr: 0x2C90, symBinAddr: 0x100008380, symSize: 0x20 }
  - { offset: 0xD3F5, size: 0x8, addend: 0x0, symName: __RNvNvXs5_NtNtCsieiGu2EXtoJ_4core3str6traitsINtNtNtBb_3ops5range5RangejEINtNtNtBb_5slice5index10SliceIndexeE13get_unchecked18precondition_checkCsdyTLQ062UJx_13version_check, symObjAddr: 0x3DD0, symBinAddr: 0x100009490, symSize: 0xC0 }
  - { offset: 0xD472, size: 0x8, addend: 0x0, symName: __RNvXs_NtNtCsieiGu2EXtoJ_4core3str6traitseNtNtB8_3cmp9PartialEq2eqCsdyTLQ062UJx_13version_check, symObjAddr: 0x4890, symBinAddr: 0x100009BB0, symSize: 0x90 }
  - { offset: 0xD9A8, size: 0x8, addend: 0x0, symName: __RNvXs3_NtCsieiGu2EXtoJ_4core3strNtB5_8LinesMapINtNtNtB7_3ops8function2FnTReEE4callCsdyTLQ062UJx_13version_check, symObjAddr: 0x42E0, symBinAddr: 0x100009810, symSize: 0x230 }
  - { offset: 0xDAD1, size: 0x8, addend: 0x0, symName: __RNvXs4_NtCsieiGu2EXtoJ_4core3strNtB5_8LinesMapINtNtNtB7_3ops8function5FnMutTReEE8call_mutCsdyTLQ062UJx_13version_check, symObjAddr: 0x4570, symBinAddr: 0x100009A40, symSize: 0x40 }
  - { offset: 0xDB8C, size: 0x8, addend: 0x0, symName: __RNvXs1_NtNtNtCsieiGu2EXtoJ_4core3ops8function5implsQNCNvCsdyTLQ062UJx_13version_check35version_and_date_from_rustc_version0INtB7_5FnMutTRReEE8call_mutBS_, symObjAddr: 0x3FD0, symBinAddr: 0x100009630, symSize: 0x30 }
  - { offset: 0xDBF3, size: 0x8, addend: 0x0, symName: __RNvXs1_NtNtNtCsieiGu2EXtoJ_4core4iter8adapters6filterINtB5_6FilterINtNtNtBb_3str4iter5SplitReENCNvCsdyTLQ062UJx_13version_check35version_and_date_from_rustc_version0ENtNtNtB9_6traits8iterator8Iterator4nextB1y_, symObjAddr: 0x4000, symBinAddr: 0x100009660, symSize: 0x20 }
  - { offset: 0xDDC9, size: 0x8, addend: 0x0, symName: __RNvXs2E_NtNtCsieiGu2EXtoJ_4core5slice4iterINtB6_4IterhENtNtNtNtBa_4iter6traits8iterator8Iterator4nextCsdyTLQ062UJx_13version_check, symObjAddr: 0x4040, symBinAddr: 0x100009680, symSize: 0x90 }
  - { offset: 0xDEF0, size: 0x8, addend: 0x0, symName: __RNvXs2F_NtNtCsieiGu2EXtoJ_4core5slice4iterINtB6_4IterhENtNtNtNtBa_4iter6traits12double_ended19DoubleEndedIterator9next_backCsdyTLQ062UJx_13version_check, symObjAddr: 0x4130, symBinAddr: 0x100009710, symSize: 0x100 }
  - { offset: 0xE130, size: 0x8, addend: 0x0, symName: __RNvNvNtNtCsieiGu2EXtoJ_4core5slice3raw14from_raw_parts18precondition_checkCsdyTLQ062UJx_13version_check, symObjAddr: 0x3910, symBinAddr: 0x100008FD0, symSize: 0x260 }
  - { offset: 0xE2FE, size: 0x8, addend: 0x0, symName: __RNvNvNtNtCsieiGu2EXtoJ_4core5slice3raw18from_raw_parts_mut18precondition_checkCsdyTLQ062UJx_13version_check, symObjAddr: 0x3B70, symBinAddr: 0x100009230, symSize: 0x260 }
  - { offset: 0xEE0A, size: 0x8, addend: 0x0, symName: __RNvNvMNtNtCsieiGu2EXtoJ_4core5alloc6layoutNtB4_6Layout25from_size_align_unchecked18precondition_checkCsdyTLQ062UJx_13version_check, symObjAddr: 0x34E0, symBinAddr: 0x100008BA0, symSize: 0xB0 }
  - { offset: 0xEF01, size: 0x8, addend: 0x0, symName: __RNvNvNtNtCsieiGu2EXtoJ_4core4char7convert18from_u32_unchecked18precondition_checkCsdyTLQ062UJx_13version_check, symObjAddr: 0x3820, symBinAddr: 0x100008EE0, symSize: 0xF0 }
  - { offset: 0xF1AE, size: 0x8, addend: 0x0, symName: __RNCNCNvCsdyTLQ062UJx_13version_check43version_and_date_from_rustc_verbose_version00B5_, symObjAddr: 0xDA0, symBinAddr: 0x1000072A0, symSize: 0x60 }
  - { offset: 0xF1EC, size: 0x8, addend: 0x0, symName: __RNCNvCsdyTLQ062UJx_13version_check43version_and_date_from_rustc_verbose_version0B3_, symObjAddr: 0x12A0, symBinAddr: 0x100007590, symSize: 0xA0 }
  - { offset: 0xF22F, size: 0x8, addend: 0x0, symName: __RNCNvCsdyTLQ062UJx_13version_check20get_version_and_date0B3_, symObjAddr: 0xFE0, symBinAddr: 0x100007300, symSize: 0x70 }
  - { offset: 0xF262, size: 0x8, addend: 0x0, symName: __RNCNvCsdyTLQ062UJx_13version_check20get_version_and_dates0_0B3_, symObjAddr: 0x1050, symBinAddr: 0x100007370, symSize: 0x80 }
  - { offset: 0xF299, size: 0x8, addend: 0x0, symName: __RNCNvCsdyTLQ062UJx_13version_check20get_version_and_dates_0B3_, symObjAddr: 0x10D0, symBinAddr: 0x1000073F0, symSize: 0xA0 }
  - { offset: 0xF2EB, size: 0x8, addend: 0x0, symName: __RNCNvCsdyTLQ062UJx_13version_check35version_and_date_from_rustc_version0B3_, symObjAddr: 0x11A0, symBinAddr: 0x100007490, symSize: 0x40 }
  - { offset: 0xF321, size: 0x8, addend: 0x0, symName: __RNCNvCsdyTLQ062UJx_13version_check35version_and_date_from_rustc_versions0_0B3_, symObjAddr: 0x11E0, symBinAddr: 0x1000074D0, symSize: 0x30 }
  - { offset: 0xF357, size: 0x8, addend: 0x0, symName: __RNCNvCsdyTLQ062UJx_13version_check35version_and_date_from_rustc_versions1_0B3_, symObjAddr: 0x1210, symBinAddr: 0x100007500, symSize: 0x30 }
  - { offset: 0xF38D, size: 0x8, addend: 0x0, symName: __RNCNvCsdyTLQ062UJx_13version_check35version_and_date_from_rustc_versions_0B3_, symObjAddr: 0x1240, symBinAddr: 0x100007530, symSize: 0x60 }
  - { offset: 0xF3E0, size: 0x8, addend: 0x0, symName: __RNvCsdyTLQ062UJx_13version_check14is_min_version, symObjAddr: 0x15C0, symBinAddr: 0x100007630, symSize: 0xA0 }
  - { offset: 0xF438, size: 0x8, addend: 0x0, symName: __RNvCsdyTLQ062UJx_13version_check20get_version_and_date, symObjAddr: 0x1A60, symBinAddr: 0x1000076D0, symSize: 0x160 }
  - { offset: 0xF46C, size: 0x8, addend: 0x0, symName: __RNvCsdyTLQ062UJx_13version_check35version_and_date_from_rustc_version, symObjAddr: 0x1BE0, symBinAddr: 0x100007830, symSize: 0x1E0 }
  - { offset: 0xF50E, size: 0x8, addend: 0x0, symName: __RNvCsdyTLQ062UJx_13version_check43version_and_date_from_rustc_verbose_version, symObjAddr: 0x1DC0, symBinAddr: 0x100007A10, symSize: 0x830 }
  - { offset: 0xF93E, size: 0x8, addend: 0x0, symName: __RNvXs1_NtCslJiobkLta79_5alloc5allocNtB5_6GlobalNtNtCsieiGu2EXtoJ_4core5clone5Clone5cloneCsdyTLQ062UJx_13version_check, symObjAddr: 0x3FC0, symBinAddr: 0x100009620, symSize: 0x10 }
  - { offset: 0xF98F, size: 0x8, addend: 0x0, symName: __RNvXs_NtCslJiobkLta79_5alloc5allocNtB4_6GlobalNtNtCsieiGu2EXtoJ_4core5alloc9Allocator10deallocateCsdyTLQ062UJx_13version_check, symObjAddr: 0x4820, symBinAddr: 0x100009B40, symSize: 0x70 }
  - { offset: 0xFB21, size: 0x8, addend: 0x0, symName: __RNvNvMs_NtCslJiobkLta79_5alloc3vecINtB6_3VecppE7set_len18precondition_checkCsdyTLQ062UJx_13version_check, symObjAddr: 0x3780, symBinAddr: 0x100008E40, symSize: 0xA0 }
  - { offset: 0xFBEB, size: 0x8, addend: 0x0, symName: __RNvXsn_NtCslJiobkLta79_5alloc3vecINtB5_3VecINtNtB7_5boxed3BoxDINtNtNtCsieiGu2EXtoJ_4core3ops8function5FnMutuEp6OutputINtNtB15_6result6ResultuNtNtNtCsHUR1vrdMJt_3std2io5error5ErrorENtNtB15_6marker4SyncNtB2U_4SendEL_EENtNtB13_4drop4Drop4dropCsdyTLQ062UJx_13version_check, symObjAddr: 0x4970, symBinAddr: 0x100009C40, symSize: 0x30 }
  - { offset: 0xFC9B, size: 0x8, addend: 0x0, symName: __RNvXsn_NtCslJiobkLta79_5alloc3vecINtB5_3VecPaENtNtNtCsieiGu2EXtoJ_4core3ops4drop4Drop4dropCsdyTLQ062UJx_13version_check, symObjAddr: 0x49A0, symBinAddr: 0x100009C70, symSize: 0x20 }
  - { offset: 0xFE4E, size: 0x8, addend: 0x0, symName: __RNvXs1V_NtCslJiobkLta79_5alloc6stringeNtB6_12SpecToString14spec_to_stringCsdyTLQ062UJx_13version_check, symObjAddr: 0x3F70, symBinAddr: 0x1000095D0, symSize: 0x50 }
  - { offset: 0xFF95, size: 0x8, addend: 0x0, symName: __RNvXss_NtCslJiobkLta79_5alloc6stringNtB5_6StringNtNtNtCsieiGu2EXtoJ_4core3ops5deref5Deref5derefCsdyTLQ062UJx_13version_check, symObjAddr: 0x4A30, symBinAddr: 0x100009C90, symSize: 0x20 }
  - { offset: 0xFFC9, size: 0x8, addend: 0x0, symName: __RNvXsw_NtCslJiobkLta79_5alloc6stringeNtB5_8ToString9to_stringCsdyTLQ062UJx_13version_check, symObjAddr: 0x4A50, symBinAddr: 0x100009CB0, symSize: 0x30 }
  - { offset: 0x100B3, size: 0x8, addend: 0x0, symName: __RNvXs0_NtNtCslJiobkLta79_5alloc3ffi5c_strNtB5_7CStringNtNtNtCsieiGu2EXtoJ_4core3ops4drop4Drop4dropCsdyTLQ062UJx_13version_check, symObjAddr: 0x3ED0, symBinAddr: 0x100009550, symSize: 0x60 }
  - { offset: 0x10298, size: 0x8, addend: 0x0, symName: __RNvMNtCslJiobkLta79_5alloc6stringNtB2_6String6as_strCsdyTLQ062UJx_13version_check, symObjAddr: 0x2CB0, symBinAddr: 0x1000083A0, symSize: 0x60 }
  - { offset: 0x10436, size: 0x8, addend: 0x0, symName: __RNvMNtCslJiobkLta79_5alloc6stringNtB2_6String9from_utf8CsdyTLQ062UJx_13version_check, symObjAddr: 0x2D10, symBinAddr: 0x100008400, symSize: 0x1C0 }
  - { offset: 0x10607, size: 0x8, addend: 0x0, symName: __RNvXsW_NtNtCsHUR1vrdMJt_3std3ffi6os_streINtNtCsieiGu2EXtoJ_4core7convert5AsRefNtB5_5OsStrE6as_refCsdyTLQ062UJx_13version_check, symObjAddr: 0x4640, symBinAddr: 0x100009AB0, symSize: 0x20 }
  - { offset: 0x1063B, size: 0x8, addend: 0x0, symName: __RNvXsX_NtNtCsHUR1vrdMJt_3std3ffi6os_strNtNtCslJiobkLta79_5alloc6string6StringINtNtCsieiGu2EXtoJ_4core7convert5AsRefNtB5_5OsStrE6as_refCsdyTLQ062UJx_13version_check, symObjAddr: 0x4660, symBinAddr: 0x100009AD0, symSize: 0x70 }
  - { offset: 0x107D5, size: 0x8, addend: 0x0, symName: __RNvXs5_NtNtNtCsHUR1vrdMJt_3std2os2fd5ownedNtB5_7OwnedFdNtNtNtCsieiGu2EXtoJ_4core3ops4drop4Drop4dropCsdyTLQ062UJx_13version_check, symObjAddr: 0x45D0, symBinAddr: 0x100009A80, symSize: 0x30 }
  - { offset: 0x11168, size: 0x8, addend: 0x0, symName: __RINvMNtCsieiGu2EXtoJ_4core6optionINtB3_6OptionNtNtCsHUR1vrdMJt_3std7process6OutputE8and_thenNtNtCslJiobkLta79_5alloc6string6StringNCNvCsdyTLQ062UJx_13version_check20get_version_and_dates_0EB28_, symObjAddr: 0x0, symBinAddr: 0x100009D20, symSize: 0xA0 }
  - { offset: 0x111E3, size: 0x8, addend: 0x0, symName: __RNvXs5_NtNtCsieiGu2EXtoJ_4core3num5errorNtB5_15TryFromIntErrorNtNtB9_3fmt5Debug3fmtCsdyTLQ062UJx_13version_check, symObjAddr: 0x35C0, symBinAddr: 0x10000C2C0, symSize: 0x50 }
  - { offset: 0x12A66, size: 0x8, addend: 0x0, symName: __RNvXsC_NtCsieiGu2EXtoJ_4core6optionINtB5_6OptionINtNtNtB7_3num7nonzero7NonZerojEENtNtNtB7_3ops9try_trait3Try11from_outputCsdyTLQ062UJx_13version_check, symObjAddr: 0x3A70, symBinAddr: 0x10000C6C0, symSize: 0x10 }
  - { offset: 0x12A9D, size: 0x8, addend: 0x0, symName: __RNvXsC_NtCsieiGu2EXtoJ_4core6optionINtB5_6OptionINtNtNtB7_3num7nonzero7NonZerojEENtNtNtB7_3ops9try_trait3Try6branchCsdyTLQ062UJx_13version_check, symObjAddr: 0x3A80, symBinAddr: 0x10000C6D0, symSize: 0x40 }
  - { offset: 0x12B2E, size: 0x8, addend: 0x0, symName: __RNvXsD_NtCsieiGu2EXtoJ_4core6optionINtB5_6OptionINtNtNtB7_3num7nonzero7NonZerojEEINtNtNtB7_3ops9try_trait12FromResidualIBy_NtNtB7_7convert10InfallibleEE13from_residualCsdyTLQ062UJx_13version_check, symObjAddr: 0x3AC0, symBinAddr: 0x10000C710, symSize: 0x10 }
  - { offset: 0x138DA, size: 0x8, addend: 0x0, symName: __RNvNvNtCsieiGu2EXtoJ_4core4hint16assert_unchecked18precondition_checkCsdyTLQ062UJx_13version_check, symObjAddr: 0x3210, symBinAddr: 0x10000C0C0, symSize: 0xA0 }
  - { offset: 0x1393A, size: 0x8, addend: 0x0, symName: __RNvNvNtCsieiGu2EXtoJ_4core4hint21unreachable_unchecked18precondition_checkCsdyTLQ062UJx_13version_check, symObjAddr: 0x32B0, symBinAddr: 0x10000C160, symSize: 0x80 }
  - { offset: 0x13DC8, size: 0x8, addend: 0x0, symName: __RNvNtNtNtCsieiGu2EXtoJ_4core7unicode12unicode_data11white_space6lookupCsdyTLQ062UJx_13version_check, symObjAddr: 0x3100, symBinAddr: 0x10000BFB0, symSize: 0x110 }
  - { offset: 0x13E0D, size: 0x8, addend: 0x0, symName: __RNvXNtNtNtCsieiGu2EXtoJ_4core4iter6traits7collectINtNtNtB6_8adapters9enumerate9EnumerateINtNtBQ_3map3MapINtNtNtB8_3str4iter5SplitcENCNvMNtCsdyTLQ062UJx_13version_check7versionNtB2a_7Version5parse0EENtB2_12IntoIterator9into_iterB2c_, symObjAddr: 0x3360, symBinAddr: 0x10000C1E0, symSize: 0x30 }
  - { offset: 0x13E57, size: 0x8, addend: 0x0, symName: __RNvXs_NtNtNtCsieiGu2EXtoJ_4core4iter8adapters9enumerateINtB4_9EnumerateINtNtB6_3map3MapINtNtNtBa_3str4iter5SplitcENCNvMNtCsdyTLQ062UJx_13version_check7versionNtB1T_7Version5parse0EENtNtNtB8_6traits8iterator8Iterator4nextB1V_, symObjAddr: 0x3D00, symBinAddr: 0x10000C720, symSize: 0x100 }
  - { offset: 0x14570, size: 0x8, addend: 0x0, symName: __RNCNvXs1_NtNtNtCsHUR1vrdMJt_3std2io5error14repr_bitpackedNtB7_4ReprNtNtNtCsieiGu2EXtoJ_4core3ops4drop4Drop4drop0CsdyTLQ062UJx_13version_check, symObjAddr: 0x1970, symBinAddr: 0x10000ADD0, symSize: 0x30 }
  - { offset: 0x14625, size: 0x8, addend: 0x0, symName: __RNvXs1_NtNtNtCsHUR1vrdMJt_3std2io5error14repr_bitpackedNtB5_4ReprNtNtNtCsieiGu2EXtoJ_4core3ops4drop4Drop4dropCsdyTLQ062UJx_13version_check, symObjAddr: 0x3410, symBinAddr: 0x10000C290, symSize: 0x30 }
  - { offset: 0x1464E, size: 0x8, addend: 0x0, symName: __RINvNtNtNtCsHUR1vrdMJt_3std2io5error14repr_bitpacked11decode_reprINtNtCslJiobkLta79_5alloc5boxed3BoxNtB4_6CustomENCNvXs1_B2_NtB2_4ReprNtNtNtCsieiGu2EXtoJ_4core3ops4drop4Drop4drop0ECsdyTLQ062UJx_13version_check, symObjAddr: 0x12B0, symBinAddr: 0x10000A8B0, symSize: 0x200 }
  - { offset: 0x148C0, size: 0x8, addend: 0x0, symName: __RNCNvMs0_NtNtNtCsHUR1vrdMJt_3std2io5error14repr_bitpackedNtB7_4Repr4data0CsdyTLQ062UJx_13version_check, symObjAddr: 0x1960, symBinAddr: 0x10000ADC0, symSize: 0x10 }
  - { offset: 0x148F8, size: 0x8, addend: 0x0, symName: __RINvNtNtNtCsHUR1vrdMJt_3std2io5error14repr_bitpacked11decode_reprRNtB4_6CustomNCNvMs0_B2_NtB2_4Repr4data0ECsdyTLQ062UJx_13version_check, symObjAddr: 0x14B0, symBinAddr: 0x10000AAB0, symSize: 0x200 }
  - { offset: 0x14B7A, size: 0x8, addend: 0x0, symName: __RNvNtNtNtCsHUR1vrdMJt_3std2io5error14repr_bitpacked14kind_from_primCsdyTLQ062UJx_13version_check, symObjAddr: 0x2B50, symBinAddr: 0x10000BA00, symSize: 0x5B0 }
  - { offset: 0x15636, size: 0x8, addend: 0x0, symName: __RINvNtCsHUR1vrdMJt_3std3env3varReECsdyTLQ062UJx_13version_check, symObjAddr: 0x11F0, symBinAddr: 0x10000A850, symSize: 0x60 }
  - { offset: 0x157BA, size: 0x8, addend: 0x0, symName: __RNvXs1_NtCslJiobkLta79_5alloc7raw_vecINtB5_6RawVecINtNtB7_5boxed3BoxDINtNtNtCsieiGu2EXtoJ_4core3ops8function5FnMutuEp6OutputINtNtB1c_6result6ResultuNtNtNtCsHUR1vrdMJt_3std2io5error5ErrorENtNtB1c_6marker4SyncNtB31_4SendEL_EENtNtB1a_4drop4Drop4dropCsdyTLQ062UJx_13version_check, symObjAddr: 0x33C0, symBinAddr: 0x10000C240, symSize: 0x30 }
  - { offset: 0x157F6, size: 0x8, addend: 0x0, symName: __RNvXs1_NtCslJiobkLta79_5alloc7raw_vecINtB5_6RawVecPaENtNtNtCsieiGu2EXtoJ_4core3ops4drop4Drop4dropCsdyTLQ062UJx_13version_check, symObjAddr: 0x33F0, symBinAddr: 0x10000C270, symSize: 0x20 }
  - { offset: 0x16312, size: 0x8, addend: 0x0, symName: __RNvXNvMsT_NtNtNtCslJiobkLta79_5alloc11collections5btree4nodeINtB8_6HandleINtB8_7NodeRefNtNtB8_6marker5DyingpppENtB1p_2KVE12drop_key_valINtB2_7DropperINtNtCsieiGu2EXtoJ_4core6option6OptionNtNtNtCsHUR1vrdMJt_3std3ffi6os_str8OsStringEENtNtNtB2s_3ops4drop4Drop4dropCsdyTLQ062UJx_13version_check, symObjAddr: 0x3390, symBinAddr: 0x10000C210, symSize: 0x20 }
  - { offset: 0x1638A, size: 0x8, addend: 0x0, symName: __RINvNtNtNtCslJiobkLta79_5alloc11collections5btree3mem7replaceINtNtB4_4node6HandleINtB10_7NodeRefNtNtB10_6marker5DyingNtNtNtCsHUR1vrdMJt_3std3ffi6os_str8OsStringINtNtCsieiGu2EXtoJ_4core6option6OptionB1R_ENtB1y_4LeafENtB1y_4EdgeEIBY_IB1i_B1w_B1R_B2y_NtB1y_14LeafOrInternalENtB1y_2KVENCINvMsm_NtB4_8navigateBX_27deallocating_next_uncheckedNtNtB8_5alloc6GlobalE0ECsdyTLQ062UJx_13version_check, symObjAddr: 0x16B0, symBinAddr: 0x10000ACB0, symSize: 0x110 }
  - { offset: 0x16486, size: 0x8, addend: 0x0, symName: __RNvXNvNtNtNtCslJiobkLta79_5alloc11collections5btree3mem7replaceNtB2_10PanicGuardNtNtNtCsieiGu2EXtoJ_4core3ops4drop4Drop4dropCsdyTLQ062UJx_13version_check, symObjAddr: 0x33B0, symBinAddr: 0x10000C230, symSize: 0x10 }
  - { offset: 0x165C9, size: 0x8, addend: 0x0, symName: __RNvXs6_NtCslJiobkLta79_5alloc5boxedINtB5_3BoxDINtNtNtCsieiGu2EXtoJ_4core3ops8function5FnMutuEp6OutputINtNtBP_6result6ResultuNtNtNtCsHUR1vrdMJt_3std2io5error5ErrorENtNtBP_6marker4SyncNtB2D_4SendEL_ENtNtBN_4drop4Drop4dropCsdyTLQ062UJx_13version_check, symObjAddr: 0x3630, symBinAddr: 0x10000C310, symSize: 0xC0 }
  - { offset: 0x16706, size: 0x8, addend: 0x0, symName: __RNvXs6_NtCslJiobkLta79_5alloc5boxedINtB5_3BoxDNtNtCsieiGu2EXtoJ_4core5error5ErrorNtNtBM_6marker4SyncNtB1j_4SendEL_ENtNtNtBM_3ops4drop4Drop4dropCsdyTLQ062UJx_13version_check, symObjAddr: 0x36F0, symBinAddr: 0x10000C3D0, symSize: 0xC0 }
  - { offset: 0x16843, size: 0x8, addend: 0x0, symName: __RNvXs6_NtCslJiobkLta79_5alloc5boxedINtB5_3BoxNtNtNtCsHUR1vrdMJt_3std2io5error6CustomENtNtNtCsieiGu2EXtoJ_4core3ops4drop4Drop4dropCsdyTLQ062UJx_13version_check, symObjAddr: 0x37B0, symBinAddr: 0x10000C490, symSize: 0xB0 }
  - { offset: 0x1697E, size: 0x8, addend: 0x0, symName: __RNvXs6_NtCslJiobkLta79_5alloc5boxedINtB5_3BoxShENtNtNtCsieiGu2EXtoJ_4core3ops4drop4Drop4dropCsdyTLQ062UJx_13version_check, symObjAddr: 0x3860, symBinAddr: 0x10000C540, symSize: 0xC0 }
  - { offset: 0x16ABB, size: 0x8, addend: 0x0, symName: __RNvXs6_NtCslJiobkLta79_5alloc5boxedINtB5_3BoxSmENtNtNtCsieiGu2EXtoJ_4core3ops4drop4Drop4dropCsdyTLQ062UJx_13version_check, symObjAddr: 0x3920, symBinAddr: 0x10000C600, symSize: 0xC0 }
  - { offset: 0x16C08, size: 0x8, addend: 0x0, symName: __RINvMNtCsieiGu2EXtoJ_4core6optionINtB3_6OptionNtNtCsHUR1vrdMJt_3std7process6OutputE8and_thenNtNtCslJiobkLta79_5alloc6string6StringNCNvCsdyTLQ062UJx_13version_check20get_version_and_dates_0EB28_, symObjAddr: 0x0, symBinAddr: 0x100009D20, symSize: 0xA0 }
  - { offset: 0x16CD5, size: 0x8, addend: 0x0, symName: __RINvMNtCsieiGu2EXtoJ_4core6optionINtB3_6OptionNtNtCslJiobkLta79_5alloc6string6StringE3mapTBv_Bv_ENCNvCsdyTLQ062UJx_13version_check20get_version_and_dates0_0EB1B_, symObjAddr: 0x2D0, symBinAddr: 0x100009DC0, symSize: 0xB0 }
  - { offset: 0x16D42, size: 0x8, addend: 0x0, symName: __RINvMNtCsieiGu2EXtoJ_4core6optionINtB3_6OptionNtNtCslJiobkLta79_5alloc6string6StringE8and_thenNtNtCsdyTLQ062UJx_13version_check7version7VersionNCNvMB1w_B1u_4reads_0EB1y_, symObjAddr: 0x490, symBinAddr: 0x100009E70, symSize: 0x90 }
  - { offset: 0x16DFA, size: 0x8, addend: 0x0, symName: __RINvMNtCsieiGu2EXtoJ_4core6optionINtB3_6OptionReE3mapBI_NCNvCsdyTLQ062UJx_13version_check35version_and_date_from_rustc_versions_0EBW_, symObjAddr: 0x6A0, symBinAddr: 0x100009F00, symSize: 0x60 }
  - { offset: 0x16E65, size: 0x8, addend: 0x0, symName: __RINvMNtCsieiGu2EXtoJ_4core6optionINtB3_6OptionReE3mapNtNtCslJiobkLta79_5alloc6string6StringNCNCNvCsdyTLQ062UJx_13version_check43version_and_date_from_rustc_verbose_version00EB1x_, symObjAddr: 0x700, symBinAddr: 0x100009F60, symSize: 0x90 }
  - { offset: 0x16ED0, size: 0x8, addend: 0x0, symName: __RINvMNtCsieiGu2EXtoJ_4core6optionINtB3_6OptionReE3mapNtNtCslJiobkLta79_5alloc6string6StringNCNvCsdyTLQ062UJx_13version_check35version_and_date_from_rustc_versions0_0EB1v_, symObjAddr: 0x790, symBinAddr: 0x100009FF0, symSize: 0x90 }
  - { offset: 0x16F3B, size: 0x8, addend: 0x0, symName: __RINvMNtCsieiGu2EXtoJ_4core6optionINtB3_6OptionReE3mapNtNtCslJiobkLta79_5alloc6string6StringNCNvCsdyTLQ062UJx_13version_check35version_and_date_from_rustc_versions1_0EB1v_, symObjAddr: 0x820, symBinAddr: 0x10000A080, symSize: 0x90 }
  - { offset: 0x16FA6, size: 0x8, addend: 0x0, symName: __RINvMNtCsieiGu2EXtoJ_4core6optionINtB3_6OptionTIBw_NtNtCslJiobkLta79_5alloc6string6StringEBJ_EE8and_thenBN_NCNvMNtCsdyTLQ062UJx_13version_check7versionNtB1M_7Version4read0EB1O_, symObjAddr: 0x9D0, symBinAddr: 0x10000A110, symSize: 0x90 }
  - { offset: 0x1703E, size: 0x8, addend: 0x0, symName: __RINvMNtCsieiGu2EXtoJ_4core6resultINtB3_6ResultNtNtCslJiobkLta79_5alloc6string6StringNtNtCsHUR1vrdMJt_3std3env8VarErrorE14unwrap_or_elseNCNvCsdyTLQ062UJx_13version_check20get_version_and_date0EB2d_, symObjAddr: 0xB40, symBinAddr: 0x10000A1A0, symSize: 0xB0 }
  - { offset: 0x17217, size: 0x8, addend: 0x0, symName: __RINvMsh_NtNtNtCslJiobkLta79_5alloc11collections5btree4nodeINtB6_7NodeRefNtNtB6_6marker5DyingNtNtNtCsHUR1vrdMJt_3std3ffi6os_str8OsStringINtNtCsieiGu2EXtoJ_4core6option6OptionB1s_ENtB1a_14LeafOrInternalE21deallocate_and_ascendNtNtBc_5alloc6GlobalECsdyTLQ062UJx_13version_check, symObjAddr: 0xBF0, symBinAddr: 0x10000A250, symSize: 0x1A0 }
  - { offset: 0x1746B, size: 0x8, addend: 0x0, symName: __RINvMsj_NtNtNtCslJiobkLta79_5alloc11collections5btree8navigateINtNtB8_4node6HandleINtB11_7NodeRefNtNtB11_6marker5DyingNtNtNtCsHUR1vrdMJt_3std3ffi6os_str8OsStringINtNtCsieiGu2EXtoJ_4core6option6OptionB1S_ENtB1z_4LeafENtB1z_4EdgeE16deallocating_endNtNtBc_5alloc6GlobalECsdyTLQ062UJx_13version_check, symObjAddr: 0xD90, symBinAddr: 0x10000A3F0, symSize: 0xF0 }
  - { offset: 0x176EE, size: 0x8, addend: 0x0, symName: __RINvMsj_NtNtNtCslJiobkLta79_5alloc11collections5btree8navigateINtNtB8_4node6HandleINtB11_7NodeRefNtNtB11_6marker5DyingNtNtNtCsHUR1vrdMJt_3std3ffi6os_str8OsStringINtNtCsieiGu2EXtoJ_4core6option6OptionB1S_ENtB1z_4LeafENtB1z_4EdgeE17deallocating_nextNtNtBc_5alloc6GlobalECsdyTLQ062UJx_13version_check, symObjAddr: 0xE80, symBinAddr: 0x10000A4E0, symSize: 0x370 }
  - { offset: 0x17B85, size: 0x8, addend: 0x0, symName: __RNvMNtCsieiGu2EXtoJ_4core6optionINtB2_6OptionNtNtCslJiobkLta79_5alloc6string6StringE2orCsdyTLQ062UJx_13version_check, symObjAddr: 0x1E30, symBinAddr: 0x10000AE00, symSize: 0xF0 }
  - { offset: 0x17BE0, size: 0x8, addend: 0x0, symName: __RNvMNtCsieiGu2EXtoJ_4core6optionINtB2_6OptionReE9unwrap_orCsdyTLQ062UJx_13version_check, symObjAddr: 0x1F20, symBinAddr: 0x10000AEF0, symSize: 0x70 }
  - { offset: 0x17C39, size: 0x8, addend: 0x0, symName: __RNvMNtCsieiGu2EXtoJ_4core6optionINtB2_6OptionbE9unwrap_orCsdyTLQ062UJx_13version_check, symObjAddr: 0x1F90, symBinAddr: 0x10000AF60, symSize: 0x50 }
  - { offset: 0x17C9F, size: 0x8, addend: 0x0, symName: __RNvMNtCsieiGu2EXtoJ_4core6resultINtB2_6ResultNtNtCsHUR1vrdMJt_3std7process6OutputNtNtNtBL_2io5error5ErrorE2okCsdyTLQ062UJx_13version_check, symObjAddr: 0x1FE0, symBinAddr: 0x10000AFB0, symSize: 0xB0 }
  - { offset: 0x17CF3, size: 0x8, addend: 0x0, symName: __RNvMNtCsieiGu2EXtoJ_4core6resultINtB2_6ResultNtNtCslJiobkLta79_5alloc6string6StringNtBJ_13FromUtf8ErrorE2okCsdyTLQ062UJx_13version_check, symObjAddr: 0x2090, symBinAddr: 0x10000B060, symSize: 0xC0 }
  - { offset: 0x17D47, size: 0x8, addend: 0x0, symName: __RNvMNtCsieiGu2EXtoJ_4core6resultINtB2_6ResulthNtNtNtB4_3num5error15TryFromIntErrorE6expectCsdyTLQ062UJx_13version_check, symObjAddr: 0x2150, symBinAddr: 0x10000B120, symSize: 0x80 }
  - { offset: 0x17E50, size: 0x8, addend: 0x0, symName: __RNvMs2_NtCslJiobkLta79_5alloc7raw_vecNtB5_11RawVecInner16with_capacity_inCsdyTLQ062UJx_13version_check, symObjAddr: 0x22F0, symBinAddr: 0x10000B1A0, symSize: 0x150 }
  - { offset: 0x18070, size: 0x8, addend: 0x0, symName: __RNvMsO_NtNtNtCslJiobkLta79_5alloc11collections5btree4nodeINtB5_6HandleINtB5_7NodeRefNtNtB5_6marker5DyingNtNtNtCsHUR1vrdMJt_3std3ffi6os_str8OsStringINtNtCsieiGu2EXtoJ_4core6option6OptionB1E_ENtB1m_8InternalENtB1m_4EdgeE7descendCsdyTLQ062UJx_13version_check, symObjAddr: 0x2440, symBinAddr: 0x10000B2F0, symSize: 0x80 }
  - { offset: 0x1835F, size: 0x8, addend: 0x0, symName: __RNvMsT_NtNtNtCslJiobkLta79_5alloc11collections5btree4nodeINtB5_6HandleINtB5_7NodeRefNtNtB5_6marker5DyingNtNtNtCsHUR1vrdMJt_3std3ffi6os_str8OsStringINtNtCsieiGu2EXtoJ_4core6option6OptionB1E_ENtB1m_14LeafOrInternalENtB1m_2KVE12drop_key_valCsdyTLQ062UJx_13version_check, symObjAddr: 0x24C0, symBinAddr: 0x10000B370, symSize: 0x140 }
  - { offset: 0x1865B, size: 0x8, addend: 0x0, symName: __RNvMse_NtNtNtCslJiobkLta79_5alloc11collections5btree4nodeINtB5_7NodeRefNtNtB5_6marker5DyingNtNtNtCsHUR1vrdMJt_3std3ffi6os_str8OsStringINtNtCsieiGu2EXtoJ_4core6option6OptionB1r_ENtB19_14LeafOrInternalE6ascendCsdyTLQ062UJx_13version_check, symObjAddr: 0x2600, symBinAddr: 0x10000B4B0, symSize: 0x230 }
  - { offset: 0x189E3, size: 0x8, addend: 0x0, symName: __RNvMsp_NtNtNtCslJiobkLta79_5alloc11collections5btree8navigateINtNtB7_4node6HandleINtB10_7NodeRefNtNtB10_6marker5DyingNtNtNtCsHUR1vrdMJt_3std3ffi6os_str8OsStringINtNtCsieiGu2EXtoJ_4core6option6OptionB1R_ENtB1y_14LeafOrInternalENtB1y_2KVE14next_leaf_edgeCsdyTLQ062UJx_13version_check, symObjAddr: 0x2830, symBinAddr: 0x10000B6E0, symSize: 0x320 }
  - { offset: 0x191F5, size: 0x8, addend: 0x0, symName: __RINvMsb_NtNtNtCslJiobkLta79_5alloc11collections5btree8navigateINtB6_13LazyLeafRangeNtNtNtB8_4node6marker5DyingNtNtNtCsHUR1vrdMJt_3std3ffi6os_str8OsStringINtNtCsieiGu2EXtoJ_4core6option6OptionB1K_EE16deallocating_endNtNtBc_5alloc6GlobalECsdyTLQ062UJx_13version_check, symObjAddr: 0x0, symBinAddr: 0x10000C820, symSize: 0x90 }
  - { offset: 0x1925B, size: 0x8, addend: 0x0, symName: __RNvXNvNtCsHUR1vrdMJt_3std2io17default_write_fmtINtB2_7AdapterNtNtNtNtB6_3sys5stdio4unix6StderrENtNtCsieiGu2EXtoJ_4core3fmt5Write9write_strCsdyTLQ062UJx_13version_check, symObjAddr: 0x2450, symBinAddr: 0x10000E560, symSize: 0xA0 }
  - { offset: 0x1950B, size: 0x8, addend: 0x0, symName: __RINvNtCsHUR1vrdMJt_3std2io17default_write_fmtNtNtNtNtB4_3sys5stdio4unix6StderrECsdyTLQ062UJx_13version_check, symObjAddr: 0x140, symBinAddr: 0x10000C960, symSize: 0x120 }
  - { offset: 0x19637, size: 0x8, addend: 0x0, symName: __RNvNtNtNtCsHUR1vrdMJt_3std3sys2fs4unix23debug_assert_fd_is_openCsdyTLQ062UJx_13version_check, symObjAddr: 0x2300, symBinAddr: 0x10000E410, symSize: 0xB0 }
  - { offset: 0x1AEC0, size: 0x8, addend: 0x0, symName: __RNvXs_NvNtNtCsieiGu2EXtoJ_4core3fmt5Write9write_fmtQINtNvNtCsHUR1vrdMJt_3std2io17default_write_fmt7AdapterNtNtNtNtBV_3sys5stdio4unix6StderrENtB4_12SpecWriteFmt14spec_write_fmtCsdyTLQ062UJx_13version_check, symObjAddr: 0x2EE0, symBinAddr: 0x10000EDE0, symSize: 0x170 }
  - { offset: 0x1AF77, size: 0x8, addend: 0x0, symName: __RNvYINtNvNtCsHUR1vrdMJt_3std2io17default_write_fmt7AdapterNtNtNtNtB9_3sys5stdio4unix6StderrENtNtCsieiGu2EXtoJ_4core3fmt5Write10write_charCsdyTLQ062UJx_13version_check, symObjAddr: 0x37F0, symBinAddr: 0x10000F6A0, symSize: 0x70 }
  - { offset: 0x1AFDF, size: 0x8, addend: 0x0, symName: __RNvYINtNvNtCsHUR1vrdMJt_3std2io17default_write_fmt7AdapterNtNtNtNtB9_3sys5stdio4unix6StderrENtNtCsieiGu2EXtoJ_4core3fmt5Write9write_fmtCsdyTLQ062UJx_13version_check, symObjAddr: 0x3860, symBinAddr: 0x10000F710, symSize: 0x20 }
  - { offset: 0x1B039, size: 0x8, addend: 0x0, symName: __RNvXs0_NtNtNtCsieiGu2EXtoJ_4core4iter8adapters3mapINtB5_3MapINtNtNtBb_3str4iter14SplitInclusivecENtB11_8LinesMapENtNtNtB9_6traits8iterator8Iterator4nextCsdyTLQ062UJx_13version_check, symObjAddr: 0x2560, symBinAddr: 0x10000E670, symSize: 0x90 }
  - { offset: 0x1B0E5, size: 0x8, addend: 0x0, symName: __RNvXs0_NtNtNtCsieiGu2EXtoJ_4core4iter8adapters3mapINtB5_3MapINtNtNtBb_3str4iter5SplitcENCNvMNtCsdyTLQ062UJx_13version_check7versionNtB1s_7Version5parse0ENtNtNtB9_6traits8iterator8Iterator4nextB1u_, symObjAddr: 0x2680, symBinAddr: 0x10000E700, symSize: 0x90 }
  - { offset: 0x1B1F7, size: 0x8, addend: 0x0, symName: __RNvXs1_NtNtNtCsieiGu2EXtoJ_4core4iter8adapters3mapINtB5_3MapINtNtNtBb_3str4iter14SplitInclusivecENtB11_8LinesMapENtNtNtB9_6traits12double_ended19DoubleEndedIterator9next_backCsdyTLQ062UJx_13version_check, symObjAddr: 0x2710, symBinAddr: 0x10000E790, symSize: 0x90 }
  - { offset: 0x1B39B, size: 0x8, addend: 0x0, symName: __RINvYINtNtNtCsieiGu2EXtoJ_4core3str4iter5SplitReENtNtNtNtBa_4iter6traits8iterator8Iterator4findQNCNvCsdyTLQ062UJx_13version_check35version_and_date_from_rustc_version0EB1A_, symObjAddr: 0x5D0, symBinAddr: 0x10000CBF0, symSize: 0x90 }
  - { offset: 0x1B41A, size: 0x8, addend: 0x0, symName: __RINvYINtNtNtCsieiGu2EXtoJ_4core3str4iter5SplitReENtNtNtNtBa_4iter6traits8iterator8Iterator6filterNCNvCsdyTLQ062UJx_13version_check35version_and_date_from_rustc_version0EB1B_, symObjAddr: 0x660, symBinAddr: 0x10000CC80, symSize: 0x30 }
  - { offset: 0x1B47F, size: 0x8, addend: 0x0, symName: __RINvYINtNtNtCsieiGu2EXtoJ_4core3str4iter5SplitReENtNtNtNtBa_4iter6traits8iterator8Iterator8try_foldINtNtNtBa_3num7nonzero7NonZerojENCNvXs_NvBL_10advance_byB3_NtB2c_13SpecAdvanceBy15spec_advance_by0INtNtBa_6option6OptionB1z_EECsdyTLQ062UJx_13version_check, symObjAddr: 0x690, symBinAddr: 0x10000CCB0, symSize: 0x180 }
  - { offset: 0x1B533, size: 0x8, addend: 0x0, symName: __RINvYINtNtNtCsieiGu2EXtoJ_4core3str4iter5SplitReENtNtNtNtBa_4iter6traits8iterator8Iterator8try_folduNCINvNvBL_4find5checkBI_QNCNvCsdyTLQ062UJx_13version_check35version_and_date_from_rustc_version0E0INtNtNtBa_3ops12control_flow11ControlFlowBI_EEB23_, symObjAddr: 0x810, symBinAddr: 0x10000CE30, symSize: 0x1A0 }
  - { offset: 0x1B5E6, size: 0x8, addend: 0x0, symName: __RINvYINtNtNtCsieiGu2EXtoJ_4core3str4iter5SplitcENtNtNtNtBa_4iter6traits8iterator8Iterator3mapINtNtBa_6result6ResulttNtNtNtBa_3num5error13ParseIntErrorENCNvMNtCsdyTLQ062UJx_13version_check7versionNtB2u_7Version5parse0EB2w_, symObjAddr: 0xA20, symBinAddr: 0x10000CFD0, symSize: 0x30 }
  - { offset: 0x1B654, size: 0x8, addend: 0x0, symName: __RINvYINtNtNtCsieiGu2EXtoJ_4core3str4iter5SplitcENtNtNtNtBa_4iter6traits8iterator8Iterator8try_foldINtNtNtBa_3num7nonzero7NonZerojENCNvXs_NvBK_10advance_byB3_NtB2b_13SpecAdvanceBy15spec_advance_by0INtNtBa_6option6OptionB1y_EECsdyTLQ062UJx_13version_check, symObjAddr: 0xBC0, symBinAddr: 0x10000D000, symSize: 0x180 }
  - { offset: 0x1B708, size: 0x8, addend: 0x0, symName: __RINvYINtNtNtCsieiGu2EXtoJ_4core3str4iter6SplitNReENtNtNtNtBa_4iter6traits8iterator8Iterator8try_foldINtNtNtBa_3num7nonzero7NonZerojENCNvXs_NvBM_10advance_byB3_NtB2d_13SpecAdvanceBy15spec_advance_by0INtNtBa_6option6OptionB1A_EECsdyTLQ062UJx_13version_check, symObjAddr: 0xE50, symBinAddr: 0x10000D180, symSize: 0x180 }
  - { offset: 0x1B7C6, size: 0x8, addend: 0x0, symName: __RNvXs_NvNtNtNtNtCsieiGu2EXtoJ_4core4iter6traits8iterator8Iterator10advance_byINtNtNtBe_3str4iter5SplitReENtB4_13SpecAdvanceBy15spec_advance_byCsdyTLQ062UJx_13version_check, symObjAddr: 0x3050, symBinAddr: 0x10000EF50, symSize: 0x90 }
  - { offset: 0x1B874, size: 0x8, addend: 0x0, symName: __RNvXs_NvNtNtNtNtCsieiGu2EXtoJ_4core4iter6traits8iterator8Iterator10advance_byINtNtNtBe_3str4iter5SplitcENtB4_13SpecAdvanceBy15spec_advance_byCsdyTLQ062UJx_13version_check, symObjAddr: 0x30E0, symBinAddr: 0x10000EFE0, symSize: 0x90 }
  - { offset: 0x1B922, size: 0x8, addend: 0x0, symName: __RNvXs_NvNtNtNtNtCsieiGu2EXtoJ_4core4iter6traits8iterator8Iterator10advance_byINtNtNtBe_3str4iter6SplitNReENtB4_13SpecAdvanceBy15spec_advance_byCsdyTLQ062UJx_13version_check, symObjAddr: 0x3170, symBinAddr: 0x10000F070, symSize: 0x90 }
  - { offset: 0x1B9ED, size: 0x8, addend: 0x0, symName: __RNvYINtNtNtCsieiGu2EXtoJ_4core3str4iter5SplitReENtNtNtNtB9_4iter6traits8iterator8Iterator10advance_byCsdyTLQ062UJx_13version_check, symObjAddr: 0x3580, symBinAddr: 0x10000F480, symSize: 0x20 }
  - { offset: 0x1BA33, size: 0x8, addend: 0x0, symName: __RNvYINtNtNtCsieiGu2EXtoJ_4core3str4iter5SplitReENtNtNtNtB9_4iter6traits8iterator8Iterator3nthCsdyTLQ062UJx_13version_check, symObjAddr: 0x35A0, symBinAddr: 0x10000F4A0, symSize: 0x80 }
  - { offset: 0x1BB03, size: 0x8, addend: 0x0, symName: __RNvYINtNtNtCsieiGu2EXtoJ_4core3str4iter5SplitcENtNtNtNtB9_4iter6traits8iterator8Iterator10advance_byCsdyTLQ062UJx_13version_check, symObjAddr: 0x3620, symBinAddr: 0x10000F520, symSize: 0x20 }
  - { offset: 0x1BB49, size: 0x8, addend: 0x0, symName: __RNvYINtNtNtCsieiGu2EXtoJ_4core3str4iter5SplitcENtNtNtNtB9_4iter6traits8iterator8Iterator3nthCsdyTLQ062UJx_13version_check, symObjAddr: 0x3640, symBinAddr: 0x10000F540, symSize: 0x80 }
  - { offset: 0x1BC19, size: 0x8, addend: 0x0, symName: __RNvYINtNtNtCsieiGu2EXtoJ_4core3str4iter6SplitNReENtNtNtNtB9_4iter6traits8iterator8Iterator10advance_byCsdyTLQ062UJx_13version_check, symObjAddr: 0x36C0, symBinAddr: 0x10000F5C0, symSize: 0x20 }
  - { offset: 0x1BC5F, size: 0x8, addend: 0x0, symName: __RNvYINtNtNtCsieiGu2EXtoJ_4core3str4iter6SplitNReENtNtNtNtB9_4iter6traits8iterator8Iterator3nthCsdyTLQ062UJx_13version_check, symObjAddr: 0x36E0, symBinAddr: 0x10000F5E0, symSize: 0x80 }
  - { offset: 0x1BD2F, size: 0x8, addend: 0x0, symName: __RNvYINtNtNtNtCsieiGu2EXtoJ_4core4iter8adapters3map3MapINtNtNtBb_3str4iter5SplitcENCNvMNtCsdyTLQ062UJx_13version_check7versionNtB1m_7Version5parse0ENtNtNtB9_6traits8iterator8Iterator9enumerateB1o_, symObjAddr: 0x37B0, symBinAddr: 0x10000F660, symSize: 0x40 }
  - { offset: 0x1BDA7, size: 0x8, addend: 0x0, symName: __RNvXNtNtNtCsieiGu2EXtoJ_4core4iter6traits7collectNtNtNtB8_3str4iter5LinesNtB2_12IntoIterator9into_iterCsdyTLQ062UJx_13version_check, symObjAddr: 0x23E0, symBinAddr: 0x10000E4F0, symSize: 0x30 }
  - { offset: 0x1BE4F, size: 0x8, addend: 0x0, symName: __RNvNtNtCsieiGu2EXtoJ_4core5slice6memchr6memchrCsdyTLQ062UJx_13version_check, symObjAddr: 0x2220, symBinAddr: 0x10000E330, symSize: 0xE0 }
  - { offset: 0x1C020, size: 0x8, addend: 0x0, symName: __RNvXs5_NtNtCsieiGu2EXtoJ_4core5slice5indexINtNtNtB9_3ops5range9RangeFromjEINtB5_10SliceIndexShE5indexCsdyTLQ062UJx_13version_check, symObjAddr: 0x2AD0, symBinAddr: 0x10000EAA0, symSize: 0x80 }
  - { offset: 0x1C66F, size: 0x8, addend: 0x0, symName: __RNvXs1i_NtNtCsieiGu2EXtoJ_4core3str4iterINtB6_6SplitNReENtNtNtNtBa_4iter6traits8iterator8Iterator4nextCsdyTLQ062UJx_13version_check, symObjAddr: 0x27A0, symBinAddr: 0x10000E820, symSize: 0x20 }
  - { offset: 0x1C70C, size: 0x8, addend: 0x0, symName: __RNvXs3_NtNtCsieiGu2EXtoJ_4core3str4iterNtB5_11CharIndicesNtNtNtNtB9_4iter6traits8iterator8Iterator4nextCsdyTLQ062UJx_13version_check, symObjAddr: 0x27C0, symBinAddr: 0x10000E840, symSize: 0x110 }
  - { offset: 0x1C951, size: 0x8, addend: 0x0, symName: __RNvXs4_NtNtCsieiGu2EXtoJ_4core3str4iterNtB5_11CharIndicesNtNtNtNtB9_4iter6traits12double_ended19DoubleEndedIterator9next_backCsdyTLQ062UJx_13version_check, symObjAddr: 0x2940, symBinAddr: 0x10000E950, symSize: 0x150 }
  - { offset: 0x1CAB1, size: 0x8, addend: 0x0, symName: __RNvXsH_NtNtCsieiGu2EXtoJ_4core3str4iterINtB5_14SplitInclusivecENtNtNtNtB9_4iter6traits8iterator8Iterator4nextCsdyTLQ062UJx_13version_check, symObjAddr: 0x2E60, symBinAddr: 0x10000ED60, symSize: 0x20 }
  - { offset: 0x1CAEE, size: 0x8, addend: 0x0, symName: __RNvXsK_NtNtCsieiGu2EXtoJ_4core3str4iterINtB5_14SplitInclusivecENtNtNtNtB9_4iter6traits12double_ended19DoubleEndedIterator9next_backCsdyTLQ062UJx_13version_check, symObjAddr: 0x2E80, symBinAddr: 0x10000ED80, symSize: 0x20 }
  - { offset: 0x1CB2B, size: 0x8, addend: 0x0, symName: __RNvXsX_NtNtCsieiGu2EXtoJ_4core3str4iterINtB5_5SplitReENtNtNtNtB9_4iter6traits8iterator8Iterator4nextCsdyTLQ062UJx_13version_check, symObjAddr: 0x2EA0, symBinAddr: 0x10000EDA0, symSize: 0x20 }
  - { offset: 0x1CB62, size: 0x8, addend: 0x0, symName: __RNvXsX_NtNtCsieiGu2EXtoJ_4core3str4iterINtB5_5SplitcENtNtNtNtB9_4iter6traits8iterator8Iterator4nextCsdyTLQ062UJx_13version_check, symObjAddr: 0x2EC0, symBinAddr: 0x10000EDC0, symSize: 0x20 }
  - { offset: 0x1CBF6, size: 0x8, addend: 0x0, symName: __RNvXss_NtNtCsieiGu2EXtoJ_4core3str4iterNtB5_5LinesNtNtNtNtB9_4iter6traits8iterator8Iterator4lastCsdyTLQ062UJx_13version_check, symObjAddr: 0x3200, symBinAddr: 0x10000F100, symSize: 0x20 }
  - { offset: 0x1CC43, size: 0x8, addend: 0x0, symName: __RNvXss_NtNtCsieiGu2EXtoJ_4core3str4iterNtB5_5LinesNtNtNtNtB9_4iter6traits8iterator8Iterator4nextCsdyTLQ062UJx_13version_check, symObjAddr: 0x3220, symBinAddr: 0x10000F120, symSize: 0x20 }
  - { offset: 0x1D0B7, size: 0x8, addend: 0x0, symName: __RNvXs8_NtNtCsieiGu2EXtoJ_4core3str6traitsINtNtNtB9_3ops5range7RangeTojEINtNtNtB9_5slice5index10SliceIndexeE3getCsdyTLQ062UJx_13version_check, symObjAddr: 0x2B50, symBinAddr: 0x10000EB20, symSize: 0x110 }
  - { offset: 0x1D21D, size: 0x8, addend: 0x0, symName: __RNvXs9_NtNtCsieiGu2EXtoJ_4core3str6traitsINtNtNtB9_3ops5range9RangeFromjEINtNtNtB9_5slice5index10SliceIndexeE3getCsdyTLQ062UJx_13version_check, symObjAddr: 0x2C60, symBinAddr: 0x10000EC30, symSize: 0x130 }
  - { offset: 0x1D54A, size: 0x8, addend: 0x0, symName: __RNvXNtCsieiGu2EXtoJ_4core7convertReINtB2_5AsRefNtNtNtCsHUR1vrdMJt_3std3ffi6os_str5OsStrE6as_refCsdyTLQ062UJx_13version_check, symObjAddr: 0x23B0, symBinAddr: 0x10000E4C0, symSize: 0x30 }
  - { offset: 0x1D690, size: 0x8, addend: 0x0, symName: __RNvYjNtNtCsieiGu2EXtoJ_4core3cmp3Ord3maxCsdyTLQ062UJx_13version_check, symObjAddr: 0x3880, symBinAddr: 0x10000F730, symSize: 0x60 }
  - { offset: 0x1D6FC, size: 0x8, addend: 0x0, symName: __RNvYjNtNtCsieiGu2EXtoJ_4core3cmp3Ord3minCsdyTLQ062UJx_13version_check, symObjAddr: 0x38E0, symBinAddr: 0x10000F790, symSize: 0x60 }
  - { offset: 0x1D9E3, size: 0x8, addend: 0x0, symName: __RNCINvMsm_NtNtNtCslJiobkLta79_5alloc11collections5btree8navigateINtNtBa_4node6HandleINtB13_7NodeRefNtNtB13_6marker5DyingNtNtNtCsHUR1vrdMJt_3std3ffi6os_str8OsStringINtNtCsieiGu2EXtoJ_4core6option6OptionB1U_ENtB1B_4LeafENtB1B_4EdgeE27deallocating_next_uncheckedNtNtBe_5alloc6GlobalE0CsdyTLQ062UJx_13version_check, symObjAddr: 0x1000, symBinAddr: 0x10000D300, symSize: 0x60 }
  - { offset: 0x1E0A0, size: 0x8, addend: 0x0, symName: __RNvXNtNtNtCslJiobkLta79_5alloc11collections5btree3mapINtB2_8BTreeMapNtNtNtCsHUR1vrdMJt_3std3ffi6os_str8OsStringINtNtCsieiGu2EXtoJ_4core6option6OptionB14_EENtNtNtB1Q_3ops4drop4Drop4dropCsdyTLQ062UJx_13version_check, symObjAddr: 0x2410, symBinAddr: 0x10000E520, symSize: 0x40 }
  - { offset: 0x1E12E, size: 0x8, addend: 0x0, symName: __RNvXNvXsw_NtNtNtCslJiobkLta79_5alloc11collections5btree3mapINtB8_8IntoIterpppENtNtNtCsieiGu2EXtoJ_4core3ops4drop4Drop4dropINtB2_9DropGuardNtNtNtCsHUR1vrdMJt_3std3ffi6os_str8OsStringINtNtB1k_6option6OptionB2c_ENtNtBe_5alloc6GlobalEB1e_4dropCsdyTLQ062UJx_13version_check, symObjAddr: 0x24F0, symBinAddr: 0x10000E600, symSize: 0x70 }
  - { offset: 0x1E1C3, size: 0x8, addend: 0x0, symName: __RNvXsw_NtNtNtCslJiobkLta79_5alloc11collections5btree3mapINtB5_8IntoIterNtNtNtCsHUR1vrdMJt_3std3ffi6os_str8OsStringINtNtCsieiGu2EXtoJ_4core6option6OptionB17_EENtNtNtB1T_3ops4drop4Drop4dropCsdyTLQ062UJx_13version_check, symObjAddr: 0x34E0, symBinAddr: 0x10000F3E0, symSize: 0xA0 }
  - { offset: 0x1E23A, size: 0x8, addend: 0x0, symName: __RNvXsv_NtNtNtCslJiobkLta79_5alloc11collections5btree3mapINtB5_8BTreeMapNtNtNtCsHUR1vrdMJt_3std3ffi6os_str8OsStringINtNtCsieiGu2EXtoJ_4core6option6OptionB17_EENtNtNtNtB1T_4iter6traits7collect12IntoIterator9into_iterCsdyTLQ062UJx_13version_check, symObjAddr: 0x3240, symBinAddr: 0x10000F140, symSize: 0x2A0 }
  - { offset: 0x1E61E, size: 0x8, addend: 0x0, symName: __RINvXs_NvMNtCslJiobkLta79_5alloc5sliceSp9to_vec_inhNtB5_10ConvertVec6to_vecNtNtBa_5alloc6GlobalECsdyTLQ062UJx_13version_check, symObjAddr: 0x300, symBinAddr: 0x10000CA80, symSize: 0x170 }
  - { offset: 0x1E92F, size: 0x8, addend: 0x0, symName: __RINvMsb_NtNtNtCslJiobkLta79_5alloc11collections5btree8navigateINtB6_13LazyLeafRangeNtNtNtB8_4node6marker5DyingNtNtNtCsHUR1vrdMJt_3std3ffi6os_str8OsStringINtNtCsieiGu2EXtoJ_4core6option6OptionB1K_EE16deallocating_endNtNtBc_5alloc6GlobalECsdyTLQ062UJx_13version_check, symObjAddr: 0x0, symBinAddr: 0x10000C820, symSize: 0x90 }
  - { offset: 0x1EA33, size: 0x8, addend: 0x0, symName: __RINvMsb_NtNtNtCslJiobkLta79_5alloc11collections5btree8navigateINtB6_13LazyLeafRangeNtNtNtB8_4node6marker5DyingNtNtNtCsHUR1vrdMJt_3std3ffi6os_str8OsStringINtNtCsieiGu2EXtoJ_4core6option6OptionB1K_EE27deallocating_next_uncheckedNtNtBc_5alloc6GlobalECsdyTLQ062UJx_13version_check, symObjAddr: 0x90, symBinAddr: 0x10000C8B0, symSize: 0xB0 }
  - { offset: 0x1F0E4, size: 0x8, addend: 0x0, symName: __RNvMsb_NtNtNtCslJiobkLta79_5alloc11collections5btree8navigateINtB5_13LazyLeafRangeNtNtNtB7_4node6marker5DyingNtNtNtCsHUR1vrdMJt_3std3ffi6os_str8OsStringINtNtCsieiGu2EXtoJ_4core6option6OptionB1J_EE10take_frontCsdyTLQ062UJx_13version_check, symObjAddr: 0x1240, symBinAddr: 0x10000D360, symSize: 0x2E0 }
  - { offset: 0x1F443, size: 0x8, addend: 0x0, symName: __RNvMsc_NtNtNtCslJiobkLta79_5alloc11collections5btree8navigateINtB5_13LazyLeafRangeNtNtNtB7_4node6marker5DyingNtNtNtCsHUR1vrdMJt_3std3ffi6os_str8OsStringINtNtCsieiGu2EXtoJ_4core6option6OptionB1J_EE10init_frontCsdyTLQ062UJx_13version_check, symObjAddr: 0x1520, symBinAddr: 0x10000D640, symSize: 0x280 }
  - { offset: 0x1F5FE, size: 0x8, addend: 0x0, symName: __RNvMsf_NtNtCsieiGu2EXtoJ_4core3str4iterINtB5_13SplitInternalReE4nextCsdyTLQ062UJx_13version_check, symObjAddr: 0x17A0, symBinAddr: 0x10000D8C0, symSize: 0x170 }
  - { offset: 0x1F742, size: 0x8, addend: 0x0, symName: __RNvMsf_NtNtCsieiGu2EXtoJ_4core3str4iterINtB5_13SplitInternalReE7get_endCsdyTLQ062UJx_13version_check, symObjAddr: 0x1910, symBinAddr: 0x10000DA30, symSize: 0x110 }
  - { offset: 0x1F855, size: 0x8, addend: 0x0, symName: __RNvMsf_NtNtCsieiGu2EXtoJ_4core3str4iterINtB5_13SplitInternalcE14next_inclusiveCsdyTLQ062UJx_13version_check, symObjAddr: 0x1A20, symBinAddr: 0x10000DB40, symSize: 0x160 }
  - { offset: 0x1F988, size: 0x8, addend: 0x0, symName: __RNvMsf_NtNtCsieiGu2EXtoJ_4core3str4iterINtB5_13SplitInternalcE19next_back_inclusiveCsdyTLQ062UJx_13version_check, symObjAddr: 0x1B80, symBinAddr: 0x10000DCA0, symSize: 0x2D0 }
  - { offset: 0x1FBC8, size: 0x8, addend: 0x0, symName: __RNvMsf_NtNtCsieiGu2EXtoJ_4core3str4iterINtB5_13SplitInternalcE4nextCsdyTLQ062UJx_13version_check, symObjAddr: 0x1E50, symBinAddr: 0x10000DF70, symSize: 0x180 }
  - { offset: 0x1FD0C, size: 0x8, addend: 0x0, symName: __RNvMsf_NtNtCsieiGu2EXtoJ_4core3str4iterINtB5_13SplitInternalcE7get_endCsdyTLQ062UJx_13version_check, symObjAddr: 0x1FD0, symBinAddr: 0x10000E0F0, symSize: 0x110 }
  - { offset: 0x1FE1F, size: 0x8, addend: 0x0, symName: __RNvMsl_NtNtCsieiGu2EXtoJ_4core3str4iterINtB5_14SplitNInternalReE4nextCsdyTLQ062UJx_13version_check, symObjAddr: 0x20E0, symBinAddr: 0x10000E200, symSize: 0xA0 }
  - { offset: 0x1FE58, size: 0x8, addend: 0x0, symName: __RNvMsx_NtNtNtCslJiobkLta79_5alloc11collections5btree3mapINtB5_8IntoIterNtNtNtCsHUR1vrdMJt_3std3ffi6os_str8OsStringINtNtCsieiGu2EXtoJ_4core6option6OptionB17_EE10dying_nextCsdyTLQ062UJx_13version_check, symObjAddr: 0x2180, symBinAddr: 0x10000E2A0, symSize: 0x90 }
  - { offset: 0x204D2, size: 0x8, addend: 0x0, symName: ___llvm_profile_get_magic, symObjAddr: 0x20, symBinAddr: 0x10000F7F0, symSize: 0x10 }
  - { offset: 0x204F3, size: 0x8, addend: 0x0, symName: ___llvm_profile_get_num_padding_bytes, symObjAddr: 0x40, symBinAddr: 0x10000F800, symSize: 0x10 }
  - { offset: 0x20524, size: 0x8, addend: 0x0, symName: ___llvm_profile_get_version, symObjAddr: 0x50, symBinAddr: 0x10000F810, symSize: 0x10 }
  - { offset: 0x20599, size: 0x8, addend: 0x0, symName: ___llvm_profile_is_continuous_mode_enabled, symObjAddr: 0x0, symBinAddr: 0x10000F820, symSize: 0x20 }
  - { offset: 0x205B6, size: 0x8, addend: 0x0, symName: _ContinuouslySyncProfile, symObjAddr: 0x40E0, symBinAddr: 0x10006D8D0, symSize: 0x0 }
  - { offset: 0x205D8, size: 0x8, addend: 0x0, symName: _PageSize, symObjAddr: 0x40E4, symBinAddr: 0x10006D8D4, symSize: 0x0 }
  - { offset: 0x20606, size: 0x8, addend: 0x0, symName: ___llvm_profile_is_continuous_mode_enabled, symObjAddr: 0x0, symBinAddr: 0x10000F820, symSize: 0x20 }
  - { offset: 0x20627, size: 0x8, addend: 0x0, symName: ___llvm_profile_enable_continuous_mode, symObjAddr: 0x20, symBinAddr: 0x10000F840, symSize: 0x10 }
  - { offset: 0x20644, size: 0x8, addend: 0x0, symName: ___llvm_profile_disable_continuous_mode, symObjAddr: 0x30, symBinAddr: 0x10000F850, symSize: 0x10 }
  - { offset: 0x20661, size: 0x8, addend: 0x0, symName: ___llvm_profile_set_page_size, symObjAddr: 0x40, symBinAddr: 0x10000F860, symSize: 0x10 }
  - { offset: 0x2068C, size: 0x8, addend: 0x0, symName: ___llvm_profile_get_size_for_buffer, symObjAddr: 0x50, symBinAddr: 0x10000F870, symSize: 0xD0 }
  - { offset: 0x20ADA, size: 0x8, addend: 0x0, symName: ___llvm_profile_get_size_for_buffer_internal, symObjAddr: 0x120, symBinAddr: 0x10000F940, symSize: 0x210 }
  - { offset: 0x20E7E, size: 0x8, addend: 0x0, symName: ___llvm_profile_get_num_data, symObjAddr: 0x330, symBinAddr: 0x10000FB50, symSize: 0x10 }
  - { offset: 0x20EB7, size: 0x8, addend: 0x0, symName: ___llvm_profile_get_data_size, symObjAddr: 0x340, symBinAddr: 0x10000FB60, symSize: 0x10 }
  - { offset: 0x20EE3, size: 0x8, addend: 0x0, symName: ___llvm_profile_get_data_size, symObjAddr: 0x340, symBinAddr: 0x10000FB60, symSize: 0x10 }
  - { offset: 0x20F19, size: 0x8, addend: 0x0, symName: ___llvm_profile_get_num_vtable, symObjAddr: 0x350, symBinAddr: 0x10000FB70, symSize: 0x20 }
  - { offset: 0x20F6F, size: 0x8, addend: 0x0, symName: ___llvm_profile_get_vtable_section_size, symObjAddr: 0x370, symBinAddr: 0x10000FB90, symSize: 0x10 }
  - { offset: 0x20F96, size: 0x8, addend: 0x0, symName: ___llvm_profile_counter_entry_size, symObjAddr: 0x380, symBinAddr: 0x10000FBA0, symSize: 0x20 }
  - { offset: 0x20FAE, size: 0x8, addend: 0x0, symName: ___llvm_profile_get_num_counters, symObjAddr: 0x3A0, symBinAddr: 0x10000FBC0, symSize: 0x50 }
  - { offset: 0x21003, size: 0x8, addend: 0x0, symName: ___llvm_profile_get_counters_size, symObjAddr: 0x3F0, symBinAddr: 0x10000FC10, symSize: 0x60 }
  - { offset: 0x21097, size: 0x8, addend: 0x0, symName: ___llvm_profile_get_num_bitmap_bytes, symObjAddr: 0x450, symBinAddr: 0x10000FC70, symSize: 0x10 }
  - { offset: 0x210BE, size: 0x8, addend: 0x0, symName: ___llvm_profile_get_name_size, symObjAddr: 0x460, symBinAddr: 0x10000FC80, symSize: 0x10 }
  - { offset: 0x210E5, size: 0x8, addend: 0x0, symName: ___llvm_profile_get_padding_sizes_for_counters, symObjAddr: 0x470, symBinAddr: 0x10000FC90, symSize: 0x1B0 }
  - { offset: 0x21204, size: 0x8, addend: 0x0, symName: _initBufferWriter, symObjAddr: 0x620, symBinAddr: 0x10000FE40, symSize: 0x10 }
  - { offset: 0x2136E, size: 0x8, addend: 0x0, symName: _lprofCurFilename, symObjAddr: 0xA6F8, symBinAddr: 0x10006D8D8, symSize: 0x0 }
  - { offset: 0x21497, size: 0x8, addend: 0x0, symName: _ProfileFile, symObjAddr: 0xA7C8, symBinAddr: 0x10006D9A8, symSize: 0x0 }
  - { offset: 0x216C6, size: 0x8, addend: 0x0, symName: _ProfileMergeRequested, symObjAddr: 0xA7D0, symBinAddr: 0x10006D9B0, symSize: 0x0 }
  - { offset: 0x2186B, size: 0x8, addend: 0x0, symName: _getCurFilenameLength, symObjAddr: 0x180, symBinAddr: 0x10000FE50, symSize: 0xE0 }
  - { offset: 0x218F6, size: 0x8, addend: 0x0, symName: _getCurFilename, symObjAddr: 0x260, symBinAddr: 0x10000FF30, symSize: 0x380 }
  - { offset: 0x21B86, size: 0x8, addend: 0x0, symName: _parseAndSetFilename, symObjAddr: 0x6B0, symBinAddr: 0x1000102B0, symSize: 0x590 }
  - { offset: 0x21DA4, size: 0x8, addend: 0x0, symName: ___llvm_profile_initialize, symObjAddr: 0xC40, symBinAddr: 0x100010840, symSize: 0x90 }
  - { offset: 0x21E20, size: 0x8, addend: 0x0, symName: ___llvm_profile_write_file, symObjAddr: 0xD30, symBinAddr: 0x1000108D0, symSize: 0x160 }
  - { offset: 0x21FF3, size: 0x8, addend: 0x0, symName: _writeFile, symObjAddr: 0xE90, symBinAddr: 0x100010A30, symSize: 0x2B0 }
  - { offset: 0x2219C, size: 0x8, addend: 0x0, symName: _writeFileWithoutReturn, symObjAddr: 0x1190, symBinAddr: 0x100010CE0, symSize: 0x10 }
  - { offset: 0x221D3, size: 0x8, addend: 0x0, symName: _getProfileFileSizeForMerging, symObjAddr: 0x13C0, symBinAddr: 0x100010CF0, symSize: 0xC0 }
  - { offset: 0x22218, size: 0x8, addend: 0x0, symName: _mmapForContinuousMode, symObjAddr: 0x1480, symBinAddr: 0x100010DB0, symSize: 0x2D0 }
  - { offset: 0x223D7, size: 0x8, addend: 0x0, symName: _fileWriter, symObjAddr: 0x1750, symBinAddr: 0x100011080, symSize: 0x150 }
  - { offset: 0x224A7, size: 0x8, addend: 0x0, symName: _binaryIdsStringWriter, symObjAddr: 0x18A0, symBinAddr: 0x1000111D0, symSize: 0xA0 }
  - { offset: 0x22548, size: 0x8, addend: 0x0, symName: _truncateCurrentFile, symObjAddr: 0x1940, symBinAddr: 0x100011270, symSize: 0xB0 }
  - { offset: 0x225EE, size: 0x8, addend: 0x0, symName: _initializeProfileForContinuousMode, symObjAddr: 0x19F0, symBinAddr: 0x100011320, symSize: 0x2C0 }
  - { offset: 0x227DD, size: 0x8, addend: 0x0, symName: _createProfileDir, symObjAddr: 0x1CB0, symBinAddr: 0x1000115E0, symSize: 0x7F }
  - { offset: 0x2294E, size: 0x8, addend: 0x0, symName: _lprofProfileDumped, symObjAddr: 0x0, symBinAddr: 0x100011660, symSize: 0x10 }
  - { offset: 0x2296B, size: 0x8, addend: 0x0, symName: _ProfileDumped, symObjAddr: 0x4E0, symBinAddr: 0x10006D9B4, symSize: 0x0 }
  - { offset: 0x2297B, size: 0x8, addend: 0x0, symName: _lprofProfileDumped, symObjAddr: 0x0, symBinAddr: 0x100011660, symSize: 0x10 }
  - { offset: 0x229C3, size: 0x8, addend: 0x0, symName: _lprofGetLoadModuleSignature, symObjAddr: 0x0, symBinAddr: 0x100011670, symSize: 0xE0 }
  - { offset: 0x229F0, size: 0x8, addend: 0x0, symName: _VPMergeHook, symObjAddr: 0x2AA0, symBinAddr: 0x10006FBA0, symSize: 0x0 }
  - { offset: 0x22C58, size: 0x8, addend: 0x0, symName: _lprofGetLoadModuleSignature, symObjAddr: 0x0, symBinAddr: 0x100011670, symSize: 0xE0 }
  - { offset: 0x22CCC, size: 0x8, addend: 0x0, symName: ___llvm_profile_check_compatibility, symObjAddr: 0xE0, symBinAddr: 0x100011750, symSize: 0x190 }
  - { offset: 0x22DAC, size: 0x8, addend: 0x0, symName: ___llvm_profile_merge_from_buffer, symObjAddr: 0x270, symBinAddr: 0x1000118E0, symSize: 0x4D8 }
  - { offset: 0x2300C, size: 0x8, addend: 0x0, symName: _lprofMergeValueProfData, symObjAddr: 0x0, symBinAddr: 0x100011DC0, symSize: 0xF1 }
  - { offset: 0x2301D, size: 0x8, addend: 0x0, symName: _lprofMergeValueProfData, symObjAddr: 0x0, symBinAddr: 0x100011DC0, symSize: 0xF1 }
  - { offset: 0x232E8, size: 0x8, addend: 0x0, symName: ___llvm_profile_begin_data, symObjAddr: 0x0, symBinAddr: 0x100011EC0, symSize: 0x10 }
  - { offset: 0x23307, size: 0x8, addend: 0x0, symName: _CurrentVNode, symObjAddr: 0xE8, symBinAddr: 0x10006CDB0, symSize: 0x0 }
  - { offset: 0x23383, size: 0x8, addend: 0x0, symName: _EndVNode, symObjAddr: 0xF0, symBinAddr: 0x10006CDB8, symSize: 0x0 }
  - { offset: 0x2338C, size: 0x8, addend: 0x0, symName: ___llvm_profile_begin_data, symObjAddr: 0x0, symBinAddr: 0x100011EC0, symSize: 0x10 }
  - { offset: 0x233AD, size: 0x8, addend: 0x0, symName: ___llvm_profile_end_data, symObjAddr: 0x10, symBinAddr: 0x100011ED0, symSize: 0x10 }
  - { offset: 0x233CE, size: 0x8, addend: 0x0, symName: ___llvm_profile_begin_names, symObjAddr: 0x20, symBinAddr: 0x100011EE0, symSize: 0x10 }
  - { offset: 0x233EF, size: 0x8, addend: 0x0, symName: ___llvm_profile_end_names, symObjAddr: 0x30, symBinAddr: 0x100011EF0, symSize: 0x10 }
  - { offset: 0x23410, size: 0x8, addend: 0x0, symName: ___llvm_profile_begin_counters, symObjAddr: 0x40, symBinAddr: 0x100011F00, symSize: 0x10 }
  - { offset: 0x23431, size: 0x8, addend: 0x0, symName: ___llvm_profile_end_counters, symObjAddr: 0x50, symBinAddr: 0x100011F10, symSize: 0x10 }
  - { offset: 0x23452, size: 0x8, addend: 0x0, symName: ___llvm_profile_begin_bitmap, symObjAddr: 0x60, symBinAddr: 0x100011F20, symSize: 0x10 }
  - { offset: 0x23473, size: 0x8, addend: 0x0, symName: ___llvm_profile_end_bitmap, symObjAddr: 0x70, symBinAddr: 0x100011F30, symSize: 0x10 }
  - { offset: 0x23494, size: 0x8, addend: 0x0, symName: ___llvm_profile_begin_vtables, symObjAddr: 0x80, symBinAddr: 0x100011F40, symSize: 0x10 }
  - { offset: 0x234B5, size: 0x8, addend: 0x0, symName: ___llvm_profile_end_vtables, symObjAddr: 0x90, symBinAddr: 0x100011F50, symSize: 0x10 }
  - { offset: 0x234D6, size: 0x8, addend: 0x0, symName: ___llvm_profile_begin_vtabnames, symObjAddr: 0xA0, symBinAddr: 0x100011F60, symSize: 0x10 }
  - { offset: 0x234F7, size: 0x8, addend: 0x0, symName: ___llvm_profile_end_vtabnames, symObjAddr: 0xB0, symBinAddr: 0x100011F70, symSize: 0x10 }
  - { offset: 0x23518, size: 0x8, addend: 0x0, symName: ___llvm_profile_begin_vnodes, symObjAddr: 0xC0, symBinAddr: 0x100011F80, symSize: 0x10 }
  - { offset: 0x23539, size: 0x8, addend: 0x0, symName: ___llvm_profile_end_vnodes, symObjAddr: 0xD0, symBinAddr: 0x100011F90, symSize: 0x10 }
  - { offset: 0x2355A, size: 0x8, addend: 0x0, symName: ___llvm_write_binary_ids, symObjAddr: 0xE0, symBinAddr: 0x100011FA0, symSize: 0x3 }
  - { offset: 0x237DE, size: 0x8, addend: 0x0, symName: __GLOBAL__sub_I_InstrProfilingRuntime.cpp, symObjAddr: 0x0, symBinAddr: 0x100011FB0, symSize: 0x12 }
  - { offset: 0x23801, size: 0x8, addend: 0x0, symName: ___llvm_profile_runtime, symObjAddr: 0x580, symBinAddr: 0x10006FBA8, symSize: 0x0 }
  - { offset: 0x23832, size: 0x8, addend: 0x0, symName: __GLOBAL__sub_I_InstrProfilingRuntime.cpp, symObjAddr: 0x0, symBinAddr: 0x100011FB0, symSize: 0x12 }
  - { offset: 0x238AE, size: 0x8, addend: 0x0, symName: ___llvm_profile_recursive_mkdir, symObjAddr: 0x0, symBinAddr: 0x100011FD0, symSize: 0x40 }
  - { offset: 0x238CD, size: 0x8, addend: 0x0, symName: _lprofDirMode, symObjAddr: 0x6F8, symBinAddr: 0x10006CDC0, symSize: 0x0 }
  - { offset: 0x23938, size: 0x8, addend: 0x0, symName: ___llvm_profile_recursive_mkdir, symObjAddr: 0x0, symBinAddr: 0x100011FD0, symSize: 0x40 }
  - { offset: 0x239B7, size: 0x8, addend: 0x0, symName: _lprofGetHostName, symObjAddr: 0x60, symBinAddr: 0x100012010, symSize: 0x70 }
  - { offset: 0x23AEC, size: 0x8, addend: 0x0, symName: _lprofLockFileHandle, symObjAddr: 0x1B0, symBinAddr: 0x100012080, symSize: 0x70 }
  - { offset: 0x23B7A, size: 0x8, addend: 0x0, symName: _lprofUnlockFileHandle, symObjAddr: 0x220, symBinAddr: 0x1000120F0, symSize: 0x70 }
  - { offset: 0x23BE2, size: 0x8, addend: 0x0, symName: _lprofOpenFileEx, symObjAddr: 0x290, symBinAddr: 0x100012160, symSize: 0xB0 }
  - { offset: 0x23C74, size: 0x8, addend: 0x0, symName: _lprofGetFileContentBuffer, symObjAddr: 0x340, symBinAddr: 0x100012210, symSize: 0x1B0 }
  - { offset: 0x23D03, size: 0x8, addend: 0x0, symName: _lprofReleaseBuffer, symObjAddr: 0x4F0, symBinAddr: 0x1000123C0, symSize: 0x70 }
  - { offset: 0x23D45, size: 0x8, addend: 0x0, symName: _lprofFindFirstDirSeparator, symObjAddr: 0x660, symBinAddr: 0x100012430, symSize: 0x10 }
  - { offset: 0x23D85, size: 0x8, addend: 0x0, symName: _lprofSuspendSigKill, symObjAddr: 0x680, symBinAddr: 0x100012440, symSize: 0x10 }
  - { offset: 0x23DA8, size: 0x8, addend: 0x0, symName: _lprofRestoreSigKill, symObjAddr: 0x690, symBinAddr: 0x100012450, symSize: 0x10 }
  - { offset: 0x23DC7, size: 0x8, addend: 0x0, symName: _lprofAtExit, symObjAddr: 0x6F0, symBinAddr: 0x100012460, symSize: 0x5 }
  - { offset: 0x240D9, size: 0x8, addend: 0x0, symName: _getValueProfRecordHeaderSize, symObjAddr: 0x0, symBinAddr: 0x100012470, symSize: 0x10 }
  - { offset: 0x240F8, size: 0x8, addend: 0x0, symName: _VPMaxNumValsPerSite, symObjAddr: 0x1468, symBinAddr: 0x10006CDC8, symSize: 0x0 }
  - { offset: 0x2418D, size: 0x8, addend: 0x0, symName: _hasNonDefaultValsPerSite, symObjAddr: 0xEE78, symBinAddr: 0x10006D9B8, symSize: 0x0 }
  - { offset: 0x241B4, size: 0x8, addend: 0x0, symName: _OutOfNodesWarnings, symObjAddr: 0xEE80, symBinAddr: 0x10006D9C0, symSize: 0x0 }
  - { offset: 0x241C9, size: 0x8, addend: 0x0, symName: _hasStaticCounters, symObjAddr: 0xEE7C, symBinAddr: 0x10006D9BC, symSize: 0x0 }
  - { offset: 0x241E6, size: 0x8, addend: 0x0, symName: _TheVPDataReader, symObjAddr: 0x1470, symBinAddr: 0x10006CDD0, symSize: 0x0 }
  - { offset: 0x24486, size: 0x8, addend: 0x0, symName: _RTRecord, symObjAddr: 0xEE88, symBinAddr: 0x10006D9C8, symSize: 0x0 }
  - { offset: 0x2467A, size: 0x8, addend: 0x0, symName: _getValueProfRecordHeaderSize, symObjAddr: 0x0, symBinAddr: 0x100012470, symSize: 0x10 }
  - { offset: 0x246CE, size: 0x8, addend: 0x0, symName: _getValueProfRecordValueData, symObjAddr: 0x20, symBinAddr: 0x100012480, symSize: 0x10 }
  - { offset: 0x2477A, size: 0x8, addend: 0x0, symName: _getValueProfRecordNext, symObjAddr: 0x130, symBinAddr: 0x100012490, symSize: 0x100 }
  - { offset: 0x24782, size: 0x8, addend: 0x0, symName: _getFirstValueProfRecord, symObjAddr: 0x230, symBinAddr: 0x100012590, symSize: 0x10 }
  - { offset: 0x24808, size: 0x8, addend: 0x0, symName: _getFirstValueProfRecord, symObjAddr: 0x230, symBinAddr: 0x100012590, symSize: 0x10 }
  - { offset: 0x248E8, size: 0x8, addend: 0x0, symName: _lprofSetupValueProfiler, symObjAddr: 0x8C0, symBinAddr: 0x1000125A0, symSize: 0x50 }
  - { offset: 0x249FA, size: 0x8, addend: 0x0, symName: ___llvm_profile_instrument_target_value, symObjAddr: 0xB90, symBinAddr: 0x1000125F0, symSize: 0x240 }
  - { offset: 0x24B15, size: 0x8, addend: 0x0, symName: _lprofGetVPDataReader, symObjAddr: 0xE20, symBinAddr: 0x100012830, symSize: 0x10 }
  - { offset: 0x24B38, size: 0x8, addend: 0x0, symName: _initializeValueProfRuntimeRecord, symObjAddr: 0xE30, symBinAddr: 0x100012840, symSize: 0x390 }
  - { offset: 0x24C5D, size: 0x8, addend: 0x0, symName: _getNumValueDataForSiteWrapper, symObjAddr: 0x11C0, symBinAddr: 0x100012BD0, symSize: 0x20 }
  - { offset: 0x24CA1, size: 0x8, addend: 0x0, symName: _getNumValueDataForSiteWrapper, symObjAddr: 0x11C0, symBinAddr: 0x100012BD0, symSize: 0x20 }
  - { offset: 0x24CC7, size: 0x8, addend: 0x0, symName: _getValueProfDataSizeWrapper, symObjAddr: 0x11E0, symBinAddr: 0x100012BF0, symSize: 0xB0 }
  - { offset: 0x24CED, size: 0x8, addend: 0x0, symName: _getValueProfDataSizeWrapper, symObjAddr: 0x11E0, symBinAddr: 0x100012BF0, symSize: 0xB0 }
  - { offset: 0x24D1E, size: 0x8, addend: 0x0, symName: _getValueProfDataSizeWrapper, symObjAddr: 0x11E0, symBinAddr: 0x100012BF0, symSize: 0xB0 }
  - { offset: 0x24D7B, size: 0x8, addend: 0x0, symName: _getNextNValueData, symObjAddr: 0x1290, symBinAddr: 0x100012CA0, symSize: 0xC0 }
  - { offset: 0x24E15, size: 0x8, addend: 0x0, symName: _getNumValueSitesRT, symObjAddr: 0x1350, symBinAddr: 0x100012D60, symSize: 0x10 }
  - { offset: 0x24E56, size: 0x8, addend: 0x0, symName: _getNumValueDataRT, symObjAddr: 0x1360, symBinAddr: 0x100012D70, symSize: 0x101 }
  - { offset: 0x24F0E, size: 0x8, addend: 0x0, symName: ___llvm_profile_raw_version, symObjAddr: 0x0, symBinAddr: 0x10006CE00, symSize: 0x0 }
  - { offset: 0x24F50, size: 0x8, addend: 0x0, symName: _lprofBufferWriter, symObjAddr: 0x0, symBinAddr: 0x100012E80, symSize: 0x60 }
  - { offset: 0x24F6F, size: 0x8, addend: 0x0, symName: _FreeHook, symObjAddr: 0x55B0, symBinAddr: 0x10006FBB0, symSize: 0x0 }
  - { offset: 0x24F95, size: 0x8, addend: 0x0, symName: _DynamicBufferIOBuffer, symObjAddr: 0x55B8, symBinAddr: 0x10006FBB8, symSize: 0x0 }
  - { offset: 0x24FC3, size: 0x8, addend: 0x0, symName: _VPBufferSize, symObjAddr: 0x55C0, symBinAddr: 0x10006FBC0, symSize: 0x0 }
  - { offset: 0x24FEA, size: 0x8, addend: 0x0, symName: _TheBufferIO, symObjAddr: 0x75D0, symBinAddr: 0x10006F9F0, symSize: 0x0 }
  - { offset: 0x25134, size: 0x8, addend: 0x0, symName: _BufferIOBuffer, symObjAddr: 0x55D0, symBinAddr: 0x10006D9F0, symSize: 0x0 }
  - { offset: 0x2515E, size: 0x8, addend: 0x0, symName: _VPDataArray, symObjAddr: 0x75F0, symBinAddr: 0x10006FA10, symSize: 0x0 }
  - { offset: 0x251D8, size: 0x8, addend: 0x0, symName: _lprofBufferWriter, symObjAddr: 0x0, symBinAddr: 0x100012E80, symSize: 0x60 }
  - { offset: 0x252F1, size: 0x8, addend: 0x0, symName: _lprofBufferIOWrite, symObjAddr: 0x100, symBinAddr: 0x100012EE0, symSize: 0x110 }
  - { offset: 0x2540A, size: 0x8, addend: 0x0, symName: _lprofWriteData, symObjAddr: 0x2A0, symBinAddr: 0x100012FF0, symSize: 0x120 }
  - { offset: 0x25849, size: 0x8, addend: 0x0, symName: _lprofWriteDataImpl, symObjAddr: 0x3C0, symBinAddr: 0x100013110, symSize: 0x6E0 }
  - { offset: 0x25BA4, size: 0x8, addend: 0x0, symName: _writeOneValueProfData, symObjAddr: 0xB40, symBinAddr: 0x1000137F0, symSize: 0x438 }
  - { offset: 0x25E60, size: 0x8, addend: 0x0, symName: __RNvCskdKJRKLKjqM_7___rustc10rust_panic, symObjAddr: 0x0, symBinAddr: 0x100055AD0, symSize: 0x70 }
  - { offset: 0x261C2, size: 0x8, addend: 0x0, symName: '__ZN42_$LT$$RF$T$u20$as$u20$core..fmt..Debug$GT$3fmt17h4fdfc8dc92b8280eE', symObjAddr: 0x27870, symBinAddr: 0x100027050, symSize: 0x20 }
  - { offset: 0x261F3, size: 0x8, addend: 0x0, symName: '__ZN42_$LT$$RF$T$u20$as$u20$core..fmt..Debug$GT$3fmt17h611062ea6589b381E', symObjAddr: 0x27920, symBinAddr: 0x100027070, symSize: 0x30 }
  - { offset: 0x26239, size: 0x8, addend: 0x0, symName: '__ZN42_$LT$$RF$T$u20$as$u20$core..fmt..Debug$GT$3fmt17h67462dcd352e9f70E', symObjAddr: 0x27A20, symBinAddr: 0x1000270A0, symSize: 0x30 }
  - { offset: 0x2628D, size: 0x8, addend: 0x0, symName: '__ZN42_$LT$$RF$T$u20$as$u20$core..fmt..Debug$GT$3fmt17h7225122a94cfb215E', symObjAddr: 0x27AB0, symBinAddr: 0x1000270D0, symSize: 0x80 }
  - { offset: 0x26328, size: 0x8, addend: 0x0, symName: '__ZN42_$LT$$RF$T$u20$as$u20$core..fmt..Debug$GT$3fmt17h94e75b9b1a04870cE', symObjAddr: 0x27C70, symBinAddr: 0x100027150, symSize: 0xA0 }
  - { offset: 0x263B7, size: 0x8, addend: 0x0, symName: '__ZN42_$LT$$RF$T$u20$as$u20$core..fmt..Debug$GT$3fmt17ha3f9e4fd80ade547E', symObjAddr: 0x27D30, symBinAddr: 0x1000271F0, symSize: 0x20 }
  - { offset: 0x263CB, size: 0x8, addend: 0x0, symName: '__ZN42_$LT$$RF$T$u20$as$u20$core..fmt..Debug$GT$3fmt17hd6b383e11abcf534E', symObjAddr: 0x27FB0, symBinAddr: 0x100027210, symSize: 0x20 }
  - { offset: 0x263FC, size: 0x8, addend: 0x0, symName: '__ZN42_$LT$$RF$T$u20$as$u20$core..fmt..Debug$GT$3fmt17hedcae28885211270E', symObjAddr: 0x28060, symBinAddr: 0x100027230, symSize: 0x80 }
  - { offset: 0x2652E, size: 0x8, addend: 0x0, symName: '__ZN44_$LT$$RF$T$u20$as$u20$core..fmt..Display$GT$3fmt17h2befab159451fc05E', symObjAddr: 0x28130, symBinAddr: 0x1000272B0, symSize: 0x20 }
  - { offset: 0x26549, size: 0x8, addend: 0x0, symName: '__ZN44_$LT$$RF$T$u20$as$u20$core..fmt..Display$GT$3fmt17had011a6e3beb8b51E', symObjAddr: 0x28150, symBinAddr: 0x1000272D0, symSize: 0x90 }
  - { offset: 0x26607, size: 0x8, addend: 0x0, symName: '__ZN4core3fmt3num50_$LT$impl$u20$core..fmt..Debug$u20$for$u20$i32$GT$3fmt17h0317b62489790191E', symObjAddr: 0x284D0, symBinAddr: 0x100027360, symSize: 0x30 }
  - { offset: 0x26636, size: 0x8, addend: 0x0, symName: '__ZN4core3fmt3num52_$LT$impl$u20$core..fmt..Debug$u20$for$u20$usize$GT$3fmt17h4806199c82f902ceE', symObjAddr: 0x28590, symBinAddr: 0x100027390, symSize: 0x30 }
  - { offset: 0x26687, size: 0x8, addend: 0x0, symName: __ZN4core3fmt5Write10write_char17h2203fddc9d642afeE, symObjAddr: 0x285C0, symBinAddr: 0x1000273C0, symSize: 0xF0 }
  - { offset: 0x267CE, size: 0x8, addend: 0x0, symName: __ZN4core3fmt5Write10write_char17h80d2a9496aca00b0E, symObjAddr: 0x28810, symBinAddr: 0x1000274B0, symSize: 0xE0 }
  - { offset: 0x26852, size: 0x8, addend: 0x0, symName: __ZN4core3fmt5Write10write_char17hc46b6f7c3c3194cbE, symObjAddr: 0x288F0, symBinAddr: 0x100027590, symSize: 0x130 }
  - { offset: 0x269F4, size: 0x8, addend: 0x0, symName: __ZN4core3fmt5Write10write_char17hdac7d1ed87bd809bE, symObjAddr: 0x28B00, symBinAddr: 0x1000276C0, symSize: 0x160 }
  - { offset: 0x26BA7, size: 0x8, addend: 0x0, symName: __ZN4core3fmt5Write9write_fmt17hd3928726ab1abb27E, symObjAddr: 0x28D00, symBinAddr: 0x100027820, symSize: 0x50 }
  - { offset: 0x26BD6, size: 0x8, addend: 0x0, symName: __ZN4core3fmt5Write9write_fmt17he343009274951ef4E, symObjAddr: 0x28D50, symBinAddr: 0x100027870, symSize: 0x50 }
  - { offset: 0x26C05, size: 0x8, addend: 0x0, symName: __ZN4core3fmt5Write9write_fmt17he408d8c37cd4c2c5E, symObjAddr: 0x28DA0, symBinAddr: 0x1000278C0, symSize: 0x50 }
  - { offset: 0x26C34, size: 0x8, addend: 0x0, symName: __ZN4core3fmt5Write9write_fmt17hec70cb0fc9ef19e4E, symObjAddr: 0x28DF0, symBinAddr: 0x100027910, symSize: 0x50 }
  - { offset: 0x26C63, size: 0x8, addend: 0x0, symName: __ZN4core3fmt5Write9write_fmt17hfbfca6c33e82dca5E, symObjAddr: 0x28E40, symBinAddr: 0x100027960, symSize: 0x50 }
  - { offset: 0x26CC0, size: 0x8, addend: 0x0, symName: '__ZN50_$LT$$BP$mut$u20$T$u20$as$u20$core..fmt..Debug$GT$3fmt17h461ef72b23c2334dE', symObjAddr: 0x3AB30, symBinAddr: 0x100034460, symSize: 0x10 }
  - { offset: 0x26D0D, size: 0x8, addend: 0x0, symName: '__ZN52_$LT$$RF$mut$u20$T$u20$as$u20$core..fmt..Display$GT$3fmt17he99623082ea1fa3dE', symObjAddr: 0x3B1B0, symBinAddr: 0x100034470, symSize: 0x20 }
  - { offset: 0x29381, size: 0x8, addend: 0x0, symName: '__ZN4core3ptr107drop_in_place$LT$core..pin..Pin$LT$alloc..boxed..Box$LT$std..sys..pal..unix..sync..mutex..Mutex$GT$$GT$$GT$17he4bee0bcfb03f75fE', symObjAddr: 0x294F0, symBinAddr: 0x100027BC0, symSize: 0x30 }
  - { offset: 0x29418, size: 0x8, addend: 0x0, symName: '__ZN4core3ptr109drop_in_place$LT$alloc..sync..Arc$LT$std..sync..poison..mutex..Mutex$LT$alloc..vec..Vec$LT$u8$GT$$GT$$GT$$GT$17he5b3c9d5553080edE', symObjAddr: 0x29520, symBinAddr: 0x100027BF0, symSize: 0x20 }
  - { offset: 0x29499, size: 0x8, addend: 0x0, symName: '__ZN4core3ptr119drop_in_place$LT$std..io..default_write_fmt..Adapter$LT$std..io..cursor..Cursor$LT$$RF$mut$u20$$u5b$u8$u5d$$GT$$GT$$GT$17h8ef58680b6ede286E', symObjAddr: 0x295C0, symBinAddr: 0x100027C10, symSize: 0x20 }
  - { offset: 0x294BC, size: 0x8, addend: 0x0, symName: '__ZN4core3ptr123drop_in_place$LT$addr2line..Context$LT$gimli..read..endian_slice..EndianSlice$LT$gimli..endianity..LittleEndian$GT$$GT$$GT$17h4096ebf47a84add1E', symObjAddr: 0x295E0, symBinAddr: 0x100027C30, symSize: 0x60 }
  - { offset: 0x29561, size: 0x8, addend: 0x0, symName: '__ZN4core3ptr128drop_in_place$LT$core..result..Result$LT$$RF$std..thread..Thread$C$$LP$$RF$std..thread..Thread$C$std..thread..Thread$RP$$GT$$GT$17h5b35dce14f68d27eE', symObjAddr: 0x29640, symBinAddr: 0x100027C90, symSize: 0x20 }
  - { offset: 0x29683, size: 0x8, addend: 0x0, symName: '__ZN4core3ptr129drop_in_place$LT$addr2line..unit..ResUnit$LT$gimli..read..endian_slice..EndianSlice$LT$gimli..endianity..LittleEndian$GT$$GT$$GT$17h5b41b59ec8c6acd1E', symObjAddr: 0x29660, symBinAddr: 0x100027CB0, symSize: 0x100 }
  - { offset: 0x29891, size: 0x8, addend: 0x0, symName: '__ZN4core3ptr129drop_in_place$LT$addr2line..unit..SupUnit$LT$gimli..read..endian_slice..EndianSlice$LT$gimli..endianity..LittleEndian$GT$$GT$$GT$17h7745e598093ea497E', symObjAddr: 0x29760, symBinAddr: 0x100027DB0, symSize: 0x50 }
  - { offset: 0x2993C, size: 0x8, addend: 0x0, symName: '__ZN4core3ptr130drop_in_place$LT$addr2line..unit..ResUnits$LT$gimli..read..endian_slice..EndianSlice$LT$gimli..endianity..LittleEndian$GT$$GT$$GT$17h8ac001c378159224E', symObjAddr: 0x297B0, symBinAddr: 0x100027E00, symSize: 0xE0 }
  - { offset: 0x29AE5, size: 0x8, addend: 0x0, symName: '__ZN4core3ptr130drop_in_place$LT$addr2line..unit..SupUnits$LT$gimli..read..endian_slice..EndianSlice$LT$gimli..endianity..LittleEndian$GT$$GT$$GT$17hf4d4e85b8cf1677eE', symObjAddr: 0x29890, symBinAddr: 0x100027EE0, symSize: 0xE0 }
  - { offset: 0x29C81, size: 0x8, addend: 0x0, symName: '__ZN4core3ptr130drop_in_place$LT$gimli..read..dwarf..Dwarf$LT$gimli..read..endian_slice..EndianSlice$LT$gimli..endianity..LittleEndian$GT$$GT$$GT$17h00351692336cc8a5E', symObjAddr: 0x29970, symBinAddr: 0x100027FC0, symSize: 0x60 }
  - { offset: 0x29CEB, size: 0x8, addend: 0x0, symName: '__ZN4core3ptr131drop_in_place$LT$$u5b$core..option..Option$LT$core..option..Option$LT$std..backtrace_rs..symbolize..gimli..Mapping$GT$$GT$$u5d$$GT$17h5e49fcba991e0fefE', symObjAddr: 0x299D0, symBinAddr: 0x100028020, symSize: 0xE0 }
  - { offset: 0x29D95, size: 0x8, addend: 0x0, symName: '__ZN4core3ptr131drop_in_place$LT$alloc..boxed..Box$LT$dyn$u20$core..ops..function..FnOnce$LT$$LP$$RP$$GT$$u2b$Output$u20$$u3d$$u20$$LP$$RP$$GT$$GT$17h34dfa6de81a90f60E', symObjAddr: 0x29AB0, symBinAddr: 0x100028100, symSize: 0x70 }
  - { offset: 0x29E80, size: 0x8, addend: 0x0, symName: '__ZN4core3ptr137drop_in_place$LT$gimli..read..dwarf..Unit$LT$gimli..read..endian_slice..EndianSlice$LT$gimli..endianity..LittleEndian$GT$$C$usize$GT$$GT$17h8a3dedf63945c7ffE', symObjAddr: 0x29B20, symBinAddr: 0x100028170, symSize: 0x50 }
  - { offset: 0x29F69, size: 0x8, addend: 0x0, symName: '__ZN4core3ptr138drop_in_place$LT$addr2line..function..LazyFunction$LT$gimli..read..endian_slice..EndianSlice$LT$gimli..endianity..LittleEndian$GT$$GT$$GT$17h0f8e66548b648d63E', symObjAddr: 0x29B70, symBinAddr: 0x1000281C0, symSize: 0x60 }
  - { offset: 0x29F80, size: 0x8, addend: 0x0, symName: '__ZN4core3ptr138drop_in_place$LT$addr2line..function..LazyFunction$LT$gimli..read..endian_slice..EndianSlice$LT$gimli..endianity..LittleEndian$GT$$GT$$GT$17h0f8e66548b648d63E', symObjAddr: 0x29B70, symBinAddr: 0x1000281C0, symSize: 0x60 }
  - { offset: 0x29F95, size: 0x8, addend: 0x0, symName: '__ZN4core3ptr138drop_in_place$LT$addr2line..function..LazyFunction$LT$gimli..read..endian_slice..EndianSlice$LT$gimli..endianity..LittleEndian$GT$$GT$$GT$17h0f8e66548b648d63E', symObjAddr: 0x29B70, symBinAddr: 0x1000281C0, symSize: 0x60 }
  - { offset: 0x29FAA, size: 0x8, addend: 0x0, symName: '__ZN4core3ptr138drop_in_place$LT$addr2line..function..LazyFunction$LT$gimli..read..endian_slice..EndianSlice$LT$gimli..endianity..LittleEndian$GT$$GT$$GT$17h0f8e66548b648d63E', symObjAddr: 0x29B70, symBinAddr: 0x1000281C0, symSize: 0x60 }
  - { offset: 0x2A0DE, size: 0x8, addend: 0x0, symName: '__ZN4core3ptr144drop_in_place$LT$alloc..vec..Vec$LT$core..option..Option$LT$core..option..Option$LT$std..backtrace_rs..symbolize..gimli..Mapping$GT$$GT$$GT$$GT$17hd133ee3f082661a3E', symObjAddr: 0x29BD0, symBinAddr: 0x100028220, symSize: 0x80 }
  - { offset: 0x2A238, size: 0x8, addend: 0x0, symName: '__ZN4core3ptr152drop_in_place$LT$alloc..vec..Vec$LT$addr2line..unit..ResUnit$LT$gimli..read..endian_slice..EndianSlice$LT$gimli..endianity..LittleEndian$GT$$GT$$GT$$GT$17h687eea1ef8e4dccbE', symObjAddr: 0x29D40, symBinAddr: 0x1000282A0, symSize: 0xD0 }
  - { offset: 0x2A3A7, size: 0x8, addend: 0x0, symName: '__ZN4core3ptr152drop_in_place$LT$alloc..vec..Vec$LT$addr2line..unit..SupUnit$LT$gimli..read..endian_slice..EndianSlice$LT$gimli..endianity..LittleEndian$GT$$GT$$GT$$GT$17h43b55f1c1ec40770E', symObjAddr: 0x29E10, symBinAddr: 0x100028370, symSize: 0x100 }
  - { offset: 0x2A5AB, size: 0x8, addend: 0x0, symName: '__ZN4core3ptr156drop_in_place$LT$alloc..boxed..Box$LT$$u5b$core..option..Option$LT$core..option..Option$LT$std..backtrace_rs..symbolize..gimli..Mapping$GT$$GT$$u5d$$GT$$GT$17h64285ccbe01a68bbE', symObjAddr: 0x29F10, symBinAddr: 0x100028470, symSize: 0xF0 }
  - { offset: 0x2A6D5, size: 0x8, addend: 0x0, symName: '__ZN4core3ptr159drop_in_place$LT$alloc..sync..ArcInner$LT$gimli..read..dwarf..Dwarf$LT$gimli..read..endian_slice..EndianSlice$LT$gimli..endianity..LittleEndian$GT$$GT$$GT$$GT$17ha7d070261ff0f422E', symObjAddr: 0x2A0A0, symBinAddr: 0x100028560, symSize: 0x60 }
  - { offset: 0x2A786, size: 0x8, addend: 0x0, symName: '__ZN4core3ptr161drop_in_place$LT$alloc..vec..Vec$LT$addr2line..function..LazyFunction$LT$gimli..read..endian_slice..EndianSlice$LT$gimli..endianity..LittleEndian$GT$$GT$$GT$$GT$17h224d020c77f1c5c5E', symObjAddr: 0x2A100, symBinAddr: 0x1000285C0, symSize: 0xC0 }
  - { offset: 0x2A9C3, size: 0x8, addend: 0x0, symName: '__ZN4core3ptr172drop_in_place$LT$core..result..Result$LT$addr2line..Context$LT$gimli..read..endian_slice..EndianSlice$LT$gimli..endianity..LittleEndian$GT$$GT$$C$gimli..read..Error$GT$$GT$17h9689e9d3357a2b29E', symObjAddr: 0x2A270, symBinAddr: 0x100028680, symSize: 0x70 }
  - { offset: 0x2AA44, size: 0x8, addend: 0x0, symName: '__ZN4core3ptr173drop_in_place$LT$alloc..boxed..Box$LT$$u5b$addr2line..function..LazyFunction$LT$gimli..read..endian_slice..EndianSlice$LT$gimli..endianity..LittleEndian$GT$$GT$$u5d$$GT$$GT$17h854691247aa87af0E', symObjAddr: 0x2A2E0, symBinAddr: 0x1000286F0, symSize: 0xA0 }
  - { offset: 0x2AA5B, size: 0x8, addend: 0x0, symName: '__ZN4core3ptr173drop_in_place$LT$alloc..boxed..Box$LT$$u5b$addr2line..function..LazyFunction$LT$gimli..read..endian_slice..EndianSlice$LT$gimli..endianity..LittleEndian$GT$$GT$$u5d$$GT$$GT$17h854691247aa87af0E', symObjAddr: 0x2A2E0, symBinAddr: 0x1000286F0, symSize: 0xA0 }
  - { offset: 0x2AC30, size: 0x8, addend: 0x0, symName: '__ZN4core3ptr181drop_in_place$LT$core..option..Option$LT$gimli..read..line..IncompleteLineProgram$LT$gimli..read..endian_slice..EndianSlice$LT$gimli..endianity..LittleEndian$GT$$C$usize$GT$$GT$$GT$17ha2da1af52ac50966E', symObjAddr: 0x2A3F0, symBinAddr: 0x100028790, symSize: 0xA0 }
  - { offset: 0x2AE89, size: 0x8, addend: 0x0, symName: '__ZN4core3ptr181drop_in_place$LT$core..result..Result$LT$addr2line..frame..FrameIter$LT$gimli..read..endian_slice..EndianSlice$LT$gimli..endianity..LittleEndian$GT$$GT$$C$gimli..read..Error$GT$$GT$17hb41a886cf8fb4359E', symObjAddr: 0x2A490, symBinAddr: 0x100028830, symSize: 0x40 }
  - { offset: 0x2AFC7, size: 0x8, addend: 0x0, symName: '__ZN4core3ptr184drop_in_place$LT$core..result..Result$LT$addr2line..function..Functions$LT$gimli..read..endian_slice..EndianSlice$LT$gimli..endianity..LittleEndian$GT$$GT$$C$gimli..read..Error$GT$$GT$17h16817f6f8b785913E', symObjAddr: 0x2A4D0, symBinAddr: 0x100028870, symSize: 0xE0 }
  - { offset: 0x2B257, size: 0x8, addend: 0x0, symName: '__ZN4core3ptr194drop_in_place$LT$core..result..Result$LT$std..sync..poison..mutex..MutexGuard$LT$$LP$$RP$$GT$$C$std..sync..poison..PoisonError$LT$std..sync..poison..mutex..MutexGuard$LT$$LP$$RP$$GT$$GT$$GT$$GT$17h05108be9b923664fE', symObjAddr: 0x2A620, symBinAddr: 0x100028950, symSize: 0x50 }
  - { offset: 0x2B295, size: 0x8, addend: 0x0, symName: '__ZN4core3ptr231drop_in_place$LT$core..result..Result$LT$core..option..Option$LT$alloc..boxed..Box$LT$addr2line..unit..DwoUnit$LT$gimli..read..endian_slice..EndianSlice$LT$gimli..endianity..LittleEndian$GT$$GT$$GT$$GT$$C$gimli..read..Error$GT$$GT$17h77faee68108766d7E', symObjAddr: 0x2A670, symBinAddr: 0x1000289A0, symSize: 0xB0 }
  - { offset: 0x2B45F, size: 0x8, addend: 0x0, symName: '__ZN4core3ptr238drop_in_place$LT$alloc..boxed..convert..$LT$impl$u20$core..convert..From$LT$alloc..string..String$GT$$u20$for$u20$alloc..boxed..Box$LT$dyn$u20$core..error..Error$u2b$core..marker..Sync$u2b$core..marker..Send$GT$$GT$..from..StringError$GT$17h77c71369405e109cE', symObjAddr: 0x2A720, symBinAddr: 0x100028A50, symSize: 0x20 }
  - { offset: 0x2B50A, size: 0x8, addend: 0x0, symName: '__ZN4core3ptr275drop_in_place$LT$gimli..read..line..LineRows$LT$gimli..read..endian_slice..EndianSlice$LT$gimli..endianity..LittleEndian$GT$$C$gimli..read..line..IncompleteLineProgram$LT$gimli..read..endian_slice..EndianSlice$LT$gimli..endianity..LittleEndian$GT$$C$usize$GT$$C$usize$GT$$GT$17hadd9cd2441f7544fE', symObjAddr: 0x2A740, symBinAddr: 0x100028A70, symSize: 0xA0 }
  - { offset: 0x2B77F, size: 0x8, addend: 0x0, symName: '__ZN4core3ptr280drop_in_place$LT$$LT$alloc..collections..btree..map..IntoIter$LT$K$C$V$C$A$GT$$u20$as$u20$core..ops..drop..Drop$GT$..drop..DropGuard$LT$u64$C$core..result..Result$LT$alloc..sync..Arc$LT$gimli..read..abbrev..Abbreviations$GT$$C$gimli..read..Error$GT$$C$alloc..alloc..Global$GT$$GT$17h12b50f4912f8d053E', symObjAddr: 0x2A7E0, symBinAddr: 0x100028B10, symSize: 0x80 }
  - { offset: 0x2B8AB, size: 0x8, addend: 0x0, symName: '__ZN4core3ptr284drop_in_place$LT$core..result..Result$LT$$RF$core..result..Result$LT$addr2line..line..Lines$C$gimli..read..Error$GT$$C$$LP$$RF$core..result..Result$LT$addr2line..line..Lines$C$gimli..read..Error$GT$$C$core..result..Result$LT$addr2line..line..Lines$C$gimli..read..Error$GT$$RP$$GT$$GT$17h10f406cda706aac9E', symObjAddr: 0x2A860, symBinAddr: 0x100028B90, symSize: 0x20 }
  - { offset: 0x2B8DC, size: 0x8, addend: 0x0, symName: '__ZN4core3ptr37drop_in_place$LT$std..env..VarsOs$GT$17h46b78f62b627aed3E', symObjAddr: 0x2A880, symBinAddr: 0x100028BB0, symSize: 0xB0 }
  - { offset: 0x2BBA1, size: 0x8, addend: 0x0, symName: '__ZN4core3ptr42drop_in_place$LT$alloc..string..String$GT$17h13a2c872d6de9b78E', symObjAddr: 0x2AA20, symBinAddr: 0x100028C60, symSize: 0x20 }
  - { offset: 0x2BC36, size: 0x8, addend: 0x0, symName: '__ZN4core3ptr42drop_in_place$LT$std..io..error..Error$GT$17hf3cc5d9531ccf1c0E', symObjAddr: 0x2AA40, symBinAddr: 0x100028C80, symSize: 0xA0 }
  - { offset: 0x2BE54, size: 0x8, addend: 0x0, symName: '__ZN4core3ptr44drop_in_place$LT$object..read..ObjectMap$GT$17h9dfc9bd6f6ee5a53E', symObjAddr: 0x2AAE0, symBinAddr: 0x100028D20, symSize: 0x50 }
  - { offset: 0x2BF83, size: 0x8, addend: 0x0, symName: '__ZN4core3ptr46drop_in_place$LT$alloc..vec..Vec$LT$u8$GT$$GT$17h50cadf63df0efd66E', symObjAddr: 0x2AB90, symBinAddr: 0x100028D70, symSize: 0x20 }
  - { offset: 0x2C002, size: 0x8, addend: 0x0, symName: '__ZN4core3ptr46drop_in_place$LT$std..io..stdio..StdinLock$GT$17h859807256c432efeE', symObjAddr: 0x2ABB0, symBinAddr: 0x100028D90, symSize: 0x50 }
  - { offset: 0x2C019, size: 0x8, addend: 0x0, symName: '__ZN4core3ptr46drop_in_place$LT$std..io..stdio..StdinLock$GT$17h859807256c432efeE', symObjAddr: 0x2ABB0, symBinAddr: 0x100028D90, symSize: 0x50 }
  - { offset: 0x2C02E, size: 0x8, addend: 0x0, symName: '__ZN4core3ptr46drop_in_place$LT$std..io..stdio..StdinLock$GT$17h859807256c432efeE', symObjAddr: 0x2ABB0, symBinAddr: 0x100028D90, symSize: 0x50 }
  - { offset: 0x2C112, size: 0x8, addend: 0x0, symName: '__ZN4core3ptr48drop_in_place$LT$alloc..ffi..c_str..NulError$GT$17h05fdddfd5dec9957E', symObjAddr: 0x2AD00, symBinAddr: 0x100028DE0, symSize: 0x20 }
  - { offset: 0x2C1B5, size: 0x8, addend: 0x0, symName: '__ZN4core3ptr557drop_in_place$LT$core..result..Result$LT$$RF$core..result..Result$LT$addr2line..function..Function$LT$gimli..read..endian_slice..EndianSlice$LT$gimli..endianity..LittleEndian$GT$$GT$$C$gimli..read..Error$GT$$C$$LP$$RF$core..result..Result$LT$addr2line..function..Function$LT$gimli..read..endian_slice..EndianSlice$LT$gimli..endianity..LittleEndian$GT$$GT$$C$gimli..read..Error$GT$$C$core..result..Result$LT$addr2line..function..Function$LT$gimli..read..endian_slice..EndianSlice$LT$gimli..endianity..LittleEndian$GT$$GT$$C$gimli..read..Error$GT$$RP$$GT$$GT$17hc44de9d152e84349E', symObjAddr: 0x2AFE0, symBinAddr: 0x100028E00, symSize: 0x60 }
  - { offset: 0x2C39F, size: 0x8, addend: 0x0, symName: '__ZN4core3ptr55drop_in_place$LT$gimli..read..abbrev..Abbreviations$GT$17h650fa2a70ecf9e05E', symObjAddr: 0x2B040, symBinAddr: 0x100028E60, symSize: 0x130 }
  - { offset: 0x2C6E8, size: 0x8, addend: 0x0, symName: '__ZN4core3ptr560drop_in_place$LT$core..result..Result$LT$$RF$core..result..Result$LT$addr2line..function..Functions$LT$gimli..read..endian_slice..EndianSlice$LT$gimli..endianity..LittleEndian$GT$$GT$$C$gimli..read..Error$GT$$C$$LP$$RF$core..result..Result$LT$addr2line..function..Functions$LT$gimli..read..endian_slice..EndianSlice$LT$gimli..endianity..LittleEndian$GT$$GT$$C$gimli..read..Error$GT$$C$core..result..Result$LT$addr2line..function..Functions$LT$gimli..read..endian_slice..EndianSlice$LT$gimli..endianity..LittleEndian$GT$$GT$$C$gimli..read..Error$GT$$RP$$GT$$GT$17h6cf82f479787438aE', symObjAddr: 0x2B270, symBinAddr: 0x100028F90, symSize: 0x20 }
  - { offset: 0x2C743, size: 0x8, addend: 0x0, symName: '__ZN4core3ptr60drop_in_place$LT$gimli..read..abbrev..AbbreviationsCache$GT$17h8ea9413fce52b0aeE', symObjAddr: 0x2B290, symBinAddr: 0x100028FB0, symSize: 0xE0 }
  - { offset: 0x2C8AA, size: 0x8, addend: 0x0, symName: '__ZN4core3ptr64drop_in_place$LT$std..sys..pal..unix..sync..mutex..AttrGuard$GT$17h07975ffc5879c9b3E', symObjAddr: 0x2B3E0, symBinAddr: 0x100029090, symSize: 0x40 }
  - { offset: 0x2C8CD, size: 0x8, addend: 0x0, symName: '__ZN4core3ptr64drop_in_place$LT$std..sys..process..unix..common..ChildPipes$GT$17h8a41ca136ef85558E', symObjAddr: 0x2B420, symBinAddr: 0x1000290D0, symSize: 0x50 }
  - { offset: 0x2C9CF, size: 0x8, addend: 0x0, symName: '__ZN4core3ptr64drop_in_place$LT$std..sys..process..unix..common..StdioPipes$GT$17h923111f52d7e035aE', symObjAddr: 0x2B470, symBinAddr: 0x100029120, symSize: 0x40 }
  - { offset: 0x2CB47, size: 0x8, addend: 0x0, symName: '__ZN4core3ptr65drop_in_place$LT$alloc..vec..Vec$LT$alloc..string..String$GT$$GT$17h7048242ed88ea37eE', symObjAddr: 0x2B4B0, symBinAddr: 0x100029160, symSize: 0x90 }
  - { offset: 0x2CCAD, size: 0x8, addend: 0x0, symName: '__ZN4core3ptr65drop_in_place$LT$std..backtrace_rs..symbolize..gimli..Context$GT$17hc7e1db2a9c32a85bE', symObjAddr: 0x2B540, symBinAddr: 0x1000291F0, symSize: 0x100 }
  - { offset: 0x2CF2B, size: 0x8, addend: 0x0, symName: '__ZN4core3ptr66drop_in_place$LT$std..backtrace_rs..backtrace..libunwind..Bomb$GT$17hd5948bcabaf539edE', symObjAddr: 0x2B640, symBinAddr: 0x1000292F0, symSize: 0x50 }
  - { offset: 0x2CF77, size: 0x8, addend: 0x0, symName: '__ZN4core3ptr701drop_in_place$LT$core..result..Result$LT$$RF$core..result..Result$LT$core..option..Option$LT$alloc..boxed..Box$LT$addr2line..unit..DwoUnit$LT$gimli..read..endian_slice..EndianSlice$LT$gimli..endianity..LittleEndian$GT$$GT$$GT$$GT$$C$gimli..read..Error$GT$$C$$LP$$RF$core..result..Result$LT$core..option..Option$LT$alloc..boxed..Box$LT$addr2line..unit..DwoUnit$LT$gimli..read..endian_slice..EndianSlice$LT$gimli..endianity..LittleEndian$GT$$GT$$GT$$GT$$C$gimli..read..Error$GT$$C$core..result..Result$LT$core..option..Option$LT$alloc..boxed..Box$LT$addr2line..unit..DwoUnit$LT$gimli..read..endian_slice..EndianSlice$LT$gimli..endianity..LittleEndian$GT$$GT$$GT$$GT$$C$gimli..read..Error$GT$$RP$$GT$$GT$17h4c871d662e9baba8E', symObjAddr: 0x2B690, symBinAddr: 0x100029340, symSize: 0x20 }
  - { offset: 0x2D018, size: 0x8, addend: 0x0, symName: '__ZN4core3ptr70drop_in_place$LT$std..backtrace_rs..symbolize..gimli..stash..Stash$GT$17h9192affd8a73d22bE', symObjAddr: 0x2B6B0, symBinAddr: 0x100029360, symSize: 0xE0 }
  - { offset: 0x2D2BE, size: 0x8, addend: 0x0, symName: '__ZN4core3ptr71drop_in_place$LT$std..backtrace_rs..symbolize..gimli..macho..Object$GT$17he8bfbbbc576ba26bE', symObjAddr: 0x2B790, symBinAddr: 0x100029440, symSize: 0xD0 }
  - { offset: 0x2D583, size: 0x8, addend: 0x0, symName: '__ZN4core3ptr71drop_in_place$LT$std..panicking..panic_handler..FormatStringPayload$GT$17he2832ae2b85e7af7E', symObjAddr: 0x2B860, symBinAddr: 0x100029510, symSize: 0x30 }
  - { offset: 0x2D63F, size: 0x8, addend: 0x0, symName: '__ZN4core3ptr72drop_in_place$LT$core..option..Option$LT$object..read..ObjectMap$GT$$GT$17hfcefd03af094224dE', symObjAddr: 0x2B890, symBinAddr: 0x100029540, symSize: 0x60 }
  - { offset: 0x2D7BC, size: 0x8, addend: 0x0, symName: '__ZN4core3ptr73drop_in_place$LT$alloc..vec..Vec$LT$addr2line..line..LineSequence$GT$$GT$17ha6ada6d850d6bfd7E', symObjAddr: 0x2B8F0, symBinAddr: 0x1000295A0, symSize: 0x90 }
  - { offset: 0x2D914, size: 0x8, addend: 0x0, symName: '__ZN4core3ptr77drop_in_place$LT$alloc..boxed..Box$LT$$u5b$alloc..string..String$u5d$$GT$$GT$17hb3442e265eb8e1dcE', symObjAddr: 0x2B9D0, symBinAddr: 0x100029630, symSize: 0x60 }
  - { offset: 0x2D92B, size: 0x8, addend: 0x0, symName: '__ZN4core3ptr77drop_in_place$LT$alloc..boxed..Box$LT$$u5b$alloc..string..String$u5d$$GT$$GT$17hb3442e265eb8e1dcE', symObjAddr: 0x2B9D0, symBinAddr: 0x100029630, symSize: 0x60 }
  - { offset: 0x2DA29, size: 0x8, addend: 0x0, symName: '__ZN4core3ptr78drop_in_place$LT$core..result..Result$LT$usize$C$std..io..error..Error$GT$$GT$17h5cf9dfd69ab55d35E', symObjAddr: 0x2BA30, symBinAddr: 0x100029690, symSize: 0x20 }
  - { offset: 0x2DA3D, size: 0x8, addend: 0x0, symName: '__ZN4core3ptr79drop_in_place$LT$std..sync..poison..rwlock..RwLockReadGuard$LT$$LP$$RP$$GT$$GT$17h4fa0e4fa5e15bd74E', symObjAddr: 0x2BA50, symBinAddr: 0x1000296B0, symSize: 0x50 }
  - { offset: 0x2DAD9, size: 0x8, addend: 0x0, symName: '__ZN4core3ptr81drop_in_place$LT$core..result..Result$LT$$LP$$RP$$C$std..io..error..Error$GT$$GT$17h1c1edd567460b3feE', symObjAddr: 0x2BB50, symBinAddr: 0x100029700, symSize: 0x20 }
  - { offset: 0x2DB09, size: 0x8, addend: 0x0, symName: '__ZN4core3ptr81drop_in_place$LT$std..sys..process..unix..common..cstring_array..CStringArray$GT$17h1ce3a250115cbe70E', symObjAddr: 0x2BB70, symBinAddr: 0x100029720, symSize: 0xD0 }
  - { offset: 0x2DE51, size: 0x8, addend: 0x0, symName: '__ZN4core3ptr82drop_in_place$LT$alloc..sync..ArcInner$LT$std..sys..fs..unix..InnerReadDir$GT$$GT$17ha8fbff3aaada4fb8E', symObjAddr: 0x2BC40, symBinAddr: 0x1000297F0, symSize: 0x60 }
  - { offset: 0x2DFF4, size: 0x8, addend: 0x0, symName: '__ZN4core3ptr84drop_in_place$LT$$LP$std..ffi..os_str..OsString$C$std..ffi..os_str..OsString$RP$$GT$17hbc09269b3e4ede67E', symObjAddr: 0x2BCA0, symBinAddr: 0x100029850, symSize: 0x50 }
  - { offset: 0x2E141, size: 0x8, addend: 0x0, symName: '__ZN4core3ptr90drop_in_place$LT$std..io..buffered..bufwriter..BufWriter$LT$W$GT$..flush_buf..BufGuard$GT$17he4170abc552595a7E', symObjAddr: 0x2BD40, symBinAddr: 0x1000298A0, symSize: 0x50 }
  - { offset: 0x2E2C8, size: 0x8, addend: 0x0, symName: '__ZN4core3ptr92drop_in_place$LT$core..result..Result$LT$addr2line..line..Lines$C$gimli..read..Error$GT$$GT$17h2e8e0626d3a84d8eE', symObjAddr: 0x2BDF0, symBinAddr: 0x1000298F0, symSize: 0xE0 }
  - { offset: 0x2E50E, size: 0x8, addend: 0x0, symName: '__ZN4core3ptr93drop_in_place$LT$core..option..Option$LT$std..backtrace_rs..symbolize..gimli..Mapping$GT$$GT$17h136f8c1ae5619cc2E', symObjAddr: 0x2BED0, symBinAddr: 0x1000299D0, symSize: 0x70 }
  - { offset: 0x2E59D, size: 0x8, addend: 0x0, symName: '__ZN4core3ptr95drop_in_place$LT$std..io..buffered..linewriter..LineWriter$LT$std..io..stdio..StdoutRaw$GT$$GT$17h9eac947b14297a02E', symObjAddr: 0x2BF40, symBinAddr: 0x100029A40, symSize: 0x100 }
  - { offset: 0x3092D, size: 0x8, addend: 0x0, symName: __ZN4core5panic12PanicPayload6as_str17h0a0af93859b241b1E, symObjAddr: 0x302B0, symBinAddr: 0x100029CA0, symSize: 0x10 }
  - { offset: 0x311CC, size: 0x8, addend: 0x0, symName: '__ZN70_$LT$core..num..error..TryFromIntError$u20$as$u20$core..fmt..Debug$GT$3fmt17hf51a2ad22619e644E', symObjAddr: 0x54380, symBinAddr: 0x100044360, symSize: 0x40 }
  - { offset: 0x32F70, size: 0x8, addend: 0x0, symName: __ZN4core5slice4sort8unstable7ipnsort17h2b4a537af7352546E, symObjAddr: 0x39850, symBinAddr: 0x100033240, symSize: 0x1A0 }
  - { offset: 0x33218, size: 0x8, addend: 0x0, symName: __ZN4core5slice4sort8unstable7ipnsort17h52ef4485ec8e6977E, symObjAddr: 0x399F0, symBinAddr: 0x1000333E0, symSize: 0xE0 }
  - { offset: 0x333DA, size: 0x8, addend: 0x0, symName: __ZN4core5slice4sort8unstable8heapsort8heapsort17h4b4721c6bb82e1c1E, symObjAddr: 0x39AD0, symBinAddr: 0x1000334C0, symSize: 0x120 }
  - { offset: 0x33620, size: 0x8, addend: 0x0, symName: __ZN4core5slice4sort8unstable8heapsort8heapsort17hab9566a01254ecddE, symObjAddr: 0x39BF0, symBinAddr: 0x1000335E0, symSize: 0x1D0 }
  - { offset: 0x339D2, size: 0x8, addend: 0x0, symName: __ZN4core5slice4sort8unstable9quicksort9quicksort17h0b8d9e0f156a468cE, symObjAddr: 0x39DC0, symBinAddr: 0x1000337B0, symSize: 0x540 }
  - { offset: 0x34272, size: 0x8, addend: 0x0, symName: __ZN4core5slice4sort8unstable9quicksort9quicksort17h5a50d5c9a636cab4E, symObjAddr: 0x3A300, symBinAddr: 0x100033CF0, symSize: 0x761 }
  - { offset: 0x34ED5, size: 0x8, addend: 0x0, symName: __ZN4core5slice4sort6stable14driftsort_main17h3220260173ca707fE, symObjAddr: 0x31FD0, symBinAddr: 0x10002B9C0, symSize: 0x150 }
  - { offset: 0x351AD, size: 0x8, addend: 0x0, symName: __ZN4core5slice4sort6stable14driftsort_main17h4699f0e78e45ec48E, symObjAddr: 0x32120, symBinAddr: 0x10002BB10, symSize: 0x150 }
  - { offset: 0x35485, size: 0x8, addend: 0x0, symName: __ZN4core5slice4sort6stable14driftsort_main17h9e6c77f5f42fb271E, symObjAddr: 0x32270, symBinAddr: 0x10002BC60, symSize: 0x160 }
  - { offset: 0x357B3, size: 0x8, addend: 0x0, symName: __ZN4core5slice4sort6stable14driftsort_main17ha76b3f8bfe5161d7E, symObjAddr: 0x323D0, symBinAddr: 0x10002BDC0, symSize: 0x160 }
  - { offset: 0x35AE1, size: 0x8, addend: 0x0, symName: __ZN4core5slice4sort6stable14driftsort_main17hdb3cc37e344db5cdE, symObjAddr: 0x32530, symBinAddr: 0x10002BF20, symSize: 0x150 }
  - { offset: 0x35DB9, size: 0x8, addend: 0x0, symName: __ZN4core5slice4sort6stable14driftsort_main17hf9b576397ab84e46E, symObjAddr: 0x32680, symBinAddr: 0x10002C070, symSize: 0x160 }
  - { offset: 0x36223, size: 0x8, addend: 0x0, symName: __ZN4core5slice4sort6stable5drift4sort17h0344cd1179273fdfE, symObjAddr: 0x327E0, symBinAddr: 0x10002C1D0, symSize: 0x6E0 }
  - { offset: 0x369CB, size: 0x8, addend: 0x0, symName: __ZN4core5slice4sort6stable5drift4sort17h5d73a28370e736e7E, symObjAddr: 0x32EC0, symBinAddr: 0x10002C8B0, symSize: 0x690 }
  - { offset: 0x37182, size: 0x8, addend: 0x0, symName: __ZN4core5slice4sort6stable5drift4sort17h7d35ffbcc89f38d4E, symObjAddr: 0x33550, symBinAddr: 0x10002CF40, symSize: 0x6D0 }
  - { offset: 0x3793F, size: 0x8, addend: 0x0, symName: __ZN4core5slice4sort6stable5drift4sort17h8e4dd7b37e0e34b5E, symObjAddr: 0x33C20, symBinAddr: 0x10002D610, symSize: 0x6E0 }
  - { offset: 0x380D1, size: 0x8, addend: 0x0, symName: __ZN4core5slice4sort6stable5drift4sort17hd3daeb0e07815f37E, symObjAddr: 0x34300, symBinAddr: 0x10002DCF0, symSize: 0x690 }
  - { offset: 0x38888, size: 0x8, addend: 0x0, symName: __ZN4core5slice4sort6stable5drift4sort17hdee5488c31b7bf79E, symObjAddr: 0x34990, symBinAddr: 0x10002E380, symSize: 0x6B0 }
  - { offset: 0x392C9, size: 0x8, addend: 0x0, symName: __ZN4core5slice4sort6stable9quicksort9quicksort17h49e735213ea776e8E, symObjAddr: 0x35040, symBinAddr: 0x10002EA30, symSize: 0xC20 }
  - { offset: 0x3A042, size: 0x8, addend: 0x0, symName: __ZN4core5slice4sort6stable9quicksort9quicksort17h4e0f96bb5e50204eE, symObjAddr: 0x35C60, symBinAddr: 0x10002F650, symSize: 0xD60 }
  - { offset: 0x3ADF1, size: 0x8, addend: 0x0, symName: __ZN4core5slice4sort6stable9quicksort9quicksort17h5039615b86acfb17E, symObjAddr: 0x369C0, symBinAddr: 0x1000303B0, symSize: 0xB50 }
  - { offset: 0x3BBEB, size: 0x8, addend: 0x0, symName: __ZN4core5slice4sort6stable9quicksort9quicksort17h54d5655b54e85608E, symObjAddr: 0x37510, symBinAddr: 0x100030F00, symSize: 0xC40 }
  - { offset: 0x3C974, size: 0x8, addend: 0x0, symName: __ZN4core5slice4sort6stable9quicksort9quicksort17h563ccb161c809bb9E, symObjAddr: 0x38150, symBinAddr: 0x100031B40, symSize: 0xB50 }
  - { offset: 0x3D24C, size: 0x8, addend: 0x0, symName: __ZN4core5slice4sort6stable9quicksort9quicksort17ha4eccc1b33417963E, symObjAddr: 0x38CA0, symBinAddr: 0x100032690, symSize: 0xBB0 }
  - { offset: 0x3E777, size: 0x8, addend: 0x0, symName: __ZN4core5slice4sort6shared9smallsort12sort4_stable17h429c53b39c3949acE, symObjAddr: 0x30980, symBinAddr: 0x10002A370, symSize: 0x1B0 }
  - { offset: 0x3E94E, size: 0x8, addend: 0x0, symName: __ZN4core5slice4sort6shared9smallsort12sort4_stable17h8e40b2e7e5f636d6E, symObjAddr: 0x30B30, symBinAddr: 0x10002A520, symSize: 0x1F0 }
  - { offset: 0x3ED59, size: 0x8, addend: 0x0, symName: __ZN4core5slice4sort6shared9smallsort12sort8_stable17hd86b794b574b633cE, symObjAddr: 0x30D20, symBinAddr: 0x10002A710, symSize: 0x3E0 }
  - { offset: 0x3F411, size: 0x8, addend: 0x0, symName: __ZN4core5slice4sort6shared9smallsort18small_sort_general17h0ffd90b03ee23f71E, symObjAddr: 0x31100, symBinAddr: 0x10002AAF0, symSize: 0x510 }
  - { offset: 0x3F92E, size: 0x8, addend: 0x0, symName: __ZN4core5slice4sort6shared9smallsort18small_sort_general17h7a2a4ab0b4034136E, symObjAddr: 0x31610, symBinAddr: 0x10002B000, symSize: 0x600 }
  - { offset: 0x40131, size: 0x8, addend: 0x0, symName: __ZN4core5slice4sort6shared9smallsort25insertion_sort_shift_left17h0b99a1dace0461e0E, symObjAddr: 0x31C10, symBinAddr: 0x10002B600, symSize: 0x120 }
  - { offset: 0x402F6, size: 0x8, addend: 0x0, symName: __ZN4core5slice4sort6shared9smallsort25insertion_sort_shift_left17h1aa889efeb4092c1E, symObjAddr: 0x31D30, symBinAddr: 0x10002B720, symSize: 0xF0 }
  - { offset: 0x40424, size: 0x8, addend: 0x0, symName: __ZN4core5slice4sort6shared9smallsort25insertion_sort_shift_left17h39fda689822c34e3E, symObjAddr: 0x31E20, symBinAddr: 0x10002B810, symSize: 0xF0 }
  - { offset: 0x40553, size: 0x8, addend: 0x0, symName: __ZN4core5slice4sort6shared9smallsort25insertion_sort_shift_left17h519a67896e46d7b4E, symObjAddr: 0x31F10, symBinAddr: 0x10002B900, symSize: 0xC0 }
  - { offset: 0x40873, size: 0x8, addend: 0x0, symName: __ZN4core5slice4sort6shared5pivot11median3_rec17h0bad552e41eb9dc6E, symObjAddr: 0x302C0, symBinAddr: 0x100029CB0, symSize: 0xC0 }
  - { offset: 0x4097A, size: 0x8, addend: 0x0, symName: __ZN4core5slice4sort6shared5pivot11median3_rec17h69042159816e04f4E, symObjAddr: 0x30380, symBinAddr: 0x100029D70, symSize: 0xC0 }
  - { offset: 0x40A83, size: 0x8, addend: 0x0, symName: __ZN4core5slice4sort6shared5pivot11median3_rec17h6b39c5ff16384b97E, symObjAddr: 0x30440, symBinAddr: 0x100029E30, symSize: 0xB0 }
  - { offset: 0x40BB6, size: 0x8, addend: 0x0, symName: __ZN4core5slice4sort6shared5pivot11median3_rec17h78bc361aba28d375E, symObjAddr: 0x304F0, symBinAddr: 0x100029EE0, symSize: 0x140 }
  - { offset: 0x40DEB, size: 0x8, addend: 0x0, symName: __ZN4core5slice4sort6shared5pivot11median3_rec17h864e4c2ed0405f91E, symObjAddr: 0x30630, symBinAddr: 0x10002A020, symSize: 0xC0 }
  - { offset: 0x40EF2, size: 0x8, addend: 0x0, symName: __ZN4core5slice4sort6shared5pivot11median3_rec17h9ee77f2cab2d4c5dE, symObjAddr: 0x306F0, symBinAddr: 0x10002A0E0, symSize: 0xC0 }
  - { offset: 0x40FF9, size: 0x8, addend: 0x0, symName: __ZN4core5slice4sort6shared5pivot11median3_rec17ha14fc07cd9e49161E, symObjAddr: 0x307B0, symBinAddr: 0x10002A1A0, symSize: 0xC0 }
  - { offset: 0x41100, size: 0x8, addend: 0x0, symName: __ZN4core5slice4sort6shared5pivot11median3_rec17hfa048ff775602914E, symObjAddr: 0x30870, symBinAddr: 0x10002A260, symSize: 0x110 }
  - { offset: 0x4130C, size: 0x8, addend: 0x0, symName: '__ZN55_$LT$$RF$str$u20$as$u20$core..str..pattern..Pattern$GT$15is_contained_in17hc8794a96b582b38aE', symObjAddr: 0x3B790, symBinAddr: 0x100034490, symSize: 0x860 }
  - { offset: 0x41AA7, size: 0x8, addend: 0x0, symName: '__ZN4core3str7pattern13simd_contains28_$u7b$$u7b$closure$u7d$$u7d$17ha6d539c15f4ab7c0E', symObjAddr: 0x2C040, symBinAddr: 0x100056660, symSize: 0x100 }
  - { offset: 0x43526, size: 0x8, addend: 0x0, symName: '__ZN4core3ops8function6FnOnce40call_once$u7b$$u7b$vtable.shim$u7d$$u7d$17h0d3238feb6ae2c7dE', symObjAddr: 0x29150, symBinAddr: 0x1000279B0, symSize: 0x10 }
  - { offset: 0x43562, size: 0x8, addend: 0x0, symName: '__ZN4core3ops8function6FnOnce40call_once$u7b$$u7b$vtable.shim$u7d$$u7d$17h3292d6654d591370E', symObjAddr: 0x29160, symBinAddr: 0x1000279C0, symSize: 0x90 }
  - { offset: 0x43646, size: 0x8, addend: 0x0, symName: '__ZN4core3ops8function6FnOnce40call_once$u7b$$u7b$vtable.shim$u7d$$u7d$17h59b44727da8ea4adE', symObjAddr: 0x29280, symBinAddr: 0x100027A50, symSize: 0x90 }
  - { offset: 0x437B0, size: 0x8, addend: 0x0, symName: '__ZN4core3ops8function6FnOnce40call_once$u7b$$u7b$vtable.shim$u7d$$u7d$17h8ff5d8d366cb3dcdE', symObjAddr: 0x29350, symBinAddr: 0x100027AE0, symSize: 0x90 }
  - { offset: 0x438F6, size: 0x8, addend: 0x0, symName: '__ZN4core3ops8function6FnOnce40call_once$u7b$$u7b$vtable.shim$u7d$$u7d$17h994b7e277a3827ddE', symObjAddr: 0x293E0, symBinAddr: 0x100027B70, symSize: 0x10 }
  - { offset: 0x43947, size: 0x8, addend: 0x0, symName: '__ZN4core3ops8function6FnOnce40call_once$u7b$$u7b$vtable.shim$u7d$$u7d$17h9e6dbb12aa376ac1E', symObjAddr: 0x29400, symBinAddr: 0x100027B80, symSize: 0x10 }
  - { offset: 0x43983, size: 0x8, addend: 0x0, symName: '__ZN4core3ops8function6FnOnce40call_once$u7b$$u7b$vtable.shim$u7d$$u7d$17hdb0d13364863d228E', symObjAddr: 0x29420, symBinAddr: 0x100027B90, symSize: 0x20 }
  - { offset: 0x439BF, size: 0x8, addend: 0x0, symName: '__ZN4core3ops8function6FnOnce40call_once$u7b$$u7b$vtable.shim$u7d$$u7d$17hf1524fee5c53f54cE', symObjAddr: 0x294E0, symBinAddr: 0x100027BB0, symSize: 0x10 }
  - { offset: 0x447E2, size: 0x8, addend: 0x0, symName: '__ZN36_$LT$T$u20$as$u20$core..any..Any$GT$7type_id17hf38d30a50d909875E', symObjAddr: 0x1250, symBinAddr: 0x100014160, symSize: 0x30 }
  - { offset: 0x44811, size: 0x8, addend: 0x0, symName: '__ZN36_$LT$T$u20$as$u20$core..any..Any$GT$7type_id17hfe9fbb449010764eE', symObjAddr: 0x1280, symBinAddr: 0x100014190, symSize: 0x30 }
  - { offset: 0x456FB, size: 0x8, addend: 0x0, symName: '__ZN4core5array69_$LT$impl$u20$core..fmt..Debug$u20$for$u20$$u5b$T$u3b$$u20$N$u5d$$GT$3fmt17h374d7be30a463273E', symObjAddr: 0x300E0, symBinAddr: 0x100029B40, symSize: 0xF0 }
  - { offset: 0x45985, size: 0x8, addend: 0x0, symName: '__ZN4core4cell4once17OnceCell$LT$T$GT$8try_init17h164ad122d3fdde11E', symObjAddr: 0x2C140, symBinAddr: 0x100056760, symSize: 0x70 }
  - { offset: 0x459A3, size: 0x8, addend: 0x0, symName: '__ZN4core4cell4once17OnceCell$LT$T$GT$8try_init17h164ad122d3fdde11E', symObjAddr: 0x2C140, symBinAddr: 0x100056760, symSize: 0x70 }
  - { offset: 0x459B8, size: 0x8, addend: 0x0, symName: '__ZN4core4cell4once17OnceCell$LT$T$GT$8try_init17h164ad122d3fdde11E', symObjAddr: 0x2C140, symBinAddr: 0x100056760, symSize: 0x70 }
  - { offset: 0x459CC, size: 0x8, addend: 0x0, symName: '__ZN4core4cell4once17OnceCell$LT$T$GT$8try_init17h164ad122d3fdde11E', symObjAddr: 0x2C140, symBinAddr: 0x100056760, symSize: 0x70 }
  - { offset: 0x45A23, size: 0x8, addend: 0x0, symName: '__ZN4core4cell4once17OnceCell$LT$T$GT$8try_init17h5eaa6e42f622c98bE', symObjAddr: 0x2C1B0, symBinAddr: 0x1000567D0, symSize: 0x80 }
  - { offset: 0x45AD6, size: 0x8, addend: 0x0, symName: '__ZN4core4cell4once17OnceCell$LT$T$GT$8try_init17h8d9b52977b5ff1b0E', symObjAddr: 0x2C230, symBinAddr: 0x100056850, symSize: 0x8B0 }
  - { offset: 0x46693, size: 0x8, addend: 0x0, symName: '__ZN4core4cell4once17OnceCell$LT$T$GT$8try_init17h963735826f59da1dE', symObjAddr: 0x2CAE0, symBinAddr: 0x100057100, symSize: 0x110 }
  - { offset: 0x468F3, size: 0x8, addend: 0x0, symName: '__ZN4core4cell4once17OnceCell$LT$T$GT$8try_init17hbb32d690264a29aeE', symObjAddr: 0x2CBF0, symBinAddr: 0x100057210, symSize: 0x25C0 }
  - { offset: 0x49A9F, size: 0x8, addend: 0x0, symName: '__ZN4core4cell4once17OnceCell$LT$T$GT$8try_init17he85fbe2a3a1ae7fbE', symObjAddr: 0x2F1B0, symBinAddr: 0x1000597D0, symSize: 0xF30 }
  - { offset: 0x4B668, size: 0x8, addend: 0x0, symName: __ZN4core5error5Error11description17ha6a6a08fd0b06ebcE, symObjAddr: 0x301F0, symBinAddr: 0x100029C30, symSize: 0x20 }
  - { offset: 0x4B682, size: 0x8, addend: 0x0, symName: __ZN4core5error5Error5cause17h5b5fd61b0af24bd8E, symObjAddr: 0x30210, symBinAddr: 0x100029C50, symSize: 0x10 }
  - { offset: 0x4B69C, size: 0x8, addend: 0x0, symName: __ZN4core5error5Error7provide17hcf50e4f5391fe1b4E, symObjAddr: 0x30240, symBinAddr: 0x100029C60, symSize: 0x10 }
  - { offset: 0x4B6B6, size: 0x8, addend: 0x0, symName: __ZN4core5error5Error7type_id17h1548aa106e60bc02E, symObjAddr: 0x30250, symBinAddr: 0x100029C70, symSize: 0x30 }
  - { offset: 0x4B6EC, size: 0x8, addend: 0x0, symName: __ZN4core9panicking13assert_failed17h65a30f1e9a91e300E, symObjAddr: 0x3AA61, symBinAddr: 0x10005A701, symSize: 0x33 }
  - { offset: 0x4B708, size: 0x8, addend: 0x0, symName: __ZN4core9panicking13assert_failed17hd751ab4adab24333E, symObjAddr: 0x3AAF2, symBinAddr: 0x10005A742, symSize: 0x3E }
  - { offset: 0x4B7ED, size: 0x8, addend: 0x0, symName: __RNvCskdKJRKLKjqM_7___rustc10rust_panic, symObjAddr: 0x0, symBinAddr: 0x100055AD0, symSize: 0x70 }
  - { offset: 0x4B81E, size: 0x8, addend: 0x0, symName: __RNvCskdKJRKLKjqM_7___rustc17___rust_drop_panic, symObjAddr: 0x1D0, symBinAddr: 0x100013D80, symSize: 0xD0 }
  - { offset: 0x4BA69, size: 0x8, addend: 0x0, symName: __RNvCskdKJRKLKjqM_7___rustc17rust_begin_unwind, symObjAddr: 0x2A0, symBinAddr: 0x100013E50, symSize: 0x30 }
  - { offset: 0x4BAAF, size: 0x8, addend: 0x0, symName: __RNvCskdKJRKLKjqM_7___rustc24___rust_foreign_exception, symObjAddr: 0x360, symBinAddr: 0x100013F10, symSize: 0xD0 }
  - { offset: 0x4BD78, size: 0x8, addend: 0x0, symName: __ZN3std9panicking11panic_count17is_zero_slow_path17hc9cf2ba853cb1a44E, symObjAddr: 0x26310, symBinAddr: 0x100056640, symSize: 0x20 }
  - { offset: 0x4BE27, size: 0x8, addend: 0x0, symName: __ZN3std9panicking11panic_count8increase17hf57f6317579ad19bE, symObjAddr: 0x26370, symBinAddr: 0x100026380, symSize: 0x40 }
  - { offset: 0x4BE3E, size: 0x8, addend: 0x0, symName: __ZN3std9panicking11panic_count8increase17hf57f6317579ad19bE, symObjAddr: 0x26370, symBinAddr: 0x100026380, symSize: 0x40 }
  - { offset: 0x4BE53, size: 0x8, addend: 0x0, symName: __ZN3std9panicking11panic_count8increase17hf57f6317579ad19bE, symObjAddr: 0x26370, symBinAddr: 0x100026380, symSize: 0x40 }
  - { offset: 0x4C009, size: 0x8, addend: 0x0, symName: __ZN3std9panicking12default_hook17hfd692237a6812b4aE, symObjAddr: 0x263EB, symBinAddr: 0x1000263CB, symSize: 0x12B }
  - { offset: 0x4C1A0, size: 0x8, addend: 0x0, symName: '__ZN3std9panicking12default_hook28_$u7b$$u7b$closure$u7d$$u7d$17h4c39689ecd8341bfE', symObjAddr: 0x26516, symBinAddr: 0x1000264F6, symSize: 0x18A }
  - { offset: 0x4C367, size: 0x8, addend: 0x0, symName: '__ZN3std9panicking12default_hook28_$u7b$$u7b$closure$u7d$$u7d$28_$u7b$$u7b$closure$u7d$$u7d$17h141942b3ab6b1748E', symObjAddr: 0x266A0, symBinAddr: 0x100026680, symSize: 0x380 }
  - { offset: 0x4CA97, size: 0x8, addend: 0x0, symName: __ZN3std9panicking13panic_handler19FormatStringPayload4fill17hd583736f0adc2b9eE, symObjAddr: 0x26A20, symBinAddr: 0x100026A00, symSize: 0xC0 }
  - { offset: 0x4CBB4, size: 0x8, addend: 0x0, symName: '__ZN3std9panicking13panic_handler28_$u7b$$u7b$closure$u7d$$u7d$17h0449b52d62cc4acdE', symObjAddr: 0x26AE0, symBinAddr: 0x100026AC0, symSize: 0xD0 }
  - { offset: 0x4CD10, size: 0x8, addend: 0x0, symName: '__ZN86_$LT$std..panicking..panic_handler..StaticStrPayload$u20$as$u20$core..fmt..Display$GT$3fmt17h611d737e25d39e04E', symObjAddr: 0x58C20, symBinAddr: 0x100044B90, symSize: 0x20 }
  - { offset: 0x4CD31, size: 0x8, addend: 0x0, symName: '__ZN89_$LT$std..panicking..panic_handler..FormatStringPayload$u20$as$u20$core..fmt..Display$GT$3fmt17h2c418704e9a80b67E', symObjAddr: 0x59030, symBinAddr: 0x100044BB0, symSize: 0x70 }
  - { offset: 0x4CE25, size: 0x8, addend: 0x0, symName: '__ZN93_$LT$std..panicking..panic_handler..StaticStrPayload$u20$as$u20$core..panic..PanicPayload$GT$3get17h54b2dcb3b150a54cE', symObjAddr: 0x59900, symBinAddr: 0x100044D40, symSize: 0x10 }
  - { offset: 0x4CE40, size: 0x8, addend: 0x0, symName: '__ZN93_$LT$std..panicking..panic_handler..StaticStrPayload$u20$as$u20$core..panic..PanicPayload$GT$6as_str17h5a1a7c38fda21c29E', symObjAddr: 0x59910, symBinAddr: 0x100044D50, symSize: 0x10 }
  - { offset: 0x4CE5B, size: 0x8, addend: 0x0, symName: '__ZN93_$LT$std..panicking..panic_handler..StaticStrPayload$u20$as$u20$core..panic..PanicPayload$GT$8take_box17hdf5e7dcb860e8869E', symObjAddr: 0x59920, symBinAddr: 0x100044D60, symSize: 0x50 }
  - { offset: 0x4CED8, size: 0x8, addend: 0x0, symName: '__ZN96_$LT$std..panicking..panic_handler..FormatStringPayload$u20$as$u20$core..panic..PanicPayload$GT$3get17he619996a915dba5aE', symObjAddr: 0x5A150, symBinAddr: 0x1000451D0, symSize: 0x20 }
  - { offset: 0x4CEF3, size: 0x8, addend: 0x0, symName: '__ZN96_$LT$std..panicking..panic_handler..FormatStringPayload$u20$as$u20$core..panic..PanicPayload$GT$8take_box17h1d68480d8bee4f17E', symObjAddr: 0x5A170, symBinAddr: 0x1000451F0, symSize: 0xA0 }
  - { offset: 0x4D045, size: 0x8, addend: 0x0, symName: __ZN3std9panicking14payload_as_str17h7b83b1c48b989ea0E, symObjAddr: 0x26C50, symBinAddr: 0x100026B90, symSize: 0x7D }
  - { offset: 0x4D18A, size: 0x8, addend: 0x0, symName: __ZN3std9panicking15panic_with_hook17he1033abc98626357E, symObjAddr: 0x26CCD, symBinAddr: 0x100026C0D, symSize: 0x43D }
  - { offset: 0x4DA9B, size: 0x8, addend: 0x0, symName: '__ZN102_$LT$std..sys..process..unix..common..cstring_array..CStringArray$u20$as$u20$core..ops..drop..Drop$GT$4drop17he5543c9769e7fd90E', symObjAddr: 0x450, symBinAddr: 0x100013FE0, symSize: 0x80 }
  - { offset: 0x4DC8A, size: 0x8, addend: 0x0, symName: '__ZN3std3sys7process4unix4unix58_$LT$impl$u20$std..sys..process..unix..common..Command$GT$5spawn17h46e68499be7c758aE', symObjAddr: 0x1C540, symBinAddr: 0x100021D20, symSize: 0xB40 }
  - { offset: 0x4EDC2, size: 0x8, addend: 0x0, symName: '__ZN3std3sys7process4unix4unix58_$LT$impl$u20$std..sys..process..unix..common..Command$GT$7do_exec17hc77e9106886026bdE', symObjAddr: 0x1D080, symBinAddr: 0x100022860, symSize: 0x300 }
  - { offset: 0x4F6D4, size: 0x8, addend: 0x0, symName: __ZN3std3sys7process4unix6common7Command11capture_env17hd300f48339f72723E, symObjAddr: 0x1D560, symBinAddr: 0x100022D40, symSize: 0x1340 }
  - { offset: 0x51B0D, size: 0x8, addend: 0x0, symName: __ZN3std3sys7process4unix6common7Command3arg17h2290bede5cd0c511E, symObjAddr: 0x1E8A0, symBinAddr: 0x100024080, symSize: 0xE0 }
  - { offset: 0x51E25, size: 0x8, addend: 0x0, symName: __ZN3std3sys7process4unix6common7Command3new17h8c9a3e952b3e1597E, symObjAddr: 0x1EA50, symBinAddr: 0x100024160, symSize: 0x2C0 }
  - { offset: 0x523A4, size: 0x8, addend: 0x0, symName: __ZN3std3sys7process4unix6common7Command8setup_io17h44d01f140f181a7bE, symObjAddr: 0x1EF40, symBinAddr: 0x100024420, symSize: 0x2C0 }
  - { offset: 0x527EC, size: 0x8, addend: 0x0, symName: __ZN3std3sys7process4unix6common5Stdio14to_child_stdio17h71e11b2b2a755fcfE, symObjAddr: 0x1D410, symBinAddr: 0x100022BF0, symSize: 0x150 }
  - { offset: 0x529BA, size: 0x8, addend: 0x0, symName: __ZN3std3sys7process4unix4unix7Process4wait17h0b44ee4aeb74829cE, symObjAddr: 0x1D380, symBinAddr: 0x100022B60, symSize: 0x90 }
  - { offset: 0x52B71, size: 0x8, addend: 0x0, symName: __ZN3std3sys3pal6common14small_c_string24run_with_cstr_allocating17h5cc89072fa4ee439E, symObjAddr: 0x19EE0, symBinAddr: 0x100055DF0, symSize: 0x90 }
  - { offset: 0x52CE0, size: 0x8, addend: 0x0, symName: __ZN3std3sys3pal6common14small_c_string24run_with_cstr_allocating17hc579900339e23d19E, symObjAddr: 0x1A190, symBinAddr: 0x100055E80, symSize: 0xB0 }
  - { offset: 0x52EBC, size: 0x8, addend: 0x0, symName: __ZN3std3sys3pal6common14small_c_string24run_with_cstr_allocating17he4af3d6cbd61cc52E, symObjAddr: 0x1A2F0, symBinAddr: 0x100055F30, symSize: 0xB0 }
  - { offset: 0x530DD, size: 0x8, addend: 0x0, symName: __ZN3std3sys3pal4unix14stack_overflow11thread_info16set_current_info17h9c07c7c3f5a792f2E, symObjAddr: 0x17860, symBinAddr: 0x10001F8F0, symSize: 0xEA0 }
  - { offset: 0x543CF, size: 0x8, addend: 0x0, symName: __ZN3std3sys3pal4unix14stack_overflow3imp12drop_handler17h10e97a4f0d9b05d8E, symObjAddr: 0x18700, symBinAddr: 0x100020790, symSize: 0x520 }
  - { offset: 0x54C50, size: 0x8, addend: 0x0, symName: __ZN3std3sys3pal4unix14stack_overflow3imp12make_handler17h7ea0af42963bc428E, symObjAddr: 0x18C20, symBinAddr: 0x100020CB0, symSize: 0x290 }
  - { offset: 0x55023, size: 0x8, addend: 0x0, symName: __ZN3std3sys3pal4unix14stack_overflow3imp14signal_handler17ha77e123931615aa3E, symObjAddr: 0x18EB0, symBinAddr: 0x100020F40, symSize: 0x380 }
  - { offset: 0x55721, size: 0x8, addend: 0x0, symName: __ZN3std3sys3pal4unix4sync5mutex5Mutex4init17hc0cd42f50e15ec42E, symObjAddr: 0x199B0, symBinAddr: 0x1000218B0, symSize: 0x160 }
  - { offset: 0x557DD, size: 0x8, addend: 0x0, symName: __ZN3std3sys3pal4unix4sync5mutex5Mutex4lock4fail17ha33bd018f471c78aE, symObjAddr: 0x19B30, symBinAddr: 0x100055CF0, symSize: 0x100 }
  - { offset: 0x55B05, size: 0x8, addend: 0x0, symName: __ZN3std3sys3pal4unix14abort_internal17h2d7ebcba1920d509E, symObjAddr: 0x17850, symBinAddr: 0x100055CE0, symSize: 0x10 }
  - { offset: 0x55B20, size: 0x8, addend: 0x0, symName: __ZN3std3sys3pal4unix17decode_error_kind17h447b85d7b88dc1dcE, symObjAddr: 0x19230, symBinAddr: 0x1000212C0, symSize: 0x250 }
  - { offset: 0x55B72, size: 0x8, addend: 0x0, symName: __ZN3std3sys3pal4unix4pipe5read217ha7a4612c351c75ceE, symObjAddr: 0x19610, symBinAddr: 0x100021510, symSize: 0x240 }
  - { offset: 0x56068, size: 0x8, addend: 0x0, symName: __ZN3std3sys3pal4unix4pipe8AnonPipe5write17h03f32ade1d6c5c2bE, symObjAddr: 0x19850, symBinAddr: 0x100021750, symSize: 0x50 }
  - { offset: 0x56158, size: 0x8, addend: 0x0, symName: __ZN3std3sys3pal4unix4pipe9anon_pipe17h32c3626b874411c6E, symObjAddr: 0x198A0, symBinAddr: 0x1000217A0, symSize: 0x110 }
  - { offset: 0x5651B, size: 0x8, addend: 0x0, symName: __ZN3std3sys12thread_local6native5eager7destroy17h52ab99797ee9e6c0E, symObjAddr: 0x122C0, symBinAddr: 0x10001EF10, symSize: 0x20 }
  - { offset: 0x5669D, size: 0x8, addend: 0x0, symName: __ZN3std3sys12thread_local5guard5apple6enable9run_dtors17h38edc9b0697859adE, symObjAddr: 0x121D0, symBinAddr: 0x10001EE20, symSize: 0xF0 }
  - { offset: 0x56B3B, size: 0x8, addend: 0x0, symName: __ZN3std3sys12thread_local11destructors4list8register17h1d9ec60dd9886de7E, symObjAddr: 0x120E0, symBinAddr: 0x10001ED30, symSize: 0xF0 }
  - { offset: 0x56E17, size: 0x8, addend: 0x0, symName: __ZN3std3sys3env4unix13env_read_lock17h6b780f3777072ce3E, symObjAddr: 0x165B0, symBinAddr: 0x10001F550, symSize: 0x280 }
  - { offset: 0x574DE, size: 0x8, addend: 0x0, symName: '__ZN3std3sys3env4unix6getenv28_$u7b$$u7b$closure$u7d$$u7d$17hbced0c0771611cafE', symObjAddr: 0x16830, symBinAddr: 0x10001F7D0, symSize: 0x120 }
  - { offset: 0x577B9, size: 0x8, addend: 0x0, symName: __ZN3std3sys2fs4unix4File6open_c17he05b2f9a6cd0c0a5E, symObjAddr: 0x14FB0, symBinAddr: 0x10001F1D0, symSize: 0x180 }
  - { offset: 0x57974, size: 0x8, addend: 0x0, symName: '__ZN65_$LT$std..sys..fs..unix..Dir$u20$as$u20$core..ops..drop..Drop$GT$4drop17h00566fb81437571eE', symObjAddr: 0x531C0, symBinAddr: 0x100043E90, symSize: 0xD0 }
  - { offset: 0x57A6A, size: 0x8, addend: 0x0, symName: __ZN3std3sys2fs8read_dir17he96197a45d71fcd1E, symObjAddr: 0x160D0, symBinAddr: 0x10001F350, symSize: 0x200 }
  - { offset: 0x57E89, size: 0x8, addend: 0x0, symName: __ZN3std3sys2fd4unix8FileDesc11read_to_end17h9d33e58bea107262E, symObjAddr: 0x137D0, symBinAddr: 0x10001EF30, symSize: 0x2A0 }
  - { offset: 0x58337, size: 0x8, addend: 0x0, symName: '__ZN64_$LT$std..sys..stdio..unix..Stderr$u20$as$u20$std..io..Write$GT$14write_vectored17h2dbb79a2e8dce948E', symObjAddr: 0x52F00, symBinAddr: 0x100043DD0, symSize: 0x50 }
  - { offset: 0x58406, size: 0x8, addend: 0x0, symName: '__ZN64_$LT$std..sys..stdio..unix..Stderr$u20$as$u20$std..io..Write$GT$17is_write_vectored17h9d9019aa34dca71eE', symObjAddr: 0x52F50, symBinAddr: 0x100043E20, symSize: 0x10 }
  - { offset: 0x58420, size: 0x8, addend: 0x0, symName: '__ZN64_$LT$std..sys..stdio..unix..Stderr$u20$as$u20$std..io..Write$GT$5flush17haca374bc2fb40ebcE', symObjAddr: 0x52F60, symBinAddr: 0x100043E30, symSize: 0x10 }
  - { offset: 0x5843A, size: 0x8, addend: 0x0, symName: '__ZN64_$LT$std..sys..stdio..unix..Stderr$u20$as$u20$std..io..Write$GT$5write17h4b5035fe5e5f2032E', symObjAddr: 0x52F70, symBinAddr: 0x100043E40, symSize: 0x50 }
  - { offset: 0x58587, size: 0x8, addend: 0x0, symName: '__ZN3std3sys4sync8once_box16OnceBox$LT$T$GT$10initialize17h6aa2ce4cfc78c157E', symObjAddr: 0x1B490, symBinAddr: 0x100056280, symSize: 0x120 }
  - { offset: 0x58849, size: 0x8, addend: 0x0, symName: __ZN3std3sys4sync4once5queue4Once4call17h8e466067d86cbcb3E, symObjAddr: 0x1A7E0, symBinAddr: 0x100055FE0, symSize: 0x210 }
  - { offset: 0x58B03, size: 0x8, addend: 0x0, symName: '__ZN82_$LT$std..sys..sync..once..queue..WaiterQueue$u20$as$u20$core..ops..drop..Drop$GT$4drop17h17a27c240e6095eaE', symObjAddr: 0x586D0, symBinAddr: 0x100044AC0, symSize: 0xD0 }
  - { offset: 0x58CB8, size: 0x8, addend: 0x0, symName: __ZN3std3sys4sync4once5queue4wait17hcf137e24f8369e0fE, symObjAddr: 0x1ABE0, symBinAddr: 0x100021A10, symSize: 0x160 }
  - { offset: 0x5919B, size: 0x8, addend: 0x0, symName: __ZN3std3sys4sync6rwlock5queue6RwLock12unlock_queue17h2b38c5d2f4e14db6E, symObjAddr: 0x1AD60, symBinAddr: 0x100021B70, symSize: 0x180 }
  - { offset: 0x597BA, size: 0x8, addend: 0x0, symName: __ZN3std3sys4sync6rwlock5queue6RwLock16unlock_contended17h434533e27b51e3a9E, symObjAddr: 0x1B1F0, symBinAddr: 0x1000561F0, symSize: 0x40 }
  - { offset: 0x59896, size: 0x8, addend: 0x0, symName: __ZN3std3sys4sync6rwlock5queue6RwLock21read_unlock_contended17ha0f88a0fd7df0d66E, symObjAddr: 0x1B230, symBinAddr: 0x100056230, symSize: 0x50 }
  - { offset: 0x59AEE, size: 0x8, addend: 0x0, symName: __ZN3std3sys4sync6rwlock5queue9read_lock17h5e2659437ef5e87cE, symObjAddr: 0x1B280, symBinAddr: 0x100021CF0, symSize: 0x30 }
  - { offset: 0x59B07, size: 0x8, addend: 0x0, symName: '__ZN83_$LT$std..sys..sync..rwlock..queue..PanicGuard$u20$as$u20$core..ops..drop..Drop$GT$4drop17h9abf048048014633E', symObjAddr: 0x58950, symBinAddr: 0x10005A8D0, symSize: 0x60 }
  - { offset: 0x59BCC, size: 0x8, addend: 0x0, symName: '__ZN3std3sys11personality3gcc14find_eh_action28_$u7b$$u7b$closure$u7d$$u7d$17h71a716f7697f7c23E', symObjAddr: 0x120C0, symBinAddr: 0x10001ED10, symSize: 0x10 }
  - { offset: 0x59BE0, size: 0x8, addend: 0x0, symName: '__ZN3std3sys11personality3gcc14find_eh_action28_$u7b$$u7b$closure$u7d$$u7d$17hf3d297c424dd88bbE', symObjAddr: 0x120D0, symBinAddr: 0x10001ED20, symSize: 0x10 }
  - { offset: 0x59C2C, size: 0x8, addend: 0x0, symName: _rust_eh_personality, symObjAddr: 0x5D880, symBinAddr: 0x100048660, symSize: 0x640 }
  - { offset: 0x5A71B, size: 0x8, addend: 0x0, symName: '__ZN3std3sys9backtrace10_print_fmt28_$u7b$$u7b$closure$u7d$$u7d$17h240c89470c2fecd8E', symObjAddr: 0x1F310, symBinAddr: 0x1000246E0, symSize: 0x130 }
  - { offset: 0x5A803, size: 0x8, addend: 0x0, symName: '__ZN3std3sys9backtrace10_print_fmt28_$u7b$$u7b$closure$u7d$$u7d$17h32646e4212c9eef0E', symObjAddr: 0x1F440, symBinAddr: 0x100024810, symSize: 0x20 }
  - { offset: 0x5A844, size: 0x8, addend: 0x0, symName: '__ZN3std3sys9backtrace10_print_fmt28_$u7b$$u7b$closure$u7d$$u7d$28_$u7b$$u7b$closure$u7d$$u7d$17h9218d583d276298aE', symObjAddr: 0x1F460, symBinAddr: 0x100024830, symSize: 0x2A0 }
  - { offset: 0x5AA37, size: 0x8, addend: 0x0, symName: __ZN3std3sys9backtrace13BacktraceLock5print17h5e73de0c808691a4E, symObjAddr: 0x1F700, symBinAddr: 0x100024AD0, symSize: 0x60 }
  - { offset: 0x5AA68, size: 0x8, addend: 0x0, symName: __ZN3std3sys9backtrace15output_filename17ha87664c578f770efE, symObjAddr: 0x1F760, symBinAddr: 0x100024B30, symSize: 0x120 }
  - { offset: 0x5ABD4, size: 0x8, addend: 0x0, symName: __ZN3std3sys9backtrace26__rust_end_short_backtrace17h3fc1fab9d4b6800aE, symObjAddr: 0x1F880, symBinAddr: 0x100024C50, symSize: 0x10 }
  - { offset: 0x5ABEE, size: 0x8, addend: 0x0, symName: __ZN3std3sys9backtrace4lock17h2bb35fe2884a3a88E, symObjAddr: 0x1F8A0, symBinAddr: 0x100024C60, symSize: 0x80 }
  - { offset: 0x5AD44, size: 0x8, addend: 0x0, symName: '__ZN98_$LT$std..sys..backtrace..BacktraceLock..print..DisplayBacktrace$u20$as$u20$core..fmt..Display$GT$3fmt17hbb4f642dcc320b1dE', symObjAddr: 0x5A3B0, symBinAddr: 0x100045290, symSize: 0x280 }
  - { offset: 0x5B2A3, size: 0x8, addend: 0x0, symName: __RNvCskdKJRKLKjqM_7___rustc11___rdl_alloc, symObjAddr: 0x70, symBinAddr: 0x100013C30, symSize: 0x70 }
  - { offset: 0x5B321, size: 0x8, addend: 0x0, symName: __RNvCskdKJRKLKjqM_7___rustc13___rdl_dealloc, symObjAddr: 0xF0, symBinAddr: 0x100013CA0, symSize: 0x10 }
  - { offset: 0x5B352, size: 0x8, addend: 0x0, symName: __RNvCskdKJRKLKjqM_7___rustc13___rdl_realloc, symObjAddr: 0x100, symBinAddr: 0x100013CB0, symSize: 0xD0 }
  - { offset: 0x5B436, size: 0x8, addend: 0x0, symName: __RNvCskdKJRKLKjqM_7___rustc18___rdl_alloc_zeroed, symObjAddr: 0x2D0, symBinAddr: 0x100013E80, symSize: 0x90 }
  - { offset: 0x5B4DB, size: 0x8, addend: 0x0, symName: __RNvCskdKJRKLKjqM_7___rustc8___rg_oom, symObjAddr: 0x430, symBinAddr: 0x100055B40, symSize: 0x20 }
  - { offset: 0x5B4F7, size: 0x8, addend: 0x0, symName: __ZN3std5alloc24default_alloc_error_hook17h037631a9e9542696E, symObjAddr: 0x23AD0, symBinAddr: 0x100025C40, symSize: 0x160 }
  - { offset: 0x5B784, size: 0x8, addend: 0x0, symName: __ZN3std5alloc8rust_oom17he6554ab5e3e4bfbfE, symObjAddr: 0x23C30, symBinAddr: 0x100056460, symSize: 0x20 }
  - { offset: 0x5B7D1, size: 0x8, addend: 0x0, symName: __ZN3std2rt15handle_rt_panic17hc19cb4ec1bf553a3E, symObjAddr: 0xF090, symBinAddr: 0x100055C80, symSize: 0x60 }
  - { offset: 0x5B861, size: 0x8, addend: 0x0, symName: __ZN3std2rt19lang_start_internal17he54b1e510ff92df3E, symObjAddr: 0xF0F0, symBinAddr: 0x10001DE40, symSize: 0x6C0 }
  - { offset: 0x5C46D, size: 0x8, addend: 0x0, symName: __ZN3std2io5error14repr_bitpacked11decode_repr17ha713e1d9a867e6ffE, symObjAddr: 0xC820, symBinAddr: 0x10001CF10, symSize: 0x60 }
  - { offset: 0x5C501, size: 0x8, addend: 0x0, symName: __ZN3std2io5error5Error3new17hca09cf106a8bb92bE, symObjAddr: 0xC960, symBinAddr: 0x10001CF70, symSize: 0x120 }
  - { offset: 0x5C8FE, size: 0x8, addend: 0x0, symName: '__ZN3std2io5error83_$LT$impl$u20$core..fmt..Debug$u20$for$u20$std..io..error..repr_bitpacked..Repr$GT$3fmt17h0c2c47996b5c8151E', symObjAddr: 0xCB00, symBinAddr: 0x10001D090, symSize: 0x300 }
  - { offset: 0x5CB56, size: 0x8, addend: 0x0, symName: '__ZN58_$LT$std..io..error..Error$u20$as$u20$core..fmt..Debug$GT$3fmt17h4e87839884dfef9aE', symObjAddr: 0x3D080, symBinAddr: 0x100034EA0, symSize: 0x10 }
  - { offset: 0x5CB70, size: 0x8, addend: 0x0, symName: '__ZN60_$LT$std..io..error..Error$u20$as$u20$core..fmt..Display$GT$3fmt17hb9b71bb9d61087ecE', symObjAddr: 0x4F030, symBinAddr: 0x100043500, symSize: 0x280 }
  - { offset: 0x5CDA3, size: 0x8, addend: 0x0, symName: '__ZN62_$LT$std..io..error..ErrorKind$u20$as$u20$core..fmt..Debug$GT$3fmt17hd88fc964aff56ab8E', symObjAddr: 0x51C40, symBinAddr: 0x100043C80, symSize: 0x30 }
  - { offset: 0x5CE36, size: 0x8, addend: 0x0, symName: '__ZN3std2io8buffered9bufwriter18BufWriter$LT$W$GT$14write_all_cold17h4cf021826987ea15E', symObjAddr: 0xDCD0, symBinAddr: 0x100055B60, symSize: 0x120 }
  - { offset: 0x5D075, size: 0x8, addend: 0x0, symName: '__ZN3std2io8buffered9bufwriter18BufWriter$LT$W$GT$9flush_buf17h223037aba0b50117E', symObjAddr: 0xDDF0, symBinAddr: 0x10001DC00, symSize: 0x240 }
  - { offset: 0x5D68D, size: 0x8, addend: 0x0, symName: __ZN3std2io5Write18write_all_vectored17hc2fed901070b4d06E, symObjAddr: 0xC160, symBinAddr: 0x10001C850, symSize: 0x1D0 }
  - { offset: 0x5D8D2, size: 0x8, addend: 0x0, symName: __ZN3std2io5Write9write_all17ha0278d11ab8e55b7E, symObjAddr: 0xC330, symBinAddr: 0x10001CA20, symSize: 0xA0 }
  - { offset: 0x5D9C2, size: 0x8, addend: 0x0, symName: __ZN3std2io5Write9write_fmt17h0157f34dfbceefe5E, symObjAddr: 0xC3D0, symBinAddr: 0x10001CAC0, symSize: 0x170 }
  - { offset: 0x5DC9C, size: 0x8, addend: 0x0, symName: __ZN3std2io5Write9write_fmt17h24b62528f4d1168aE, symObjAddr: 0xC540, symBinAddr: 0x10001CC30, symSize: 0x170 }
  - { offset: 0x5DF76, size: 0x8, addend: 0x0, symName: __ZN3std2io5Write9write_fmt17h5e34a6300392fe22E, symObjAddr: 0xC6B0, symBinAddr: 0x10001CDA0, symSize: 0x170 }
  - { offset: 0x5E2BB, size: 0x8, addend: 0x0, symName: __ZN3std2io5stdio22try_set_output_capture17hb613035c20b6d0f1E, symObjAddr: 0xD2C0, symBinAddr: 0x10001D780, symSize: 0xB0 }
  - { offset: 0x5E550, size: 0x8, addend: 0x0, symName: __ZN3std2io5stdio31print_to_buffer_if_capture_used17hde0c84d24b5006f1E, symObjAddr: 0xD440, symBinAddr: 0x10001D830, symSize: 0x220 }
  - { offset: 0x5EC62, size: 0x8, addend: 0x0, symName: __ZN3std2io5stdio6Stderr4lock17h9794f8e40f87e1fdE, symObjAddr: 0xD8C0, symBinAddr: 0x10001DA50, symSize: 0xC0 }
  - { offset: 0x5EF31, size: 0x8, addend: 0x0, symName: __ZN3std2io5stdio6_print17he5f702afc7c35b8cE, symObjAddr: 0xD980, symBinAddr: 0x10001DB10, symSize: 0xF0 }
  - { offset: 0x5F0A6, size: 0x8, addend: 0x0, symName: '__ZN61_$LT$$RF$std..io..stdio..Stdout$u20$as$u20$std..io..Write$GT$9write_fmt17h0eee9ce97af14d23E', symObjAddr: 0x50590, symBinAddr: 0x100043780, symSize: 0x1C0 }
  - { offset: 0x5F52A, size: 0x8, addend: 0x0, symName: '__ZN61_$LT$std..io..stdio..StdoutLock$u20$as$u20$std..io..Write$GT$9write_all17h054337cb99b92b16E', symObjAddr: 0x51070, symBinAddr: 0x100043940, symSize: 0x260 }
  - { offset: 0x5FBAC, size: 0x8, addend: 0x0, symName: '__ZN3std2io5impls74_$LT$impl$u20$std..io..Write$u20$for$u20$alloc..vec..Vec$LT$u8$C$A$GT$$GT$14write_vectored17h396066abfc006fcaE', symObjAddr: 0xCE00, symBinAddr: 0x10001D390, symSize: 0x180 }
  - { offset: 0x5FDAE, size: 0x8, addend: 0x0, symName: '__ZN3std2io5impls74_$LT$impl$u20$std..io..Write$u20$for$u20$alloc..vec..Vec$LT$u8$C$A$GT$$GT$17is_write_vectored17h473fffb9382bf9c6E', symObjAddr: 0xCF80, symBinAddr: 0x10001D510, symSize: 0x10 }
  - { offset: 0x5FDD7, size: 0x8, addend: 0x0, symName: '__ZN3std2io5impls74_$LT$impl$u20$std..io..Write$u20$for$u20$alloc..vec..Vec$LT$u8$C$A$GT$$GT$18write_all_vectored17hcfe81a52ebadbc0bE', symObjAddr: 0xCF90, symBinAddr: 0x10001D520, symSize: 0x170 }
  - { offset: 0x5FE02, size: 0x8, addend: 0x0, symName: '__ZN3std2io5impls74_$LT$impl$u20$std..io..Write$u20$for$u20$alloc..vec..Vec$LT$u8$C$A$GT$$GT$18write_all_vectored17hcfe81a52ebadbc0bE', symObjAddr: 0xCF90, symBinAddr: 0x10001D520, symSize: 0x170 }
  - { offset: 0x5FE17, size: 0x8, addend: 0x0, symName: '__ZN3std2io5impls74_$LT$impl$u20$std..io..Write$u20$for$u20$alloc..vec..Vec$LT$u8$C$A$GT$$GT$18write_all_vectored17hcfe81a52ebadbc0bE', symObjAddr: 0xCF90, symBinAddr: 0x10001D520, symSize: 0x170 }
  - { offset: 0x5FE2C, size: 0x8, addend: 0x0, symName: '__ZN3std2io5impls74_$LT$impl$u20$std..io..Write$u20$for$u20$alloc..vec..Vec$LT$u8$C$A$GT$$GT$18write_all_vectored17hcfe81a52ebadbc0bE', symObjAddr: 0xCF90, symBinAddr: 0x10001D520, symSize: 0x170 }
  - { offset: 0x5FE40, size: 0x8, addend: 0x0, symName: '__ZN3std2io5impls74_$LT$impl$u20$std..io..Write$u20$for$u20$alloc..vec..Vec$LT$u8$C$A$GT$$GT$18write_all_vectored17hcfe81a52ebadbc0bE', symObjAddr: 0xCF90, symBinAddr: 0x10001D520, symSize: 0x170 }
  - { offset: 0x5FE54, size: 0x8, addend: 0x0, symName: '__ZN3std2io5impls74_$LT$impl$u20$std..io..Write$u20$for$u20$alloc..vec..Vec$LT$u8$C$A$GT$$GT$18write_all_vectored17hcfe81a52ebadbc0bE', symObjAddr: 0xCF90, symBinAddr: 0x10001D520, symSize: 0x170 }
  - { offset: 0x6000E, size: 0x8, addend: 0x0, symName: '__ZN3std2io5impls74_$LT$impl$u20$std..io..Write$u20$for$u20$alloc..vec..Vec$LT$u8$C$A$GT$$GT$5flush17hc83d241489517b1fE', symObjAddr: 0xD100, symBinAddr: 0x10001D690, symSize: 0x10 }
  - { offset: 0x60029, size: 0x8, addend: 0x0, symName: '__ZN3std2io5impls74_$LT$impl$u20$std..io..Write$u20$for$u20$alloc..vec..Vec$LT$u8$C$A$GT$$GT$5write17h0e0da068fc5acedeE', symObjAddr: 0xD110, symBinAddr: 0x10001D6A0, symSize: 0x70 }
  - { offset: 0x6010F, size: 0x8, addend: 0x0, symName: '__ZN3std2io5impls74_$LT$impl$u20$std..io..Write$u20$for$u20$alloc..vec..Vec$LT$u8$C$A$GT$$GT$9write_all17h7bccd6e9d3e19e7fE', symObjAddr: 0xD180, symBinAddr: 0x10001D710, symSize: 0x70 }
  - { offset: 0x60217, size: 0x8, addend: 0x0, symName: __ZN3std2io19default_read_to_end16small_probe_read17hed37023dae20d6feE, symObjAddr: 0xB720, symBinAddr: 0x10001C760, symSize: 0xF0 }
  - { offset: 0x604F0, size: 0x8, addend: 0x0, symName: '__ZN81_$LT$std..io..default_write_fmt..Adapter$LT$T$GT$$u20$as$u20$core..fmt..Write$GT$9write_str17h1649a3991f2ea191E', symObjAddr: 0x57A70, symBinAddr: 0x100044890, symSize: 0xD0 }
  - { offset: 0x605FC, size: 0x8, addend: 0x0, symName: '__ZN81_$LT$std..io..default_write_fmt..Adapter$LT$T$GT$$u20$as$u20$core..fmt..Write$GT$9write_str17h65288afb60bc4b22E', symObjAddr: 0x57C60, symBinAddr: 0x100044960, symSize: 0x70 }
  - { offset: 0x606E9, size: 0x8, addend: 0x0, symName: '__ZN81_$LT$std..io..default_write_fmt..Adapter$LT$T$GT$$u20$as$u20$core..fmt..Write$GT$9write_str17h9ddd3fd8700ebc6eE', symObjAddr: 0x57CD0, symBinAddr: 0x1000449D0, symSize: 0x50 }
  - { offset: 0x60713, size: 0x8, addend: 0x0, symName: '__ZN81_$LT$std..io..default_write_fmt..Adapter$LT$T$GT$$u20$as$u20$core..fmt..Write$GT$9write_str17hf60e64c5a7fc0711E', symObjAddr: 0x57D20, symBinAddr: 0x100044A20, symSize: 0xA0 }
  - { offset: 0x60956, size: 0x8, addend: 0x0, symName: __ZN3std4path4Path13_strip_prefix17h57206cfe16291a76E, symObjAddr: 0x20BD0, symBinAddr: 0x100025320, symSize: 0x3C0 }
  - { offset: 0x60A66, size: 0x8, addend: 0x0, symName: __ZN3std4path4Path5_join17hf8c84868fde1d922E, symObjAddr: 0x21720, symBinAddr: 0x1000256E0, symSize: 0x190 }
  - { offset: 0x6112D, size: 0x8, addend: 0x0, symName: __ZN3std4path10Components15len_before_body17hc0c9c8c5c44312a5E, symObjAddr: 0x1F920, symBinAddr: 0x100024CE0, symSize: 0x170 }
  - { offset: 0x61144, size: 0x8, addend: 0x0, symName: __ZN3std4path10Components15len_before_body17hc0c9c8c5c44312a5E, symObjAddr: 0x1F920, symBinAddr: 0x100024CE0, symSize: 0x170 }
  - { offset: 0x61159, size: 0x8, addend: 0x0, symName: __ZN3std4path10Components15len_before_body17hc0c9c8c5c44312a5E, symObjAddr: 0x1F920, symBinAddr: 0x100024CE0, symSize: 0x170 }
  - { offset: 0x61331, size: 0x8, addend: 0x0, symName: __ZN3std4path10Components25parse_next_component_back17h39a0247b7cda8e0bE, symObjAddr: 0x1FA90, symBinAddr: 0x100024E50, symSize: 0xF0 }
  - { offset: 0x614D0, size: 0x8, addend: 0x0, symName: __ZN3std4path10Components7as_path17h069c6a5a65b7ff44E, symObjAddr: 0x1FB80, symBinAddr: 0x100024F40, symSize: 0x3E0 }
  - { offset: 0x61901, size: 0x8, addend: 0x0, symName: '__ZN61_$LT$std..path..Component$u20$as$u20$core..cmp..PartialEq$GT$2eq17h491fa3e2db060d13E', symObjAddr: 0x512F0, symBinAddr: 0x100043BA0, symSize: 0xE0 }
  - { offset: 0x619BB, size: 0x8, addend: 0x0, symName: '__ZN80_$LT$std..path..Components$u20$as$u20$core..iter..traits..iterator..Iterator$GT$4next17hee0b9dd08b602416E', symObjAddr: 0x57330, symBinAddr: 0x100044480, symSize: 0x410 }
  - { offset: 0x61D5C, size: 0x8, addend: 0x0, symName: '__ZN95_$LT$std..path..Components$u20$as$u20$core..iter..traits..double_ended..DoubleEndedIterator$GT$9next_back17h714e7cb7d2d85f84E', symObjAddr: 0x59CE0, symBinAddr: 0x100044DB0, symSize: 0x420 }
  - { offset: 0x61F68, size: 0x8, addend: 0x0, symName: __ZN3std7process5abort17h0d4477327f66e8fbE, symObjAddr: 0x25400, symBinAddr: 0x100056630, symSize: 0x10 }
  - { offset: 0x61F88, size: 0x8, addend: 0x0, symName: __ZN3std7process7Command6output17hff2e6d5f551a1910E, symObjAddr: 0x25550, symBinAddr: 0x100026030, symSize: 0x350 }
  - { offset: 0x62537, size: 0x8, addend: 0x0, symName: '__ZN118_$LT$std..thread..thread_name_string..ThreadNameString$u20$as$u20$core..convert..From$LT$alloc..string..String$GT$$GT$4from17h61e83cd51d9b6e6aE', symObjAddr: 0x10C0, symBinAddr: 0x100014060, symSize: 0x100 }
  - { offset: 0x628EF, size: 0x8, addend: 0x0, symName: __ZN3std6thread7current12init_current17h90dce586534f49cdE, symObjAddr: 0x245B0, symBinAddr: 0x100056480, symSize: 0x160 }
  - { offset: 0x62C07, size: 0x8, addend: 0x0, symName: __ZN3std6thread7current13current_os_id17h7dd262076b74b984E, symObjAddr: 0x24710, symBinAddr: 0x100025FB0, symSize: 0x80 }
  - { offset: 0x62E1A, size: 0x8, addend: 0x0, symName: __ZN3std6thread6Thread3new17haba3f9a731f34843E, symObjAddr: 0x241F0, symBinAddr: 0x100025E70, symSize: 0x140 }
  - { offset: 0x63161, size: 0x8, addend: 0x0, symName: __ZN3std6thread8ThreadId3new9exhausted17h406b0b054c541c40E, symObjAddr: 0x248A0, symBinAddr: 0x1000565E0, symSize: 0x50 }
  - { offset: 0x631E1, size: 0x8, addend: 0x0, symName: __ZN3std12backtrace_rs5print17BacktraceFrameFmt21print_raw_with_column17h124737e9f41c54b0E, symObjAddr: 0x12B0, symBinAddr: 0x1000141C0, symSize: 0x560 }
  - { offset: 0x633D7, size: 0x8, addend: 0x0, symName: __ZN3std12backtrace_rs9backtrace9libunwind5trace8trace_fn17hc5d3caa7e26e2d87E, symObjAddr: 0x1810, symBinAddr: 0x100014720, symSize: 0x50 }
  - { offset: 0x63492, size: 0x8, addend: 0x0, symName: __ZN3std12backtrace_rs9symbolize5gimli4mmap17h12ebabe808a68383E, symObjAddr: 0x1860, symBinAddr: 0x100014770, symSize: 0x210 }
  - { offset: 0x6397F, size: 0x8, addend: 0x0, symName: __ZN3std12backtrace_rs9symbolize5gimli5macho11find_header17hde9f2a87e444cec9E, symObjAddr: 0x1A70, symBinAddr: 0x100014980, symSize: 0x190 }
  - { offset: 0x6405D, size: 0x8, addend: 0x0, symName: __ZN3std12backtrace_rs9symbolize5gimli5macho6Object5parse17h400ac0874d941337E, symObjAddr: 0x1C00, symBinAddr: 0x100014B10, symSize: 0x1040 }
  - { offset: 0x65F84, size: 0x8, addend: 0x0, symName: __ZN3std12backtrace_rs9symbolize5gimli5macho6Object7section17hf53b9a42818e2c3dE, symObjAddr: 0x2C40, symBinAddr: 0x100015B50, symSize: 0x180 }
  - { offset: 0x663BE, size: 0x8, addend: 0x0, symName: __ZN3std12backtrace_rs9symbolize5gimli7Context11find_frames17h15418eb91b7e6263E, symObjAddr: 0x2DC0, symBinAddr: 0x100015CD0, symSize: 0x3D0 }
  - { offset: 0x6679E, size: 0x8, addend: 0x0, symName: __ZN3std12backtrace_rs9symbolize5gimli7Context3new17hb329d27e4d696e6aE, symObjAddr: 0x3190, symBinAddr: 0x1000160A0, symSize: 0x3050 }
  - { offset: 0x6A8FC, size: 0x8, addend: 0x0, symName: __ZN3std12backtrace_rs9symbolize5gimli7resolve17h34165e1bf34eef53E, symObjAddr: 0x61E0, symBinAddr: 0x1000190F0, symSize: 0x3560 }
  - { offset: 0x70988, size: 0x8, addend: 0x0, symName: __ZN3std12backtrace_rs9symbolize6Symbol4name17hd612854ad8f0ffd0E, symObjAddr: 0x9780, symBinAddr: 0x10001C650, symSize: 0x110 }
  - { offset: 0x70AC1, size: 0x8, addend: 0x0, symName: '__ZN79_$LT$std..backtrace_rs..symbolize..SymbolName$u20$as$u20$core..fmt..Display$GT$3fmt17hdc33297e1ed74ca2E', symObjAddr: 0x56AE0, symBinAddr: 0x1000443A0, symSize: 0xE0 }
  - { offset: 0x70E52, size: 0x8, addend: 0x0, symName: '__ZN64_$LT$std..ffi..os_str..Display$u20$as$u20$core..fmt..Display$GT$3fmt17hc3b4edbdc1de5d2aE', symObjAddr: 0x52BC0, symBinAddr: 0x100043D00, symSize: 0xD0 }
  - { offset: 0x70ED7, size: 0x8, addend: 0x0, symName: '__ZN3std4sync6poison5mutex14Mutex$LT$T$GT$4lock17hc2ce4f843db9b8deE', symObjAddr: 0x23070, symBinAddr: 0x100025BD0, symSize: 0x70 }
  - { offset: 0x71136, size: 0x8, addend: 0x0, symName: '__ZN3std4sync6poison4once4Once15call_once_force28_$u7b$$u7b$closure$u7d$$u7d$17h3fd27ef06f442f06E', symObjAddr: 0x22AF0, symBinAddr: 0x100025870, symSize: 0x90 }
  - { offset: 0x711ED, size: 0x8, addend: 0x0, symName: '__ZN3std4sync6poison4once4Once15call_once_force28_$u7b$$u7b$closure$u7d$$u7d$17hcef2943343630694E', symObjAddr: 0x22D80, symBinAddr: 0x100025900, symSize: 0x90 }
  - { offset: 0x7134A, size: 0x8, addend: 0x0, symName: '__ZN3std4sync6poison4once4Once9call_once28_$u7b$$u7b$closure$u7d$$u7d$17h5c617ced4614c08fE', symObjAddr: 0x22E30, symBinAddr: 0x100025990, symSize: 0x240 }
  - { offset: 0x71AED, size: 0x8, addend: 0x0, symName: '__ZN3std4sync9once_lock17OnceLock$LT$T$GT$10initialize17h9ad90c5bfd166a66E', symObjAddr: 0x23793, symBinAddr: 0x1000563A3, symSize: 0x59 }
  - { offset: 0x71B18, size: 0x8, addend: 0x0, symName: '__ZN3std4sync9once_lock17OnceLock$LT$T$GT$10initialize17h9ad90c5bfd166a66E', symObjAddr: 0x23793, symBinAddr: 0x1000563A3, symSize: 0x59 }
  - { offset: 0x71B2C, size: 0x8, addend: 0x0, symName: '__ZN3std4sync9once_lock17OnceLock$LT$T$GT$10initialize17h9ad90c5bfd166a66E', symObjAddr: 0x23793, symBinAddr: 0x1000563A3, symSize: 0x59 }
  - { offset: 0x71B40, size: 0x8, addend: 0x0, symName: '__ZN3std4sync9once_lock17OnceLock$LT$T$GT$10initialize17h9ad90c5bfd166a66E', symObjAddr: 0x23793, symBinAddr: 0x1000563A3, symSize: 0x59 }
  - { offset: 0x71B56, size: 0x8, addend: 0x0, symName: '__ZN3std4sync9once_lock17OnceLock$LT$T$GT$10initialize17hdc61a2003d8acd11E', symObjAddr: 0x23841, symBinAddr: 0x100056401, symSize: 0x5F }
  - { offset: 0x71B81, size: 0x8, addend: 0x0, symName: '__ZN3std4sync9once_lock17OnceLock$LT$T$GT$10initialize17hdc61a2003d8acd11E', symObjAddr: 0x23841, symBinAddr: 0x100056401, symSize: 0x5F }
  - { offset: 0x71B95, size: 0x8, addend: 0x0, symName: '__ZN3std4sync9once_lock17OnceLock$LT$T$GT$10initialize17hdc61a2003d8acd11E', symObjAddr: 0x23841, symBinAddr: 0x100056401, symSize: 0x5F }
  - { offset: 0x71BA9, size: 0x8, addend: 0x0, symName: '__ZN3std4sync9once_lock17OnceLock$LT$T$GT$10initialize17hdc61a2003d8acd11E', symObjAddr: 0x23841, symBinAddr: 0x100056401, symSize: 0x5F }
  - { offset: 0x71D2B, size: 0x8, addend: 0x0, symName: __ZN3std5panic19get_backtrace_style17h4c7362303865842eE, symObjAddr: 0x23C60, symBinAddr: 0x100025DA0, symSize: 0xD0 }
  - { offset: 0x71D49, size: 0x8, addend: 0x0, symName: __ZN3std5panic19get_backtrace_style17h4c7362303865842eE, symObjAddr: 0x23C60, symBinAddr: 0x100025DA0, symSize: 0xD0 }
  - { offset: 0x71D5E, size: 0x8, addend: 0x0, symName: __ZN3std5panic19get_backtrace_style17h4c7362303865842eE, symObjAddr: 0x23C60, symBinAddr: 0x100025DA0, symSize: 0xD0 }
  - { offset: 0x71FCB, size: 0x8, addend: 0x0, symName: __ZN3std3env11current_dir17h09876c9b4b89060dE, symObjAddr: 0xF800, symBinAddr: 0x10001E500, symSize: 0x1C0 }
  - { offset: 0x72408, size: 0x8, addend: 0x0, symName: __ZN3std3env4_var17h75d65b34efbdced7E, symObjAddr: 0xFAA0, symBinAddr: 0x10001E6C0, symSize: 0xA0 }
  - { offset: 0x72504, size: 0x8, addend: 0x0, symName: __ZN3std3env7_var_os17ha90d6152c34619e1E, symObjAddr: 0xFB80, symBinAddr: 0x10001E760, symSize: 0x170 }
  - { offset: 0x727C4, size: 0x8, addend: 0x0, symName: __ZN3std3env7vars_os17hc4844c317b828c1aE, symObjAddr: 0xFF30, symBinAddr: 0x10001E8D0, symSize: 0x440 }
  - { offset: 0x73541, size: 0x8, addend: 0x0, symName: __ZN5alloc5alloc15exchange_malloc17hdc54b6ad35f557b1E, symObjAddr: 0x452D0, symBinAddr: 0x100039D30, symSize: 0x40 }
  - { offset: 0x747C3, size: 0x8, addend: 0x0, symName: '__ZN64_$LT$alloc..ffi..c_str..NulError$u20$as$u20$core..fmt..Debug$GT$3fmt17h42a8844572b8105bE', symObjAddr: 0x524F0, symBinAddr: 0x100043CB0, symSize: 0x50 }
  - { offset: 0x75977, size: 0x8, addend: 0x0, symName: '__ZN5alloc11collections5btree4node208Handle$LT$alloc..collections..btree..node..NodeRef$LT$alloc..collections..btree..node..marker..Mut$C$K$C$V$C$alloc..collections..btree..node..marker..Leaf$GT$$C$alloc..collections..btree..node..marker..KV$GT$5split17h2e0ddf5cd10d99d6E', symObjAddr: 0x40F70, symBinAddr: 0x100036840, symSize: 0x1C0 }
  - { offset: 0x75D53, size: 0x8, addend: 0x0, symName: '__ZN5alloc11collections5btree4node208Handle$LT$alloc..collections..btree..node..NodeRef$LT$alloc..collections..btree..node..marker..Mut$C$K$C$V$C$alloc..collections..btree..node..marker..Leaf$GT$$C$alloc..collections..btree..node..marker..KV$GT$5split17hb1ffacf0e82edab8E', symObjAddr: 0x41330, symBinAddr: 0x100036A00, symSize: 0x1F0 }
  - { offset: 0x76205, size: 0x8, addend: 0x0, symName: '__ZN5alloc11collections5btree4node212Handle$LT$alloc..collections..btree..node..NodeRef$LT$alloc..collections..btree..node..marker..Mut$C$K$C$V$C$alloc..collections..btree..node..marker..Internal$GT$$C$alloc..collections..btree..node..marker..KV$GT$5split17h17c643d4c82620a0E', symObjAddr: 0x41820, symBinAddr: 0x100036BF0, symSize: 0x280 }
  - { offset: 0x7674F, size: 0x8, addend: 0x0, symName: '__ZN5alloc11collections5btree4node212Handle$LT$alloc..collections..btree..node..NodeRef$LT$alloc..collections..btree..node..marker..Mut$C$K$C$V$C$alloc..collections..btree..node..marker..Internal$GT$$C$alloc..collections..btree..node..marker..KV$GT$5split17hce29b28e134d751bE', symObjAddr: 0x41AA0, symBinAddr: 0x100036E70, symSize: 0x2F0 }
  - { offset: 0x76E62, size: 0x8, addend: 0x0, symName: '__ZN5alloc11collections5btree6remove259_$LT$impl$u20$alloc..collections..btree..node..Handle$LT$alloc..collections..btree..node..NodeRef$LT$alloc..collections..btree..node..marker..Mut$C$K$C$V$C$alloc..collections..btree..node..marker..Leaf$GT$$C$alloc..collections..btree..node..marker..KV$GT$$GT$14remove_leaf_kv17h2a34ebe0da4333d8E', symObjAddr: 0x434D0, symBinAddr: 0x1000388A0, symSize: 0x8C0 }
  - { offset: 0x77AA3, size: 0x8, addend: 0x0, symName: '__ZN5alloc11collections5btree6remove259_$LT$impl$u20$alloc..collections..btree..node..Handle$LT$alloc..collections..btree..node..NodeRef$LT$alloc..collections..btree..node..marker..Mut$C$K$C$V$C$alloc..collections..btree..node..marker..Leaf$GT$$C$alloc..collections..btree..node..marker..KV$GT$$GT$14remove_leaf_kv17hc8882eb65a8263c2E', symObjAddr: 0x43D90, symBinAddr: 0x100039160, symSize: 0x900 }
  - { offset: 0x788A2, size: 0x8, addend: 0x0, symName: '__ZN5alloc11collections5btree4node29BalancingContext$LT$K$C$V$GT$15bulk_steal_left17h3b899cdacc6f7634E', symObjAddr: 0x41D90, symBinAddr: 0x100037160, symSize: 0x400 }
  - { offset: 0x78D68, size: 0x8, addend: 0x0, symName: '__ZN5alloc11collections5btree4node29BalancingContext$LT$K$C$V$GT$15bulk_steal_left17h66a91518f6da12fdE', symObjAddr: 0x42190, symBinAddr: 0x100037560, symSize: 0x370 }
  - { offset: 0x7924C, size: 0x8, addend: 0x0, symName: '__ZN5alloc11collections5btree4node29BalancingContext$LT$K$C$V$GT$16bulk_steal_right17h4e21d715a5e05da5E', symObjAddr: 0x42500, symBinAddr: 0x1000378D0, symSize: 0x3C0 }
  - { offset: 0x79866, size: 0x8, addend: 0x0, symName: '__ZN5alloc11collections5btree4node29BalancingContext$LT$K$C$V$GT$16bulk_steal_right17ha9d1e50b5a62421eE', symObjAddr: 0x428C0, symBinAddr: 0x100037C90, symSize: 0x440 }
  - { offset: 0x79DF4, size: 0x8, addend: 0x0, symName: '__ZN5alloc11collections5btree4node29BalancingContext$LT$K$C$V$GT$8do_merge17h23068df04fc85f6cE', symObjAddr: 0x42D00, symBinAddr: 0x1000380D0, symSize: 0x400 }
  - { offset: 0x7A34B, size: 0x8, addend: 0x0, symName: '__ZN5alloc11collections5btree4node29BalancingContext$LT$K$C$V$GT$8do_merge17h59e33ac8b4f1aedbE', symObjAddr: 0x43100, symBinAddr: 0x1000384D0, symSize: 0x3D0 }
  - { offset: 0x7ABAE, size: 0x8, addend: 0x0, symName: '__ZN5alloc11collections5btree3map25BTreeMap$LT$K$C$V$C$A$GT$6insert17h573ce44374f5ebb6E', symObjAddr: 0x3E760, symBinAddr: 0x100034EB0, symSize: 0xE50 }
  - { offset: 0x7C190, size: 0x8, addend: 0x0, symName: '__ZN5alloc11collections5btree3map25IntoIter$LT$K$C$V$C$A$GT$10dying_next17h0137cfdaf279346fE', symObjAddr: 0x40430, symBinAddr: 0x100035D00, symSize: 0x3C0 }
  - { offset: 0x7C4FC, size: 0x8, addend: 0x0, symName: '__ZN5alloc11collections5btree3map25IntoIter$LT$K$C$V$C$A$GT$10dying_next17h74ba4dc90cd3bd84E', symObjAddr: 0x407F0, symBinAddr: 0x1000360C0, symSize: 0x3C0 }
  - { offset: 0x7C868, size: 0x8, addend: 0x0, symName: '__ZN5alloc11collections5btree3map25IntoIter$LT$K$C$V$C$A$GT$10dying_next17h786570e0d2d29ee1E', symObjAddr: 0x40BB0, symBinAddr: 0x100036480, symSize: 0x3C0 }
  - { offset: 0x7D834, size: 0x8, addend: 0x0, symName: '__ZN5alloc7raw_vec19RawVec$LT$T$C$A$GT$8grow_one17h1578391f1dd2c7daE', symObjAddr: 0x45380, symBinAddr: 0x100039D70, symSize: 0xC0 }
  - { offset: 0x7D94A, size: 0x8, addend: 0x0, symName: '__ZN5alloc7raw_vec19RawVec$LT$T$C$A$GT$8grow_one17h1a8e605a6c9c7a9cE', symObjAddr: 0x45440, symBinAddr: 0x100039E30, symSize: 0xC0 }
  - { offset: 0x7DA75, size: 0x8, addend: 0x0, symName: '__ZN5alloc7raw_vec19RawVec$LT$T$C$A$GT$8grow_one17h496d6c99f941dcd8E', symObjAddr: 0x45500, symBinAddr: 0x100039EF0, symSize: 0xB0 }
  - { offset: 0x7DB8B, size: 0x8, addend: 0x0, symName: '__ZN5alloc7raw_vec19RawVec$LT$T$C$A$GT$8grow_one17h62d92001f5fd4088E', symObjAddr: 0x455B0, symBinAddr: 0x100039FA0, symSize: 0xC0 }
  - { offset: 0x7DCA1, size: 0x8, addend: 0x0, symName: '__ZN5alloc7raw_vec19RawVec$LT$T$C$A$GT$8grow_one17h882f0afd17fb4cf1E', symObjAddr: 0x45670, symBinAddr: 0x10003A060, symSize: 0xC0 }
  - { offset: 0x7DDCC, size: 0x8, addend: 0x0, symName: '__ZN5alloc7raw_vec19RawVec$LT$T$C$A$GT$8grow_one17h9215a3a3eddacbe8E', symObjAddr: 0x45730, symBinAddr: 0x10003A120, symSize: 0xC0 }
  - { offset: 0x7DEE2, size: 0x8, addend: 0x0, symName: '__ZN5alloc7raw_vec19RawVec$LT$T$C$A$GT$8grow_one17h944deff35e2917e9E', symObjAddr: 0x457F0, symBinAddr: 0x10003A1E0, symSize: 0xC0 }
  - { offset: 0x7E00D, size: 0x8, addend: 0x0, symName: '__ZN5alloc7raw_vec19RawVec$LT$T$C$A$GT$8grow_one17h9e141b6ec2b6b304E', symObjAddr: 0x458B0, symBinAddr: 0x10003A2A0, symSize: 0xB0 }
  - { offset: 0x7E123, size: 0x8, addend: 0x0, symName: '__ZN5alloc7raw_vec19RawVec$LT$T$C$A$GT$8grow_one17haba969b9d90e429dE', symObjAddr: 0x45960, symBinAddr: 0x10003A350, symSize: 0xC0 }
  - { offset: 0x7E24E, size: 0x8, addend: 0x0, symName: '__ZN5alloc7raw_vec19RawVec$LT$T$C$A$GT$8grow_one17hea102eabff85231dE', symObjAddr: 0x45AD0, symBinAddr: 0x10003A410, symSize: 0xB0 }
  - { offset: 0x7E364, size: 0x8, addend: 0x0, symName: '__ZN5alloc7raw_vec19RawVec$LT$T$C$A$GT$8grow_one17hf1b3041c36e8ca25E', symObjAddr: 0x45B80, symBinAddr: 0x10003A4C0, symSize: 0xB0 }
  - { offset: 0x7E6DA, size: 0x8, addend: 0x0, symName: __ZN5alloc7raw_vec11finish_grow17h446b951c64c58a29E, symObjAddr: 0x45310, symBinAddr: 0x10005A780, symSize: 0x70 }
  - { offset: 0x7E766, size: 0x8, addend: 0x0, symName: '__ZN5alloc7raw_vec20RawVecInner$LT$A$GT$7reserve21do_reserve_and_handle17ha31d691a92aa6984E', symObjAddr: 0x45C30, symBinAddr: 0x10005A7F0, symSize: 0xE0 }
  - { offset: 0x7EA1E, size: 0x8, addend: 0x0, symName: '__ZN58_$LT$alloc..string..String$u20$as$u20$core..fmt..Debug$GT$3fmt17hc75db25d6de527ebE', symObjAddr: 0x3CEA0, symBinAddr: 0x100034CF0, symSize: 0x20 }
  - { offset: 0x7EAD9, size: 0x8, addend: 0x0, symName: '__ZN58_$LT$alloc..string..String$u20$as$u20$core..fmt..Write$GT$10write_char17hba3be11e36d4a54fE', symObjAddr: 0x3CEC0, symBinAddr: 0x100034D10, symSize: 0x120 }
  - { offset: 0x7EC5F, size: 0x8, addend: 0x0, symName: '__ZN58_$LT$alloc..string..String$u20$as$u20$core..fmt..Write$GT$9write_str17h0e3a6c0844845614E', symObjAddr: 0x3CFE0, symBinAddr: 0x100034E30, symSize: 0x70 }
  - { offset: 0x7ED59, size: 0x8, addend: 0x0, symName: '__ZN60_$LT$alloc..string..String$u20$as$u20$core..fmt..Display$GT$3fmt17h3ce6768c6f20d89dE', symObjAddr: 0x4EC80, symBinAddr: 0x1000434E0, symSize: 0x20 }
  - { offset: 0x7F204, size: 0x8, addend: 0x0, symName: '__ZN5alloc4sync16Arc$LT$T$C$A$GT$9drop_slow17h165e22aa5ecb5c14E', symObjAddr: 0x44F90, symBinAddr: 0x100039A60, symSize: 0x90 }
  - { offset: 0x7F500, size: 0x8, addend: 0x0, symName: '__ZN5alloc4sync16Arc$LT$T$C$A$GT$9drop_slow17h1b88c69b37654d90E', symObjAddr: 0x45020, symBinAddr: 0x100039AF0, symSize: 0xA0 }
  - { offset: 0x7F709, size: 0x8, addend: 0x0, symName: '__ZN5alloc4sync16Arc$LT$T$C$A$GT$9drop_slow17h38a2709360a70488E', symObjAddr: 0x450C0, symBinAddr: 0x100039B90, symSize: 0x60 }
  - { offset: 0x7F8D1, size: 0x8, addend: 0x0, symName: '__ZN5alloc4sync16Arc$LT$T$C$A$GT$9drop_slow17h4fe547a59c8e5f5cE', symObjAddr: 0x45120, symBinAddr: 0x100039BF0, symSize: 0x30 }
  - { offset: 0x7F9B2, size: 0x8, addend: 0x0, symName: '__ZN5alloc4sync16Arc$LT$T$C$A$GT$9drop_slow17h5dbc3385cf3806bdE', symObjAddr: 0x45150, symBinAddr: 0x100039C20, symSize: 0x70 }
  - { offset: 0x7FB58, size: 0x8, addend: 0x0, symName: '__ZN5alloc4sync16Arc$LT$T$C$A$GT$9drop_slow17h6f3c55e925f13c23E', symObjAddr: 0x451C0, symBinAddr: 0x100039C90, symSize: 0xA0 }
  - { offset: 0x8072A, size: 0x8, addend: 0x0, symName: __ZN6object4read7archive13ArchiveMember5parse17hd3e51da29e5488c1E, symObjAddr: 0x53F80, symBinAddr: 0x100043F60, symSize: 0x350 }
  - { offset: 0x80E81, size: 0x8, addend: 0x0, symName: __ZN6object4read7archive23parse_bsd_extended_name17h1aeb333c92faa5e9E, symObjAddr: 0x542D0, symBinAddr: 0x1000442B0, symSize: 0xB0 }
  - { offset: 0x81295, size: 0x8, addend: 0x0, symName: '__ZN9addr2line4unit16ResUnit$LT$R$GT$25find_function_or_location28_$u7b$$u7b$closure$u7d$$u7d$17h74f8b46b09233272E', symObjAddr: 0x5B2C0, symBinAddr: 0x1000461A0, symSize: 0x2F0 }
  - { offset: 0x8163B, size: 0x8, addend: 0x0, symName: '__ZN9addr2line4unit16ResUnit$LT$R$GT$25find_function_or_location17h779b8cc8975ca827E', symObjAddr: 0x5AE20, symBinAddr: 0x100045D00, symSize: 0x4A0 }
  - { offset: 0x81B66, size: 0x8, addend: 0x0, symName: '__ZN9addr2line16Context$LT$R$GT$9find_unit17hafe5c4000e4dcc90E', symObjAddr: 0x5A630, symBinAddr: 0x100045510, symSize: 0x150 }
  - { offset: 0x81D4B, size: 0x8, addend: 0x0, symName: '__ZN9addr2line6lookup30LoopingLookup$LT$T$C$L$C$F$GT$10new_lookup17hcb3afea57a5db3abE', symObjAddr: 0x5B900, symBinAddr: 0x1000467E0, symSize: 0x530 }
  - { offset: 0x82273, size: 0x8, addend: 0x0, symName: __ZN9addr2line4line11render_file17h1c7a4084725a11a9E, symObjAddr: 0x5A780, symBinAddr: 0x100045660, symSize: 0x6A0 }
  - { offset: 0x82C09, size: 0x8, addend: 0x0, symName: '__ZN9addr2line8function17Function$LT$R$GT$14parse_children17h1b46ddfba7fb182cE', symObjAddr: 0x5C240, symBinAddr: 0x100047120, symSize: 0x1390 }
  - { offset: 0x84225, size: 0x8, addend: 0x0, symName: __ZN9addr2line8function10name_entry17h5deb9017d935ead1E, symObjAddr: 0x5BE30, symBinAddr: 0x100046D10, symSize: 0x410 }
  - { offset: 0x84681, size: 0x8, addend: 0x0, symName: __ZN9addr2line8function9name_attr17hc5ba8693362fa215E, symObjAddr: 0x5D5D0, symBinAddr: 0x1000484B0, symSize: 0x1B0 }
  - { offset: 0x848A6, size: 0x8, addend: 0x0, symName: '__ZN9addr2line5frame18FrameIter$LT$R$GT$4next17h7dae5ed4e94f9885E', symObjAddr: 0x5B5B0, symBinAddr: 0x100046490, symSize: 0x350 }
  - { offset: 0x85159, size: 0x8, addend: 0x0, symName: '__ZN5gimli4read5dwarf14Dwarf$LT$R$GT$11attr_string17hc5d4d70dcc99f435E', symObjAddr: 0x4CCF0, symBinAddr: 0x100041550, symSize: 0x210 }
  - { offset: 0x85976, size: 0x8, addend: 0x0, symName: '__ZN5gimli4read5dwarf13Unit$LT$R$GT$3new17h575ffe3f9752d03fE', symObjAddr: 0x4A4A0, symBinAddr: 0x10003ED00, symSize: 0x2850 }
  - { offset: 0x88EF1, size: 0x8, addend: 0x0, symName: '__ZN5gimli4read7aranges30ArangeHeader$LT$R$C$Offset$GT$5parse17h9e159263f6fe8401E', symObjAddr: 0x4DA20, symBinAddr: 0x100042280, symSize: 0x2A0 }
  - { offset: 0x899F4, size: 0x8, addend: 0x0, symName: '__ZN5gimli4read4unit18Attribute$LT$R$GT$5value17h523c462abedaae9bE', symObjAddr: 0x492D0, symBinAddr: 0x10003DB30, symSize: 0x7C0 }
  - { offset: 0x89DFF, size: 0x8, addend: 0x0, symName: '__ZN90_$LT$gimli..read..unit..AttributeValue$LT$R$C$Offset$GT$$u20$as$u20$core..clone..Clone$GT$5clone17h098c211905b07158E', symObjAddr: 0x590A0, symBinAddr: 0x100044C20, symSize: 0x120 }
  - { offset: 0x89E5F, size: 0x8, addend: 0x0, symName: '__ZN5gimli4read4unit32AttributeValue$LT$R$C$Offset$GT$11udata_value17h684c5d824dd1bde2E', symObjAddr: 0x49DC0, symBinAddr: 0x10003E620, symSize: 0x80 }
  - { offset: 0x89EBA, size: 0x8, addend: 0x0, symName: __ZN5gimli4read4unit15parse_attribute17h3d2d3a95c0efe23eE, symObjAddr: 0x47250, symBinAddr: 0x10003BAB0, symSize: 0x1960 }
  - { offset: 0x8D255, size: 0x8, addend: 0x0, symName: __ZN5gimli4read4unit15skip_attributes17h92846bd14a53eed5E, symObjAddr: 0x48BB0, symBinAddr: 0x10003D410, symSize: 0x720 }
  - { offset: 0x8DC23, size: 0x8, addend: 0x0, symName: '__ZN5gimli4read4unit22EntriesCursor$LT$R$GT$10next_entry17hd847dc3188d94e5bE', symObjAddr: 0x49A90, symBinAddr: 0x10003E2F0, symSize: 0x330 }
  - { offset: 0x8E16A, size: 0x8, addend: 0x0, symName: '__ZN5gimli4read4unit33DebugInfoUnitHeadersIter$LT$R$GT$4next17hed0a8460df0391bfE', symObjAddr: 0x49E40, symBinAddr: 0x10003E6A0, symSize: 0x660 }
  - { offset: 0x8F347, size: 0x8, addend: 0x0, symName: __ZN5gimli4read6reader6Reader11read_offset17h5a1a189216526f37E, symObjAddr: 0x4D790, symBinAddr: 0x100041FF0, symSize: 0xB0 }
  - { offset: 0x8F584, size: 0x8, addend: 0x0, symName: __ZN5gimli4read6reader6Reader12read_uleb12817hf97552d5eed3df2dE, symObjAddr: 0x4D840, symBinAddr: 0x1000420A0, symSize: 0xB0 }
  - { offset: 0x8F632, size: 0x8, addend: 0x0, symName: __ZN5gimli4read6reader6Reader17read_sized_offset17h97b79870f9951699E, symObjAddr: 0x4D8F0, symBinAddr: 0x100042150, symSize: 0x130 }
  - { offset: 0x8FD02, size: 0x8, addend: 0x0, symName: '__ZN5gimli4read8rnglists20RngListIter$LT$R$GT$4next17h8b60fae141bf2d6cE', symObjAddr: 0x4DCC0, symBinAddr: 0x100042520, symSize: 0xFC0 }
  - { offset: 0x923CA, size: 0x8, addend: 0x0, symName: '__ZN5gimli4read5index18UnitIndex$LT$R$GT$5parse17h95a74f9af645c1edE', symObjAddr: 0x4CF00, symBinAddr: 0x100041760, symSize: 0x890 }
  - { offset: 0x923E7, size: 0x8, addend: 0x0, symName: '__ZN5gimli4read5index18UnitIndex$LT$R$GT$5parse17h95a74f9af645c1edE', symObjAddr: 0x4CF00, symBinAddr: 0x100041760, symSize: 0x890 }
  - { offset: 0x923FB, size: 0x8, addend: 0x0, symName: '__ZN5gimli4read5index18UnitIndex$LT$R$GT$5parse17h95a74f9af645c1edE', symObjAddr: 0x4CF00, symBinAddr: 0x100041760, symSize: 0x890 }
  - { offset: 0x92AC0, size: 0x8, addend: 0x0, symName: '__ZN5gimli4read4line27FileEntry$LT$R$C$Offset$GT$5parse17hd9bc2270faf33decE', symObjAddr: 0x46FF0, symBinAddr: 0x10003B850, symSize: 0x260 }
  - { offset: 0x92D0C, size: 0x8, addend: 0x0, symName: __ZN5gimli4read4line13parse_file_v517hd02b9988ac8f9c5bE, symObjAddr: 0x45D10, symBinAddr: 0x10003A570, symSize: 0x350 }
  - { offset: 0x92E85, size: 0x8, addend: 0x0, symName: __ZN5gimli4read4line15FileEntryFormat5parse17h2a60ff0d29a79605E, symObjAddr: 0x46060, symBinAddr: 0x10003A8C0, symSize: 0x3B0 }
  - { offset: 0x9361F, size: 0x8, addend: 0x0, symName: __ZN5gimli4read4line15parse_attribute17h7d59469e6c7378d7E, symObjAddr: 0x46410, symBinAddr: 0x10003AC70, symSize: 0xAD0 }
  - { offset: 0x95024, size: 0x8, addend: 0x0, symName: __ZN5gimli4read4line18parse_directory_v517hb56c57b85d13b5daE, symObjAddr: 0x46EE0, symBinAddr: 0x10003B740, symSize: 0x110 }
  - { offset: 0x952D8, size: 0x8, addend: 0x0, symName: __RNvCskdKJRKLKjqM_7___rustc18___rust_start_panic, symObjAddr: 0x0, symBinAddr: 0x100048CA0, symSize: 0xB0 }
  - { offset: 0x953B3, size: 0x8, addend: 0x0, symName: __ZN12panic_unwind3imp5panic17exception_cleanup17hb98a4cfa7a07ae95E, symObjAddr: 0x100, symBinAddr: 0x100048DA0, symSize: 0x20 }
  - { offset: 0x953CF, size: 0x8, addend: 0x0, symName: __RNvCskdKJRKLKjqM_7___rustc18___rust_start_panic, symObjAddr: 0x0, symBinAddr: 0x100048CA0, symSize: 0xB0 }
  - { offset: 0x95459, size: 0x8, addend: 0x0, symName: __RNvCskdKJRKLKjqM_7___rustc20___rust_panic_cleanup, symObjAddr: 0xB0, symBinAddr: 0x100048D50, symSize: 0x50 }
  - { offset: 0x954FC, size: 0x8, addend: 0x0, symName: '__ZN4core3ptr49drop_in_place$LT$panic_unwind..imp..Exception$GT$17h0f7b2fc4f2fea7f1E', symObjAddr: 0x120, symBinAddr: 0x100048DC0, symSize: 0x70 }
  - { offset: 0x95603, size: 0x8, addend: 0x0, symName: '__ZN4core3ptr74drop_in_place$LT$alloc..boxed..Box$LT$panic_unwind..imp..Exception$GT$$GT$17hcd43110ac76b9736E', symObjAddr: 0x190, symBinAddr: 0x100048E30, symSize: 0x89 }
  - { offset: 0x95A4D, size: 0x8, addend: 0x0, symName: __ZN6memchr4arch6x86_646memchr10memchr_raw6detect17h2099730146b20b08E, symObjAddr: 0xF90, symBinAddr: 0x1000491E0, symSize: 0x1C0 }
  - { offset: 0x96002, size: 0x8, addend: 0x0, symName: __ZN6memchr4arch6x86_646memchr10memchr_raw9find_sse217ha1fdf339af5e94d5E, symObjAddr: 0x1150, symBinAddr: 0x1000493A0, symSize: 0x1B0 }
  - { offset: 0x9658D, size: 0x8, addend: 0x0, symName: __ZN6memchr4arch6x86_646memchr11memchr2_raw6detect17h84a70ada683e86a1E, symObjAddr: 0x1300, symBinAddr: 0x100049550, symSize: 0x1A0 }
  - { offset: 0x96C20, size: 0x8, addend: 0x0, symName: __ZN6memchr4arch6x86_646memchr11memchr2_raw9find_sse217hc70ae4e2a27bbbefE, symObjAddr: 0x14A0, symBinAddr: 0x1000496F0, symSize: 0x1A0 }
  - { offset: 0x97484, size: 0x8, addend: 0x0, symName: '__ZN69_$LT$core..alloc..layout..LayoutError$u20$as$u20$core..fmt..Debug$GT$3fmt17hb904d59a11340822E', symObjAddr: 0x57F0, symBinAddr: 0x1000511D0, symSize: 0x20 }
  - { offset: 0x9770D, size: 0x8, addend: 0x0, symName: __ZN5alloc5alloc18handle_alloc_error17h3762db9dd870b9a9E, symObjAddr: 0x35BA, symBinAddr: 0x10005A9DA, symSize: 0x16 }
  - { offset: 0x979AA, size: 0x8, addend: 0x0, symName: __ZN5alloc7raw_vec11finish_grow17h3ef34721aec5e3b7E, symObjAddr: 0x52C0, symBinAddr: 0x10005A9F0, symSize: 0x6E }
  - { offset: 0x97A1F, size: 0x8, addend: 0x0, symName: __ZN5alloc7raw_vec12handle_error17h937a4fa340d4a4b8E, symObjAddr: 0x532E, symBinAddr: 0x10005AA5E, symSize: 0x22 }
  - { offset: 0x97A5E, size: 0x8, addend: 0x0, symName: __ZN5alloc7raw_vec17capacity_overflow17hfafd9746150329d6E, symObjAddr: 0x5350, symBinAddr: 0x10005AA80, symSize: 0x40 }
  - { offset: 0x97A97, size: 0x8, addend: 0x0, symName: '__ZN5alloc7raw_vec20RawVecInner$LT$A$GT$7reserve21do_reserve_and_handle17h05c0f4d79cdd84bfE', symObjAddr: 0x5430, symBinAddr: 0x10005AAC0, symSize: 0xB0 }
  - { offset: 0x97C23, size: 0x8, addend: 0x0, symName: '__ZN254_$LT$alloc..boxed..convert..$LT$impl$u20$core..convert..From$LT$alloc..string..String$GT$$u20$for$u20$alloc..boxed..Box$LT$dyn$u20$core..error..Error$u2b$core..marker..Sync$u2b$core..marker..Send$GT$$GT$..from..StringError$u20$as$u20$core..fmt..Debug$GT$3fmt17hcf569323b84bf267E', symObjAddr: 0x140, symBinAddr: 0x100050D70, symSize: 0x20 }
  - { offset: 0x97CF4, size: 0x8, addend: 0x0, symName: '__ZN256_$LT$alloc..boxed..convert..$LT$impl$u20$core..convert..From$LT$alloc..string..String$GT$$u20$for$u20$alloc..boxed..Box$LT$dyn$u20$core..error..Error$u2b$core..marker..Sync$u2b$core..marker..Send$GT$$GT$..from..StringError$u20$as$u20$core..fmt..Display$GT$3fmt17h1b1a69dfec465030E', symObjAddr: 0x160, symBinAddr: 0x100050D90, symSize: 0x20 }
  - { offset: 0x97DE7, size: 0x8, addend: 0x0, symName: '__ZN100_$LT$alloc..ffi..c_str..CString$u20$as$u20$core..convert..From$LT$$RF$core..ffi..c_str..CStr$GT$$GT$4from17hc090e98bd546633bE', symObjAddr: 0xC0, symBinAddr: 0x100050CF0, symSize: 0x80 }
  - { offset: 0x97F57, size: 0x8, addend: 0x0, symName: __ZN5alloc3ffi5c_str7CString19_from_vec_unchecked17ha526334e500b1abdE, symObjAddr: 0xC50, symBinAddr: 0x100050DB0, symSize: 0x120 }
  - { offset: 0x982A7, size: 0x8, addend: 0x0, symName: __ZN5alloc3ffi5c_str7CString8from_raw17h143e54ce9e8a4932E, symObjAddr: 0xE20, symBinAddr: 0x100050ED0, symSize: 0x20 }
  - { offset: 0x982E0, size: 0x8, addend: 0x0, symName: '__ZN72_$LT$$RF$str$u20$as$u20$alloc..ffi..c_str..CString..new..SpecNewImpl$GT$13spec_new_impl17h86c6e2e3ca147532E', symObjAddr: 0x5810, symBinAddr: 0x1000511F0, symSize: 0x120 }
  - { offset: 0x986F6, size: 0x8, addend: 0x0, symName: __ZN5alloc6string6String15from_utf8_lossy17h0471d885b3e9b3ebE, symObjAddr: 0x4790, symBinAddr: 0x100050F60, symSize: 0x270 }
  - { offset: 0x98DA2, size: 0x8, addend: 0x0, symName: '__ZN98_$LT$alloc..string..String$u20$as$u20$core..convert..From$LT$alloc..borrow..Cow$LT$str$GT$$GT$$GT$4from17h1463175ae5508b78E', symObjAddr: 0x61F0, symBinAddr: 0x100051310, symSize: 0xAB }
  - { offset: 0x98FA2, size: 0x8, addend: 0x0, symName: __ZN5alloc4sync32arcinner_layout_for_value_layout17h6aceeaaa01c07cfaE, symObjAddr: 0x2690, symBinAddr: 0x100050EF0, symSize: 0x70 }
  - { offset: 0x98FB9, size: 0x8, addend: 0x0, symName: __ZN5alloc4sync32arcinner_layout_for_value_layout17h6aceeaaa01c07cfaE, symObjAddr: 0x2690, symBinAddr: 0x100050EF0, symSize: 0x70 }
  - { offset: 0x98FCE, size: 0x8, addend: 0x0, symName: __ZN5alloc4sync32arcinner_layout_for_value_layout17h6aceeaaa01c07cfaE, symObjAddr: 0x2690, symBinAddr: 0x100050EF0, symSize: 0x70 }
  - { offset: 0x990F7, size: 0x8, addend: 0x0, symName: '__ZN71_$LT$core..ops..range..Range$LT$Idx$GT$$u20$as$u20$core..fmt..Debug$GT$3fmt17hc330239f60cc9eb3E', symObjAddr: 0x1F4B0, symBinAddr: 0x1000558E0, symSize: 0x50 }
  - { offset: 0x9936E, size: 0x8, addend: 0x0, symName: '__ZN4core4char7methods22_$LT$impl$u20$char$GT$16escape_debug_ext17hb449749641e3affeE', symObjAddr: 0x176B0, symBinAddr: 0x100054CF0, symSize: 0x2D0 }
  - { offset: 0x99566, size: 0x8, addend: 0x0, symName: __ZN4core4char7methods15encode_utf8_raw8do_panic7runtime17hb720cf973e12fcdfE, symObjAddr: 0x17590, symBinAddr: 0x10005AC60, symSize: 0x90 }
  - { offset: 0x99714, size: 0x8, addend: 0x0, symName: __ZN4core3num22from_ascii_radix_panic8do_panic7runtime17hf55c31c541c87b43E, symObjAddr: 0xD980, symBinAddr: 0x10005AB80, symSize: 0x60 }
  - { offset: 0x99747, size: 0x8, addend: 0x0, symName: __ZN4core3num22from_ascii_radix_panic17h56065ab58d046821E, symObjAddr: 0xD970, symBinAddr: 0x10005AB70, symSize: 0x10 }
  - { offset: 0x999F8, size: 0x8, addend: 0x0, symName: __ZN4core6option13expect_failed17h1ec281f12b35982eE, symObjAddr: 0x18040, symBinAddr: 0x10005AED0, symSize: 0x60 }
  - { offset: 0x99A40, size: 0x8, addend: 0x0, symName: __ZN4core6option13unwrap_failed17hd0abc7d118070f58E, symObjAddr: 0x180A0, symBinAddr: 0x10005AF30, symSize: 0x20 }
  - { offset: 0x99F48, size: 0x8, addend: 0x0, symName: __ZN4core5slice5index16slice_index_fail8do_panic7runtime17h41282b038f05ddfaE, symObjAddr: 0x17D00, symBinAddr: 0x10005AD80, symSize: 0x70 }
  - { offset: 0x99F79, size: 0x8, addend: 0x0, symName: __ZN4core5slice5index16slice_index_fail8do_panic7runtime17haaf49c781c78a5c0E, symObjAddr: 0x17D70, symBinAddr: 0x10005ADF0, symSize: 0x70 }
  - { offset: 0x99FAA, size: 0x8, addend: 0x0, symName: __ZN4core5slice5index16slice_index_fail8do_panic7runtime17hae4da62edc07a39fE, symObjAddr: 0x17DE0, symBinAddr: 0x10005AE60, symSize: 0x70 }
  - { offset: 0x99FDD, size: 0x8, addend: 0x0, symName: __ZN4core5slice5index16slice_index_fail17h1a065c4e1a1e0b41E, symObjAddr: 0x17CC0, symBinAddr: 0x10005AD40, symSize: 0x40 }
  - { offset: 0x9A089, size: 0x8, addend: 0x0, symName: __ZN4core5slice6memchr14memchr_aligned17hbe324882bd8e8f20E, symObjAddr: 0x17E50, symBinAddr: 0x100055020, symSize: 0xE0 }
  - { offset: 0x9A183, size: 0x8, addend: 0x0, symName: __ZN4core5slice6memchr7memrchr17h3060eb51c807ecd7E, symObjAddr: 0x17F30, symBinAddr: 0x100055100, symSize: 0x110 }
  - { offset: 0x9A373, size: 0x8, addend: 0x0, symName: __ZN4core5slice4sort6shared9smallsort22panic_on_ord_violation17hd9a4c3c4a8ebe09aE, symObjAddr: 0x17BA0, symBinAddr: 0x10005ACF0, symSize: 0x50 }
  - { offset: 0x9A3B0, size: 0x8, addend: 0x0, symName: __ZN4core5slice4sort6stable5drift11sqrt_approx17h5b54c8126d8482dbE, symObjAddr: 0x17BF0, symBinAddr: 0x100054FF0, symSize: 0x30 }
  - { offset: 0x9A4A5, size: 0x8, addend: 0x0, symName: __ZN4core3fmt9Formatter10debug_list17h9d2456a350d67ad8E, symObjAddr: 0xA1C0, symBinAddr: 0x100052C90, symSize: 0x40 }
  - { offset: 0x9A4E5, size: 0x8, addend: 0x0, symName: __ZN4core3fmt9Formatter11debug_tuple17hdcc53271f394ac41E, symObjAddr: 0xA200, symBinAddr: 0x100052CD0, symSize: 0x50 }
  - { offset: 0x9A53A, size: 0x8, addend: 0x0, symName: __ZN4core3fmt9Formatter12debug_struct17h8c9b9889fabaa42eE, symObjAddr: 0xA250, symBinAddr: 0x100052D20, symSize: 0x40 }
  - { offset: 0x9A5A3, size: 0x8, addend: 0x0, symName: __ZN4core3fmt9Formatter12pad_integral17h5b6fb6906b7fe010E, symObjAddr: 0xA2F0, symBinAddr: 0x100052DC0, symSize: 0x4A0 }
  - { offset: 0x9A832, size: 0x8, addend: 0x0, symName: __ZN4core3fmt9Formatter25debug_tuple_field1_finish17hc108d765633dc1f9E, symObjAddr: 0xACB0, symBinAddr: 0x100053260, symSize: 0x140 }
  - { offset: 0x9AA3A, size: 0x8, addend: 0x0, symName: __ZN4core3fmt9Formatter25debug_tuple_field2_finish17h3020954311064adeE, symObjAddr: 0xADF0, symBinAddr: 0x1000533A0, symSize: 0x1A0 }
  - { offset: 0x9AD32, size: 0x8, addend: 0x0, symName: __ZN4core3fmt9Formatter26debug_struct_field1_finish17h161bc6caec1550cdE, symObjAddr: 0xBA70, symBinAddr: 0x100053540, symSize: 0xB0 }
  - { offset: 0x9AE09, size: 0x8, addend: 0x0, symName: __ZN4core3fmt9Formatter26debug_struct_field2_finish17h9392189e9ab00f59E, symObjAddr: 0xBB20, symBinAddr: 0x1000535F0, symSize: 0xD0 }
  - { offset: 0x9AEE0, size: 0x8, addend: 0x0, symName: __ZN4core3fmt9Formatter3pad17h37b5dfd85e2b0428E, symObjAddr: 0xC000, symBinAddr: 0x1000536C0, symSize: 0x3D0 }
  - { offset: 0x9B152, size: 0x8, addend: 0x0, symName: __ZN4core3fmt9Formatter9write_str17h532155584af4b419E, symObjAddr: 0xC460, symBinAddr: 0x100053A90, symSize: 0x20 }
  - { offset: 0x9B1C2, size: 0x8, addend: 0x0, symName: __ZN4core3fmt8builders11DebugStruct5field17h99bfe0cd343e038aE, symObjAddr: 0x97F0, symBinAddr: 0x100052940, symSize: 0x190 }
  - { offset: 0x9B3D6, size: 0x8, addend: 0x0, symName: __ZN4core3fmt8builders11DebugStruct6finish17h759eca09f088587cE, symObjAddr: 0x9980, symBinAddr: 0x100052AD0, symSize: 0x60 }
  - { offset: 0x9B4FE, size: 0x8, addend: 0x0, symName: __ZN4core3fmt8builders10DebugTuple5field17hcff3261d35d211e6E, symObjAddr: 0x9550, symBinAddr: 0x100052780, symSize: 0x130 }
  - { offset: 0x9B66C, size: 0x8, addend: 0x0, symName: __ZN4core3fmt8builders10DebugTuple6finish17hee865a46ed84494bE, symObjAddr: 0x9680, symBinAddr: 0x1000528B0, symSize: 0x90 }
  - { offset: 0x9B7A7, size: 0x8, addend: 0x0, symName: __ZN4core3fmt8builders8DebugSet5entry17h9ad4bd41e6760f90E, symObjAddr: 0x9F60, symBinAddr: 0x100052B30, symSize: 0x120 }
  - { offset: 0x9B988, size: 0x8, addend: 0x0, symName: __ZN4core3fmt8builders9DebugList6finish17he5544af857123449E, symObjAddr: 0xA180, symBinAddr: 0x100052C50, symSize: 0x40 }
  - { offset: 0x9BA05, size: 0x8, addend: 0x0, symName: '__ZN68_$LT$core..fmt..builders..PadAdapter$u20$as$u20$core..fmt..Write$GT$10write_char17h8781eb8fef702588E', symObjAddr: 0x1E270, symBinAddr: 0x100055600, symSize: 0x60 }
  - { offset: 0x9BA2E, size: 0x8, addend: 0x0, symName: '__ZN68_$LT$core..fmt..builders..PadAdapter$u20$as$u20$core..fmt..Write$GT$9write_str17h3ac9bf90fc6b2989E', symObjAddr: 0x1E2D0, symBinAddr: 0x100055660, symSize: 0x280 }
  - { offset: 0x9BC90, size: 0x8, addend: 0x0, symName: '__ZN57_$LT$core..fmt..Formatter$u20$as$u20$core..fmt..Write$GT$10write_char17h4978b0c667a9d8b0E', symObjAddr: 0x1A5E0, symBinAddr: 0x1000555A0, symSize: 0x20 }
  - { offset: 0x9BCCC, size: 0x8, addend: 0x0, symName: '__ZN40_$LT$str$u20$as$u20$core..fmt..Debug$GT$3fmt17h3cbb4b7bcf7be3d7E', symObjAddr: 0x240, symBinAddr: 0x1000513C0, symSize: 0x3A0 }
  - { offset: 0x9C12F, size: 0x8, addend: 0x0, symName: '__ZN41_$LT$char$u20$as$u20$core..fmt..Debug$GT$3fmt17h4e11ed1b5452e387E', symObjAddr: 0x5E0, symBinAddr: 0x100051760, symSize: 0xA0 }
  - { offset: 0x9C258, size: 0x8, addend: 0x0, symName: '__ZN42_$LT$$RF$T$u20$as$u20$core..fmt..Debug$GT$3fmt17h0f40b67a922b1ec5E', symObjAddr: 0x680, symBinAddr: 0x100051800, symSize: 0x10 }
  - { offset: 0x9C273, size: 0x8, addend: 0x0, symName: '__ZN42_$LT$$RF$T$u20$as$u20$core..fmt..Debug$GT$3fmt17h7680cd2a2d1e04fdE', symObjAddr: 0x6B0, symBinAddr: 0x100051810, symSize: 0x20 }
  - { offset: 0x9C295, size: 0x8, addend: 0x0, symName: '__ZN42_$LT$$RF$T$u20$as$u20$core..fmt..Debug$GT$3fmt17he2aa20ce460ddad7E', symObjAddr: 0x860, symBinAddr: 0x100051830, symSize: 0x10 }
  - { offset: 0x9C2BD, size: 0x8, addend: 0x0, symName: '__ZN42_$LT$str$u20$as$u20$core..fmt..Display$GT$3fmt17h83ec9ba80990d67aE', symObjAddr: 0x870, symBinAddr: 0x100051840, symSize: 0x20 }
  - { offset: 0x9C2E5, size: 0x8, addend: 0x0, symName: '__ZN43_$LT$char$u20$as$u20$core..fmt..Display$GT$3fmt17ha887c9494bff9603E', symObjAddr: 0x8D0, symBinAddr: 0x100051860, symSize: 0xC0 }
  - { offset: 0x9C354, size: 0x8, addend: 0x0, symName: '__ZN44_$LT$$RF$T$u20$as$u20$core..fmt..Display$GT$3fmt17h1fb02a4f1d7d14b9E', symObjAddr: 0x990, symBinAddr: 0x100051920, symSize: 0x20 }
  - { offset: 0x9C428, size: 0x8, addend: 0x0, symName: '__ZN4core3fmt3num3imp51_$LT$impl$u20$core..fmt..Display$u20$for$u20$u8$GT$3fmt17h1a13e7c6295dbb75E', symObjAddr: 0x2630, symBinAddr: 0x100051B00, symSize: 0xA0 }
  - { offset: 0x9C50D, size: 0x8, addend: 0x0, symName: '__ZN4core3fmt3num3imp52_$LT$impl$u20$core..fmt..Display$u20$for$u20$i32$GT$3fmt17h4add2573f547cd42E', symObjAddr: 0x27D0, symBinAddr: 0x100051BA0, symSize: 0x120 }
  - { offset: 0x9C62D, size: 0x8, addend: 0x0, symName: '__ZN4core3fmt3num3imp52_$LT$impl$u20$core..fmt..Display$u20$for$u20$u32$GT$3fmt17haa57ce01fac3917eE', symObjAddr: 0x2B00, symBinAddr: 0x100051CC0, symSize: 0x110 }
  - { offset: 0x9C73A, size: 0x8, addend: 0x0, symName: '__ZN4core3fmt3num3imp52_$LT$impl$u20$core..fmt..Display$u20$for$u20$u64$GT$3fmt17h8b8600c70b3a3ac8E', symObjAddr: 0x2C10, symBinAddr: 0x100051DD0, symSize: 0x110 }
  - { offset: 0x9C875, size: 0x8, addend: 0x0, symName: '__ZN4core3fmt3num52_$LT$impl$u20$core..fmt..LowerHex$u20$for$u20$u8$GT$3fmt17h39a52b6e10cf70aeE', symObjAddr: 0x4AE0, symBinAddr: 0x100052230, symSize: 0x70 }
  - { offset: 0x9C906, size: 0x8, addend: 0x0, symName: '__ZN4core3fmt3num52_$LT$impl$u20$core..fmt..UpperHex$u20$for$u20$u8$GT$3fmt17h865b83e01c77f87fE', symObjAddr: 0x4BC0, symBinAddr: 0x1000522A0, symSize: 0x70 }
  - { offset: 0x9C9AA, size: 0x8, addend: 0x0, symName: '__ZN4core3fmt3num53_$LT$impl$u20$core..fmt..UpperHex$u20$for$u20$u32$GT$3fmt17he24323287b2084c2E', symObjAddr: 0x5170, symBinAddr: 0x100052460, symSize: 0x70 }
  - { offset: 0x9CA3B, size: 0x8, addend: 0x0, symName: '__ZN4core3fmt3num53_$LT$impl$u20$core..fmt..LowerHex$u20$for$u20$u64$GT$3fmt17h3112ef8c0abad7d1E', symObjAddr: 0x4F40, symBinAddr: 0x100052380, symSize: 0x70 }
  - { offset: 0x9CACC, size: 0x8, addend: 0x0, symName: '__ZN4core3fmt3num53_$LT$impl$u20$core..fmt..UpperHex$u20$for$u20$u64$GT$3fmt17hf363a6f2e4cad34eE', symObjAddr: 0x51E0, symBinAddr: 0x1000524D0, symSize: 0x70 }
  - { offset: 0x9CB50, size: 0x8, addend: 0x0, symName: '__ZN4core3fmt3num50_$LT$impl$u20$core..fmt..Debug$u20$for$u20$u64$GT$3fmt17h376bce9b57b8a762E', symObjAddr: 0x3E60, symBinAddr: 0x100051EE0, symSize: 0x1A0 }
  - { offset: 0x9CCE4, size: 0x8, addend: 0x0, symName: '__ZN4core3fmt3num52_$LT$impl$u20$core..fmt..Debug$u20$for$u20$usize$GT$3fmt17h4806199c82f902ceE', symObjAddr: 0x48C0, symBinAddr: 0x100052080, symSize: 0x1B0 }
  - { offset: 0x9CE65, size: 0x8, addend: 0x0, symName: '__ZN4core3fmt3num53_$LT$impl$u20$core..fmt..LowerHex$u20$for$u20$i32$GT$3fmt17hfee837de970427b1E', symObjAddr: 0x4D80, symBinAddr: 0x100052310, symSize: 0x70 }
  - { offset: 0x9CF0B, size: 0x8, addend: 0x0, symName: '__ZN4core3fmt3num53_$LT$impl$u20$core..fmt..UpperHex$u20$for$u20$i32$GT$3fmt17h26acf60f65152f77E', symObjAddr: 0x5020, symBinAddr: 0x1000523F0, symSize: 0x70 }
  - { offset: 0x9D12C, size: 0x8, addend: 0x0, symName: __ZN4core3fmt17pointer_fmt_inner17h97023b135e02a0e7E, symObjAddr: 0x1240, symBinAddr: 0x100051A60, symSize: 0xA0 }
  - { offset: 0x9D21D, size: 0x8, addend: 0x0, symName: __ZN4core3fmt5Write9write_fmt17h852655db2bea3a71E, symObjAddr: 0x6270, symBinAddr: 0x100052540, symSize: 0x20 }
  - { offset: 0x9D29C, size: 0x8, addend: 0x0, symName: __ZN4core3fmt5write17h32d512c5550f2c71E, symObjAddr: 0x9280, symBinAddr: 0x100052560, symSize: 0x220 }
  - { offset: 0x9D44A, size: 0x8, addend: 0x0, symName: __ZN4core3fmt9Formatter12pad_integral12write_prefix17he3bb54c358307d3fE, symObjAddr: 0xA290, symBinAddr: 0x100052D60, symSize: 0x60 }
  - { offset: 0x9D4B2, size: 0x8, addend: 0x0, symName: '__ZN59_$LT$core..fmt..Arguments$u20$as$u20$core..fmt..Display$GT$3fmt17hfd1b80e04662b19aE', symObjAddr: 0x1B480, symBinAddr: 0x1000555C0, symSize: 0x20 }
  - { offset: 0x9D5D5, size: 0x8, addend: 0x0, symName: __ZN4core6result13unwrap_failed17h5b5681f5bd639151E, symObjAddr: 0x180C0, symBinAddr: 0x10005AF50, symSize: 0x80 }
  - { offset: 0x9D7F7, size: 0x8, addend: 0x0, symName: __ZN4core3str5count14do_count_chars17hc493e781e0338f55E, symObjAddr: 0x16370, symBinAddr: 0x100053E50, symSize: 0x5A0 }
  - { offset: 0x9DC3F, size: 0x8, addend: 0x0, symName: __ZN4core3str5count23char_count_general_case17h45b75eff409d0732E, symObjAddr: 0x16910, symBinAddr: 0x1000543F0, symSize: 0xB0 }
  - { offset: 0x9DC93, size: 0x8, addend: 0x0, symName: __ZN4core3str5count23char_count_general_case17h45b75eff409d0732E, symObjAddr: 0x16910, symBinAddr: 0x1000543F0, symSize: 0xB0 }
  - { offset: 0x9DD10, size: 0x8, addend: 0x0, symName: __ZN4core3str16slice_error_fail17h7ebf3d4aa8bf503fE, symObjAddr: 0x15DF0, symBinAddr: 0x10005ABE0, symSize: 0x10 }
  - { offset: 0x9DD2A, size: 0x8, addend: 0x0, symName: __ZN4core3str19slice_error_fail_rt17hfa55243860877ddbE, symObjAddr: 0x15E40, symBinAddr: 0x100053AB0, symSize: 0x3A0 }
  - { offset: 0x9DF11, size: 0x8, addend: 0x0, symName: __ZN4core3str7pattern11StrSearcher3new17hfab9aab88f91478aE, symObjAddr: 0x16A00, symBinAddr: 0x1000544A0, symSize: 0x640 }
  - { offset: 0x9E1D1, size: 0x8, addend: 0x0, symName: __ZN4core3str8converts9from_utf817hab685de2f5c40023E, symObjAddr: 0x17250, symBinAddr: 0x100054AE0, symSize: 0x210 }
  - { offset: 0x9E23F, size: 0x8, addend: 0x0, symName: '__ZN87_$LT$core..str..lossy..Utf8Chunks$u20$as$u20$core..iter..traits..iterator..Iterator$GT$4next17hc6bf0146e235ca7cE', symObjAddr: 0x217F0, symBinAddr: 0x100055930, symSize: 0x1A0 }
  - { offset: 0x9E453, size: 0x8, addend: 0x0, symName: __ZN4core3ffi5c_str4CStr19from_bytes_with_nul17h663354f457718412E, symObjAddr: 0xFF0, symBinAddr: 0x100051940, symSize: 0x120 }
  - { offset: 0x9E569, size: 0x8, addend: 0x0, symName: __ZN4core4cell22panic_already_borrowed8do_panic7runtime17hb02334c284ba6668E, symObjAddr: 0x17470, symBinAddr: 0x10005AC00, symSize: 0x60 }
  - { offset: 0x9E59C, size: 0x8, addend: 0x0, symName: __ZN4core4cell22panic_already_borrowed17h380a7ae12b05c21bE, symObjAddr: 0x17460, symBinAddr: 0x10005ABF0, symSize: 0x10 }
  - { offset: 0x9E5D1, size: 0x8, addend: 0x0, symName: '__ZN65_$LT$core..cell..BorrowMutError$u20$as$u20$core..fmt..Display$GT$3fmt17hbdc0278247eb0cacE', symObjAddr: 0x1C610, symBinAddr: 0x1000555E0, symSize: 0x20 }
  - { offset: 0x9E621, size: 0x8, addend: 0x0, symName: __ZN4core7unicode12unicode_data15grapheme_extend11lookup_slow17hdcf8fe3bcaa288d6E, symObjAddr: 0x185E0, symBinAddr: 0x100055210, symSize: 0x100 }
  - { offset: 0x9E83C, size: 0x8, addend: 0x0, symName: __ZN4core7unicode9printable12is_printable17hc67588a861ee36a9E, symObjAddr: 0x18AB0, symBinAddr: 0x100055310, symSize: 0x290 }
  - { offset: 0x9EB6D, size: 0x8, addend: 0x0, symName: __ZN4core5alloc6layout6Layout19is_size_align_valid17h9b309ba4c67ddf6eE, symObjAddr: 0x17A30, symBinAddr: 0x100054FC0, symSize: 0x30 }
  - { offset: 0x9EBB7, size: 0x8, addend: 0x0, symName: __ZN4core9panicking11panic_const23panic_const_div_by_zero17h1817bf4a5c63dcf1E, symObjAddr: 0x18D40, symBinAddr: 0x10005AFD0, symSize: 0x40 }
  - { offset: 0x9EBE6, size: 0x8, addend: 0x0, symName: __ZN4core9panicking11panic_const23panic_const_rem_by_zero17h66d921d73263a198E, symObjAddr: 0x18DC0, symBinAddr: 0x10005B010, symSize: 0x40 }
  - { offset: 0x9EC15, size: 0x8, addend: 0x0, symName: __ZN4core9panicking11panic_const24panic_const_add_overflow17hbc5e9fcbe302c148E, symObjAddr: 0x18E00, symBinAddr: 0x10005B050, symSize: 0x40 }
  - { offset: 0x9EC45, size: 0x8, addend: 0x0, symName: __ZN4core9panicking13assert_failed17haff998095acd4f8eE, symObjAddr: 0x192EE, symBinAddr: 0x10005B09E, symSize: 0x2F }
  - { offset: 0x9EC60, size: 0x8, addend: 0x0, symName: __ZN4core9panicking13assert_failed17hf790c8989ead8b5cE, symObjAddr: 0x1931D, symBinAddr: 0x10005B0CD, symSize: 0x33 }
  - { offset: 0x9EC7B, size: 0x8, addend: 0x0, symName: __ZN4core9panicking14panic_nounwind17h4e71c9dba73fe19eE, symObjAddr: 0x19350, symBinAddr: 0x10005B100, symSize: 0x50 }
  - { offset: 0x9ECAA, size: 0x8, addend: 0x0, symName: __ZN4core9panicking16panic_in_cleanup17h278dcedb7b834eecE, symObjAddr: 0x19418, symBinAddr: 0x10005B158, symSize: 0x13 }
  - { offset: 0x9ECC5, size: 0x8, addend: 0x0, symName: __ZN4core9panicking18panic_bounds_check17hd6c879668b498650E, symObjAddr: 0x1942B, symBinAddr: 0x10005B16B, symSize: 0x65 }
  - { offset: 0x9ED04, size: 0x8, addend: 0x0, symName: __ZN4core9panicking18panic_nounwind_fmt17h13cf4419fe26bc7eE, symObjAddr: 0x19490, symBinAddr: 0x10005B1D0, symSize: 0x5B }
  - { offset: 0x9ED49, size: 0x8, addend: 0x0, symName: __ZN4core9panicking19assert_failed_inner17h4305f0dee9388e3cE, symObjAddr: 0x194EB, symBinAddr: 0x10005B22B, symSize: 0x127 }
  - { offset: 0x9ED83, size: 0x8, addend: 0x0, symName: __ZN4core9panicking19panic_cannot_unwind17ha66eab6f79487262E, symObjAddr: 0x19612, symBinAddr: 0x10005B352, symSize: 0x1E }
  - { offset: 0x9ED9E, size: 0x8, addend: 0x0, symName: __ZN4core9panicking26panic_nounwind_nobacktrace17hb4fbf937932f35e4E, symObjAddr: 0x19630, symBinAddr: 0x10005B370, symSize: 0x4D }
  - { offset: 0x9EDCD, size: 0x8, addend: 0x0, symName: __ZN4core9panicking5panic17hea69a7d4c28c810cE, symObjAddr: 0x19780, symBinAddr: 0x10005B3C0, symSize: 0x50 }
  - { offset: 0x9EDFC, size: 0x8, addend: 0x0, symName: __ZN4core9panicking9panic_fmt17h46fb0d6076d2bd77E, symObjAddr: 0x197D0, symBinAddr: 0x10005B410, symSize: 0x20 }
...
