---
triple:          'x86_64-apple-darwin'
binary-path:     '/Users/kema/git/rust-serv/target/debug/build/thiserror-57bf3899993052b0/build_script_build-57bf3899993052b0'
relocations:
  - { offset: 0x1E, size: 0x8, addend: 0x0, symName: __RINvMNtCsieiGu2EXtoJ_4core6optionINtB3_6OptionNtNtNtCsHUR1vrdMJt_3std3ffi6os_str8OsStringE14unwrap_or_elseNCNvCsegt7TmM0mJN_18build_script_build13cargo_env_var0EB1K_, symObjAddr: 0x0, symBinAddr: 0x100000B90, symSize: 0x90 }
  - { offset: 0x84, size: 0x8, addend: 0x0, symName: __RNvXNvNtCsHUR1vrdMJt_3std2io17default_write_fmtINtB2_7AdapterNtNtNtNtB6_3sys5stdio4unix6StderrENtNtCsieiGu2EXtoJ_4core3fmt5Write9write_strCsegt7TmM0mJN_18build_script_build, symObjAddr: 0x49D0, symBinAddr: 0x1000054B0, symSize: 0xA0 }
  - { offset: 0x429, size: 0x8, addend: 0x0, symName: __RNvXsi_NtNtCsHUR1vrdMJt_3std2io5errorNtB5_9ErrorKindNtNtCsieiGu2EXtoJ_4core3cmp9PartialEq2eqCsegt7TmM0mJN_18build_script_build, symObjAddr: 0x5780, symBinAddr: 0x100006260, symSize: 0x20 }
  - { offset: 0x465, size: 0x8, addend: 0x0, symName: __RINvNtCsHUR1vrdMJt_3std2io17default_write_fmtNtNtNtNtB4_3sys5stdio4unix6StderrECsegt7TmM0mJN_18build_script_build, symObjAddr: 0xD70, symBinAddr: 0x100001900, symSize: 0x120 }
  - { offset: 0x7F7, size: 0x8, addend: 0x0, symName: __RINvNtNtCsHUR1vrdMJt_3std3sys9backtrace28___rust_begin_short_backtraceFEuuECsegt7TmM0mJN_18build_script_build, symObjAddr: 0x1D80, symBinAddr: 0x100002870, symSize: 0x20 }
  - { offset: 0x88C, size: 0x8, addend: 0x0, symName: __RNvNtNtNtCsHUR1vrdMJt_3std3sys3pal4unix17decode_error_kindCsegt7TmM0mJN_18build_script_build, symObjAddr: 0x3B00, symBinAddr: 0x1000045E0, symSize: 0x310 }
  - { offset: 0x8F2, size: 0x8, addend: 0x0, symName: __RNvNtNtNtCsHUR1vrdMJt_3std3sys2fs4unix23debug_assert_fd_is_openCsegt7TmM0mJN_18build_script_build, symObjAddr: 0x3A50, symBinAddr: 0x100004530, symSize: 0xB0 }
  - { offset: 0x983, size: 0x8, addend: 0x0, symName: __RNCINvNtCsHUR1vrdMJt_3std2rt10lang_startuE0Csegt7TmM0mJN_18build_script_build, symObjAddr: 0x2550, symBinAddr: 0x100003040, symSize: 0x30 }
  - { offset: 0x9ED, size: 0x8, addend: 0x0, symName: __RINvNtCsHUR1vrdMJt_3std2rt10lang_startuECsegt7TmM0mJN_18build_script_build, symObjAddr: 0xE90, symBinAddr: 0x100001A20, symSize: 0x40 }
  - { offset: 0xB27, size: 0x8, addend: 0x0, symName: __RNvXs5_NtNtNtCsHUR1vrdMJt_3std2os2fd5ownedNtB5_7OwnedFdNtNtNtCsieiGu2EXtoJ_4core3ops4drop4Drop4dropCsegt7TmM0mJN_18build_script_build, symObjAddr: 0x4CE0, symBinAddr: 0x1000057C0, symSize: 0x30 }
  - { offset: 0xD35, size: 0x8, addend: 0x0, symName: __RNvXsZ_NtCsHUR1vrdMJt_3std7processuNtB5_11Termination6reportCsegt7TmM0mJN_18build_script_build, symObjAddr: 0x5250, symBinAddr: 0x100005D30, symSize: 0x10 }
  - { offset: 0xD93, size: 0x8, addend: 0x0, symName: __RINvNtCsHUR1vrdMJt_3std3env3varReECsegt7TmM0mJN_18build_script_build, symObjAddr: 0xED0, symBinAddr: 0x100001A60, symSize: 0x60 }
  - { offset: 0xDC8, size: 0x8, addend: 0x0, symName: __RINvNtCsHUR1vrdMJt_3std3env6var_osReECsegt7TmM0mJN_18build_script_build, symObjAddr: 0xF30, symBinAddr: 0x100001AC0, symSize: 0x60 }
  - { offset: 0xE04, size: 0x8, addend: 0x0, symName: __RNvXsk_NtCsHUR1vrdMJt_3std3envNtB5_8VarErrorNtNtCsieiGu2EXtoJ_4core3fmt5Debug3fmtCsegt7TmM0mJN_18build_script_build, symObjAddr: 0x57A0, symBinAddr: 0x100006280, symSize: 0x90 }
  - { offset: 0x14E6, size: 0x8, addend: 0x0, symName: __RNvNvMs1_NtNtCsieiGu2EXtoJ_4core3ptr8non_nullINtB7_7NonNullpE13new_unchecked18precondition_checkCsegt7TmM0mJN_18build_script_build, symObjAddr: 0x3F60, symBinAddr: 0x100004A40, symSize: 0x90 }
  - { offset: 0x1B8C, size: 0x8, addend: 0x0, symName: __RINvNtCsieiGu2EXtoJ_4core3ptr13drop_in_placeINtNtB4_6option4ItemNtNtNtCsHUR1vrdMJt_3std3ffi6os_str8OsStringEECsegt7TmM0mJN_18build_script_build, symObjAddr: 0x1030, symBinAddr: 0x100001B20, symSize: 0x20 }
  - { offset: 0x1BBB, size: 0x8, addend: 0x0, symName: __RINvNtCsieiGu2EXtoJ_4core3ptr13drop_in_placeINtNtB4_6option6OptionINtBJ_8IntoIterNtNtNtCsHUR1vrdMJt_3std3ffi6os_str8OsStringEEECsegt7TmM0mJN_18build_script_build, symObjAddr: 0x1050, symBinAddr: 0x100001B40, symSize: 0x40 }
  - { offset: 0x1BEA, size: 0x8, addend: 0x0, symName: __RINvNtCsieiGu2EXtoJ_4core3ptr13drop_in_placeINtNtB4_6option6OptionINtNtCslJiobkLta79_5alloc5boxed3BoxSmEEECsegt7TmM0mJN_18build_script_build, symObjAddr: 0x1090, symBinAddr: 0x100001B80, symSize: 0x40 }
  - { offset: 0x1C19, size: 0x8, addend: 0x0, symName: __RINvNtCsieiGu2EXtoJ_4core3ptr13drop_in_placeINtNtB4_6option6OptionINtNtNtNtB4_4iter7sources4once4OnceNtNtNtCsHUR1vrdMJt_3std3ffi6os_str8OsStringEEECsegt7TmM0mJN_18build_script_build, symObjAddr: 0x10D0, symBinAddr: 0x100001BC0, symSize: 0x40 }
  - { offset: 0x1C48, size: 0x8, addend: 0x0, symName: __RINvNtCsieiGu2EXtoJ_4core3ptr13drop_in_placeINtNtB4_6option6OptionINtNtNtNtB4_4iter8adapters5chain5ChainINtBJ_8IntoIterNtNtNtCsHUR1vrdMJt_3std3ffi6os_str8OsStringEB1E_EEECsegt7TmM0mJN_18build_script_build, symObjAddr: 0x1110, symBinAddr: 0x100001C00, symSize: 0x40 }
  - { offset: 0x1C77, size: 0x8, addend: 0x0, symName: __RINvNtCsieiGu2EXtoJ_4core3ptr13drop_in_placeINtNtB4_6option6OptionNtNtNtCsHUR1vrdMJt_3std3ffi6os_str8OsStringEECsegt7TmM0mJN_18build_script_build, symObjAddr: 0x1150, symBinAddr: 0x100001C40, symSize: 0x40 }
  - { offset: 0x1CA6, size: 0x8, addend: 0x0, symName: __RINvNtCsieiGu2EXtoJ_4core3ptr13drop_in_placeINtNtB4_6option6OptionNtNtNtCslJiobkLta79_5alloc3ffi5c_str7CStringEECsegt7TmM0mJN_18build_script_build, symObjAddr: 0x1190, symBinAddr: 0x100001C80, symSize: 0x40 }
  - { offset: 0x1CD5, size: 0x8, addend: 0x0, symName: __RINvNtCsieiGu2EXtoJ_4core3ptr13drop_in_placeINtNtB4_6option6OptionNtNtNtNtNtCsHUR1vrdMJt_3std3sys7process4unix6common5StdioEECsegt7TmM0mJN_18build_script_build, symObjAddr: 0x11D0, symBinAddr: 0x100001CC0, symSize: 0x40 }
  - { offset: 0x1D04, size: 0x8, addend: 0x0, symName: __RINvNtCsieiGu2EXtoJ_4core3ptr13drop_in_placeINtNtB4_6option8IntoIterNtNtNtCsHUR1vrdMJt_3std3ffi6os_str8OsStringEECsegt7TmM0mJN_18build_script_build, symObjAddr: 0x1210, symBinAddr: 0x100001D00, symSize: 0x20 }
  - { offset: 0x1D33, size: 0x8, addend: 0x0, symName: __RINvNtCsieiGu2EXtoJ_4core3ptr13drop_in_placeINtNtB4_6result6ResultNtNtCsHUR1vrdMJt_3std7process10ExitStatusNtNtNtB16_2io5error5ErrorEECsegt7TmM0mJN_18build_script_build, symObjAddr: 0x1230, symBinAddr: 0x100001D20, symSize: 0x30 }
  - { offset: 0x1D62, size: 0x8, addend: 0x0, symName: __RINvNtCsieiGu2EXtoJ_4core3ptr13drop_in_placeINtNtB4_6result6ResultNtNtCsHUR1vrdMJt_3std7process6OutputNtNtNtB16_2io5error5ErrorEECsegt7TmM0mJN_18build_script_build, symObjAddr: 0x1260, symBinAddr: 0x100001D50, symSize: 0x50 }
  - { offset: 0x1D91, size: 0x8, addend: 0x0, symName: __RINvNtCsieiGu2EXtoJ_4core3ptr13drop_in_placeINtNtB4_6result6ResultNtNtCslJiobkLta79_5alloc6string6StringNtNtCsHUR1vrdMJt_3std3env8VarErrorEECsegt7TmM0mJN_18build_script_build, symObjAddr: 0x12B0, symBinAddr: 0x100001DA0, symSize: 0x40 }
  - { offset: 0x1DC0, size: 0x8, addend: 0x0, symName: __RINvNtCsieiGu2EXtoJ_4core3ptr13drop_in_placeINtNtB4_6result6ResultuNtNtNtCsHUR1vrdMJt_3std2io5error5ErrorEECsegt7TmM0mJN_18build_script_build, symObjAddr: 0x12F0, symBinAddr: 0x100001DE0, symSize: 0x40 }
  - { offset: 0x1DEF, size: 0x8, addend: 0x0, symName: __RINvNtCsieiGu2EXtoJ_4core3ptr13drop_in_placeINtNtCslJiobkLta79_5alloc3vec3VecINtNtBL_5boxed3BoxDINtNtNtB4_3ops8function5FnMutuEp6OutputINtNtB4_6result6ResultuNtNtNtCsHUR1vrdMJt_3std2io5error5ErrorENtNtB4_6marker4SyncNtB3b_4SendEL_EEECsegt7TmM0mJN_18build_script_build, symObjAddr: 0x1330, symBinAddr: 0x100001E20, symSize: 0x50 }
  - { offset: 0x1E1E, size: 0x8, addend: 0x0, symName: __RINvNtCsieiGu2EXtoJ_4core3ptr13drop_in_placeINtNtCslJiobkLta79_5alloc3vec3VecPaEECsegt7TmM0mJN_18build_script_build, symObjAddr: 0x1380, symBinAddr: 0x100001E70, symSize: 0x50 }
  - { offset: 0x1E4D, size: 0x8, addend: 0x0, symName: __RINvNtCsieiGu2EXtoJ_4core3ptr13drop_in_placeINtNtCslJiobkLta79_5alloc3vec3VechEECsegt7TmM0mJN_18build_script_build, symObjAddr: 0x13D0, symBinAddr: 0x100001EC0, symSize: 0x50 }
  - { offset: 0x1E7C, size: 0x8, addend: 0x0, symName: __RINvNtCsieiGu2EXtoJ_4core3ptr13drop_in_placeINtNtCslJiobkLta79_5alloc5boxed3BoxDINtNtNtB4_3ops8function5FnMutuEp6OutputINtNtB4_6result6ResultuNtNtNtCsHUR1vrdMJt_3std2io5error5ErrorENtNtB4_6marker4SyncNtB2V_4SendEL_EECsegt7TmM0mJN_18build_script_build, symObjAddr: 0x1420, symBinAddr: 0x100001F10, symSize: 0x70 }
  - { offset: 0x1EAB, size: 0x8, addend: 0x0, symName: __RINvNtCsieiGu2EXtoJ_4core3ptr13drop_in_placeINtNtCslJiobkLta79_5alloc5boxed3BoxDNtNtB4_5error5ErrorNtNtB4_6marker4SyncNtB1B_4SendEL_EECsegt7TmM0mJN_18build_script_build, symObjAddr: 0x1490, symBinAddr: 0x100001F80, symSize: 0x70 }
  - { offset: 0x1EDA, size: 0x8, addend: 0x0, symName: __RINvNtCsieiGu2EXtoJ_4core3ptr13drop_in_placeINtNtCslJiobkLta79_5alloc5boxed3BoxNtNtNtCsHUR1vrdMJt_3std2io5error6CustomEECsegt7TmM0mJN_18build_script_build, symObjAddr: 0x1500, symBinAddr: 0x100001FF0, symSize: 0x50 }
  - { offset: 0x1F09, size: 0x8, addend: 0x0, symName: __RINvNtCsieiGu2EXtoJ_4core3ptr13drop_in_placeINtNtCslJiobkLta79_5alloc5boxed3BoxShEECsegt7TmM0mJN_18build_script_build, symObjAddr: 0x1550, symBinAddr: 0x100002040, symSize: 0x20 }
  - { offset: 0x1F38, size: 0x8, addend: 0x0, symName: __RINvNtCsieiGu2EXtoJ_4core3ptr13drop_in_placeINtNtCslJiobkLta79_5alloc5boxed3BoxSmEECsegt7TmM0mJN_18build_script_build, symObjAddr: 0x1570, symBinAddr: 0x100002060, symSize: 0x20 }
  - { offset: 0x1F67, size: 0x8, addend: 0x0, symName: __RINvNtCsieiGu2EXtoJ_4core3ptr13drop_in_placeINtNtCslJiobkLta79_5alloc7raw_vec6RawVecINtNtBL_5boxed3BoxDINtNtNtB4_3ops8function5FnMutuEp6OutputINtNtB4_6result6ResultuNtNtNtCsHUR1vrdMJt_3std2io5error5ErrorENtNtB4_6marker4SyncNtB3i_4SendEL_EEECsegt7TmM0mJN_18build_script_build, symObjAddr: 0x1590, symBinAddr: 0x100002080, symSize: 0x20 }
  - { offset: 0x1F96, size: 0x8, addend: 0x0, symName: __RINvNtCsieiGu2EXtoJ_4core3ptr13drop_in_placeINtNtCslJiobkLta79_5alloc7raw_vec6RawVecPaEECsegt7TmM0mJN_18build_script_build, symObjAddr: 0x15B0, symBinAddr: 0x1000020A0, symSize: 0x20 }
  - { offset: 0x1FC5, size: 0x8, addend: 0x0, symName: __RINvNtCsieiGu2EXtoJ_4core3ptr13drop_in_placeINtNtCslJiobkLta79_5alloc7raw_vec6RawVechEECsegt7TmM0mJN_18build_script_build, symObjAddr: 0x15D0, symBinAddr: 0x1000020C0, symSize: 0x20 }
  - { offset: 0x1FF4, size: 0x8, addend: 0x0, symName: __RINvNtCsieiGu2EXtoJ_4core3ptr13drop_in_placeINtNtNtCsHUR1vrdMJt_3std2io5error9ErrorDataINtNtCslJiobkLta79_5alloc5boxed3BoxNtBJ_6CustomEEECsegt7TmM0mJN_18build_script_build, symObjAddr: 0x15F0, symBinAddr: 0x1000020E0, symSize: 0x30 }
  - { offset: 0x2023, size: 0x8, addend: 0x0, symName: __RINvNtCsieiGu2EXtoJ_4core3ptr13drop_in_placeINtNtNtNtB4_4iter7sources4once4OnceNtNtNtCsHUR1vrdMJt_3std3ffi6os_str8OsStringEECsegt7TmM0mJN_18build_script_build, symObjAddr: 0x1620, symBinAddr: 0x100002110, symSize: 0x20 }
  - { offset: 0x2052, size: 0x8, addend: 0x0, symName: __RINvNtCsieiGu2EXtoJ_4core3ptr13drop_in_placeINtNtNtNtB4_4iter8adapters5chain5ChainIBH_INtNtB4_6option8IntoIterNtNtNtCsHUR1vrdMJt_3std3ffi6os_str8OsStringEB1m_EINtNtNtBN_7sources4once4OnceB1K_EEECsegt7TmM0mJN_18build_script_build, symObjAddr: 0x1640, symBinAddr: 0x100002130, symSize: 0x60 }
  - { offset: 0x2081, size: 0x8, addend: 0x0, symName: __RINvNtCsieiGu2EXtoJ_4core3ptr13drop_in_placeINtNtNtNtB4_4iter8adapters5chain5ChainINtNtB4_6option8IntoIterNtNtNtCsHUR1vrdMJt_3std3ffi6os_str8OsStringEB1i_EECsegt7TmM0mJN_18build_script_build, symObjAddr: 0x16A0, symBinAddr: 0x100002190, symSize: 0x60 }
  - { offset: 0x20B0, size: 0x8, addend: 0x0, symName: __RINvNtCsieiGu2EXtoJ_4core3ptr13drop_in_placeINtNtNtNtCslJiobkLta79_5alloc11collections5btree3map8BTreeMapNtNtNtCsHUR1vrdMJt_3std3ffi6os_str8OsStringINtNtB4_6option6OptionB1F_EEECsegt7TmM0mJN_18build_script_build, symObjAddr: 0x1700, symBinAddr: 0x1000021F0, symSize: 0x20 }
  - { offset: 0x20DF, size: 0x8, addend: 0x0, symName: __RINvNtCsieiGu2EXtoJ_4core3ptr13drop_in_placeINtNtNtNtCslJiobkLta79_5alloc11collections5btree3map8IntoIterNtNtNtCsHUR1vrdMJt_3std3ffi6os_str8OsStringINtNtB4_6option6OptionB1F_EEECsegt7TmM0mJN_18build_script_build, symObjAddr: 0x1720, symBinAddr: 0x100002210, symSize: 0x20 }
  - { offset: 0x210E, size: 0x8, addend: 0x0, symName: __RINvNtCsieiGu2EXtoJ_4core3ptr13drop_in_placeINtNvMsT_NtNtNtCslJiobkLta79_5alloc11collections5btree4nodeINtBP_6HandleINtBP_7NodeRefNtNtBP_6marker5DyingpppENtB26_2KVE12drop_key_val7DropperINtNtB4_6option6OptionNtNtNtCsHUR1vrdMJt_3std3ffi6os_str8OsStringEEECsegt7TmM0mJN_18build_script_build, symObjAddr: 0x1740, symBinAddr: 0x100002230, symSize: 0x20 }
  - { offset: 0x213D, size: 0x8, addend: 0x0, symName: __RINvNtCsieiGu2EXtoJ_4core3ptr13drop_in_placeINtNvNtCsHUR1vrdMJt_3std2io17default_write_fmt7AdapterNtNtNtNtBN_3sys5stdio4unix6StderrEECsegt7TmM0mJN_18build_script_build, symObjAddr: 0x1760, symBinAddr: 0x100002250, symSize: 0x20 }
  - { offset: 0x216C, size: 0x8, addend: 0x0, symName: __RINvNtCsieiGu2EXtoJ_4core3ptr13drop_in_placeINtNvXsw_NtNtNtCslJiobkLta79_5alloc11collections5btree3mapINtBP_8IntoIterpppENtNtNtB4_3ops4drop4Drop4drop9DropGuardNtNtNtCsHUR1vrdMJt_3std3ffi6os_str8OsStringINtNtB4_6option6OptionB2x_ENtNtBV_5alloc6GlobalEECsegt7TmM0mJN_18build_script_build, symObjAddr: 0x1780, symBinAddr: 0x100002270, symSize: 0x20 }
  - { offset: 0x219B, size: 0x8, addend: 0x0, symName: __RINvNtCsieiGu2EXtoJ_4core3ptr13drop_in_placeNCINvMsi_NtCslJiobkLta79_5alloc3vecINtBP_3VechE14extend_trustedINtNtNtNtB4_4iter8adapters3map3MapINtNtNtB4_5slice4iter4IterhENCNvNtBR_3str13replace_ascii0EE0ECsegt7TmM0mJN_18build_script_build, symObjAddr: 0x17A0, symBinAddr: 0x100002290, symSize: 0x20 }
  - { offset: 0x21CA, size: 0x8, addend: 0x0, symName: __RINvNtCsieiGu2EXtoJ_4core3ptr13drop_in_placeNCINvNtNtNtB4_4iter8adapters3map8map_foldRhhuNCNvNtCslJiobkLta79_5alloc3str13replace_ascii0NCINvNvNtNtNtBP_6traits8iterator8Iterator8for_each4callhNCINvMsi_NtB1v_3vecINtB3c_3VechE14extend_trustedINtBL_3MapINtNtNtB4_5slice4iter4IterhEB1p_EE0E0E0ECsegt7TmM0mJN_18build_script_build, symObjAddr: 0x17C0, symBinAddr: 0x1000022B0, symSize: 0x20 }
  - { offset: 0x21F9, size: 0x8, addend: 0x0, symName: __RINvNtCsieiGu2EXtoJ_4core3ptr13drop_in_placeNCINvNvNtNtNtNtB4_4iter6traits8iterator8Iterator8for_each4callhNCINvMsi_NtCslJiobkLta79_5alloc3vecINtB1Q_3VechE14extend_trustedINtNtNtBT_8adapters3map3MapINtNtNtB4_5slice4iter4IterhENCNvNtB1S_3str13replace_ascii0EE0E0ECsegt7TmM0mJN_18build_script_build, symObjAddr: 0x17E0, symBinAddr: 0x1000022D0, symSize: 0x20 }
  - { offset: 0x2228, size: 0x8, addend: 0x0, symName: __RINvNtCsieiGu2EXtoJ_4core3ptr13drop_in_placeNtNtCsHUR1vrdMJt_3std3env8VarErrorECsegt7TmM0mJN_18build_script_build, symObjAddr: 0x1800, symBinAddr: 0x1000022F0, symSize: 0x40 }
  - { offset: 0x2257, size: 0x8, addend: 0x0, symName: __RINvNtCsieiGu2EXtoJ_4core3ptr13drop_in_placeNtNtCsHUR1vrdMJt_3std4path7PathBufECsegt7TmM0mJN_18build_script_build, symObjAddr: 0x1840, symBinAddr: 0x100002330, symSize: 0x20 }
  - { offset: 0x2286, size: 0x8, addend: 0x0, symName: __RINvNtCsieiGu2EXtoJ_4core3ptr13drop_in_placeNtNtCsHUR1vrdMJt_3std7process6OutputECsegt7TmM0mJN_18build_script_build, symObjAddr: 0x1860, symBinAddr: 0x100002350, symSize: 0x60 }
  - { offset: 0x22B5, size: 0x8, addend: 0x0, symName: __RINvNtCsieiGu2EXtoJ_4core3ptr13drop_in_placeNtNtCsHUR1vrdMJt_3std7process7CommandECsegt7TmM0mJN_18build_script_build, symObjAddr: 0x18C0, symBinAddr: 0x1000023B0, symSize: 0x20 }
  - { offset: 0x22E4, size: 0x8, addend: 0x0, symName: __RINvNtCsieiGu2EXtoJ_4core3ptr13drop_in_placeNtNtCslJiobkLta79_5alloc6string6StringECsegt7TmM0mJN_18build_script_build, symObjAddr: 0x18E0, symBinAddr: 0x1000023D0, symSize: 0x20 }
  - { offset: 0x2313, size: 0x8, addend: 0x0, symName: __RINvNtCsieiGu2EXtoJ_4core3ptr13drop_in_placeNtNtNtCsHUR1vrdMJt_3std2io5error5ErrorECsegt7TmM0mJN_18build_script_build, symObjAddr: 0x1900, symBinAddr: 0x1000023F0, symSize: 0x20 }
  - { offset: 0x2342, size: 0x8, addend: 0x0, symName: __RINvNtCsieiGu2EXtoJ_4core3ptr13drop_in_placeNtNtNtCsHUR1vrdMJt_3std2io5error6CustomECsegt7TmM0mJN_18build_script_build, symObjAddr: 0x1920, symBinAddr: 0x100002410, symSize: 0x20 }
  - { offset: 0x2371, size: 0x8, addend: 0x0, symName: __RINvNtCsieiGu2EXtoJ_4core3ptr13drop_in_placeNtNtNtCsHUR1vrdMJt_3std3ffi6os_str8OsStringECsegt7TmM0mJN_18build_script_build, symObjAddr: 0x1940, symBinAddr: 0x100002430, symSize: 0x20 }
  - { offset: 0x23A0, size: 0x8, addend: 0x0, symName: __RINvNtCsieiGu2EXtoJ_4core3ptr13drop_in_placeNtNtNtCslJiobkLta79_5alloc3ffi5c_str7CStringECsegt7TmM0mJN_18build_script_build, symObjAddr: 0x1960, symBinAddr: 0x100002450, symSize: 0x50 }
  - { offset: 0x23CF, size: 0x8, addend: 0x0, symName: __RINvNtCsieiGu2EXtoJ_4core3ptr13drop_in_placeNtNtNtCslJiobkLta79_5alloc3vec15set_len_on_drop12SetLenOnDropECsegt7TmM0mJN_18build_script_build, symObjAddr: 0x19B0, symBinAddr: 0x1000024A0, symSize: 0x20 }
  - { offset: 0x23FE, size: 0x8, addend: 0x0, symName: __RINvNtCsieiGu2EXtoJ_4core3ptr13drop_in_placeNtNtNtNtCsHUR1vrdMJt_3std2io5error14repr_bitpacked4ReprECsegt7TmM0mJN_18build_script_build, symObjAddr: 0x19D0, symBinAddr: 0x1000024C0, symSize: 0x20 }
  - { offset: 0x242D, size: 0x8, addend: 0x0, symName: __RINvNtCsieiGu2EXtoJ_4core3ptr13drop_in_placeNtNtNtNtCsHUR1vrdMJt_3std2os2fd5owned7OwnedFdECsegt7TmM0mJN_18build_script_build, symObjAddr: 0x19F0, symBinAddr: 0x1000024E0, symSize: 0x20 }
  - { offset: 0x245C, size: 0x8, addend: 0x0, symName: __RINvNtCsieiGu2EXtoJ_4core3ptr13drop_in_placeNtNtNtNtCsHUR1vrdMJt_3std3sys2fd4unix8FileDescECsegt7TmM0mJN_18build_script_build, symObjAddr: 0x1A10, symBinAddr: 0x100002500, symSize: 0x20 }
  - { offset: 0x248B, size: 0x8, addend: 0x0, symName: __RINvNtCsieiGu2EXtoJ_4core3ptr13drop_in_placeNtNtNtNtCsHUR1vrdMJt_3std3sys6os_str5bytes3BufECsegt7TmM0mJN_18build_script_build, symObjAddr: 0x1A30, symBinAddr: 0x100002520, symSize: 0x20 }
  - { offset: 0x24BA, size: 0x8, addend: 0x0, symName: __RINvNtCsieiGu2EXtoJ_4core3ptr13drop_in_placeNtNtNtNtCsHUR1vrdMJt_3std3sys7process3env10CommandEnvECsegt7TmM0mJN_18build_script_build, symObjAddr: 0x1A50, symBinAddr: 0x100002540, symSize: 0x20 }
  - { offset: 0x24E9, size: 0x8, addend: 0x0, symName: __RINvNtCsieiGu2EXtoJ_4core3ptr13drop_in_placeNtNtNtNtNtCsHUR1vrdMJt_3std3sys7process4unix6common5StdioECsegt7TmM0mJN_18build_script_build, symObjAddr: 0x1A70, symBinAddr: 0x100002560, symSize: 0x30 }
  - { offset: 0x2518, size: 0x8, addend: 0x0, symName: __RINvNtCsieiGu2EXtoJ_4core3ptr13drop_in_placeNtNtNtNtNtCsHUR1vrdMJt_3std3sys7process4unix6common7CommandECsegt7TmM0mJN_18build_script_build, symObjAddr: 0x1AA0, symBinAddr: 0x100002590, symSize: 0x1D0 }
  - { offset: 0x2547, size: 0x8, addend: 0x0, symName: __RINvNtCsieiGu2EXtoJ_4core3ptr13drop_in_placeNtNtNtNtNtNtCsHUR1vrdMJt_3std3sys7process4unix6common13cstring_array12CStringArrayECsegt7TmM0mJN_18build_script_build, symObjAddr: 0x1C70, symBinAddr: 0x100002760, symSize: 0x50 }
  - { offset: 0x2576, size: 0x8, addend: 0x0, symName: __RINvNtCsieiGu2EXtoJ_4core3ptr13drop_in_placeNtNvNtNtNtCslJiobkLta79_5alloc11collections5btree3mem7replace10PanicGuardECsegt7TmM0mJN_18build_script_build, symObjAddr: 0x1CC0, symBinAddr: 0x1000027B0, symSize: 0x20 }
  - { offset: 0x25A5, size: 0x8, addend: 0x0, symName: __RINvNtCsieiGu2EXtoJ_4core3ptr13drop_in_placeSINtNtCslJiobkLta79_5alloc5boxed3BoxDINtNtNtB4_3ops8function5FnMutuEp6OutputINtNtB4_6result6ResultuNtNtNtCsHUR1vrdMJt_3std2io5error5ErrorENtNtB4_6marker4SyncNtB2W_4SendEL_EECsegt7TmM0mJN_18build_script_build, symObjAddr: 0x1CE0, symBinAddr: 0x1000027D0, symSize: 0xA0 }
  - { offset: 0x27E7, size: 0x8, addend: 0x0, symName: __RNvNvMNtNtCsieiGu2EXtoJ_4core3ptr9const_ptrPp20offset_from_unsigned18precondition_checkCsegt7TmM0mJN_18build_script_build, symObjAddr: 0x3E10, symBinAddr: 0x1000048F0, symSize: 0xA0 }
  - { offset: 0x2C8A, size: 0x8, addend: 0x0, symName: __RNvXs5_NtNtCsieiGu2EXtoJ_4core3num5errorNtB5_15TryFromIntErrorNtNtB9_3fmt5Debug3fmtCsegt7TmM0mJN_18build_script_build, symObjAddr: 0x4C90, symBinAddr: 0x100005770, symSize: 0x50 }
  - { offset: 0x2D65, size: 0x8, addend: 0x0, symName: __RNvNvMs9_NtCsieiGu2EXtoJ_4core3numj13unchecked_add18precondition_checkCsegt7TmM0mJN_18build_script_build, symObjAddr: 0x3FF0, symBinAddr: 0x100004AD0, symSize: 0xA0 }
  - { offset: 0x2E23, size: 0x8, addend: 0x0, symName: __RNvNvMs9_NtCsieiGu2EXtoJ_4core3numj13unchecked_sub18precondition_checkCsegt7TmM0mJN_18build_script_build, symObjAddr: 0x4090, symBinAddr: 0x100004B70, symSize: 0xA0 }
  - { offset: 0x3053, size: 0x8, addend: 0x0, symName: __RNvMsA_NtCsieiGu2EXtoJ_4core3numm16from_ascii_radixCsegt7TmM0mJN_18build_script_build, symObjAddr: 0x29D0, symBinAddr: 0x1000034C0, symSize: 0x640 }
  - { offset: 0x330F, size: 0x8, addend: 0x0, symName: __RNvXsz_NtCsieiGu2EXtoJ_4core3nummNtNtNtB7_3str6traits7FromStr8from_strCsegt7TmM0mJN_18build_script_build, symObjAddr: 0x5C30, symBinAddr: 0x100006710, symSize: 0x40 }
  - { offset: 0x3B2E, size: 0x8, addend: 0x0, symName: __RNvXsC_NtCsieiGu2EXtoJ_4core6optionINtB5_6OptionNtNtCsHUR1vrdMJt_3std7process6OutputENtNtNtB7_3ops9try_trait3Try6branchCsegt7TmM0mJN_18build_script_build, symObjAddr: 0x5120, symBinAddr: 0x100005C00, symSize: 0x80 }
  - { offset: 0x3B84, size: 0x8, addend: 0x0, symName: __RNvXsC_NtCsieiGu2EXtoJ_4core6optionINtB5_6OptionReENtNtNtB7_3ops9try_trait3Try6branchCsegt7TmM0mJN_18build_script_build, symObjAddr: 0x51A0, symBinAddr: 0x100005C80, symSize: 0x60 }
  - { offset: 0x3CEF, size: 0x8, addend: 0x0, symName: __RNvXsD_NtCsieiGu2EXtoJ_4core6optionINtB5_6OptionmEINtNtNtB7_3ops9try_trait12FromResidualIBy_NtNtB7_7convert10InfallibleEE13from_residualCsegt7TmM0mJN_18build_script_build, symObjAddr: 0x5200, symBinAddr: 0x100005CE0, symSize: 0x10 }
  - { offset: 0x3FC0, size: 0x8, addend: 0x0, symName: __RNvXs6_NtCsieiGu2EXtoJ_4core6optionINtB5_6OptionNtNtNtCsHUR1vrdMJt_3std3ffi6os_str8OsStringENtNtNtNtB7_4iter6traits7collect12IntoIterator9into_iterCsegt7TmM0mJN_18build_script_build, symObjAddr: 0x4D10, symBinAddr: 0x1000057F0, symSize: 0x40 }
  - { offset: 0x3FFD, size: 0x8, addend: 0x0, symName: __RNvXsd_NtCsieiGu2EXtoJ_4core6optionINtB5_6OptionReENtNtB7_3cmp9PartialEq2eqCsegt7TmM0mJN_18build_script_build, symObjAddr: 0x56D0, symBinAddr: 0x1000061B0, symSize: 0xB0 }
  - { offset: 0x4098, size: 0x8, addend: 0x0, symName: __RNvXsw_NtCsieiGu2EXtoJ_4core6optionINtB5_8IntoIterNtNtNtCsHUR1vrdMJt_3std3ffi6os_str8OsStringENtNtNtNtB7_4iter6traits8iterator8Iterator4nextCsegt7TmM0mJN_18build_script_build, symObjAddr: 0x5B40, symBinAddr: 0x100006620, symSize: 0x50 }
  - { offset: 0x4342, size: 0x8, addend: 0x0, symName: __RNCINvNtNtNtCsieiGu2EXtoJ_4core4iter8adapters3map8map_foldRhhuNCNvNtCslJiobkLta79_5alloc3str13replace_ascii0NCINvNvNtNtNtB8_6traits8iterator8Iterator8for_each4callhNCINvMsi_NtB14_3vecINtB2L_3VechE14extend_trustedINtB4_3MapINtNtNtBa_5slice4iter4IterhEBY_EE0E0E0Csegt7TmM0mJN_18build_script_build, symObjAddr: 0x2580, symBinAddr: 0x100003070, symSize: 0x70 }
  - { offset: 0x43CD, size: 0x8, addend: 0x0, symName: __RINvXs0_NtNtNtCsieiGu2EXtoJ_4core4iter8adapters3mapINtB6_3MapINtNtNtBc_5slice4iter4IterhENCNvNtCslJiobkLta79_5alloc3str13replace_ascii0ENtNtNtBa_6traits8iterator8Iterator4folduNCINvNvB2a_8for_each4callhNCINvMsi_NtB1v_3vecINtB3n_3VechE14extend_trustedBN_E0E0ECsegt7TmM0mJN_18build_script_build, symObjAddr: 0x2110, symBinAddr: 0x100002C00, symSize: 0x60 }
  - { offset: 0x4466, size: 0x8, addend: 0x0, symName: __RNvXs0_NtNtNtCsieiGu2EXtoJ_4core4iter8adapters3mapINtB5_3MapINtNtNtBb_5slice4iter4IterhENCNvNtCslJiobkLta79_5alloc3str13replace_ascii0ENtNtNtB9_6traits8iterator8Iterator9size_hintCsegt7TmM0mJN_18build_script_build, symObjAddr: 0x4AF0, symBinAddr: 0x1000055D0, symSize: 0x30 }
  - { offset: 0x4538, size: 0x8, addend: 0x0, symName: __RINvYINtNtCsieiGu2EXtoJ_4core6option8IntoIterNtNtNtCsHUR1vrdMJt_3std3ffi6os_str8OsStringENtNtNtNtB8_4iter6traits8iterator8Iterator5chainINtB6_6OptionBH_EECsegt7TmM0mJN_18build_script_build, symObjAddr: 0x2340, symBinAddr: 0x100002E30, symSize: 0xE0 }
  - { offset: 0x45B2, size: 0x8, addend: 0x0, symName: __RINvYINtNtNtNtCsieiGu2EXtoJ_4core4iter8adapters3map3MapINtNtNtBc_5slice4iter4IterhENCNvNtCslJiobkLta79_5alloc3str13replace_ascii0ENtNtNtBa_6traits8iterator8Iterator7collectINtNtB1p_3vec3VechEECsegt7TmM0mJN_18build_script_build, symObjAddr: 0x2420, symBinAddr: 0x100002F10, symSize: 0x70 }
  - { offset: 0x4648, size: 0x8, addend: 0x0, symName: __RINvYINtNtNtNtCsieiGu2EXtoJ_4core4iter8adapters3map3MapINtNtNtBc_5slice4iter4IterhENCNvNtCslJiobkLta79_5alloc3str13replace_ascii0ENtNtNtBa_6traits8iterator8Iterator8for_eachNCINvMsi_NtB1p_3vecINtB2U_3VechE14extend_trustedB3_E0ECsegt7TmM0mJN_18build_script_build, symObjAddr: 0x2490, symBinAddr: 0x100002F80, symSize: 0x30 }
  - { offset: 0x46BF, size: 0x8, addend: 0x0, symName: __RNvXNtNtNtCsieiGu2EXtoJ_4core4iter6traits7collectINtNtNtB6_8adapters3map3MapINtNtNtB8_5slice4iter4IterhENCNvNtCslJiobkLta79_5alloc3str13replace_ascii0ENtB2_12IntoIterator9into_iterCsegt7TmM0mJN_18build_script_build, symObjAddr: 0x4930, symBinAddr: 0x100005410, symSize: 0x30 }
  - { offset: 0x46F6, size: 0x8, addend: 0x0, symName: __RNvXNtNtNtCsieiGu2EXtoJ_4core4iter6traits7collectINtNtNtB8_3str4iter5SplitcENtB2_12IntoIterator9into_iterCsegt7TmM0mJN_18build_script_build, symObjAddr: 0x4960, symBinAddr: 0x100005440, symSize: 0x30 }
  - { offset: 0x4A05, size: 0x8, addend: 0x0, symName: __RNvXs_NvNtNtCsieiGu2EXtoJ_4core3fmt5Write9write_fmtQINtNvNtCsHUR1vrdMJt_3std2io17default_write_fmt7AdapterNtNtNtNtBV_3sys5stdio4unix6StderrENtB4_12SpecWriteFmt14spec_write_fmtCsegt7TmM0mJN_18build_script_build, symObjAddr: 0x5560, symBinAddr: 0x100006040, symSize: 0x170 }
  - { offset: 0x4ABC, size: 0x8, addend: 0x0, symName: __RNvYINtNvNtCsHUR1vrdMJt_3std2io17default_write_fmt7AdapterNtNtNtNtB9_3sys5stdio4unix6StderrENtNtCsieiGu2EXtoJ_4core3fmt5Write10write_charCsegt7TmM0mJN_18build_script_build, symObjAddr: 0x5CB0, symBinAddr: 0x100006790, symSize: 0x70 }
  - { offset: 0x4B24, size: 0x8, addend: 0x0, symName: __RNvYINtNvNtCsHUR1vrdMJt_3std2io17default_write_fmt7AdapterNtNtNtNtB9_3sys5stdio4unix6StderrENtNtCsieiGu2EXtoJ_4core3fmt5Write9write_fmtCsegt7TmM0mJN_18build_script_build, symObjAddr: 0x5D20, symBinAddr: 0x100006800, symSize: 0x20 }
  - { offset: 0x4F83, size: 0x8, addend: 0x0, symName: __RINvXs2E_NtNtCsieiGu2EXtoJ_4core5slice4iterINtB7_4IterhENtNtNtNtBb_4iter6traits8iterator8Iterator4folduNCINvNtNtBY_8adapters3map8map_foldRhhuNCNvNtCslJiobkLta79_5alloc3str13replace_ascii0NCINvNvBS_8for_each4callhNCINvMsi_NtB2l_3vecINtB3x_3VechE14extend_trustedINtB1I_3MapBF_B2f_EE0E0E0ECsegt7TmM0mJN_18build_script_build, symObjAddr: 0x2170, symBinAddr: 0x100002C60, symSize: 0x190 }
  - { offset: 0x50C4, size: 0x8, addend: 0x0, symName: __RNvXs2E_NtNtCsieiGu2EXtoJ_4core5slice4iterINtB6_4IterhENtNtNtNtBa_4iter6traits8iterator8Iterator4nextCsegt7TmM0mJN_18build_script_build, symObjAddr: 0x4BA0, symBinAddr: 0x100005680, symSize: 0x90 }
  - { offset: 0x51E5, size: 0x8, addend: 0x0, symName: __RNvXs2E_NtNtCsieiGu2EXtoJ_4core5slice4iterINtB6_4IterhENtNtNtNtBa_4iter6traits8iterator8Iterator9size_hintCsegt7TmM0mJN_18build_script_build, symObjAddr: 0x4C30, symBinAddr: 0x100005710, symSize: 0x60 }
  - { offset: 0x52C0, size: 0x8, addend: 0x0, symName: __RNvNvNtNtCsieiGu2EXtoJ_4core5slice3raw14from_raw_parts18precondition_checkCsegt7TmM0mJN_18build_script_build, symObjAddr: 0x4130, symBinAddr: 0x100004C10, symSize: 0x260 }
  - { offset: 0x548E, size: 0x8, addend: 0x0, symName: __RNvNvNtNtCsieiGu2EXtoJ_4core5slice3raw18from_raw_parts_mut18precondition_checkCsegt7TmM0mJN_18build_script_build, symObjAddr: 0x4390, symBinAddr: 0x100004E70, symSize: 0x260 }
  - { offset: 0x5692, size: 0x8, addend: 0x0, symName: __RNvNtNtCsieiGu2EXtoJ_4core5slice6memchr6memchrCsegt7TmM0mJN_18build_script_build, symObjAddr: 0x3970, symBinAddr: 0x100004450, symSize: 0xE0 }
  - { offset: 0x570B, size: 0x8, addend: 0x0, symName: __RNvNvXs0_NtNtCsieiGu2EXtoJ_4core5slice5indexjINtB7_10SliceIndexSpE13get_unchecked18precondition_checkCsegt7TmM0mJN_18build_script_build, symObjAddr: 0x45F0, symBinAddr: 0x1000050D0, symSize: 0xA0 }
  - { offset: 0x5779, size: 0x8, addend: 0x0, symName: __RNvNvXs0_NtNtCsieiGu2EXtoJ_4core5slice5indexjINtB7_10SliceIndexSpE17get_unchecked_mut18precondition_checkCsegt7TmM0mJN_18build_script_build, symObjAddr: 0x4690, symBinAddr: 0x100005170, symSize: 0xA0 }
  - { offset: 0x57ED, size: 0x8, addend: 0x0, symName: __RNvNvXs2_NtNtCsieiGu2EXtoJ_4core5slice5indexINtNtNtBb_3ops5range5RangejEINtB7_10SliceIndexSpE13get_unchecked18precondition_checkCsegt7TmM0mJN_18build_script_build, symObjAddr: 0x4730, symBinAddr: 0x100005210, symSize: 0xC0 }
  - { offset: 0x59FD, size: 0x8, addend: 0x0, symName: __RINvNtNtCsieiGu2EXtoJ_4core3str11validations15next_code_pointINtNtNtB6_5slice4iter4IterhEECsegt7TmM0mJN_18build_script_build, symObjAddr: 0x1DA0, symBinAddr: 0x100002890, symSize: 0x260 }
  - { offset: 0x5D27, size: 0x8, addend: 0x0, symName: __RNvNvXs5_NtNtCsieiGu2EXtoJ_4core3str6traitsINtNtNtBb_3ops5range5RangejEINtNtNtBb_5slice5index10SliceIndexeE13get_unchecked18precondition_checkCsegt7TmM0mJN_18build_script_build, symObjAddr: 0x47F0, symBinAddr: 0x1000052D0, symSize: 0xC0 }
  - { offset: 0x5DA4, size: 0x8, addend: 0x0, symName: __RNvXs_NtNtCsieiGu2EXtoJ_4core3str6traitseNtNtB8_3cmp9PartialEq2eqCsegt7TmM0mJN_18build_script_build, symObjAddr: 0x52D0, symBinAddr: 0x100005DB0, symSize: 0x90 }
  - { offset: 0x5FD3, size: 0x8, addend: 0x0, symName: __RNCNvMsp_NtNtCsieiGu2EXtoJ_4core3str4iterINtB7_20MatchIndicesInternalReE4next0Csegt7TmM0mJN_18build_script_build, symObjAddr: 0x25F0, symBinAddr: 0x1000030E0, symSize: 0xD0 }
  - { offset: 0x61AC, size: 0x8, addend: 0x0, symName: __RNvXsX_NtNtCsieiGu2EXtoJ_4core3str4iterINtB5_5SplitcENtNtNtNtB9_4iter6traits8iterator8Iterator4nextCsegt7TmM0mJN_18build_script_build, symObjAddr: 0x5230, symBinAddr: 0x100005D10, symSize: 0x20 }
  - { offset: 0x65DB, size: 0x8, addend: 0x0, symName: __RNSNvYNCINvNtCsHUR1vrdMJt_3std2rt10lang_startuE0INtNtNtCsieiGu2EXtoJ_4core3ops8function6FnOnceuE9call_once6vtableCsegt7TmM0mJN_18build_script_build, symObjAddr: 0x26C0, symBinAddr: 0x1000031B0, symSize: 0x20 }
  - { offset: 0x661F, size: 0x8, addend: 0x0, symName: __RNvYFEuINtNtNtCsieiGu2EXtoJ_4core3ops8function6FnOnceuE9call_onceCsegt7TmM0mJN_18build_script_build, symObjAddr: 0x5C70, symBinAddr: 0x100006750, symSize: 0x20 }
  - { offset: 0x665F, size: 0x8, addend: 0x0, symName: __RNvYNCINvNtCsHUR1vrdMJt_3std2rt10lang_startuE0INtNtNtCsieiGu2EXtoJ_4core3ops8function6FnOnceuE9call_onceCsegt7TmM0mJN_18build_script_build, symObjAddr: 0x5D40, symBinAddr: 0x100006820, symSize: 0x40 }
  - { offset: 0x66A3, size: 0x8, addend: 0x0, symName: __RNvYNvYINtNtCsieiGu2EXtoJ_4core6option8IntoIterNtNtNtCsHUR1vrdMJt_3std3ffi6os_str8OsStringENtNtNtNtBa_4iter6traits8iterator8Iterator4nextINtNtNtBa_3ops8function6FnOnceTQB5_EE9call_onceCsegt7TmM0mJN_18build_script_build, symObjAddr: 0x5DA0, symBinAddr: 0x100006880, symSize: 0x30 }
  - { offset: 0x66E7, size: 0x8, addend: 0x0, symName: __RNvYNvYINtNtNtNtCsieiGu2EXtoJ_4core4iter8adapters5chain5ChainINtNtBe_6option8IntoIterNtNtNtCsHUR1vrdMJt_3std3ffi6os_str8OsStringEBX_ENtNtNtBc_6traits8iterator8Iterator4nextINtNtNtBe_3ops8function6FnOnceTQB5_EE9call_onceCsegt7TmM0mJN_18build_script_build, symObjAddr: 0x5DD0, symBinAddr: 0x1000068B0, symSize: 0x30 }
  - { offset: 0x676C, size: 0x8, addend: 0x0, symName: __RNvXNtCsieiGu2EXtoJ_4core7convertReINtB2_5AsRefNtNtCsHUR1vrdMJt_3std4path4PathE6as_refCsegt7TmM0mJN_18build_script_build, symObjAddr: 0x48B0, symBinAddr: 0x100005390, symSize: 0x30 }
  - { offset: 0x67AC, size: 0x8, addend: 0x0, symName: __RNvXNtCsieiGu2EXtoJ_4core7convertReINtB2_5AsRefNtNtNtCsHUR1vrdMJt_3std3ffi6os_str5OsStrE6as_refCsegt7TmM0mJN_18build_script_build, symObjAddr: 0x48E0, symBinAddr: 0x1000053C0, symSize: 0x30 }
  - { offset: 0x67F2, size: 0x8, addend: 0x0, symName: __RNvXs1_NtCsieiGu2EXtoJ_4core7convertNtNtCsHUR1vrdMJt_3std7process5StdioINtB5_4IntoBy_E4intoCsegt7TmM0mJN_18build_script_build, symObjAddr: 0x4B20, symBinAddr: 0x100005600, symSize: 0x20 }
  - { offset: 0x6948, size: 0x8, addend: 0x0, symName: __RNvNvMNtNtCsieiGu2EXtoJ_4core5alloc6layoutNtB4_6Layout25from_size_align_unchecked18precondition_checkCsegt7TmM0mJN_18build_script_build, symObjAddr: 0x3EB0, symBinAddr: 0x100004990, symSize: 0xB0 }
  - { offset: 0x6BB4, size: 0x8, addend: 0x0, symName: __RNvYINtNtCsieiGu2EXtoJ_4core6option6OptionReENtNtB7_3cmp9PartialEq2neCsegt7TmM0mJN_18build_script_build, symObjAddr: 0x5C90, symBinAddr: 0x100006770, symSize: 0x20 }
  - { offset: 0x6C03, size: 0x8, addend: 0x0, symName: __RNvYNtNtNtCsHUR1vrdMJt_3std2io5error9ErrorKindNtNtCsieiGu2EXtoJ_4core3cmp9PartialEq2neCsegt7TmM0mJN_18build_script_build, symObjAddr: 0x5D80, symBinAddr: 0x100006860, symSize: 0x20 }
  - { offset: 0x6C58, size: 0x8, addend: 0x0, symName: __RNvYjNtNtCsieiGu2EXtoJ_4core3cmp3Ord3maxCsegt7TmM0mJN_18build_script_build, symObjAddr: 0x5E00, symBinAddr: 0x1000068E0, symSize: 0x60 }
  - { offset: 0x6FA5, size: 0x8, addend: 0x0, symName: __RNvXs_NtNtCslJiobkLta79_5alloc3vec15set_len_on_dropNtB4_12SetLenOnDropNtNtNtCsieiGu2EXtoJ_4core3ops4drop4Drop4dropCsegt7TmM0mJN_18build_script_build, symObjAddr: 0x5380, symBinAddr: 0x100005E60, symSize: 0x20 }
  - { offset: 0x70AD, size: 0x8, addend: 0x0, symName: __RNCINvMsi_NtCslJiobkLta79_5alloc3vecINtB8_3VechE14extend_trustedINtNtNtNtCsieiGu2EXtoJ_4core4iter8adapters3map3MapINtNtNtB19_5slice4iter4IterhENCNvNtBa_3str13replace_ascii0EE0Csegt7TmM0mJN_18build_script_build, symObjAddr: 0x24C0, symBinAddr: 0x100002FB0, symSize: 0x30 }
  - { offset: 0x715C, size: 0x8, addend: 0x0, symName: __RINvXsd_NtCslJiobkLta79_5alloc3vecINtB6_3VechEINtNtNtNtCsieiGu2EXtoJ_4core4iter6traits7collect12FromIteratorhE9from_iterINtNtNtBP_8adapters3map3MapINtNtNtBR_5slice4iter4IterhENCNvNtB8_3str13replace_ascii0EECsegt7TmM0mJN_18build_script_build, symObjAddr: 0x2300, symBinAddr: 0x100002DF0, symSize: 0x40 }
  - { offset: 0x71A8, size: 0x8, addend: 0x0, symName: __RNvXNtNtCslJiobkLta79_5alloc3vec14spec_from_iterINtB4_3VechEINtB2_12SpecFromIterhINtNtNtNtCsieiGu2EXtoJ_4core4iter8adapters3map3MapINtNtNtB1q_5slice4iter4IterhENCNvNtB6_3str13replace_ascii0EE9from_iterCsegt7TmM0mJN_18build_script_build, symObjAddr: 0x4910, symBinAddr: 0x1000053F0, symSize: 0x20 }
  - { offset: 0x71EE, size: 0x8, addend: 0x0, symName: __RNvXs6_NtCslJiobkLta79_5alloc3vecINtB5_3VechENtNtNtCsieiGu2EXtoJ_4core3ops5deref5Deref5derefCsegt7TmM0mJN_18build_script_build, symObjAddr: 0x4D50, symBinAddr: 0x100005830, symSize: 0x20 }
  - { offset: 0x7239, size: 0x8, addend: 0x0, symName: __RNvXs_NtNtCslJiobkLta79_5alloc3vec11spec_extendINtB6_3VechEINtB4_10SpecExtendhINtNtNtNtCsieiGu2EXtoJ_4core4iter8adapters3map3MapINtNtNtB1n_5slice4iter4IterhENCNvNtB8_3str13replace_ascii0EE11spec_extendCsegt7TmM0mJN_18build_script_build, symObjAddr: 0x5360, symBinAddr: 0x100005E40, symSize: 0x20 }
  - { offset: 0x7297, size: 0x8, addend: 0x0, symName: __RNvXs_NtNtCslJiobkLta79_5alloc3vec21spec_from_iter_nestedINtB6_3VechEINtB4_18SpecFromIterNestedhINtNtNtNtCsieiGu2EXtoJ_4core4iter8adapters3map3MapINtNtNtB1F_5slice4iter4IterhENCNvNtB8_3str13replace_ascii0EE9from_iterCsegt7TmM0mJN_18build_script_build, symObjAddr: 0x53A0, symBinAddr: 0x100005E80, symSize: 0x1C0 }
  - { offset: 0x7376, size: 0x8, addend: 0x0, symName: __RNvXsn_NtCslJiobkLta79_5alloc3vecINtB5_3VecINtNtB7_5boxed3BoxDINtNtNtCsieiGu2EXtoJ_4core3ops8function5FnMutuEp6OutputINtNtB15_6result6ResultuNtNtNtCsHUR1vrdMJt_3std2io5error5ErrorENtNtB15_6marker4SyncNtB2U_4SendEL_EENtNtB13_4drop4Drop4dropCsegt7TmM0mJN_18build_script_build, symObjAddr: 0x5830, symBinAddr: 0x100006310, symSize: 0x30 }
  - { offset: 0x7426, size: 0x8, addend: 0x0, symName: __RNvXsn_NtCslJiobkLta79_5alloc3vecINtB5_3VecPaENtNtNtCsieiGu2EXtoJ_4core3ops4drop4Drop4dropCsegt7TmM0mJN_18build_script_build, symObjAddr: 0x5860, symBinAddr: 0x100006340, symSize: 0x20 }
  - { offset: 0x74EA, size: 0x8, addend: 0x0, symName: __RNvXs1_NtCslJiobkLta79_5alloc5allocNtB5_6GlobalNtNtCsieiGu2EXtoJ_4core5clone5Clone5cloneCsegt7TmM0mJN_18build_script_build, symObjAddr: 0x4B40, symBinAddr: 0x100005620, symSize: 0x10 }
  - { offset: 0x753B, size: 0x8, addend: 0x0, symName: __RNvXs_NtCslJiobkLta79_5alloc5allocNtB4_6GlobalNtNtCsieiGu2EXtoJ_4core5alloc9Allocator10deallocateCsegt7TmM0mJN_18build_script_build, symObjAddr: 0x5260, symBinAddr: 0x100005D40, symSize: 0x70 }
  - { offset: 0x78F7, size: 0x8, addend: 0x0, symName: __RNvXs1_NtCslJiobkLta79_5alloc7raw_vecINtB5_6RawVecINtNtB7_5boxed3BoxDINtNtNtCsieiGu2EXtoJ_4core3ops8function5FnMutuEp6OutputINtNtB1c_6result6ResultuNtNtNtCsHUR1vrdMJt_3std2io5error5ErrorENtNtB1c_6marker4SyncNtB31_4SendEL_EENtNtB1a_4drop4Drop4dropCsegt7TmM0mJN_18build_script_build, symObjAddr: 0x4B50, symBinAddr: 0x100005630, symSize: 0x30 }
  - { offset: 0x7933, size: 0x8, addend: 0x0, symName: __RNvXs1_NtCslJiobkLta79_5alloc7raw_vecINtB5_6RawVecPaENtNtNtCsieiGu2EXtoJ_4core3ops4drop4Drop4dropCsegt7TmM0mJN_18build_script_build, symObjAddr: 0x4B80, symBinAddr: 0x100005660, symSize: 0x20 }
  - { offset: 0x7B3F, size: 0x8, addend: 0x0, symName: __RNCINvMsm_NtNtNtCslJiobkLta79_5alloc11collections5btree8navigateINtNtBa_4node6HandleINtB13_7NodeRefNtNtB13_6marker5DyingNtNtNtCsHUR1vrdMJt_3std3ffi6os_str8OsStringINtNtCsieiGu2EXtoJ_4core6option6OptionB1U_ENtB1B_4LeafENtB1B_4EdgeE27deallocating_next_uncheckedNtNtBe_5alloc6GlobalE0Csegt7TmM0mJN_18build_script_build, symObjAddr: 0x24F0, symBinAddr: 0x100002FE0, symSize: 0x60 }
  - { offset: 0x8239, size: 0x8, addend: 0x0, symName: __RNvXNtNtNtCslJiobkLta79_5alloc11collections5btree3mapINtB2_8BTreeMapNtNtNtCsHUR1vrdMJt_3std3ffi6os_str8OsStringINtNtCsieiGu2EXtoJ_4core6option6OptionB14_EENtNtNtB1Q_3ops4drop4Drop4dropCsegt7TmM0mJN_18build_script_build, symObjAddr: 0x4990, symBinAddr: 0x100005470, symSize: 0x40 }
  - { offset: 0x82C7, size: 0x8, addend: 0x0, symName: __RNvXNvXsw_NtNtNtCslJiobkLta79_5alloc11collections5btree3mapINtB8_8IntoIterpppENtNtNtCsieiGu2EXtoJ_4core3ops4drop4Drop4dropINtB2_9DropGuardNtNtNtCsHUR1vrdMJt_3std3ffi6os_str8OsStringINtNtB1k_6option6OptionB2c_ENtNtBe_5alloc6GlobalEB1e_4dropCsegt7TmM0mJN_18build_script_build, symObjAddr: 0x4A80, symBinAddr: 0x100005560, symSize: 0x70 }
  - { offset: 0x835C, size: 0x8, addend: 0x0, symName: __RNvXsw_NtNtNtCslJiobkLta79_5alloc11collections5btree3mapINtB5_8IntoIterNtNtNtCsHUR1vrdMJt_3std3ffi6os_str8OsStringINtNtCsieiGu2EXtoJ_4core6option6OptionB17_EENtNtNtB1T_3ops4drop4Drop4dropCsegt7TmM0mJN_18build_script_build, symObjAddr: 0x5B90, symBinAddr: 0x100006670, symSize: 0xA0 }
  - { offset: 0x83D3, size: 0x8, addend: 0x0, symName: __RNvXsv_NtNtNtCslJiobkLta79_5alloc11collections5btree3mapINtB5_8BTreeMapNtNtNtCsHUR1vrdMJt_3std3ffi6os_str8OsStringINtNtCsieiGu2EXtoJ_4core6option6OptionB17_EENtNtNtNtB1T_4iter6traits7collect12IntoIterator9into_iterCsegt7TmM0mJN_18build_script_build, symObjAddr: 0x58A0, symBinAddr: 0x100006380, symSize: 0x2A0 }
  - { offset: 0x8550, size: 0x8, addend: 0x0, symName: __RINvNtNtNtCslJiobkLta79_5alloc11collections5btree3mem7replaceINtNtB4_4node6HandleINtB10_7NodeRefNtNtB10_6marker5DyingNtNtNtCsHUR1vrdMJt_3std3ffi6os_str8OsStringINtNtCsieiGu2EXtoJ_4core6option6OptionB1R_ENtB1y_4LeafENtB1y_4EdgeEIBY_IB1i_B1w_B1R_B2y_NtB1y_14LeafOrInternalENtB1y_2KVENCINvMsm_NtB4_8navigateBX_27deallocating_next_uncheckedNtNtB8_5alloc6GlobalE0ECsegt7TmM0mJN_18build_script_build, symObjAddr: 0x2000, symBinAddr: 0x100002AF0, symSize: 0x110 }
  - { offset: 0x864C, size: 0x8, addend: 0x0, symName: __RNvXNvNtNtNtCslJiobkLta79_5alloc11collections5btree3mem7replaceNtB2_10PanicGuardNtNtNtCsieiGu2EXtoJ_4core3ops4drop4Drop4dropCsegt7TmM0mJN_18build_script_build, symObjAddr: 0x4A70, symBinAddr: 0x100005550, symSize: 0x10 }
  - { offset: 0x87B2, size: 0x8, addend: 0x0, symName: __RNvXsE_NtCslJiobkLta79_5alloc6stringNtB5_6StringINtNtCsieiGu2EXtoJ_4core7convert5AsRefShE6as_refCsegt7TmM0mJN_18build_script_build, symObjAddr: 0x5210, symBinAddr: 0x100005CF0, symSize: 0x20 }
  - { offset: 0x8804, size: 0x8, addend: 0x0, symName: __RNvXss_NtCslJiobkLta79_5alloc6stringNtB5_6StringNtNtNtCsieiGu2EXtoJ_4core3ops5deref5Deref5derefCsegt7TmM0mJN_18build_script_build, symObjAddr: 0x5880, symBinAddr: 0x100006360, symSize: 0x20 }
  - { offset: 0x883E, size: 0x8, addend: 0x0, symName: __RNvXs6_NtCslJiobkLta79_5alloc5boxedINtB5_3BoxDINtNtNtCsieiGu2EXtoJ_4core3ops8function5FnMutuEp6OutputINtNtBP_6result6ResultuNtNtNtCsHUR1vrdMJt_3std2io5error5ErrorENtNtBP_6marker4SyncNtB2D_4SendEL_ENtNtBN_4drop4Drop4dropCsegt7TmM0mJN_18build_script_build, symObjAddr: 0x4D70, symBinAddr: 0x100005850, symSize: 0xC0 }
  - { offset: 0x897B, size: 0x8, addend: 0x0, symName: __RNvXs6_NtCslJiobkLta79_5alloc5boxedINtB5_3BoxDNtNtCsieiGu2EXtoJ_4core5error5ErrorNtNtBM_6marker4SyncNtB1j_4SendEL_ENtNtNtBM_3ops4drop4Drop4dropCsegt7TmM0mJN_18build_script_build, symObjAddr: 0x4E30, symBinAddr: 0x100005910, symSize: 0xC0 }
  - { offset: 0x8AB8, size: 0x8, addend: 0x0, symName: __RNvXs6_NtCslJiobkLta79_5alloc5boxedINtB5_3BoxNtNtNtCsHUR1vrdMJt_3std2io5error6CustomENtNtNtCsieiGu2EXtoJ_4core3ops4drop4Drop4dropCsegt7TmM0mJN_18build_script_build, symObjAddr: 0x4EF0, symBinAddr: 0x1000059D0, symSize: 0xB0 }
  - { offset: 0x8BF3, size: 0x8, addend: 0x0, symName: __RNvXs6_NtCslJiobkLta79_5alloc5boxedINtB5_3BoxShENtNtNtCsieiGu2EXtoJ_4core3ops4drop4Drop4dropCsegt7TmM0mJN_18build_script_build, symObjAddr: 0x4FA0, symBinAddr: 0x100005A80, symSize: 0xC0 }
  - { offset: 0x8D30, size: 0x8, addend: 0x0, symName: __RNvXs6_NtCslJiobkLta79_5alloc5boxedINtB5_3BoxSmENtNtNtCsieiGu2EXtoJ_4core3ops4drop4Drop4dropCsegt7TmM0mJN_18build_script_build, symObjAddr: 0x5060, symBinAddr: 0x100005B40, symSize: 0xC0 }
  - { offset: 0x8EEF, size: 0x8, addend: 0x0, symName: __RINvMNtCsieiGu2EXtoJ_4core6optionINtB3_6OptionNtNtNtCsHUR1vrdMJt_3std3ffi6os_str8OsStringE14unwrap_or_elseNCNvCsegt7TmM0mJN_18build_script_build13cargo_env_var0EB1K_, symObjAddr: 0x0, symBinAddr: 0x100000B90, symSize: 0x90 }
  - { offset: 0x8F52, size: 0x8, addend: 0x0, symName: __RINvMNtCsieiGu2EXtoJ_4core6optionINtB3_6OptionNtNtNtCsHUR1vrdMJt_3std3ffi6os_str8OsStringE6filterNCNvCsegt7TmM0mJN_18build_script_build13compile_probe0EB1B_, symObjAddr: 0x90, symBinAddr: 0x100000C20, symSize: 0x100 }
  - { offset: 0x8FAE, size: 0x8, addend: 0x0, symName: __RINvMNtCsieiGu2EXtoJ_4core6optionINtB3_6OptionNtNtNtCsHUR1vrdMJt_3std3ffi6os_str8OsStringE6filterNCNvCsegt7TmM0mJN_18build_script_build13compile_probes_0EB1B_, symObjAddr: 0x190, symBinAddr: 0x100000D20, symSize: 0x100 }
  - { offset: 0x9017, size: 0x8, addend: 0x0, symName: __RINvMNtCsieiGu2EXtoJ_4core6optionINtB3_6OptionNtNtNtCsHUR1vrdMJt_3std3ffi6os_str8OsStringE7or_elseNCNvXs_NtNtNtB5_4iter8adapters5chainINtB1F_5ChainIB29_INtB3_8IntoIterBI_EB2q_EINtNtNtB1J_7sources4once4OnceBI_EENtNtNtB1J_6traits8iterator8Iterator4next0ECsegt7TmM0mJN_18build_script_build, symObjAddr: 0x290, symBinAddr: 0x100000E20, symSize: 0xE0 }
  - { offset: 0x9087, size: 0x8, addend: 0x0, symName: __RINvMNtCsieiGu2EXtoJ_4core6optionINtB3_6OptionNtNtNtCsHUR1vrdMJt_3std3ffi6os_str8OsStringE7or_elseNCNvXs_NtNtNtB5_4iter8adapters5chainINtB1F_5ChainINtB3_8IntoIterBI_EB2l_ENtNtNtB1J_6traits8iterator8Iterator4next0ECsegt7TmM0mJN_18build_script_build, symObjAddr: 0x370, symBinAddr: 0x100000F00, symSize: 0xE0 }
  - { offset: 0x9197, size: 0x8, addend: 0x0, symName: __RINvMNtNtCsieiGu2EXtoJ_4core3fmt2rtNtB3_8Argument11new_displayNtNtCsHUR1vrdMJt_3std4path7DisplayECsegt7TmM0mJN_18build_script_build, symObjAddr: 0x450, symBinAddr: 0x100000FE0, symSize: 0x30 }
  - { offset: 0x91CF, size: 0x8, addend: 0x0, symName: __RINvMNtNtCsieiGu2EXtoJ_4core3fmt2rtNtB3_8Argument11new_displayNtNtNtCsHUR1vrdMJt_3std2io5error5ErrorECsegt7TmM0mJN_18build_script_build, symObjAddr: 0x480, symBinAddr: 0x100001010, symSize: 0x30 }
  - { offset: 0x91FA, size: 0x8, addend: 0x0, symName: __RINvMNtNtCsieiGu2EXtoJ_4core3fmt2rtNtB3_8Argument11new_displayReECsegt7TmM0mJN_18build_script_build, symObjAddr: 0x4B0, symBinAddr: 0x100001040, symSize: 0x30 }
  - { offset: 0x92CE, size: 0x8, addend: 0x0, symName: __RINvMs_NtNtCsieiGu2EXtoJ_4core3fmt2rtNtB7_9Arguments6new_v1Kj2_Kj1_ECsegt7TmM0mJN_18build_script_build, symObjAddr: 0x4E0, symBinAddr: 0x100001070, symSize: 0x40 }
  - { offset: 0x9332, size: 0x8, addend: 0x0, symName: __RINvMs_NtNtCsieiGu2EXtoJ_4core3fmt2rtNtB7_9Arguments6new_v1Kj3_Kj2_ECsegt7TmM0mJN_18build_script_build, symObjAddr: 0x520, symBinAddr: 0x1000010B0, symSize: 0x40 }
  - { offset: 0x937C, size: 0x8, addend: 0x0, symName: __RINvMs_NtNtCsieiGu2EXtoJ_4core3fmt2rtNtB7_9Arguments9new_constKj1_ECsegt7TmM0mJN_18build_script_build, symObjAddr: 0x560, symBinAddr: 0x1000010F0, symSize: 0x40 }
  - { offset: 0x9428, size: 0x8, addend: 0x0, symName: __RINvMsb_NtNtNtCslJiobkLta79_5alloc11collections5btree8navigateINtB6_13LazyLeafRangeNtNtNtB8_4node6marker5DyingNtNtNtCsHUR1vrdMJt_3std3ffi6os_str8OsStringINtNtCsieiGu2EXtoJ_4core6option6OptionB1K_EE16deallocating_endNtNtBc_5alloc6GlobalECsegt7TmM0mJN_18build_script_build, symObjAddr: 0x5A0, symBinAddr: 0x100001130, symSize: 0x90 }
  - { offset: 0x94FA, size: 0x8, addend: 0x0, symName: __RINvMsb_NtNtNtCslJiobkLta79_5alloc11collections5btree8navigateINtB6_13LazyLeafRangeNtNtNtB8_4node6marker5DyingNtNtNtCsHUR1vrdMJt_3std3ffi6os_str8OsStringINtNtCsieiGu2EXtoJ_4core6option6OptionB1K_EE27deallocating_next_uncheckedNtNtBc_5alloc6GlobalECsegt7TmM0mJN_18build_script_build, symObjAddr: 0x630, symBinAddr: 0x1000011C0, symSize: 0xB0 }
  - { offset: 0x96AD, size: 0x8, addend: 0x0, symName: __RINvMsi_NtCslJiobkLta79_5alloc3vecINtB6_3VechE14extend_trustedINtNtNtNtCsieiGu2EXtoJ_4core4iter8adapters3map3MapINtNtNtB17_5slice4iter4IterhENCNvNtB8_3str13replace_ascii0EECsegt7TmM0mJN_18build_script_build, symObjAddr: 0x6E0, symBinAddr: 0x100001270, symSize: 0x1C0 }
  - { offset: 0x99D9, size: 0x8, addend: 0x0, symName: __RINvMsk_NtCsHUR1vrdMJt_3std7processNtB6_7Command10env_removeReECsegt7TmM0mJN_18build_script_build, symObjAddr: 0x8A0, symBinAddr: 0x100001430, symSize: 0x70 }
  - { offset: 0x9A32, size: 0x8, addend: 0x0, symName: __RINvMsk_NtCsHUR1vrdMJt_3std7processNtB6_7Command3argNtNtB8_4path7PathBufECsegt7TmM0mJN_18build_script_build, symObjAddr: 0x910, symBinAddr: 0x1000014A0, symSize: 0x80 }
  - { offset: 0x9A6E, size: 0x8, addend: 0x0, symName: __RINvMsk_NtCsHUR1vrdMJt_3std7processNtB6_7Command3argNtNtNtB8_3ffi6os_str8OsStringECsegt7TmM0mJN_18build_script_build, symObjAddr: 0x990, symBinAddr: 0x100001520, symSize: 0x80 }
  - { offset: 0x9AB7, size: 0x8, addend: 0x0, symName: __RINvMsk_NtCsHUR1vrdMJt_3std7processNtB6_7Command3argRNtNtB8_4path7PathBufECsegt7TmM0mJN_18build_script_build, symObjAddr: 0xA10, symBinAddr: 0x1000015A0, symSize: 0x60 }
  - { offset: 0x9AF2, size: 0x8, addend: 0x0, symName: __RINvMsk_NtCsHUR1vrdMJt_3std7processNtB6_7Command3argRNtNtNtB8_3ffi6os_str5OsStrECsegt7TmM0mJN_18build_script_build, symObjAddr: 0xA70, symBinAddr: 0x100001600, symSize: 0x60 }
  - { offset: 0x9B2D, size: 0x8, addend: 0x0, symName: __RINvMsk_NtCsHUR1vrdMJt_3std7processNtB6_7Command3argReECsegt7TmM0mJN_18build_script_build, symObjAddr: 0xAD0, symBinAddr: 0x100001660, symSize: 0x60 }
  - { offset: 0x9B68, size: 0x8, addend: 0x0, symName: __RINvMsk_NtCsHUR1vrdMJt_3std7processNtB6_7Command3newNtNtNtB8_3ffi6os_str8OsStringECsegt7TmM0mJN_18build_script_build, symObjAddr: 0xB30, symBinAddr: 0x1000016C0, symSize: 0xC0 }
  - { offset: 0x9B96, size: 0x8, addend: 0x0, symName: __RINvMsk_NtCsHUR1vrdMJt_3std7processNtB6_7Command4argsINtNtNtNtCsieiGu2EXtoJ_4core4iter8adapters5chain5ChainIBQ_INtNtBY_6option8IntoIterNtNtNtB8_3ffi6os_str8OsStringEB1L_EINtNtNtBW_7sources4once4OnceB29_EEB29_ECsegt7TmM0mJN_18build_script_build, symObjAddr: 0xBF0, symBinAddr: 0x100001780, symSize: 0x130 }
  - { offset: 0x9C08, size: 0x8, addend: 0x0, symName: __RINvMsk_NtCsHUR1vrdMJt_3std7processNtB6_7Command6stderrNtB6_5StdioECsegt7TmM0mJN_18build_script_build, symObjAddr: 0xD20, symBinAddr: 0x1000018B0, symSize: 0x50 }
  - { offset: 0x9E38, size: 0x8, addend: 0x0, symName: __RNvMNtCsieiGu2EXtoJ_4core6optionINtB2_6OptionNtNtNtCsHUR1vrdMJt_3std3ffi6os_str8OsStringE7is_someCsegt7TmM0mJN_18build_script_build, symObjAddr: 0x26E0, symBinAddr: 0x1000031D0, symSize: 0x30 }
  - { offset: 0x9F31, size: 0x8, addend: 0x0, symName: __RNvMNtCslJiobkLta79_5alloc6stringNtB2_6String6as_strCsegt7TmM0mJN_18build_script_build, symObjAddr: 0x2710, symBinAddr: 0x100003200, symSize: 0x60 }
  - { offset: 0xA066, size: 0x8, addend: 0x0, symName: __RNvMNtCslJiobkLta79_5alloc6stringNtB2_6String8is_emptyCsegt7TmM0mJN_18build_script_build, symObjAddr: 0x2770, symBinAddr: 0x100003260, symSize: 0x20 }
  - { offset: 0xA0D8, size: 0x8, addend: 0x0, symName: __RNvMs1_NtNtCsieiGu2EXtoJ_4core3ptr8non_nullINtB5_7NonNullhE20offset_from_unsignedCsegt7TmM0mJN_18build_script_build, symObjAddr: 0x2790, symBinAddr: 0x100003280, symSize: 0x60 }
  - { offset: 0xA246, size: 0x8, addend: 0x0, symName: __RNvMs2_NtCslJiobkLta79_5alloc7raw_vecNtB5_11RawVecInner16with_capacity_inCsegt7TmM0mJN_18build_script_build, symObjAddr: 0x27F0, symBinAddr: 0x1000032E0, symSize: 0x150 }
  - { offset: 0xA3C4, size: 0x8, addend: 0x0, symName: __RNvMs5_NtNtCsHUR1vrdMJt_3std2io5errorNtB5_5Error4kindCsegt7TmM0mJN_18build_script_build, symObjAddr: 0x2940, symBinAddr: 0x100003430, symSize: 0x90 }
  - { offset: 0xA566, size: 0x8, addend: 0x0, symName: __RNvMsI_NtCsHUR1vrdMJt_3std7processNtB5_10ExitStatus7successCsegt7TmM0mJN_18build_script_build, symObjAddr: 0x3010, symBinAddr: 0x100003B00, symSize: 0x60 }
  - { offset: 0xA6B1, size: 0x8, addend: 0x0, symName: __RNvMs_NtCslJiobkLta79_5alloc3vecINtB4_3VechE8as_sliceCsegt7TmM0mJN_18build_script_build, symObjAddr: 0x3070, symBinAddr: 0x100003B60, symSize: 0x50 }
  - { offset: 0xA901, size: 0x8, addend: 0x0, symName: __RNvMsb_NtNtNtCslJiobkLta79_5alloc11collections5btree8navigateINtB5_13LazyLeafRangeNtNtNtB7_4node6marker5DyingNtNtNtCsHUR1vrdMJt_3std3ffi6os_str8OsStringINtNtCsieiGu2EXtoJ_4core6option6OptionB1J_EE10take_frontCsegt7TmM0mJN_18build_script_build, symObjAddr: 0x30C0, symBinAddr: 0x100003BB0, symSize: 0x2E0 }
  - { offset: 0xAC60, size: 0x8, addend: 0x0, symName: __RNvMsc_NtNtNtCslJiobkLta79_5alloc11collections5btree8navigateINtB5_13LazyLeafRangeNtNtNtB7_4node6marker5DyingNtNtNtCsHUR1vrdMJt_3std3ffi6os_str8OsStringINtNtCsieiGu2EXtoJ_4core6option6OptionB1J_EE10init_frontCsegt7TmM0mJN_18build_script_build, symObjAddr: 0x33A0, symBinAddr: 0x100003E90, symSize: 0x280 }
  - { offset: 0xAE11, size: 0x8, addend: 0x0, symName: __RNvMsf_NtNtCsieiGu2EXtoJ_4core3str4iterINtB5_13SplitInternalcE4nextCsegt7TmM0mJN_18build_script_build, symObjAddr: 0x3620, symBinAddr: 0x100004110, symSize: 0x180 }
  - { offset: 0xAF55, size: 0x8, addend: 0x0, symName: __RNvMsf_NtNtCsieiGu2EXtoJ_4core3str4iterINtB5_13SplitInternalcE7get_endCsegt7TmM0mJN_18build_script_build, symObjAddr: 0x37A0, symBinAddr: 0x100004290, symSize: 0x110 }
  - { offset: 0xB05B, size: 0x8, addend: 0x0, symName: __RNvMsv_NtCsHUR1vrdMJt_3std7processNtB5_5Stdio4nullCsegt7TmM0mJN_18build_script_build, symObjAddr: 0x38B0, symBinAddr: 0x1000043A0, symSize: 0x20 }
  - { offset: 0xB07B, size: 0x8, addend: 0x0, symName: __RNvMsx_NtNtNtCslJiobkLta79_5alloc11collections5btree3mapINtB5_8IntoIterNtNtNtCsHUR1vrdMJt_3std3ffi6os_str8OsStringINtNtCsieiGu2EXtoJ_4core6option6OptionB17_EE10dying_nextCsegt7TmM0mJN_18build_script_build, symObjAddr: 0x38D0, symBinAddr: 0x1000043C0, symSize: 0x90 }
  - { offset: 0xBE9E, size: 0x8, addend: 0x0, symName: __RINvMsA_NtCsHUR1vrdMJt_3std2fsNtB6_10DirBuilder6createRNtNtB8_4path4PathECsegt7TmM0mJN_18build_script_build, symObjAddr: 0x0, symBinAddr: 0x100006940, symSize: 0x70 }
  - { offset: 0xC22B, size: 0x8, addend: 0x0, symName: __RNvYNtNtNtNtCsHUR1vrdMJt_3std3sys5stdio4unix6StderrNtNtBa_2io5Write9write_allCsegt7TmM0mJN_18build_script_build, symObjAddr: 0x3310, symBinAddr: 0x100009C50, symSize: 0x2E0 }
  - { offset: 0xC3D1, size: 0x8, addend: 0x0, symName: __RNvYNtNtNtNtCsHUR1vrdMJt_3std3sys5stdio4unix6StderrNtNtBa_2io5Write9write_fmtCsegt7TmM0mJN_18build_script_build, symObjAddr: 0x35F0, symBinAddr: 0x100009F30, symSize: 0x170 }
  - { offset: 0xC4E7, size: 0x8, addend: 0x0, symName: __RINvNtCsHUR1vrdMJt_3std2fs10create_dirRNtNtB4_4path7PathBufECsegt7TmM0mJN_18build_script_build, symObjAddr: 0x12B0, symBinAddr: 0x100007BF0, symSize: 0x70 }
  - { offset: 0xC533, size: 0x8, addend: 0x0, symName: __RINvNtCsHUR1vrdMJt_3std2fs14remove_dir_allRNtNtB4_4path7PathBufECsegt7TmM0mJN_18build_script_build, symObjAddr: 0x1320, symBinAddr: 0x100007C60, symSize: 0x60 }
  - { offset: 0xC56A, size: 0x8, addend: 0x0, symName: __RINvNtCsHUR1vrdMJt_3std2fs5writeNtNtB4_4path7PathBufNtNtCslJiobkLta79_5alloc6string6StringECsegt7TmM0mJN_18build_script_build, symObjAddr: 0x1380, symBinAddr: 0x100007CC0, symSize: 0xC0 }
  - { offset: 0xC749, size: 0x8, addend: 0x0, symName: __RNvXs3_NtNtCsHUR1vrdMJt_3std3ffi6os_strNtB5_8OsStringINtNtNtCsieiGu2EXtoJ_4core3ops5index5IndexNtNtBU_5range9RangeFullE5indexCsegt7TmM0mJN_18build_script_build, symObjAddr: 0x22A0, symBinAddr: 0x100008BE0, symSize: 0x60 }
  - { offset: 0xC883, size: 0x8, addend: 0x0, symName: __RNvXs5_NtNtCsHUR1vrdMJt_3std3ffi6os_strNtB5_8OsStringNtNtNtCsieiGu2EXtoJ_4core3ops5deref5Deref5derefCsegt7TmM0mJN_18build_script_build, symObjAddr: 0x2300, symBinAddr: 0x100008C40, symSize: 0x20 }
  - { offset: 0xC8F3, size: 0x8, addend: 0x0, symName: __RNvXsU_NtNtCsHUR1vrdMJt_3std3ffi6os_strNtB5_5OsStrINtNtCsieiGu2EXtoJ_4core7convert5AsRefBB_E6as_refCsegt7TmM0mJN_18build_script_build, symObjAddr: 0x2510, symBinAddr: 0x100008E50, symSize: 0x20 }
  - { offset: 0xC927, size: 0x8, addend: 0x0, symName: __RNvXsV_NtNtCsHUR1vrdMJt_3std3ffi6os_strNtB5_8OsStringINtNtCsieiGu2EXtoJ_4core7convert5AsRefNtB5_5OsStrE6as_refCsegt7TmM0mJN_18build_script_build, symObjAddr: 0x2530, symBinAddr: 0x100008E70, symSize: 0x20 }
  - { offset: 0xC979, size: 0x8, addend: 0x0, symName: __RNvXsW_NtNtCsHUR1vrdMJt_3std3ffi6os_streINtNtCsieiGu2EXtoJ_4core7convert5AsRefNtB5_5OsStrE6as_refCsegt7TmM0mJN_18build_script_build, symObjAddr: 0x2550, symBinAddr: 0x100008E90, symSize: 0x20 }
  - { offset: 0xCA2B, size: 0x8, addend: 0x0, symName: __RNvXsd_NtNtCsHUR1vrdMJt_3std3ffi6os_strNtB5_8OsStringINtNtCsieiGu2EXtoJ_4core3cmp9PartialEqReE2eqCsegt7TmM0mJN_18build_script_build, symObjAddr: 0x2A30, symBinAddr: 0x100009370, symSize: 0x120 }
  - { offset: 0xE2E3, size: 0x8, addend: 0x0, symName: __RNvXNtCsieiGu2EXtoJ_4core7convertRNtNtNtCsHUR1vrdMJt_3std3ffi6os_str5OsStrINtB2_5AsRefBw_E6as_refCsegt7TmM0mJN_18build_script_build, symObjAddr: 0x20B0, symBinAddr: 0x1000089F0, symSize: 0x30 }
  - { offset: 0xE6A7, size: 0x8, addend: 0x0, symName: __RNCINvNvNtNtNtNtCsieiGu2EXtoJ_4core4iter6traits8iterator8Iterator8for_each4callhNCINvMsi_NtCslJiobkLta79_5alloc3vecINtB1p_3VechE14extend_trustedINtNtNtBc_8adapters3map3MapINtNtNtBe_5slice4iter4IterhENCNvNtB1r_3str13replace_ascii0EE0E0Csegt7TmM0mJN_18build_script_build, symObjAddr: 0x1440, symBinAddr: 0x100007D80, symSize: 0x20 }
  - { offset: 0xEA4B, size: 0x8, addend: 0x0, symName: __RNvXs5_NtNtCsieiGu2EXtoJ_4core5slice5indexINtNtNtB9_3ops5range9RangeFromjEINtB5_10SliceIndexShE5indexCsegt7TmM0mJN_18build_script_build, symObjAddr: 0x2320, symBinAddr: 0x100008C60, symSize: 0x80 }
  - { offset: 0xF213, size: 0x8, addend: 0x0, symName: __RNvXs2_NtNtCsieiGu2EXtoJ_4core3str7patterncNtB5_7Pattern13into_searcherCsegt7TmM0mJN_18build_script_build, symObjAddr: 0x2180, symBinAddr: 0x100008AC0, symSize: 0x120 }
  - { offset: 0xF39B, size: 0x8, addend: 0x0, symName: __RNvXs_NtNtCsieiGu2EXtoJ_4core3str7patternNtB4_12CharSearcherNtB4_8Searcher10next_matchCsegt7TmM0mJN_18build_script_build, symObjAddr: 0x2570, symBinAddr: 0x100008EB0, symSize: 0x4A0 }
  - { offset: 0xF940, size: 0x8, addend: 0x0, symName: __RNvXs_NtNtCsieiGu2EXtoJ_4core3str7patternNtB4_12CharSearcherNtB4_8Searcher8haystackCsegt7TmM0mJN_18build_script_build, symObjAddr: 0x2A10, symBinAddr: 0x100009350, symSize: 0x20 }
  - { offset: 0xF974, size: 0x8, addend: 0x0, symName: __RNvXst_NtNtCsieiGu2EXtoJ_4core3str7patternReNtB5_7Pattern13into_searcherCsegt7TmM0mJN_18build_script_build, symObjAddr: 0x2B50, symBinAddr: 0x100009490, symSize: 0x50 }
  - { offset: 0xF9B1, size: 0x8, addend: 0x0, symName: __RNvXst_NtNtCsieiGu2EXtoJ_4core3str7patternReNtB5_7Pattern15as_utf8_patternCsegt7TmM0mJN_18build_script_build, symObjAddr: 0x2BA0, symBinAddr: 0x1000094E0, symSize: 0x40 }
  - { offset: 0xF9E5, size: 0x8, addend: 0x0, symName: __RNvXsv_NtNtCsieiGu2EXtoJ_4core3str7patternNtB5_11StrSearcherNtB5_8Searcher10next_matchCsegt7TmM0mJN_18build_script_build, symObjAddr: 0x2BE0, symBinAddr: 0x100009520, symSize: 0x170 }
  - { offset: 0xFA72, size: 0x8, addend: 0x0, symName: __RNvXsv_NtNtCsieiGu2EXtoJ_4core3str7patternNtB5_11StrSearcherNtB5_8Searcher4nextCsegt7TmM0mJN_18build_script_build, symObjAddr: 0x2D50, symBinAddr: 0x100009690, symSize: 0x500 }
  - { offset: 0xFD7E, size: 0x8, addend: 0x0, symName: __RNvXsv_NtNtCsieiGu2EXtoJ_4core3str7patternNtB5_11StrSearcherNtB5_8Searcher8haystackCsegt7TmM0mJN_18build_script_build, symObjAddr: 0x3250, symBinAddr: 0x100009B90, symSize: 0x20 }
  - { offset: 0xFDB2, size: 0x8, addend: 0x0, symName: __RNvXsy_NtNtCsieiGu2EXtoJ_4core3str7patternNtB5_9MatchOnlyNtB5_14TwoWayStrategy16use_early_rejectCsegt7TmM0mJN_18build_script_build, symObjAddr: 0x3270, symBinAddr: 0x100009BB0, symSize: 0x10 }
  - { offset: 0xFDD0, size: 0x8, addend: 0x0, symName: __RNvXsy_NtNtCsieiGu2EXtoJ_4core3str7patternNtB5_9MatchOnlyNtB5_14TwoWayStrategy8matchingCsegt7TmM0mJN_18build_script_build, symObjAddr: 0x3280, symBinAddr: 0x100009BC0, symSize: 0x20 }
  - { offset: 0xFE0D, size: 0x8, addend: 0x0, symName: __RNvXsy_NtNtCsieiGu2EXtoJ_4core3str7patternNtB5_9MatchOnlyNtB5_14TwoWayStrategy9rejectingCsegt7TmM0mJN_18build_script_build, symObjAddr: 0x32A0, symBinAddr: 0x100009BE0, symSize: 0x20 }
  - { offset: 0xFE50, size: 0x8, addend: 0x0, symName: __RNvXsz_NtNtCsieiGu2EXtoJ_4core3str7patternNtB5_14RejectAndMatchNtB5_14TwoWayStrategy16use_early_rejectCsegt7TmM0mJN_18build_script_build, symObjAddr: 0x32C0, symBinAddr: 0x100009C00, symSize: 0x10 }
  - { offset: 0xFE6E, size: 0x8, addend: 0x0, symName: __RNvXsz_NtNtCsieiGu2EXtoJ_4core3str7patternNtB5_14RejectAndMatchNtB5_14TwoWayStrategy8matchingCsegt7TmM0mJN_18build_script_build, symObjAddr: 0x32D0, symBinAddr: 0x100009C10, symSize: 0x20 }
  - { offset: 0xFEAB, size: 0x8, addend: 0x0, symName: __RNvXsz_NtNtCsieiGu2EXtoJ_4core3str7patternNtB5_14RejectAndMatchNtB5_14TwoWayStrategy9rejectingCsegt7TmM0mJN_18build_script_build, symObjAddr: 0x32F0, symBinAddr: 0x100009C30, symSize: 0x20 }
  - { offset: 0x10147, size: 0x8, addend: 0x0, symName: __RNvXs9_NtNtCsieiGu2EXtoJ_4core3str6traitsINtNtNtB9_3ops5range9RangeFromjEINtNtNtB9_5slice5index10SliceIndexeE3getCsegt7TmM0mJN_18build_script_build, symObjAddr: 0x23E0, symBinAddr: 0x100008D20, symSize: 0x130 }
  - { offset: 0x1049D, size: 0x8, addend: 0x0, symName: __RNvXs7_NtNtCsieiGu2EXtoJ_4core3cmp5implsReNtB7_9PartialEq2eqCsegt7TmM0mJN_18build_script_build, symObjAddr: 0x23A0, symBinAddr: 0x100008CE0, symSize: 0x40 }
  - { offset: 0x10798, size: 0x8, addend: 0x0, symName: __RNvXs19_NtCsieiGu2EXtoJ_4core3fmtRNtNtNtCsHUR1vrdMJt_3std3ffi6os_str8OsStringNtB6_5Debug3fmtCsegt7TmM0mJN_18build_script_build, symObjAddr: 0x2160, symBinAddr: 0x100008AA0, symSize: 0x20 }
  - { offset: 0x107EF, size: 0x8, addend: 0x0, symName: __RNvMNtNtCsieiGu2EXtoJ_4core4char7methodsc8to_digitCsegt7TmM0mJN_18build_script_build, symObjAddr: 0x1460, symBinAddr: 0x100007DA0, symSize: 0xF0 }
  - { offset: 0x10953, size: 0x8, addend: 0x0, symName: __RNvNtNtCsieiGu2EXtoJ_4core4char7methods15encode_utf8_rawCsegt7TmM0mJN_18build_script_build, symObjAddr: 0x1C80, symBinAddr: 0x1000085C0, symSize: 0xE0 }
  - { offset: 0x10A53, size: 0x8, addend: 0x0, symName: __RNvNtNtCsieiGu2EXtoJ_4core4char7methods25encode_utf8_raw_uncheckedCsegt7TmM0mJN_18build_script_build, symObjAddr: 0x1D60, symBinAddr: 0x1000086A0, symSize: 0x140 }
  - { offset: 0x10C51, size: 0x8, addend: 0x0, symName: __RNvNvNtNtCsieiGu2EXtoJ_4core4char7convert18from_u32_unchecked18precondition_checkCsegt7TmM0mJN_18build_script_build, symObjAddr: 0x1FC0, symBinAddr: 0x100008900, symSize: 0xF0 }
  - { offset: 0x10D2B, size: 0x8, addend: 0x0, symName: __RNvNvNtCsieiGu2EXtoJ_4core4hint16assert_unchecked18precondition_checkCsegt7TmM0mJN_18build_script_build, symObjAddr: 0x1EA0, symBinAddr: 0x1000087E0, symSize: 0xA0 }
  - { offset: 0x10D8B, size: 0x8, addend: 0x0, symName: __RNvNvNtCsieiGu2EXtoJ_4core4hint21unreachable_unchecked18precondition_checkCsegt7TmM0mJN_18build_script_build, symObjAddr: 0x1F40, symBinAddr: 0x100008880, symSize: 0x80 }
  - { offset: 0x10F26, size: 0x8, addend: 0x0, symName: __RINvMsA_NtCsHUR1vrdMJt_3std2fsNtB6_10DirBuilder6createRNtNtB8_4path4PathECsegt7TmM0mJN_18build_script_build, symObjAddr: 0x0, symBinAddr: 0x100006940, symSize: 0x70 }
  - { offset: 0x119A2, size: 0x8, addend: 0x0, symName: __RNvXNvMsT_NtNtNtCslJiobkLta79_5alloc11collections5btree4nodeINtB8_6HandleINtB8_7NodeRefNtNtB8_6marker5DyingpppENtB1p_2KVE12drop_key_valINtB2_7DropperINtNtCsieiGu2EXtoJ_4core6option6OptionNtNtNtCsHUR1vrdMJt_3std3ffi6os_str8OsStringEENtNtNtB2s_3ops4drop4Drop4dropCsegt7TmM0mJN_18build_script_build, symObjAddr: 0x20E0, symBinAddr: 0x100008A20, symSize: 0x20 }
  - { offset: 0x11BF5, size: 0x8, addend: 0x0, symName: __RNvXs0_NtNtCslJiobkLta79_5alloc3ffi5c_strNtB5_7CStringNtNtNtCsieiGu2EXtoJ_4core3ops4drop4Drop4dropCsegt7TmM0mJN_18build_script_build, symObjAddr: 0x2100, symBinAddr: 0x100008A40, symSize: 0x60 }
  - { offset: 0x11E0E, size: 0x8, addend: 0x0, symName: __RINvMsh_NtNtNtCslJiobkLta79_5alloc11collections5btree4nodeINtB6_7NodeRefNtNtB6_6marker5DyingNtNtNtCsHUR1vrdMJt_3std3ffi6os_str8OsStringINtNtCsieiGu2EXtoJ_4core6option6OptionB1s_ENtB1a_14LeafOrInternalE21deallocate_and_ascendNtNtBc_5alloc6GlobalECsegt7TmM0mJN_18build_script_build, symObjAddr: 0x70, symBinAddr: 0x1000069B0, symSize: 0x1A0 }
  - { offset: 0x12062, size: 0x8, addend: 0x0, symName: __RINvMsj_NtNtNtCslJiobkLta79_5alloc11collections5btree8navigateINtNtB8_4node6HandleINtB11_7NodeRefNtNtB11_6marker5DyingNtNtNtCsHUR1vrdMJt_3std3ffi6os_str8OsStringINtNtCsieiGu2EXtoJ_4core6option6OptionB1S_ENtB1z_4LeafENtB1z_4EdgeE16deallocating_endNtNtBc_5alloc6GlobalECsegt7TmM0mJN_18build_script_build, symObjAddr: 0x210, symBinAddr: 0x100006B50, symSize: 0xF0 }
  - { offset: 0x122E5, size: 0x8, addend: 0x0, symName: __RINvMsj_NtNtNtCslJiobkLta79_5alloc11collections5btree8navigateINtNtB8_4node6HandleINtB11_7NodeRefNtNtB11_6marker5DyingNtNtNtCsHUR1vrdMJt_3std3ffi6os_str8OsStringINtNtCsieiGu2EXtoJ_4core6option6OptionB1S_ENtB1z_4LeafENtB1z_4EdgeE17deallocating_nextNtNtBc_5alloc6GlobalECsegt7TmM0mJN_18build_script_build, symObjAddr: 0x300, symBinAddr: 0x100006C40, symSize: 0x370 }
  - { offset: 0x12571, size: 0x8, addend: 0x0, symName: __RINvMsx_NtNtCsieiGu2EXtoJ_4core3str7patternNtB6_14TwoWaySearcher4nextNtB6_14RejectAndMatchECsegt7TmM0mJN_18build_script_build, symObjAddr: 0x670, symBinAddr: 0x100006FB0, symSize: 0x620 }
  - { offset: 0x128F0, size: 0x8, addend: 0x0, symName: __RINvMsx_NtNtCsieiGu2EXtoJ_4core3str7patternNtB6_14TwoWaySearcher4nextNtB6_9MatchOnlyECsegt7TmM0mJN_18build_script_build, symObjAddr: 0xC90, symBinAddr: 0x1000075D0, symSize: 0x620 }
  - { offset: 0x12E35, size: 0x8, addend: 0x0, symName: __RNvMsO_NtNtNtCslJiobkLta79_5alloc11collections5btree4nodeINtB5_6HandleINtB5_7NodeRefNtNtB5_6marker5DyingNtNtNtCsHUR1vrdMJt_3std3ffi6os_str8OsStringINtNtCsieiGu2EXtoJ_4core6option6OptionB1E_ENtB1m_8InternalENtB1m_4EdgeE7descendCsegt7TmM0mJN_18build_script_build, symObjAddr: 0x1550, symBinAddr: 0x100007E90, symSize: 0x80 }
  - { offset: 0x13124, size: 0x8, addend: 0x0, symName: __RNvMsT_NtNtNtCslJiobkLta79_5alloc11collections5btree4nodeINtB5_6HandleINtB5_7NodeRefNtNtB5_6marker5DyingNtNtNtCsHUR1vrdMJt_3std3ffi6os_str8OsStringINtNtCsieiGu2EXtoJ_4core6option6OptionB1E_ENtB1m_14LeafOrInternalENtB1m_2KVE12drop_key_valCsegt7TmM0mJN_18build_script_build, symObjAddr: 0x15D0, symBinAddr: 0x100007F10, symSize: 0x140 }
  - { offset: 0x13420, size: 0x8, addend: 0x0, symName: __RNvMse_NtNtNtCslJiobkLta79_5alloc11collections5btree4nodeINtB5_7NodeRefNtNtB5_6marker5DyingNtNtNtCsHUR1vrdMJt_3std3ffi6os_str8OsStringINtNtCsieiGu2EXtoJ_4core6option6OptionB1r_ENtB19_14LeafOrInternalE6ascendCsegt7TmM0mJN_18build_script_build, symObjAddr: 0x1710, symBinAddr: 0x100008050, symSize: 0x230 }
  - { offset: 0x135BB, size: 0x8, addend: 0x0, symName: __RNvMsl_NtNtCsHUR1vrdMJt_3std3ffi6os_strNtB5_5OsStr8is_emptyCsegt7TmM0mJN_18build_script_build, symObjAddr: 0x1940, symBinAddr: 0x100008280, symSize: 0x20 }
  - { offset: 0x13807, size: 0x8, addend: 0x0, symName: __RNvMsp_NtNtNtCslJiobkLta79_5alloc11collections5btree8navigateINtNtB7_4node6HandleINtB10_7NodeRefNtNtB10_6marker5DyingNtNtNtCsHUR1vrdMJt_3std3ffi6os_str8OsStringINtNtCsieiGu2EXtoJ_4core6option6OptionB1R_ENtB1y_14LeafOrInternalENtB1y_2KVE14next_leaf_edgeCsegt7TmM0mJN_18build_script_build, symObjAddr: 0x1960, symBinAddr: 0x1000082A0, symSize: 0x320 }
  - { offset: 0x14039, size: 0x8, addend: 0x0, symName: __RINvMNtCsieiGu2EXtoJ_4core3stre5parsemECsegt7TmM0mJN_18build_script_build, symObjAddr: 0x0, symBinAddr: 0x10000A0A0, symSize: 0x30 }
  - { offset: 0x144EF, size: 0x8, addend: 0x0, symName: __RNCNvXs1_NtNtNtCsHUR1vrdMJt_3std2io5error14repr_bitpackedNtB7_4ReprNtNtNtCsieiGu2EXtoJ_4core3ops4drop4Drop4drop0Csegt7TmM0mJN_18build_script_build, symObjAddr: 0x1460, symBinAddr: 0x10000B500, symSize: 0x30 }
  - { offset: 0x145A4, size: 0x8, addend: 0x0, symName: __RNvXs1_NtNtNtCsHUR1vrdMJt_3std2io5error14repr_bitpackedNtB5_4ReprNtNtNtCsieiGu2EXtoJ_4core3ops4drop4Drop4dropCsegt7TmM0mJN_18build_script_build, symObjAddr: 0x38F0, symBinAddr: 0x10000D990, symSize: 0x30 }
  - { offset: 0x145CD, size: 0x8, addend: 0x0, symName: __RINvNtNtNtCsHUR1vrdMJt_3std2io5error14repr_bitpacked11decode_reprINtNtCslJiobkLta79_5alloc5boxed3BoxNtB4_6CustomENCNvXs1_B2_NtB2_4ReprNtNtNtCsieiGu2EXtoJ_4core3ops4drop4Drop4drop0ECsegt7TmM0mJN_18build_script_build, symObjAddr: 0xAB0, symBinAddr: 0x10000AB50, symSize: 0x200 }
  - { offset: 0x1483F, size: 0x8, addend: 0x0, symName: __RNCNvMs0_NtNtNtCsHUR1vrdMJt_3std2io5error14repr_bitpackedNtB7_4Repr4data0Csegt7TmM0mJN_18build_script_build, symObjAddr: 0x1410, symBinAddr: 0x10000B4B0, symSize: 0x10 }
  - { offset: 0x14877, size: 0x8, addend: 0x0, symName: __RINvNtNtNtCsHUR1vrdMJt_3std2io5error14repr_bitpacked11decode_reprRNtB4_6CustomNCNvMs0_B2_NtB2_4Repr4data0ECsegt7TmM0mJN_18build_script_build, symObjAddr: 0xCB0, symBinAddr: 0x10000AD50, symSize: 0x200 }
  - { offset: 0x14AD8, size: 0x8, addend: 0x0, symName: __RNvNtNtNtCsHUR1vrdMJt_3std2io5error14repr_bitpacked14kind_from_primCsegt7TmM0mJN_18build_script_build, symObjAddr: 0x3210, symBinAddr: 0x10000D2B0, symSize: 0x5B0 }
  - { offset: 0x15679, size: 0x8, addend: 0x0, symName: __RNvXs15_NtCsHUR1vrdMJt_3std4pathNtB6_7PathBufINtNtCsieiGu2EXtoJ_4core7convert5AsRefNtNtNtB8_3ffi6os_str5OsStrE6as_refCsegt7TmM0mJN_18build_script_build, symObjAddr: 0x38D0, symBinAddr: 0x10000D970, symSize: 0x20 }
  - { offset: 0x156AD, size: 0x8, addend: 0x0, symName: __RNvXs1l_NtCsHUR1vrdMJt_3std4pathNtB6_4PathINtNtCsieiGu2EXtoJ_4core7convert5AsRefBu_E6as_refCsegt7TmM0mJN_18build_script_build, symObjAddr: 0x3920, symBinAddr: 0x10000D9C0, symSize: 0x20 }
  - { offset: 0x156E1, size: 0x8, addend: 0x0, symName: __RNvXs1p_NtCsHUR1vrdMJt_3std4patheINtNtCsieiGu2EXtoJ_4core7convert5AsRefNtB6_4PathE6as_refCsegt7TmM0mJN_18build_script_build, symObjAddr: 0x3940, symBinAddr: 0x10000D9E0, symSize: 0x20 }
  - { offset: 0x15733, size: 0x8, addend: 0x0, symName: __RNvXsH_NtCsHUR1vrdMJt_3std4pathNtB5_7PathBufNtNtNtCsieiGu2EXtoJ_4core3ops5deref5Deref5derefCsegt7TmM0mJN_18build_script_build, symObjAddr: 0x39B0, symBinAddr: 0x10000DA50, symSize: 0x30 }
  - { offset: 0x157C1, size: 0x8, addend: 0x0, symName: __RNvXs1r_NtCsHUR1vrdMJt_3std4pathNtB6_7PathBufINtNtCsieiGu2EXtoJ_4core7convert5AsRefNtB6_4PathE6as_refCsegt7TmM0mJN_18build_script_build, symObjAddr: 0x3960, symBinAddr: 0x10000DA00, symSize: 0x30 }
  - { offset: 0x1586D, size: 0x8, addend: 0x0, symName: __RNvXsA_NtCsHUR1vrdMJt_3std4pathNtB5_7PathBufINtNtCsieiGu2EXtoJ_4core7convert4FromNtNtNtB7_3ffi6os_str8OsStringE4fromCsegt7TmM0mJN_18build_script_build, symObjAddr: 0x3990, symBinAddr: 0x10000DA30, symSize: 0x20 }
  - { offset: 0x15B9D, size: 0x8, addend: 0x0, symName: __RINvMs3_NtCslJiobkLta79_5alloc3stre7replaceReECsegt7TmM0mJN_18build_script_build, symObjAddr: 0x1A0, symBinAddr: 0x10000A240, symSize: 0x910 }
  - { offset: 0x166C9, size: 0x8, addend: 0x0, symName: __RNCNvNtCslJiobkLta79_5alloc3str13replace_ascii0Csegt7TmM0mJN_18build_script_build, symObjAddr: 0x1420, symBinAddr: 0x10000B4C0, symSize: 0x40 }
  - { offset: 0x173CB, size: 0x8, addend: 0x0, symName: __RINvMNtCsieiGu2EXtoJ_4core3stre5parsemECsegt7TmM0mJN_18build_script_build, symObjAddr: 0x0, symBinAddr: 0x10000A0A0, symSize: 0x30 }
  - { offset: 0x17402, size: 0x8, addend: 0x0, symName: __RINvMNtCsieiGu2EXtoJ_4core3stre5splitcECsegt7TmM0mJN_18build_script_build, symObjAddr: 0x30, symBinAddr: 0x10000A0D0, symSize: 0xB0 }
  - { offset: 0x185F7, size: 0x8, addend: 0x0, symName: __RINvNtNtNtCsieiGu2EXtoJ_4core4iter8adapters5chain17and_then_or_clearINtB2_5ChainINtNtB8_6option8IntoIterNtNtNtCsHUR1vrdMJt_3std3ffi6os_str8OsStringEB1g_EB1E_NvYB14_NtNtNtB6_6traits8iterator8Iterator4nextECsegt7TmM0mJN_18build_script_build, symObjAddr: 0xF20, symBinAddr: 0x10000AFC0, symSize: 0x1A0 }
  - { offset: 0x1873F, size: 0x8, addend: 0x0, symName: __RINvNtNtNtCsieiGu2EXtoJ_4core4iter8adapters5chain17and_then_or_clearINtNtB8_6option8IntoIterNtNtNtCsHUR1vrdMJt_3std3ffi6os_str8OsStringEB1s_NvYB14_NtNtNtB6_6traits8iterator8Iterator4nextECsegt7TmM0mJN_18build_script_build, symObjAddr: 0x10C0, symBinAddr: 0x10000B160, symSize: 0x170 }
  - { offset: 0x188F0, size: 0x8, addend: 0x0, symName: __RNCNvXs_NtNtNtCsieiGu2EXtoJ_4core4iter8adapters5chainINtB6_5ChainIBQ_INtNtBc_6option8IntoIterNtNtNtCsHUR1vrdMJt_3std3ffi6os_str8OsStringEB15_EINtNtNtBa_7sources4once4OnceB1t_EENtNtNtBa_6traits8iterator8Iterator4next0Csegt7TmM0mJN_18build_script_build, symObjAddr: 0x1490, symBinAddr: 0x10000B530, symSize: 0x90 }
  - { offset: 0x189C8, size: 0x8, addend: 0x0, symName: __RNCNvXs_NtNtNtCsieiGu2EXtoJ_4core4iter8adapters5chainINtB6_5ChainINtNtBc_6option8IntoIterNtNtNtCsHUR1vrdMJt_3std3ffi6os_str8OsStringEB11_ENtNtNtBa_6traits8iterator8Iterator4next0Csegt7TmM0mJN_18build_script_build, symObjAddr: 0x1520, symBinAddr: 0x10000B5C0, symSize: 0x90 }
  - { offset: 0x18AA1, size: 0x8, addend: 0x0, symName: __RNvXs_NtNtNtCsieiGu2EXtoJ_4core4iter8adapters5chainINtB4_5ChainIBO_INtNtBa_6option8IntoIterNtNtNtCsHUR1vrdMJt_3std3ffi6os_str8OsStringEB13_EINtNtNtB8_7sources4once4OnceB1r_EENtNtNtB8_6traits8iterator8Iterator4nextCsegt7TmM0mJN_18build_script_build, symObjAddr: 0x39E0, symBinAddr: 0x10000DA80, symSize: 0x40 }
  - { offset: 0x18ADF, size: 0x8, addend: 0x0, symName: __RNvXs_NtNtNtCsieiGu2EXtoJ_4core4iter8adapters5chainINtB4_5ChainINtNtBa_6option8IntoIterNtNtNtCsHUR1vrdMJt_3std3ffi6os_str8OsStringEBZ_ENtNtNtB8_6traits8iterator8Iterator4nextCsegt7TmM0mJN_18build_script_build, symObjAddr: 0x3A20, symBinAddr: 0x10000DAC0, symSize: 0x40 }
  - { offset: 0x18B74, size: 0x8, addend: 0x0, symName: __RINvYINtNtNtNtCsieiGu2EXtoJ_4core4iter8adapters5chain5ChainINtNtBc_6option8IntoIterNtNtNtCsHUR1vrdMJt_3std3ffi6os_str8OsStringEBV_ENtNtNtBa_6traits8iterator8Iterator5chainINtNtNtBa_7sources4once4OnceB1j_EECsegt7TmM0mJN_18build_script_build, symObjAddr: 0x1230, symBinAddr: 0x10000B2D0, symSize: 0x120 }
  - { offset: 0x18BFA, size: 0x8, addend: 0x0, symName: __RNvXNtNtNtCsieiGu2EXtoJ_4core4iter6traits7collectINtNtNtB6_7sources4once4OnceNtNtNtCsHUR1vrdMJt_3std3ffi6os_str8OsStringENtB2_12IntoIterator9into_iterCsegt7TmM0mJN_18build_script_build, symObjAddr: 0x3830, symBinAddr: 0x10000D8D0, symSize: 0x20 }
  - { offset: 0x18C31, size: 0x8, addend: 0x0, symName: __RNvXNtNtNtCsieiGu2EXtoJ_4core4iter6traits7collectINtNtNtB6_8adapters5chain5ChainIBM_INtNtB8_6option8IntoIterNtNtNtCsHUR1vrdMJt_3std3ffi6os_str8OsStringEB1k_EINtNtNtB6_7sources4once4OnceB1I_EENtB2_12IntoIterator9into_iterCsegt7TmM0mJN_18build_script_build, symObjAddr: 0x3850, symBinAddr: 0x10000D8F0, symSize: 0x30 }
  - { offset: 0x18C76, size: 0x8, addend: 0x0, symName: __RINvNtNtNtCsieiGu2EXtoJ_4core4iter7sources4once4onceNtNtNtCsHUR1vrdMJt_3std3ffi6os_str8OsStringECsegt7TmM0mJN_18build_script_build, symObjAddr: 0xEB0, symBinAddr: 0x10000AF50, symSize: 0x70 }
  - { offset: 0x18CE2, size: 0x8, addend: 0x0, symName: __RNvXNtNtNtCsieiGu2EXtoJ_4core4iter7sources4onceINtB2_4OnceNtNtNtCsHUR1vrdMJt_3std3ffi6os_str8OsStringENtNtNtB6_6traits8iterator8Iterator4nextCsegt7TmM0mJN_18build_script_build, symObjAddr: 0x3880, symBinAddr: 0x10000D920, symSize: 0x50 }
  - { offset: 0x19516, size: 0x8, addend: 0x0, symName: __RNvXNtCsieiGu2EXtoJ_4core7convertRNtNtCsHUR1vrdMJt_3std4path4PathINtB2_5AsRefBw_E6as_refCsegt7TmM0mJN_18build_script_build, symObjAddr: 0x37C0, symBinAddr: 0x10000D860, symSize: 0x30 }
  - { offset: 0x19556, size: 0x8, addend: 0x0, symName: __RNvXNtCsieiGu2EXtoJ_4core7convertRNtNtCsHUR1vrdMJt_3std4path7PathBufINtB2_5AsRefNtBy_4PathE6as_refCsegt7TmM0mJN_18build_script_build, symObjAddr: 0x37F0, symBinAddr: 0x10000D890, symSize: 0x20 }
  - { offset: 0x19596, size: 0x8, addend: 0x0, symName: __RNvXNtCsieiGu2EXtoJ_4core7convertRNtNtCsHUR1vrdMJt_3std4path7PathBufINtB2_5AsRefNtNtNtBA_3ffi6os_str5OsStrE6as_refCsegt7TmM0mJN_18build_script_build, symObjAddr: 0x3810, symBinAddr: 0x10000D8B0, symSize: 0x20 }
  - { offset: 0x19810, size: 0x8, addend: 0x0, symName: __RINvMs16_NtCsHUR1vrdMJt_3std4pathNtB7_4Path3newNtNtNtB9_3ffi6os_str8OsStringECsegt7TmM0mJN_18build_script_build, symObjAddr: 0xE0, symBinAddr: 0x10000A180, symSize: 0x20 }
  - { offset: 0x1983C, size: 0x8, addend: 0x0, symName: __RINvMs16_NtCsHUR1vrdMJt_3std4pathNtB7_4Path3neweECsegt7TmM0mJN_18build_script_build, symObjAddr: 0x100, symBinAddr: 0x10000A1A0, symSize: 0x20 }
  - { offset: 0x19868, size: 0x8, addend: 0x0, symName: __RINvMs16_NtCsHUR1vrdMJt_3std4pathNtB7_4Path4joinReECsegt7TmM0mJN_18build_script_build, symObjAddr: 0x120, symBinAddr: 0x10000A1C0, symSize: 0x80 }
  - { offset: 0x19FA3, size: 0x8, addend: 0x0, symName: __RNCNvCsegt7TmM0mJN_18build_script_build13cargo_env_var0B3_, symObjAddr: 0x1350, symBinAddr: 0x10000B3F0, symSize: 0x60 }
  - { offset: 0x19FF4, size: 0x8, addend: 0x0, symName: __RNCNvCsegt7TmM0mJN_18build_script_build13compile_probe0B3_, symObjAddr: 0x13B0, symBinAddr: 0x10000B450, symSize: 0x30 }
  - { offset: 0x1A02A, size: 0x8, addend: 0x0, symName: __RNCNvCsegt7TmM0mJN_18build_script_build13compile_probes_0B3_, symObjAddr: 0x13E0, symBinAddr: 0x10000B480, symSize: 0x30 }
  - { offset: 0x1A06F, size: 0x8, addend: 0x0, symName: __RNvCsegt7TmM0mJN_18build_script_build13cargo_env_var, symObjAddr: 0x15B0, symBinAddr: 0x10000B650, symSize: 0x60 }
  - { offset: 0x1A09B, size: 0x8, addend: 0x0, symName: __RNvCsegt7TmM0mJN_18build_script_build13compile_probe, symObjAddr: 0x1610, symBinAddr: 0x10000B6B0, symSize: 0xE40 }
  - { offset: 0x1A2C3, size: 0x8, addend: 0x0, symName: __RNvCsegt7TmM0mJN_18build_script_build19rustc_minor_version, symObjAddr: 0x2450, symBinAddr: 0x10000C4F0, symSize: 0x500 }
  - { offset: 0x1A398, size: 0x8, addend: 0x0, symName: __RNvCsegt7TmM0mJN_18build_script_build4main, symObjAddr: 0x2950, symBinAddr: 0x10000C9F0, symSize: 0x6C0 }
  - { offset: 0x1A655, size: 0x8, addend: 0x0, symName: __RNvMNtCsieiGu2EXtoJ_4core6resultINtB2_6ResultNtNtCsHUR1vrdMJt_3std7process6OutputNtNtNtBL_2io5error5ErrorE2okCsegt7TmM0mJN_18build_script_build, symObjAddr: 0x3010, symBinAddr: 0x10000D0B0, symSize: 0xB0 }
  - { offset: 0x1A6A9, size: 0x8, addend: 0x0, symName: __RNvMNtCsieiGu2EXtoJ_4core6resultINtB2_6ResultReNtNtNtB4_3str5error9Utf8ErrorE2okCsegt7TmM0mJN_18build_script_build, symObjAddr: 0x30C0, symBinAddr: 0x10000D160, symSize: 0x50 }
  - { offset: 0x1A6FD, size: 0x8, addend: 0x0, symName: __RNvMNtCsieiGu2EXtoJ_4core6resultINtB2_6ResulthNtNtNtB4_3num5error15TryFromIntErrorE6expectCsegt7TmM0mJN_18build_script_build, symObjAddr: 0x3110, symBinAddr: 0x10000D1B0, symSize: 0x80 }
  - { offset: 0x1A75F, size: 0x8, addend: 0x0, symName: __RNvMNtCsieiGu2EXtoJ_4core6resultINtB2_6ResultmNtNtNtB4_3num5error13ParseIntErrorE2okCsegt7TmM0mJN_18build_script_build, symObjAddr: 0x3190, symBinAddr: 0x10000D230, symSize: 0x60 }
  - { offset: 0x1A7D9, size: 0x8, addend: 0x0, symName: __RNvMs16_NtCsHUR1vrdMJt_3std4pathNtB6_4Path7displayCsegt7TmM0mJN_18build_script_build, symObjAddr: 0x31F0, symBinAddr: 0x10000D290, symSize: 0x20 }
  - { offset: 0x1AAB7, size: 0x8, addend: 0x0, symName: ___llvm_profile_get_magic, symObjAddr: 0x20, symBinAddr: 0x10000DB90, symSize: 0x10 }
  - { offset: 0x1AAD8, size: 0x8, addend: 0x0, symName: ___llvm_profile_get_num_padding_bytes, symObjAddr: 0x40, symBinAddr: 0x10000DBA0, symSize: 0x10 }
  - { offset: 0x1AB09, size: 0x8, addend: 0x0, symName: ___llvm_profile_get_version, symObjAddr: 0x50, symBinAddr: 0x10000DBB0, symSize: 0x10 }
  - { offset: 0x1AB7E, size: 0x8, addend: 0x0, symName: ___llvm_profile_is_continuous_mode_enabled, symObjAddr: 0x0, symBinAddr: 0x10000DBC0, symSize: 0x20 }
  - { offset: 0x1AB9B, size: 0x8, addend: 0x0, symName: _ContinuouslySyncProfile, symObjAddr: 0x40E0, symBinAddr: 0x1000704C0, symSize: 0x0 }
  - { offset: 0x1ABBD, size: 0x8, addend: 0x0, symName: _PageSize, symObjAddr: 0x40E4, symBinAddr: 0x1000704C4, symSize: 0x0 }
  - { offset: 0x1ABEB, size: 0x8, addend: 0x0, symName: ___llvm_profile_is_continuous_mode_enabled, symObjAddr: 0x0, symBinAddr: 0x10000DBC0, symSize: 0x20 }
  - { offset: 0x1AC0C, size: 0x8, addend: 0x0, symName: ___llvm_profile_enable_continuous_mode, symObjAddr: 0x20, symBinAddr: 0x10000DBE0, symSize: 0x10 }
  - { offset: 0x1AC29, size: 0x8, addend: 0x0, symName: ___llvm_profile_disable_continuous_mode, symObjAddr: 0x30, symBinAddr: 0x10000DBF0, symSize: 0x10 }
  - { offset: 0x1AC46, size: 0x8, addend: 0x0, symName: ___llvm_profile_set_page_size, symObjAddr: 0x40, symBinAddr: 0x10000DC00, symSize: 0x10 }
  - { offset: 0x1AC71, size: 0x8, addend: 0x0, symName: ___llvm_profile_get_size_for_buffer, symObjAddr: 0x50, symBinAddr: 0x10000DC10, symSize: 0xD0 }
  - { offset: 0x1B0BF, size: 0x8, addend: 0x0, symName: ___llvm_profile_get_size_for_buffer_internal, symObjAddr: 0x120, symBinAddr: 0x10000DCE0, symSize: 0x210 }
  - { offset: 0x1B463, size: 0x8, addend: 0x0, symName: ___llvm_profile_get_num_data, symObjAddr: 0x330, symBinAddr: 0x10000DEF0, symSize: 0x10 }
  - { offset: 0x1B49C, size: 0x8, addend: 0x0, symName: ___llvm_profile_get_data_size, symObjAddr: 0x340, symBinAddr: 0x10000DF00, symSize: 0x10 }
  - { offset: 0x1B4C8, size: 0x8, addend: 0x0, symName: ___llvm_profile_get_data_size, symObjAddr: 0x340, symBinAddr: 0x10000DF00, symSize: 0x10 }
  - { offset: 0x1B4FE, size: 0x8, addend: 0x0, symName: ___llvm_profile_get_num_vtable, symObjAddr: 0x350, symBinAddr: 0x10000DF10, symSize: 0x20 }
  - { offset: 0x1B554, size: 0x8, addend: 0x0, symName: ___llvm_profile_get_vtable_section_size, symObjAddr: 0x370, symBinAddr: 0x10000DF30, symSize: 0x10 }
  - { offset: 0x1B57B, size: 0x8, addend: 0x0, symName: ___llvm_profile_counter_entry_size, symObjAddr: 0x380, symBinAddr: 0x10000DF40, symSize: 0x20 }
  - { offset: 0x1B593, size: 0x8, addend: 0x0, symName: ___llvm_profile_get_num_counters, symObjAddr: 0x3A0, symBinAddr: 0x10000DF60, symSize: 0x50 }
  - { offset: 0x1B5E8, size: 0x8, addend: 0x0, symName: ___llvm_profile_get_counters_size, symObjAddr: 0x3F0, symBinAddr: 0x10000DFB0, symSize: 0x60 }
  - { offset: 0x1B67C, size: 0x8, addend: 0x0, symName: ___llvm_profile_get_num_bitmap_bytes, symObjAddr: 0x450, symBinAddr: 0x10000E010, symSize: 0x10 }
  - { offset: 0x1B6A3, size: 0x8, addend: 0x0, symName: ___llvm_profile_get_name_size, symObjAddr: 0x460, symBinAddr: 0x10000E020, symSize: 0x10 }
  - { offset: 0x1B6CA, size: 0x8, addend: 0x0, symName: ___llvm_profile_get_padding_sizes_for_counters, symObjAddr: 0x470, symBinAddr: 0x10000E030, symSize: 0x1B0 }
  - { offset: 0x1B7E9, size: 0x8, addend: 0x0, symName: _initBufferWriter, symObjAddr: 0x620, symBinAddr: 0x10000E1E0, symSize: 0x10 }
  - { offset: 0x1B953, size: 0x8, addend: 0x0, symName: _lprofCurFilename, symObjAddr: 0xA6F8, symBinAddr: 0x1000704C8, symSize: 0x0 }
  - { offset: 0x1BA7C, size: 0x8, addend: 0x0, symName: _ProfileFile, symObjAddr: 0xA7C8, symBinAddr: 0x100070598, symSize: 0x0 }
  - { offset: 0x1BCAA, size: 0x8, addend: 0x0, symName: _ProfileMergeRequested, symObjAddr: 0xA7D0, symBinAddr: 0x1000705A0, symSize: 0x0 }
  - { offset: 0x1BE4D, size: 0x8, addend: 0x0, symName: _getCurFilenameLength, symObjAddr: 0x180, symBinAddr: 0x10000E1F0, symSize: 0xE0 }
  - { offset: 0x1BED8, size: 0x8, addend: 0x0, symName: _getCurFilename, symObjAddr: 0x260, symBinAddr: 0x10000E2D0, symSize: 0x380 }
  - { offset: 0x1C168, size: 0x8, addend: 0x0, symName: _parseAndSetFilename, symObjAddr: 0x6B0, symBinAddr: 0x10000E650, symSize: 0x590 }
  - { offset: 0x1C386, size: 0x8, addend: 0x0, symName: ___llvm_profile_initialize, symObjAddr: 0xC40, symBinAddr: 0x10000EBE0, symSize: 0x90 }
  - { offset: 0x1C402, size: 0x8, addend: 0x0, symName: ___llvm_profile_write_file, symObjAddr: 0xD30, symBinAddr: 0x10000EC70, symSize: 0x160 }
  - { offset: 0x1C5D5, size: 0x8, addend: 0x0, symName: _writeFile, symObjAddr: 0xE90, symBinAddr: 0x10000EDD0, symSize: 0x2B0 }
  - { offset: 0x1C77E, size: 0x8, addend: 0x0, symName: _writeFileWithoutReturn, symObjAddr: 0x1190, symBinAddr: 0x10000F080, symSize: 0x10 }
  - { offset: 0x1C7B5, size: 0x8, addend: 0x0, symName: _getProfileFileSizeForMerging, symObjAddr: 0x13C0, symBinAddr: 0x10000F090, symSize: 0xC0 }
  - { offset: 0x1C7FA, size: 0x8, addend: 0x0, symName: _mmapForContinuousMode, symObjAddr: 0x1480, symBinAddr: 0x10000F150, symSize: 0x2D0 }
  - { offset: 0x1C9B9, size: 0x8, addend: 0x0, symName: _fileWriter, symObjAddr: 0x1750, symBinAddr: 0x10000F420, symSize: 0x150 }
  - { offset: 0x1CA89, size: 0x8, addend: 0x0, symName: _binaryIdsStringWriter, symObjAddr: 0x18A0, symBinAddr: 0x10000F570, symSize: 0xA0 }
  - { offset: 0x1CB2A, size: 0x8, addend: 0x0, symName: _truncateCurrentFile, symObjAddr: 0x1940, symBinAddr: 0x10000F610, symSize: 0xB0 }
  - { offset: 0x1CBD0, size: 0x8, addend: 0x0, symName: _initializeProfileForContinuousMode, symObjAddr: 0x19F0, symBinAddr: 0x10000F6C0, symSize: 0x2C0 }
  - { offset: 0x1CDBF, size: 0x8, addend: 0x0, symName: _createProfileDir, symObjAddr: 0x1CB0, symBinAddr: 0x10000F980, symSize: 0x7F }
  - { offset: 0x1CF30, size: 0x8, addend: 0x0, symName: _lprofProfileDumped, symObjAddr: 0x0, symBinAddr: 0x10000FA00, symSize: 0x10 }
  - { offset: 0x1CF4D, size: 0x8, addend: 0x0, symName: _ProfileDumped, symObjAddr: 0x4E0, symBinAddr: 0x1000705A4, symSize: 0x0 }
  - { offset: 0x1CF5D, size: 0x8, addend: 0x0, symName: _lprofProfileDumped, symObjAddr: 0x0, symBinAddr: 0x10000FA00, symSize: 0x10 }
  - { offset: 0x1CFA5, size: 0x8, addend: 0x0, symName: _lprofGetLoadModuleSignature, symObjAddr: 0x0, symBinAddr: 0x10000FA10, symSize: 0xE0 }
  - { offset: 0x1CFD2, size: 0x8, addend: 0x0, symName: _VPMergeHook, symObjAddr: 0x2AA0, symBinAddr: 0x100072790, symSize: 0x0 }
  - { offset: 0x1D238, size: 0x8, addend: 0x0, symName: _lprofGetLoadModuleSignature, symObjAddr: 0x0, symBinAddr: 0x10000FA10, symSize: 0xE0 }
  - { offset: 0x1D2AC, size: 0x8, addend: 0x0, symName: ___llvm_profile_check_compatibility, symObjAddr: 0xE0, symBinAddr: 0x10000FAF0, symSize: 0x190 }
  - { offset: 0x1D38C, size: 0x8, addend: 0x0, symName: ___llvm_profile_merge_from_buffer, symObjAddr: 0x270, symBinAddr: 0x10000FC80, symSize: 0x4D8 }
  - { offset: 0x1D5EC, size: 0x8, addend: 0x0, symName: _lprofMergeValueProfData, symObjAddr: 0x0, symBinAddr: 0x100010160, symSize: 0xF1 }
  - { offset: 0x1D5FD, size: 0x8, addend: 0x0, symName: _lprofMergeValueProfData, symObjAddr: 0x0, symBinAddr: 0x100010160, symSize: 0xF1 }
  - { offset: 0x1D8C2, size: 0x8, addend: 0x0, symName: ___llvm_profile_begin_data, symObjAddr: 0x0, symBinAddr: 0x100010260, symSize: 0x10 }
  - { offset: 0x1D8E1, size: 0x8, addend: 0x0, symName: _CurrentVNode, symObjAddr: 0xE8, symBinAddr: 0x10006F9A0, symSize: 0x0 }
  - { offset: 0x1D95D, size: 0x8, addend: 0x0, symName: _EndVNode, symObjAddr: 0xF0, symBinAddr: 0x10006F9A8, symSize: 0x0 }
  - { offset: 0x1D966, size: 0x8, addend: 0x0, symName: ___llvm_profile_begin_data, symObjAddr: 0x0, symBinAddr: 0x100010260, symSize: 0x10 }
  - { offset: 0x1D987, size: 0x8, addend: 0x0, symName: ___llvm_profile_end_data, symObjAddr: 0x10, symBinAddr: 0x100010270, symSize: 0x10 }
  - { offset: 0x1D9A8, size: 0x8, addend: 0x0, symName: ___llvm_profile_begin_names, symObjAddr: 0x20, symBinAddr: 0x100010280, symSize: 0x10 }
  - { offset: 0x1D9C9, size: 0x8, addend: 0x0, symName: ___llvm_profile_end_names, symObjAddr: 0x30, symBinAddr: 0x100010290, symSize: 0x10 }
  - { offset: 0x1D9EA, size: 0x8, addend: 0x0, symName: ___llvm_profile_begin_counters, symObjAddr: 0x40, symBinAddr: 0x1000102A0, symSize: 0x10 }
  - { offset: 0x1DA0B, size: 0x8, addend: 0x0, symName: ___llvm_profile_end_counters, symObjAddr: 0x50, symBinAddr: 0x1000102B0, symSize: 0x10 }
  - { offset: 0x1DA2C, size: 0x8, addend: 0x0, symName: ___llvm_profile_begin_bitmap, symObjAddr: 0x60, symBinAddr: 0x1000102C0, symSize: 0x10 }
  - { offset: 0x1DA4D, size: 0x8, addend: 0x0, symName: ___llvm_profile_end_bitmap, symObjAddr: 0x70, symBinAddr: 0x1000102D0, symSize: 0x10 }
  - { offset: 0x1DA6E, size: 0x8, addend: 0x0, symName: ___llvm_profile_begin_vtables, symObjAddr: 0x80, symBinAddr: 0x1000102E0, symSize: 0x10 }
  - { offset: 0x1DA8F, size: 0x8, addend: 0x0, symName: ___llvm_profile_end_vtables, symObjAddr: 0x90, symBinAddr: 0x1000102F0, symSize: 0x10 }
  - { offset: 0x1DAB0, size: 0x8, addend: 0x0, symName: ___llvm_profile_begin_vtabnames, symObjAddr: 0xA0, symBinAddr: 0x100010300, symSize: 0x10 }
  - { offset: 0x1DAD1, size: 0x8, addend: 0x0, symName: ___llvm_profile_end_vtabnames, symObjAddr: 0xB0, symBinAddr: 0x100010310, symSize: 0x10 }
  - { offset: 0x1DAF2, size: 0x8, addend: 0x0, symName: ___llvm_profile_begin_vnodes, symObjAddr: 0xC0, symBinAddr: 0x100010320, symSize: 0x10 }
  - { offset: 0x1DB13, size: 0x8, addend: 0x0, symName: ___llvm_profile_end_vnodes, symObjAddr: 0xD0, symBinAddr: 0x100010330, symSize: 0x10 }
  - { offset: 0x1DB34, size: 0x8, addend: 0x0, symName: ___llvm_write_binary_ids, symObjAddr: 0xE0, symBinAddr: 0x100010340, symSize: 0x3 }
  - { offset: 0x1DDB8, size: 0x8, addend: 0x0, symName: __GLOBAL__sub_I_InstrProfilingRuntime.cpp, symObjAddr: 0x0, symBinAddr: 0x100010350, symSize: 0x12 }
  - { offset: 0x1DDDB, size: 0x8, addend: 0x0, symName: ___llvm_profile_runtime, symObjAddr: 0x580, symBinAddr: 0x100072798, symSize: 0x0 }
  - { offset: 0x1DE0C, size: 0x8, addend: 0x0, symName: __GLOBAL__sub_I_InstrProfilingRuntime.cpp, symObjAddr: 0x0, symBinAddr: 0x100010350, symSize: 0x12 }
  - { offset: 0x1DE88, size: 0x8, addend: 0x0, symName: ___llvm_profile_recursive_mkdir, symObjAddr: 0x0, symBinAddr: 0x100010370, symSize: 0x40 }
  - { offset: 0x1DEA7, size: 0x8, addend: 0x0, symName: _lprofDirMode, symObjAddr: 0x6F8, symBinAddr: 0x10006F9B0, symSize: 0x0 }
  - { offset: 0x1DF12, size: 0x8, addend: 0x0, symName: ___llvm_profile_recursive_mkdir, symObjAddr: 0x0, symBinAddr: 0x100010370, symSize: 0x40 }
  - { offset: 0x1DF91, size: 0x8, addend: 0x0, symName: _lprofGetHostName, symObjAddr: 0x60, symBinAddr: 0x1000103B0, symSize: 0x70 }
  - { offset: 0x1E0C5, size: 0x8, addend: 0x0, symName: _lprofLockFileHandle, symObjAddr: 0x1B0, symBinAddr: 0x100010420, symSize: 0x70 }
  - { offset: 0x1E153, size: 0x8, addend: 0x0, symName: _lprofUnlockFileHandle, symObjAddr: 0x220, symBinAddr: 0x100010490, symSize: 0x70 }
  - { offset: 0x1E1BB, size: 0x8, addend: 0x0, symName: _lprofOpenFileEx, symObjAddr: 0x290, symBinAddr: 0x100010500, symSize: 0xB0 }
  - { offset: 0x1E24D, size: 0x8, addend: 0x0, symName: _lprofGetFileContentBuffer, symObjAddr: 0x340, symBinAddr: 0x1000105B0, symSize: 0x1B0 }
  - { offset: 0x1E2DC, size: 0x8, addend: 0x0, symName: _lprofReleaseBuffer, symObjAddr: 0x4F0, symBinAddr: 0x100010760, symSize: 0x70 }
  - { offset: 0x1E31E, size: 0x8, addend: 0x0, symName: _lprofFindFirstDirSeparator, symObjAddr: 0x660, symBinAddr: 0x1000107D0, symSize: 0x10 }
  - { offset: 0x1E35E, size: 0x8, addend: 0x0, symName: _lprofSuspendSigKill, symObjAddr: 0x680, symBinAddr: 0x1000107E0, symSize: 0x10 }
  - { offset: 0x1E381, size: 0x8, addend: 0x0, symName: _lprofRestoreSigKill, symObjAddr: 0x690, symBinAddr: 0x1000107F0, symSize: 0x10 }
  - { offset: 0x1E3A0, size: 0x8, addend: 0x0, symName: _lprofAtExit, symObjAddr: 0x6F0, symBinAddr: 0x100010800, symSize: 0x5 }
  - { offset: 0x1E6B1, size: 0x8, addend: 0x0, symName: _getValueProfRecordHeaderSize, symObjAddr: 0x0, symBinAddr: 0x100010810, symSize: 0x10 }
  - { offset: 0x1E6D0, size: 0x8, addend: 0x0, symName: _VPMaxNumValsPerSite, symObjAddr: 0x1468, symBinAddr: 0x10006F9B8, symSize: 0x0 }
  - { offset: 0x1E765, size: 0x8, addend: 0x0, symName: _hasNonDefaultValsPerSite, symObjAddr: 0xEE78, symBinAddr: 0x1000705A8, symSize: 0x0 }
  - { offset: 0x1E78C, size: 0x8, addend: 0x0, symName: _OutOfNodesWarnings, symObjAddr: 0xEE80, symBinAddr: 0x1000705B0, symSize: 0x0 }
  - { offset: 0x1E7A1, size: 0x8, addend: 0x0, symName: _hasStaticCounters, symObjAddr: 0xEE7C, symBinAddr: 0x1000705AC, symSize: 0x0 }
  - { offset: 0x1E7BE, size: 0x8, addend: 0x0, symName: _TheVPDataReader, symObjAddr: 0x1470, symBinAddr: 0x10006F9C0, symSize: 0x0 }
  - { offset: 0x1EA5B, size: 0x8, addend: 0x0, symName: _RTRecord, symObjAddr: 0xEE88, symBinAddr: 0x1000705B8, symSize: 0x0 }
  - { offset: 0x1EC48, size: 0x8, addend: 0x0, symName: _getValueProfRecordHeaderSize, symObjAddr: 0x0, symBinAddr: 0x100010810, symSize: 0x10 }
  - { offset: 0x1EC9C, size: 0x8, addend: 0x0, symName: _getValueProfRecordValueData, symObjAddr: 0x20, symBinAddr: 0x100010820, symSize: 0x10 }
  - { offset: 0x1ED48, size: 0x8, addend: 0x0, symName: _getValueProfRecordNext, symObjAddr: 0x130, symBinAddr: 0x100010830, symSize: 0x100 }
  - { offset: 0x1ED50, size: 0x8, addend: 0x0, symName: _getFirstValueProfRecord, symObjAddr: 0x230, symBinAddr: 0x100010930, symSize: 0x10 }
  - { offset: 0x1EDD6, size: 0x8, addend: 0x0, symName: _getFirstValueProfRecord, symObjAddr: 0x230, symBinAddr: 0x100010930, symSize: 0x10 }
  - { offset: 0x1EEB6, size: 0x8, addend: 0x0, symName: _lprofSetupValueProfiler, symObjAddr: 0x8C0, symBinAddr: 0x100010940, symSize: 0x50 }
  - { offset: 0x1EFC8, size: 0x8, addend: 0x0, symName: ___llvm_profile_instrument_target_value, symObjAddr: 0xB90, symBinAddr: 0x100010990, symSize: 0x240 }
  - { offset: 0x1F0E3, size: 0x8, addend: 0x0, symName: _lprofGetVPDataReader, symObjAddr: 0xE20, symBinAddr: 0x100010BD0, symSize: 0x10 }
  - { offset: 0x1F106, size: 0x8, addend: 0x0, symName: _initializeValueProfRuntimeRecord, symObjAddr: 0xE30, symBinAddr: 0x100010BE0, symSize: 0x390 }
  - { offset: 0x1F22B, size: 0x8, addend: 0x0, symName: _getNumValueDataForSiteWrapper, symObjAddr: 0x11C0, symBinAddr: 0x100010F70, symSize: 0x20 }
  - { offset: 0x1F26F, size: 0x8, addend: 0x0, symName: _getNumValueDataForSiteWrapper, symObjAddr: 0x11C0, symBinAddr: 0x100010F70, symSize: 0x20 }
  - { offset: 0x1F295, size: 0x8, addend: 0x0, symName: _getValueProfDataSizeWrapper, symObjAddr: 0x11E0, symBinAddr: 0x100010F90, symSize: 0xB0 }
  - { offset: 0x1F2BB, size: 0x8, addend: 0x0, symName: _getValueProfDataSizeWrapper, symObjAddr: 0x11E0, symBinAddr: 0x100010F90, symSize: 0xB0 }
  - { offset: 0x1F2EC, size: 0x8, addend: 0x0, symName: _getValueProfDataSizeWrapper, symObjAddr: 0x11E0, symBinAddr: 0x100010F90, symSize: 0xB0 }
  - { offset: 0x1F349, size: 0x8, addend: 0x0, symName: _getNextNValueData, symObjAddr: 0x1290, symBinAddr: 0x100011040, symSize: 0xC0 }
  - { offset: 0x1F3E3, size: 0x8, addend: 0x0, symName: _getNumValueSitesRT, symObjAddr: 0x1350, symBinAddr: 0x100011100, symSize: 0x10 }
  - { offset: 0x1F424, size: 0x8, addend: 0x0, symName: _getNumValueDataRT, symObjAddr: 0x1360, symBinAddr: 0x100011110, symSize: 0x101 }
  - { offset: 0x1F4DC, size: 0x8, addend: 0x0, symName: ___llvm_profile_raw_version, symObjAddr: 0x0, symBinAddr: 0x10006F9F0, symSize: 0x0 }
  - { offset: 0x1F51E, size: 0x8, addend: 0x0, symName: _lprofBufferWriter, symObjAddr: 0x0, symBinAddr: 0x100011220, symSize: 0x60 }
  - { offset: 0x1F53D, size: 0x8, addend: 0x0, symName: _FreeHook, symObjAddr: 0x55B0, symBinAddr: 0x1000727A0, symSize: 0x0 }
  - { offset: 0x1F563, size: 0x8, addend: 0x0, symName: _DynamicBufferIOBuffer, symObjAddr: 0x55B8, symBinAddr: 0x1000727A8, symSize: 0x0 }
  - { offset: 0x1F591, size: 0x8, addend: 0x0, symName: _VPBufferSize, symObjAddr: 0x55C0, symBinAddr: 0x1000727B0, symSize: 0x0 }
  - { offset: 0x1F5B8, size: 0x8, addend: 0x0, symName: _TheBufferIO, symObjAddr: 0x75D0, symBinAddr: 0x1000725E0, symSize: 0x0 }
  - { offset: 0x1F702, size: 0x8, addend: 0x0, symName: _BufferIOBuffer, symObjAddr: 0x55D0, symBinAddr: 0x1000705E0, symSize: 0x0 }
  - { offset: 0x1F72C, size: 0x8, addend: 0x0, symName: _VPDataArray, symObjAddr: 0x75F0, symBinAddr: 0x100072600, symSize: 0x0 }
  - { offset: 0x1F7A4, size: 0x8, addend: 0x0, symName: _lprofBufferWriter, symObjAddr: 0x0, symBinAddr: 0x100011220, symSize: 0x60 }
  - { offset: 0x1F8BD, size: 0x8, addend: 0x0, symName: _lprofBufferIOWrite, symObjAddr: 0x100, symBinAddr: 0x100011280, symSize: 0x110 }
  - { offset: 0x1F9D6, size: 0x8, addend: 0x0, symName: _lprofWriteData, symObjAddr: 0x2A0, symBinAddr: 0x100011390, symSize: 0x120 }
  - { offset: 0x1FE13, size: 0x8, addend: 0x0, symName: _lprofWriteDataImpl, symObjAddr: 0x3C0, symBinAddr: 0x1000114B0, symSize: 0x6E0 }
  - { offset: 0x2016E, size: 0x8, addend: 0x0, symName: _writeOneValueProfData, symObjAddr: 0xB40, symBinAddr: 0x100011B90, symSize: 0x438 }
  - { offset: 0x20428, size: 0x8, addend: 0x0, symName: __RNvCskdKJRKLKjqM_7___rustc10rust_panic, symObjAddr: 0x0, symBinAddr: 0x100057E10, symSize: 0x70 }
  - { offset: 0x207A4, size: 0x8, addend: 0x0, symName: '__ZN42_$LT$$RF$T$u20$as$u20$core..fmt..Debug$GT$3fmt17h4fdfc8dc92b8280eE', symObjAddr: 0x27870, symBinAddr: 0x100026B40, symSize: 0x20 }
  - { offset: 0x207D5, size: 0x8, addend: 0x0, symName: '__ZN42_$LT$$RF$T$u20$as$u20$core..fmt..Debug$GT$3fmt17h611062ea6589b381E', symObjAddr: 0x27920, symBinAddr: 0x100026B60, symSize: 0x30 }
  - { offset: 0x2081B, size: 0x8, addend: 0x0, symName: '__ZN42_$LT$$RF$T$u20$as$u20$core..fmt..Debug$GT$3fmt17h67462dcd352e9f70E', symObjAddr: 0x27A20, symBinAddr: 0x100026B90, symSize: 0x30 }
  - { offset: 0x2086F, size: 0x8, addend: 0x0, symName: '__ZN42_$LT$$RF$T$u20$as$u20$core..fmt..Debug$GT$3fmt17h7225122a94cfb215E', symObjAddr: 0x27AB0, symBinAddr: 0x100026BC0, symSize: 0x80 }
  - { offset: 0x2090A, size: 0x8, addend: 0x0, symName: '__ZN42_$LT$$RF$T$u20$as$u20$core..fmt..Debug$GT$3fmt17h94e75b9b1a04870cE', symObjAddr: 0x27C70, symBinAddr: 0x100026C40, symSize: 0xA0 }
  - { offset: 0x20999, size: 0x8, addend: 0x0, symName: '__ZN42_$LT$$RF$T$u20$as$u20$core..fmt..Debug$GT$3fmt17ha3f9e4fd80ade547E', symObjAddr: 0x27D30, symBinAddr: 0x100026CE0, symSize: 0x20 }
  - { offset: 0x209AD, size: 0x8, addend: 0x0, symName: '__ZN42_$LT$$RF$T$u20$as$u20$core..fmt..Debug$GT$3fmt17hd6b383e11abcf534E', symObjAddr: 0x27FB0, symBinAddr: 0x100026D00, symSize: 0x20 }
  - { offset: 0x209DE, size: 0x8, addend: 0x0, symName: '__ZN42_$LT$$RF$T$u20$as$u20$core..fmt..Debug$GT$3fmt17hedcae28885211270E', symObjAddr: 0x28060, symBinAddr: 0x100026D20, symSize: 0x80 }
  - { offset: 0x20B10, size: 0x8, addend: 0x0, symName: '__ZN44_$LT$$RF$T$u20$as$u20$core..fmt..Display$GT$3fmt17h2befab159451fc05E', symObjAddr: 0x28130, symBinAddr: 0x100026DA0, symSize: 0x20 }
  - { offset: 0x20B2B, size: 0x8, addend: 0x0, symName: '__ZN44_$LT$$RF$T$u20$as$u20$core..fmt..Display$GT$3fmt17had011a6e3beb8b51E', symObjAddr: 0x28150, symBinAddr: 0x100026DC0, symSize: 0x90 }
  - { offset: 0x20BE9, size: 0x8, addend: 0x0, symName: '__ZN4core3fmt3num50_$LT$impl$u20$core..fmt..Debug$u20$for$u20$i32$GT$3fmt17h0317b62489790191E', symObjAddr: 0x284D0, symBinAddr: 0x100026E50, symSize: 0x30 }
  - { offset: 0x20C18, size: 0x8, addend: 0x0, symName: '__ZN4core3fmt3num52_$LT$impl$u20$core..fmt..Debug$u20$for$u20$usize$GT$3fmt17h4806199c82f902ceE', symObjAddr: 0x28590, symBinAddr: 0x100026E80, symSize: 0x30 }
  - { offset: 0x20C69, size: 0x8, addend: 0x0, symName: __ZN4core3fmt5Write10write_char17h2203fddc9d642afeE, symObjAddr: 0x285C0, symBinAddr: 0x100026EB0, symSize: 0xF0 }
  - { offset: 0x20DB0, size: 0x8, addend: 0x0, symName: __ZN4core3fmt5Write10write_char17h80d2a9496aca00b0E, symObjAddr: 0x28810, symBinAddr: 0x100026FA0, symSize: 0xE0 }
  - { offset: 0x20E34, size: 0x8, addend: 0x0, symName: __ZN4core3fmt5Write10write_char17hc46b6f7c3c3194cbE, symObjAddr: 0x288F0, symBinAddr: 0x100027080, symSize: 0x130 }
  - { offset: 0x20FD6, size: 0x8, addend: 0x0, symName: __ZN4core3fmt5Write10write_char17hcc4819a43ad01bd6E, symObjAddr: 0x28A20, symBinAddr: 0x1000271B0, symSize: 0xE0 }
  - { offset: 0x2105A, size: 0x8, addend: 0x0, symName: __ZN4core3fmt5Write10write_char17hdac7d1ed87bd809bE, symObjAddr: 0x28B00, symBinAddr: 0x100027290, symSize: 0x160 }
  - { offset: 0x2121A, size: 0x8, addend: 0x0, symName: __ZN4core3fmt5Write9write_fmt17hc429ab0415a42d62E, symObjAddr: 0x28CB0, symBinAddr: 0x1000273F0, symSize: 0x50 }
  - { offset: 0x21249, size: 0x8, addend: 0x0, symName: __ZN4core3fmt5Write9write_fmt17hd3928726ab1abb27E, symObjAddr: 0x28D00, symBinAddr: 0x100027440, symSize: 0x50 }
  - { offset: 0x21278, size: 0x8, addend: 0x0, symName: __ZN4core3fmt5Write9write_fmt17he343009274951ef4E, symObjAddr: 0x28D50, symBinAddr: 0x100027490, symSize: 0x50 }
  - { offset: 0x212A7, size: 0x8, addend: 0x0, symName: __ZN4core3fmt5Write9write_fmt17he408d8c37cd4c2c5E, symObjAddr: 0x28DA0, symBinAddr: 0x1000274E0, symSize: 0x50 }
  - { offset: 0x212D6, size: 0x8, addend: 0x0, symName: __ZN4core3fmt5Write9write_fmt17hec70cb0fc9ef19e4E, symObjAddr: 0x28DF0, symBinAddr: 0x100027530, symSize: 0x50 }
  - { offset: 0x21305, size: 0x8, addend: 0x0, symName: __ZN4core3fmt5Write9write_fmt17hfbfca6c33e82dca5E, symObjAddr: 0x28E40, symBinAddr: 0x100027580, symSize: 0x50 }
  - { offset: 0x21362, size: 0x8, addend: 0x0, symName: '__ZN50_$LT$$BP$mut$u20$T$u20$as$u20$core..fmt..Debug$GT$3fmt17h461ef72b23c2334dE', symObjAddr: 0x3AB30, symBinAddr: 0x100034230, symSize: 0x10 }
  - { offset: 0x213AF, size: 0x8, addend: 0x0, symName: '__ZN52_$LT$$RF$mut$u20$T$u20$as$u20$core..fmt..Display$GT$3fmt17he99623082ea1fa3dE', symObjAddr: 0x3B1B0, symBinAddr: 0x100034240, symSize: 0x20 }
  - { offset: 0x23BE3, size: 0x8, addend: 0x0, symName: '__ZN4core3ptr107drop_in_place$LT$core..pin..Pin$LT$alloc..boxed..Box$LT$std..sys..pal..unix..sync..mutex..Mutex$GT$$GT$$GT$17he4bee0bcfb03f75fE', symObjAddr: 0x294F0, symBinAddr: 0x100027940, symSize: 0x30 }
  - { offset: 0x23C7A, size: 0x8, addend: 0x0, symName: '__ZN4core3ptr109drop_in_place$LT$alloc..sync..Arc$LT$std..sync..poison..mutex..Mutex$LT$alloc..vec..Vec$LT$u8$GT$$GT$$GT$$GT$17he5b3c9d5553080edE', symObjAddr: 0x29520, symBinAddr: 0x100027970, symSize: 0x20 }
  - { offset: 0x23CFB, size: 0x8, addend: 0x0, symName: '__ZN4core3ptr112drop_in_place$LT$$LP$std..ffi..os_str..OsString$C$core..option..Option$LT$std..ffi..os_str..OsString$GT$$RP$$GT$17h54bc20c29a320005E', symObjAddr: 0x29540, symBinAddr: 0x100027990, symSize: 0x50 }
  - { offset: 0x23E70, size: 0x8, addend: 0x0, symName: '__ZN4core3ptr119drop_in_place$LT$std..io..default_write_fmt..Adapter$LT$std..io..cursor..Cursor$LT$$RF$mut$u20$$u5b$u8$u5d$$GT$$GT$$GT$17h8ef58680b6ede286E', symObjAddr: 0x295C0, symBinAddr: 0x1000279E0, symSize: 0x20 }
  - { offset: 0x23E93, size: 0x8, addend: 0x0, symName: '__ZN4core3ptr123drop_in_place$LT$addr2line..Context$LT$gimli..read..endian_slice..EndianSlice$LT$gimli..endianity..LittleEndian$GT$$GT$$GT$17h4096ebf47a84add1E', symObjAddr: 0x295E0, symBinAddr: 0x100027A00, symSize: 0x60 }
  - { offset: 0x23F38, size: 0x8, addend: 0x0, symName: '__ZN4core3ptr128drop_in_place$LT$core..result..Result$LT$$RF$std..thread..Thread$C$$LP$$RF$std..thread..Thread$C$std..thread..Thread$RP$$GT$$GT$17h5b35dce14f68d27eE', symObjAddr: 0x29640, symBinAddr: 0x100027A60, symSize: 0x20 }
  - { offset: 0x2405A, size: 0x8, addend: 0x0, symName: '__ZN4core3ptr129drop_in_place$LT$addr2line..unit..ResUnit$LT$gimli..read..endian_slice..EndianSlice$LT$gimli..endianity..LittleEndian$GT$$GT$$GT$17h5b41b59ec8c6acd1E', symObjAddr: 0x29660, symBinAddr: 0x100027A80, symSize: 0x100 }
  - { offset: 0x24268, size: 0x8, addend: 0x0, symName: '__ZN4core3ptr129drop_in_place$LT$addr2line..unit..SupUnit$LT$gimli..read..endian_slice..EndianSlice$LT$gimli..endianity..LittleEndian$GT$$GT$$GT$17h7745e598093ea497E', symObjAddr: 0x29760, symBinAddr: 0x100027B80, symSize: 0x50 }
  - { offset: 0x24313, size: 0x8, addend: 0x0, symName: '__ZN4core3ptr130drop_in_place$LT$addr2line..unit..ResUnits$LT$gimli..read..endian_slice..EndianSlice$LT$gimli..endianity..LittleEndian$GT$$GT$$GT$17h8ac001c378159224E', symObjAddr: 0x297B0, symBinAddr: 0x100027BD0, symSize: 0xE0 }
  - { offset: 0x244BC, size: 0x8, addend: 0x0, symName: '__ZN4core3ptr130drop_in_place$LT$addr2line..unit..SupUnits$LT$gimli..read..endian_slice..EndianSlice$LT$gimli..endianity..LittleEndian$GT$$GT$$GT$17hf4d4e85b8cf1677eE', symObjAddr: 0x29890, symBinAddr: 0x100027CB0, symSize: 0xE0 }
  - { offset: 0x24658, size: 0x8, addend: 0x0, symName: '__ZN4core3ptr130drop_in_place$LT$gimli..read..dwarf..Dwarf$LT$gimli..read..endian_slice..EndianSlice$LT$gimli..endianity..LittleEndian$GT$$GT$$GT$17h00351692336cc8a5E', symObjAddr: 0x29970, symBinAddr: 0x100027D90, symSize: 0x60 }
  - { offset: 0x246C2, size: 0x8, addend: 0x0, symName: '__ZN4core3ptr131drop_in_place$LT$$u5b$core..option..Option$LT$core..option..Option$LT$std..backtrace_rs..symbolize..gimli..Mapping$GT$$GT$$u5d$$GT$17h5e49fcba991e0fefE', symObjAddr: 0x299D0, symBinAddr: 0x100027DF0, symSize: 0xE0 }
  - { offset: 0x2476C, size: 0x8, addend: 0x0, symName: '__ZN4core3ptr131drop_in_place$LT$alloc..boxed..Box$LT$dyn$u20$core..ops..function..FnOnce$LT$$LP$$RP$$GT$$u2b$Output$u20$$u3d$$u20$$LP$$RP$$GT$$GT$17h34dfa6de81a90f60E', symObjAddr: 0x29AB0, symBinAddr: 0x100027ED0, symSize: 0x70 }
  - { offset: 0x24857, size: 0x8, addend: 0x0, symName: '__ZN4core3ptr137drop_in_place$LT$gimli..read..dwarf..Unit$LT$gimli..read..endian_slice..EndianSlice$LT$gimli..endianity..LittleEndian$GT$$C$usize$GT$$GT$17h8a3dedf63945c7ffE', symObjAddr: 0x29B20, symBinAddr: 0x100027F40, symSize: 0x50 }
  - { offset: 0x24940, size: 0x8, addend: 0x0, symName: '__ZN4core3ptr138drop_in_place$LT$addr2line..function..LazyFunction$LT$gimli..read..endian_slice..EndianSlice$LT$gimli..endianity..LittleEndian$GT$$GT$$GT$17h0f8e66548b648d63E', symObjAddr: 0x29B70, symBinAddr: 0x100027F90, symSize: 0x60 }
  - { offset: 0x24957, size: 0x8, addend: 0x0, symName: '__ZN4core3ptr138drop_in_place$LT$addr2line..function..LazyFunction$LT$gimli..read..endian_slice..EndianSlice$LT$gimli..endianity..LittleEndian$GT$$GT$$GT$17h0f8e66548b648d63E', symObjAddr: 0x29B70, symBinAddr: 0x100027F90, symSize: 0x60 }
  - { offset: 0x2496C, size: 0x8, addend: 0x0, symName: '__ZN4core3ptr138drop_in_place$LT$addr2line..function..LazyFunction$LT$gimli..read..endian_slice..EndianSlice$LT$gimli..endianity..LittleEndian$GT$$GT$$GT$17h0f8e66548b648d63E', symObjAddr: 0x29B70, symBinAddr: 0x100027F90, symSize: 0x60 }
  - { offset: 0x24981, size: 0x8, addend: 0x0, symName: '__ZN4core3ptr138drop_in_place$LT$addr2line..function..LazyFunction$LT$gimli..read..endian_slice..EndianSlice$LT$gimli..endianity..LittleEndian$GT$$GT$$GT$17h0f8e66548b648d63E', symObjAddr: 0x29B70, symBinAddr: 0x100027F90, symSize: 0x60 }
  - { offset: 0x24AB5, size: 0x8, addend: 0x0, symName: '__ZN4core3ptr144drop_in_place$LT$alloc..vec..Vec$LT$core..option..Option$LT$core..option..Option$LT$std..backtrace_rs..symbolize..gimli..Mapping$GT$$GT$$GT$$GT$17hd133ee3f082661a3E', symObjAddr: 0x29BD0, symBinAddr: 0x100027FF0, symSize: 0x80 }
  - { offset: 0x24C0F, size: 0x8, addend: 0x0, symName: '__ZN4core3ptr152drop_in_place$LT$alloc..vec..Vec$LT$addr2line..unit..ResUnit$LT$gimli..read..endian_slice..EndianSlice$LT$gimli..endianity..LittleEndian$GT$$GT$$GT$$GT$17h687eea1ef8e4dccbE', symObjAddr: 0x29D40, symBinAddr: 0x100028070, symSize: 0xD0 }
  - { offset: 0x24D7E, size: 0x8, addend: 0x0, symName: '__ZN4core3ptr152drop_in_place$LT$alloc..vec..Vec$LT$addr2line..unit..SupUnit$LT$gimli..read..endian_slice..EndianSlice$LT$gimli..endianity..LittleEndian$GT$$GT$$GT$$GT$17h43b55f1c1ec40770E', symObjAddr: 0x29E10, symBinAddr: 0x100028140, symSize: 0x100 }
  - { offset: 0x24F82, size: 0x8, addend: 0x0, symName: '__ZN4core3ptr156drop_in_place$LT$alloc..boxed..Box$LT$$u5b$core..option..Option$LT$core..option..Option$LT$std..backtrace_rs..symbolize..gimli..Mapping$GT$$GT$$u5d$$GT$$GT$17h64285ccbe01a68bbE', symObjAddr: 0x29F10, symBinAddr: 0x100028240, symSize: 0xF0 }
  - { offset: 0x250AC, size: 0x8, addend: 0x0, symName: '__ZN4core3ptr159drop_in_place$LT$alloc..sync..ArcInner$LT$gimli..read..dwarf..Dwarf$LT$gimli..read..endian_slice..EndianSlice$LT$gimli..endianity..LittleEndian$GT$$GT$$GT$$GT$17ha7d070261ff0f422E', symObjAddr: 0x2A0A0, symBinAddr: 0x100028330, symSize: 0x60 }
  - { offset: 0x2515D, size: 0x8, addend: 0x0, symName: '__ZN4core3ptr161drop_in_place$LT$alloc..vec..Vec$LT$addr2line..function..LazyFunction$LT$gimli..read..endian_slice..EndianSlice$LT$gimli..endianity..LittleEndian$GT$$GT$$GT$$GT$17h224d020c77f1c5c5E', symObjAddr: 0x2A100, symBinAddr: 0x100028390, symSize: 0xC0 }
  - { offset: 0x2539A, size: 0x8, addend: 0x0, symName: '__ZN4core3ptr172drop_in_place$LT$core..result..Result$LT$addr2line..Context$LT$gimli..read..endian_slice..EndianSlice$LT$gimli..endianity..LittleEndian$GT$$GT$$C$gimli..read..Error$GT$$GT$17h9689e9d3357a2b29E', symObjAddr: 0x2A270, symBinAddr: 0x100028450, symSize: 0x70 }
  - { offset: 0x2541B, size: 0x8, addend: 0x0, symName: '__ZN4core3ptr173drop_in_place$LT$alloc..boxed..Box$LT$$u5b$addr2line..function..LazyFunction$LT$gimli..read..endian_slice..EndianSlice$LT$gimli..endianity..LittleEndian$GT$$GT$$u5d$$GT$$GT$17h854691247aa87af0E', symObjAddr: 0x2A2E0, symBinAddr: 0x1000284C0, symSize: 0xA0 }
  - { offset: 0x25432, size: 0x8, addend: 0x0, symName: '__ZN4core3ptr173drop_in_place$LT$alloc..boxed..Box$LT$$u5b$addr2line..function..LazyFunction$LT$gimli..read..endian_slice..EndianSlice$LT$gimli..endianity..LittleEndian$GT$$GT$$u5d$$GT$$GT$17h854691247aa87af0E', symObjAddr: 0x2A2E0, symBinAddr: 0x1000284C0, symSize: 0xA0 }
  - { offset: 0x25607, size: 0x8, addend: 0x0, symName: '__ZN4core3ptr181drop_in_place$LT$core..option..Option$LT$gimli..read..line..IncompleteLineProgram$LT$gimli..read..endian_slice..EndianSlice$LT$gimli..endianity..LittleEndian$GT$$C$usize$GT$$GT$$GT$17ha2da1af52ac50966E', symObjAddr: 0x2A3F0, symBinAddr: 0x100028560, symSize: 0xA0 }
  - { offset: 0x25860, size: 0x8, addend: 0x0, symName: '__ZN4core3ptr181drop_in_place$LT$core..result..Result$LT$addr2line..frame..FrameIter$LT$gimli..read..endian_slice..EndianSlice$LT$gimli..endianity..LittleEndian$GT$$GT$$C$gimli..read..Error$GT$$GT$17hb41a886cf8fb4359E', symObjAddr: 0x2A490, symBinAddr: 0x100028600, symSize: 0x40 }
  - { offset: 0x2599E, size: 0x8, addend: 0x0, symName: '__ZN4core3ptr184drop_in_place$LT$core..result..Result$LT$addr2line..function..Functions$LT$gimli..read..endian_slice..EndianSlice$LT$gimli..endianity..LittleEndian$GT$$GT$$C$gimli..read..Error$GT$$GT$17h16817f6f8b785913E', symObjAddr: 0x2A4D0, symBinAddr: 0x100028640, symSize: 0xE0 }
  - { offset: 0x25C2E, size: 0x8, addend: 0x0, symName: '__ZN4core3ptr194drop_in_place$LT$core..result..Result$LT$std..sync..poison..mutex..MutexGuard$LT$$LP$$RP$$GT$$C$std..sync..poison..PoisonError$LT$std..sync..poison..mutex..MutexGuard$LT$$LP$$RP$$GT$$GT$$GT$$GT$17h05108be9b923664fE', symObjAddr: 0x2A620, symBinAddr: 0x100028720, symSize: 0x50 }
  - { offset: 0x25C6C, size: 0x8, addend: 0x0, symName: '__ZN4core3ptr231drop_in_place$LT$core..result..Result$LT$core..option..Option$LT$alloc..boxed..Box$LT$addr2line..unit..DwoUnit$LT$gimli..read..endian_slice..EndianSlice$LT$gimli..endianity..LittleEndian$GT$$GT$$GT$$GT$$C$gimli..read..Error$GT$$GT$17h77faee68108766d7E', symObjAddr: 0x2A670, symBinAddr: 0x100028770, symSize: 0xB0 }
  - { offset: 0x25E36, size: 0x8, addend: 0x0, symName: '__ZN4core3ptr238drop_in_place$LT$alloc..boxed..convert..$LT$impl$u20$core..convert..From$LT$alloc..string..String$GT$$u20$for$u20$alloc..boxed..Box$LT$dyn$u20$core..error..Error$u2b$core..marker..Sync$u2b$core..marker..Send$GT$$GT$..from..StringError$GT$17h77c71369405e109cE', symObjAddr: 0x2A720, symBinAddr: 0x100028820, symSize: 0x20 }
  - { offset: 0x25EE1, size: 0x8, addend: 0x0, symName: '__ZN4core3ptr275drop_in_place$LT$gimli..read..line..LineRows$LT$gimli..read..endian_slice..EndianSlice$LT$gimli..endianity..LittleEndian$GT$$C$gimli..read..line..IncompleteLineProgram$LT$gimli..read..endian_slice..EndianSlice$LT$gimli..endianity..LittleEndian$GT$$C$usize$GT$$C$usize$GT$$GT$17hadd9cd2441f7544fE', symObjAddr: 0x2A740, symBinAddr: 0x100028840, symSize: 0xA0 }
  - { offset: 0x26156, size: 0x8, addend: 0x0, symName: '__ZN4core3ptr280drop_in_place$LT$$LT$alloc..collections..btree..map..IntoIter$LT$K$C$V$C$A$GT$$u20$as$u20$core..ops..drop..Drop$GT$..drop..DropGuard$LT$u64$C$core..result..Result$LT$alloc..sync..Arc$LT$gimli..read..abbrev..Abbreviations$GT$$C$gimli..read..Error$GT$$C$alloc..alloc..Global$GT$$GT$17h12b50f4912f8d053E', symObjAddr: 0x2A7E0, symBinAddr: 0x1000288E0, symSize: 0x80 }
  - { offset: 0x26282, size: 0x8, addend: 0x0, symName: '__ZN4core3ptr284drop_in_place$LT$core..result..Result$LT$$RF$core..result..Result$LT$addr2line..line..Lines$C$gimli..read..Error$GT$$C$$LP$$RF$core..result..Result$LT$addr2line..line..Lines$C$gimli..read..Error$GT$$C$core..result..Result$LT$addr2line..line..Lines$C$gimli..read..Error$GT$$RP$$GT$$GT$17h10f406cda706aac9E', symObjAddr: 0x2A860, symBinAddr: 0x100028960, symSize: 0x20 }
  - { offset: 0x262B3, size: 0x8, addend: 0x0, symName: '__ZN4core3ptr37drop_in_place$LT$std..env..VarsOs$GT$17h46b78f62b627aed3E', symObjAddr: 0x2A880, symBinAddr: 0x100028980, symSize: 0xB0 }
  - { offset: 0x26578, size: 0x8, addend: 0x0, symName: '__ZN4core3ptr42drop_in_place$LT$alloc..string..String$GT$17h13a2c872d6de9b78E', symObjAddr: 0x2AA20, symBinAddr: 0x100028A30, symSize: 0x20 }
  - { offset: 0x2660D, size: 0x8, addend: 0x0, symName: '__ZN4core3ptr42drop_in_place$LT$std..io..error..Error$GT$17hf3cc5d9531ccf1c0E', symObjAddr: 0x2AA40, symBinAddr: 0x100028A50, symSize: 0xA0 }
  - { offset: 0x2682B, size: 0x8, addend: 0x0, symName: '__ZN4core3ptr44drop_in_place$LT$object..read..ObjectMap$GT$17h9dfc9bd6f6ee5a53E', symObjAddr: 0x2AAE0, symBinAddr: 0x100028AF0, symSize: 0x50 }
  - { offset: 0x2695A, size: 0x8, addend: 0x0, symName: '__ZN4core3ptr46drop_in_place$LT$alloc..vec..Vec$LT$u8$GT$$GT$17h50cadf63df0efd66E', symObjAddr: 0x2AB90, symBinAddr: 0x100028B40, symSize: 0x20 }
  - { offset: 0x269D9, size: 0x8, addend: 0x0, symName: '__ZN4core3ptr46drop_in_place$LT$std..io..stdio..StdinLock$GT$17h859807256c432efeE', symObjAddr: 0x2ABB0, symBinAddr: 0x100028B60, symSize: 0x50 }
  - { offset: 0x269F0, size: 0x8, addend: 0x0, symName: '__ZN4core3ptr46drop_in_place$LT$std..io..stdio..StdinLock$GT$17h859807256c432efeE', symObjAddr: 0x2ABB0, symBinAddr: 0x100028B60, symSize: 0x50 }
  - { offset: 0x26A05, size: 0x8, addend: 0x0, symName: '__ZN4core3ptr46drop_in_place$LT$std..io..stdio..StdinLock$GT$17h859807256c432efeE', symObjAddr: 0x2ABB0, symBinAddr: 0x100028B60, symSize: 0x50 }
  - { offset: 0x26AE9, size: 0x8, addend: 0x0, symName: '__ZN4core3ptr48drop_in_place$LT$alloc..ffi..c_str..NulError$GT$17h05fdddfd5dec9957E', symObjAddr: 0x2AD00, symBinAddr: 0x100028BB0, symSize: 0x20 }
  - { offset: 0x26B8C, size: 0x8, addend: 0x0, symName: '__ZN4core3ptr557drop_in_place$LT$core..result..Result$LT$$RF$core..result..Result$LT$addr2line..function..Function$LT$gimli..read..endian_slice..EndianSlice$LT$gimli..endianity..LittleEndian$GT$$GT$$C$gimli..read..Error$GT$$C$$LP$$RF$core..result..Result$LT$addr2line..function..Function$LT$gimli..read..endian_slice..EndianSlice$LT$gimli..endianity..LittleEndian$GT$$GT$$C$gimli..read..Error$GT$$C$core..result..Result$LT$addr2line..function..Function$LT$gimli..read..endian_slice..EndianSlice$LT$gimli..endianity..LittleEndian$GT$$GT$$C$gimli..read..Error$GT$$RP$$GT$$GT$17hc44de9d152e84349E', symObjAddr: 0x2AFE0, symBinAddr: 0x100028BD0, symSize: 0x60 }
  - { offset: 0x26D76, size: 0x8, addend: 0x0, symName: '__ZN4core3ptr55drop_in_place$LT$gimli..read..abbrev..Abbreviations$GT$17h650fa2a70ecf9e05E', symObjAddr: 0x2B040, symBinAddr: 0x100028C30, symSize: 0x130 }
  - { offset: 0x270BF, size: 0x8, addend: 0x0, symName: '__ZN4core3ptr560drop_in_place$LT$core..result..Result$LT$$RF$core..result..Result$LT$addr2line..function..Functions$LT$gimli..read..endian_slice..EndianSlice$LT$gimli..endianity..LittleEndian$GT$$GT$$C$gimli..read..Error$GT$$C$$LP$$RF$core..result..Result$LT$addr2line..function..Functions$LT$gimli..read..endian_slice..EndianSlice$LT$gimli..endianity..LittleEndian$GT$$GT$$C$gimli..read..Error$GT$$C$core..result..Result$LT$addr2line..function..Functions$LT$gimli..read..endian_slice..EndianSlice$LT$gimli..endianity..LittleEndian$GT$$GT$$C$gimli..read..Error$GT$$RP$$GT$$GT$17h6cf82f479787438aE', symObjAddr: 0x2B270, symBinAddr: 0x100028D60, symSize: 0x20 }
  - { offset: 0x2711A, size: 0x8, addend: 0x0, symName: '__ZN4core3ptr60drop_in_place$LT$gimli..read..abbrev..AbbreviationsCache$GT$17h8ea9413fce52b0aeE', symObjAddr: 0x2B290, symBinAddr: 0x100028D80, symSize: 0xE0 }
  - { offset: 0x27281, size: 0x8, addend: 0x0, symName: '__ZN4core3ptr64drop_in_place$LT$std..sys..pal..unix..sync..mutex..AttrGuard$GT$17h07975ffc5879c9b3E', symObjAddr: 0x2B3E0, symBinAddr: 0x100028E60, symSize: 0x40 }
  - { offset: 0x272A4, size: 0x8, addend: 0x0, symName: '__ZN4core3ptr64drop_in_place$LT$std..sys..process..unix..common..ChildPipes$GT$17h8a41ca136ef85558E', symObjAddr: 0x2B420, symBinAddr: 0x100028EA0, symSize: 0x50 }
  - { offset: 0x273A6, size: 0x8, addend: 0x0, symName: '__ZN4core3ptr64drop_in_place$LT$std..sys..process..unix..common..StdioPipes$GT$17h923111f52d7e035aE', symObjAddr: 0x2B470, symBinAddr: 0x100028EF0, symSize: 0x40 }
  - { offset: 0x2751E, size: 0x8, addend: 0x0, symName: '__ZN4core3ptr65drop_in_place$LT$alloc..vec..Vec$LT$alloc..string..String$GT$$GT$17h7048242ed88ea37eE', symObjAddr: 0x2B4B0, symBinAddr: 0x100028F30, symSize: 0x90 }
  - { offset: 0x27684, size: 0x8, addend: 0x0, symName: '__ZN4core3ptr65drop_in_place$LT$std..backtrace_rs..symbolize..gimli..Context$GT$17hc7e1db2a9c32a85bE', symObjAddr: 0x2B540, symBinAddr: 0x100028FC0, symSize: 0x100 }
  - { offset: 0x27902, size: 0x8, addend: 0x0, symName: '__ZN4core3ptr66drop_in_place$LT$std..backtrace_rs..backtrace..libunwind..Bomb$GT$17hd5948bcabaf539edE', symObjAddr: 0x2B640, symBinAddr: 0x1000290C0, symSize: 0x50 }
  - { offset: 0x2794E, size: 0x8, addend: 0x0, symName: '__ZN4core3ptr701drop_in_place$LT$core..result..Result$LT$$RF$core..result..Result$LT$core..option..Option$LT$alloc..boxed..Box$LT$addr2line..unit..DwoUnit$LT$gimli..read..endian_slice..EndianSlice$LT$gimli..endianity..LittleEndian$GT$$GT$$GT$$GT$$C$gimli..read..Error$GT$$C$$LP$$RF$core..result..Result$LT$core..option..Option$LT$alloc..boxed..Box$LT$addr2line..unit..DwoUnit$LT$gimli..read..endian_slice..EndianSlice$LT$gimli..endianity..LittleEndian$GT$$GT$$GT$$GT$$C$gimli..read..Error$GT$$C$core..result..Result$LT$core..option..Option$LT$alloc..boxed..Box$LT$addr2line..unit..DwoUnit$LT$gimli..read..endian_slice..EndianSlice$LT$gimli..endianity..LittleEndian$GT$$GT$$GT$$GT$$C$gimli..read..Error$GT$$RP$$GT$$GT$17h4c871d662e9baba8E', symObjAddr: 0x2B690, symBinAddr: 0x100029110, symSize: 0x20 }
  - { offset: 0x279EF, size: 0x8, addend: 0x0, symName: '__ZN4core3ptr70drop_in_place$LT$std..backtrace_rs..symbolize..gimli..stash..Stash$GT$17h9192affd8a73d22bE', symObjAddr: 0x2B6B0, symBinAddr: 0x100029130, symSize: 0xE0 }
  - { offset: 0x27C95, size: 0x8, addend: 0x0, symName: '__ZN4core3ptr71drop_in_place$LT$std..backtrace_rs..symbolize..gimli..macho..Object$GT$17he8bfbbbc576ba26bE', symObjAddr: 0x2B790, symBinAddr: 0x100029210, symSize: 0xD0 }
  - { offset: 0x27F5A, size: 0x8, addend: 0x0, symName: '__ZN4core3ptr71drop_in_place$LT$std..panicking..panic_handler..FormatStringPayload$GT$17he2832ae2b85e7af7E', symObjAddr: 0x2B860, symBinAddr: 0x1000292E0, symSize: 0x30 }
  - { offset: 0x28016, size: 0x8, addend: 0x0, symName: '__ZN4core3ptr72drop_in_place$LT$core..option..Option$LT$object..read..ObjectMap$GT$$GT$17hfcefd03af094224dE', symObjAddr: 0x2B890, symBinAddr: 0x100029310, symSize: 0x60 }
  - { offset: 0x28193, size: 0x8, addend: 0x0, symName: '__ZN4core3ptr73drop_in_place$LT$alloc..vec..Vec$LT$addr2line..line..LineSequence$GT$$GT$17ha6ada6d850d6bfd7E', symObjAddr: 0x2B8F0, symBinAddr: 0x100029370, symSize: 0x90 }
  - { offset: 0x282EB, size: 0x8, addend: 0x0, symName: '__ZN4core3ptr77drop_in_place$LT$alloc..boxed..Box$LT$$u5b$alloc..string..String$u5d$$GT$$GT$17hb3442e265eb8e1dcE', symObjAddr: 0x2B9D0, symBinAddr: 0x100029400, symSize: 0x60 }
  - { offset: 0x28302, size: 0x8, addend: 0x0, symName: '__ZN4core3ptr77drop_in_place$LT$alloc..boxed..Box$LT$$u5b$alloc..string..String$u5d$$GT$$GT$17hb3442e265eb8e1dcE', symObjAddr: 0x2B9D0, symBinAddr: 0x100029400, symSize: 0x60 }
  - { offset: 0x28400, size: 0x8, addend: 0x0, symName: '__ZN4core3ptr78drop_in_place$LT$core..result..Result$LT$usize$C$std..io..error..Error$GT$$GT$17h5cf9dfd69ab55d35E', symObjAddr: 0x2BA30, symBinAddr: 0x100029460, symSize: 0x20 }
  - { offset: 0x28414, size: 0x8, addend: 0x0, symName: '__ZN4core3ptr79drop_in_place$LT$std..sync..poison..rwlock..RwLockReadGuard$LT$$LP$$RP$$GT$$GT$17h4fa0e4fa5e15bd74E', symObjAddr: 0x2BA50, symBinAddr: 0x100029480, symSize: 0x50 }
  - { offset: 0x284B0, size: 0x8, addend: 0x0, symName: '__ZN4core3ptr81drop_in_place$LT$core..result..Result$LT$$LP$$RP$$C$std..io..error..Error$GT$$GT$17h1c1edd567460b3feE', symObjAddr: 0x2BB50, symBinAddr: 0x1000294D0, symSize: 0x20 }
  - { offset: 0x284E0, size: 0x8, addend: 0x0, symName: '__ZN4core3ptr81drop_in_place$LT$std..sys..process..unix..common..cstring_array..CStringArray$GT$17h1ce3a250115cbe70E', symObjAddr: 0x2BB70, symBinAddr: 0x1000294F0, symSize: 0xD0 }
  - { offset: 0x28828, size: 0x8, addend: 0x0, symName: '__ZN4core3ptr82drop_in_place$LT$alloc..sync..ArcInner$LT$std..sys..fs..unix..InnerReadDir$GT$$GT$17ha8fbff3aaada4fb8E', symObjAddr: 0x2BC40, symBinAddr: 0x1000295C0, symSize: 0x60 }
  - { offset: 0x289CB, size: 0x8, addend: 0x0, symName: '__ZN4core3ptr84drop_in_place$LT$$LP$std..ffi..os_str..OsString$C$std..ffi..os_str..OsString$RP$$GT$17hbc09269b3e4ede67E', symObjAddr: 0x2BCA0, symBinAddr: 0x100029620, symSize: 0x50 }
  - { offset: 0x28B18, size: 0x8, addend: 0x0, symName: '__ZN4core3ptr90drop_in_place$LT$std..io..buffered..bufwriter..BufWriter$LT$W$GT$..flush_buf..BufGuard$GT$17he4170abc552595a7E', symObjAddr: 0x2BD40, symBinAddr: 0x100029670, symSize: 0x50 }
  - { offset: 0x28C9F, size: 0x8, addend: 0x0, symName: '__ZN4core3ptr92drop_in_place$LT$core..result..Result$LT$addr2line..line..Lines$C$gimli..read..Error$GT$$GT$17h2e8e0626d3a84d8eE', symObjAddr: 0x2BDF0, symBinAddr: 0x1000296C0, symSize: 0xE0 }
  - { offset: 0x28EE5, size: 0x8, addend: 0x0, symName: '__ZN4core3ptr93drop_in_place$LT$core..option..Option$LT$std..backtrace_rs..symbolize..gimli..Mapping$GT$$GT$17h136f8c1ae5619cc2E', symObjAddr: 0x2BED0, symBinAddr: 0x1000297A0, symSize: 0x70 }
  - { offset: 0x28F74, size: 0x8, addend: 0x0, symName: '__ZN4core3ptr95drop_in_place$LT$std..io..buffered..linewriter..LineWriter$LT$std..io..stdio..StdoutRaw$GT$$GT$17h9eac947b14297a02E', symObjAddr: 0x2BF40, symBinAddr: 0x100029810, symSize: 0x100 }
  - { offset: 0x2B55E, size: 0x8, addend: 0x0, symName: __ZN4core5panic12PanicPayload6as_str17h0a0af93859b241b1E, symObjAddr: 0x302B0, symBinAddr: 0x100029A70, symSize: 0x10 }
  - { offset: 0x2BE0B, size: 0x8, addend: 0x0, symName: '__ZN70_$LT$core..num..error..TryFromIntError$u20$as$u20$core..fmt..Debug$GT$3fmt17hf51a2ad22619e644E', symObjAddr: 0x54380, symBinAddr: 0x1000460B0, symSize: 0x40 }
  - { offset: 0x2DE06, size: 0x8, addend: 0x0, symName: __ZN4core5slice4sort8unstable7ipnsort17h2b4a537af7352546E, symObjAddr: 0x39850, symBinAddr: 0x100033010, symSize: 0x1A0 }
  - { offset: 0x2E0AE, size: 0x8, addend: 0x0, symName: __ZN4core5slice4sort8unstable7ipnsort17h52ef4485ec8e6977E, symObjAddr: 0x399F0, symBinAddr: 0x1000331B0, symSize: 0xE0 }
  - { offset: 0x2E270, size: 0x8, addend: 0x0, symName: __ZN4core5slice4sort8unstable8heapsort8heapsort17h4b4721c6bb82e1c1E, symObjAddr: 0x39AD0, symBinAddr: 0x100033290, symSize: 0x120 }
  - { offset: 0x2E4B6, size: 0x8, addend: 0x0, symName: __ZN4core5slice4sort8unstable8heapsort8heapsort17hab9566a01254ecddE, symObjAddr: 0x39BF0, symBinAddr: 0x1000333B0, symSize: 0x1D0 }
  - { offset: 0x2E868, size: 0x8, addend: 0x0, symName: __ZN4core5slice4sort8unstable9quicksort9quicksort17h0b8d9e0f156a468cE, symObjAddr: 0x39DC0, symBinAddr: 0x100033580, symSize: 0x540 }
  - { offset: 0x2F108, size: 0x8, addend: 0x0, symName: __ZN4core5slice4sort8unstable9quicksort9quicksort17h5a50d5c9a636cab4E, symObjAddr: 0x3A300, symBinAddr: 0x100033AC0, symSize: 0x761 }
  - { offset: 0x2FD6B, size: 0x8, addend: 0x0, symName: __ZN4core5slice4sort6stable14driftsort_main17h3220260173ca707fE, symObjAddr: 0x31FD0, symBinAddr: 0x10002B790, symSize: 0x150 }
  - { offset: 0x30043, size: 0x8, addend: 0x0, symName: __ZN4core5slice4sort6stable14driftsort_main17h4699f0e78e45ec48E, symObjAddr: 0x32120, symBinAddr: 0x10002B8E0, symSize: 0x150 }
  - { offset: 0x3031B, size: 0x8, addend: 0x0, symName: __ZN4core5slice4sort6stable14driftsort_main17h9e6c77f5f42fb271E, symObjAddr: 0x32270, symBinAddr: 0x10002BA30, symSize: 0x160 }
  - { offset: 0x30649, size: 0x8, addend: 0x0, symName: __ZN4core5slice4sort6stable14driftsort_main17ha76b3f8bfe5161d7E, symObjAddr: 0x323D0, symBinAddr: 0x10002BB90, symSize: 0x160 }
  - { offset: 0x30977, size: 0x8, addend: 0x0, symName: __ZN4core5slice4sort6stable14driftsort_main17hdb3cc37e344db5cdE, symObjAddr: 0x32530, symBinAddr: 0x10002BCF0, symSize: 0x150 }
  - { offset: 0x30C4F, size: 0x8, addend: 0x0, symName: __ZN4core5slice4sort6stable14driftsort_main17hf9b576397ab84e46E, symObjAddr: 0x32680, symBinAddr: 0x10002BE40, symSize: 0x160 }
  - { offset: 0x310B9, size: 0x8, addend: 0x0, symName: __ZN4core5slice4sort6stable5drift4sort17h0344cd1179273fdfE, symObjAddr: 0x327E0, symBinAddr: 0x10002BFA0, symSize: 0x6E0 }
  - { offset: 0x31861, size: 0x8, addend: 0x0, symName: __ZN4core5slice4sort6stable5drift4sort17h5d73a28370e736e7E, symObjAddr: 0x32EC0, symBinAddr: 0x10002C680, symSize: 0x690 }
  - { offset: 0x32018, size: 0x8, addend: 0x0, symName: __ZN4core5slice4sort6stable5drift4sort17h7d35ffbcc89f38d4E, symObjAddr: 0x33550, symBinAddr: 0x10002CD10, symSize: 0x6D0 }
  - { offset: 0x327D5, size: 0x8, addend: 0x0, symName: __ZN4core5slice4sort6stable5drift4sort17h8e4dd7b37e0e34b5E, symObjAddr: 0x33C20, symBinAddr: 0x10002D3E0, symSize: 0x6E0 }
  - { offset: 0x32F67, size: 0x8, addend: 0x0, symName: __ZN4core5slice4sort6stable5drift4sort17hd3daeb0e07815f37E, symObjAddr: 0x34300, symBinAddr: 0x10002DAC0, symSize: 0x690 }
  - { offset: 0x3371E, size: 0x8, addend: 0x0, symName: __ZN4core5slice4sort6stable5drift4sort17hdee5488c31b7bf79E, symObjAddr: 0x34990, symBinAddr: 0x10002E150, symSize: 0x6B0 }
  - { offset: 0x3415F, size: 0x8, addend: 0x0, symName: __ZN4core5slice4sort6stable9quicksort9quicksort17h49e735213ea776e8E, symObjAddr: 0x35040, symBinAddr: 0x10002E800, symSize: 0xC20 }
  - { offset: 0x34ED8, size: 0x8, addend: 0x0, symName: __ZN4core5slice4sort6stable9quicksort9quicksort17h4e0f96bb5e50204eE, symObjAddr: 0x35C60, symBinAddr: 0x10002F420, symSize: 0xD60 }
  - { offset: 0x35C87, size: 0x8, addend: 0x0, symName: __ZN4core5slice4sort6stable9quicksort9quicksort17h5039615b86acfb17E, symObjAddr: 0x369C0, symBinAddr: 0x100030180, symSize: 0xB50 }
  - { offset: 0x36A81, size: 0x8, addend: 0x0, symName: __ZN4core5slice4sort6stable9quicksort9quicksort17h54d5655b54e85608E, symObjAddr: 0x37510, symBinAddr: 0x100030CD0, symSize: 0xC40 }
  - { offset: 0x3780A, size: 0x8, addend: 0x0, symName: __ZN4core5slice4sort6stable9quicksort9quicksort17h563ccb161c809bb9E, symObjAddr: 0x38150, symBinAddr: 0x100031910, symSize: 0xB50 }
  - { offset: 0x380E2, size: 0x8, addend: 0x0, symName: __ZN4core5slice4sort6stable9quicksort9quicksort17ha4eccc1b33417963E, symObjAddr: 0x38CA0, symBinAddr: 0x100032460, symSize: 0xBB0 }
  - { offset: 0x3960D, size: 0x8, addend: 0x0, symName: __ZN4core5slice4sort6shared9smallsort12sort4_stable17h429c53b39c3949acE, symObjAddr: 0x30980, symBinAddr: 0x10002A140, symSize: 0x1B0 }
  - { offset: 0x397E4, size: 0x8, addend: 0x0, symName: __ZN4core5slice4sort6shared9smallsort12sort4_stable17h8e40b2e7e5f636d6E, symObjAddr: 0x30B30, symBinAddr: 0x10002A2F0, symSize: 0x1F0 }
  - { offset: 0x39BEF, size: 0x8, addend: 0x0, symName: __ZN4core5slice4sort6shared9smallsort12sort8_stable17hd86b794b574b633cE, symObjAddr: 0x30D20, symBinAddr: 0x10002A4E0, symSize: 0x3E0 }
  - { offset: 0x3A2A7, size: 0x8, addend: 0x0, symName: __ZN4core5slice4sort6shared9smallsort18small_sort_general17h0ffd90b03ee23f71E, symObjAddr: 0x31100, symBinAddr: 0x10002A8C0, symSize: 0x510 }
  - { offset: 0x3A7C4, size: 0x8, addend: 0x0, symName: __ZN4core5slice4sort6shared9smallsort18small_sort_general17h7a2a4ab0b4034136E, symObjAddr: 0x31610, symBinAddr: 0x10002ADD0, symSize: 0x600 }
  - { offset: 0x3AFC7, size: 0x8, addend: 0x0, symName: __ZN4core5slice4sort6shared9smallsort25insertion_sort_shift_left17h0b99a1dace0461e0E, symObjAddr: 0x31C10, symBinAddr: 0x10002B3D0, symSize: 0x120 }
  - { offset: 0x3B18C, size: 0x8, addend: 0x0, symName: __ZN4core5slice4sort6shared9smallsort25insertion_sort_shift_left17h1aa889efeb4092c1E, symObjAddr: 0x31D30, symBinAddr: 0x10002B4F0, symSize: 0xF0 }
  - { offset: 0x3B2BA, size: 0x8, addend: 0x0, symName: __ZN4core5slice4sort6shared9smallsort25insertion_sort_shift_left17h39fda689822c34e3E, symObjAddr: 0x31E20, symBinAddr: 0x10002B5E0, symSize: 0xF0 }
  - { offset: 0x3B3E9, size: 0x8, addend: 0x0, symName: __ZN4core5slice4sort6shared9smallsort25insertion_sort_shift_left17h519a67896e46d7b4E, symObjAddr: 0x31F10, symBinAddr: 0x10002B6D0, symSize: 0xC0 }
  - { offset: 0x3B709, size: 0x8, addend: 0x0, symName: __ZN4core5slice4sort6shared5pivot11median3_rec17h0bad552e41eb9dc6E, symObjAddr: 0x302C0, symBinAddr: 0x100029A80, symSize: 0xC0 }
  - { offset: 0x3B810, size: 0x8, addend: 0x0, symName: __ZN4core5slice4sort6shared5pivot11median3_rec17h69042159816e04f4E, symObjAddr: 0x30380, symBinAddr: 0x100029B40, symSize: 0xC0 }
  - { offset: 0x3B919, size: 0x8, addend: 0x0, symName: __ZN4core5slice4sort6shared5pivot11median3_rec17h6b39c5ff16384b97E, symObjAddr: 0x30440, symBinAddr: 0x100029C00, symSize: 0xB0 }
  - { offset: 0x3BA4C, size: 0x8, addend: 0x0, symName: __ZN4core5slice4sort6shared5pivot11median3_rec17h78bc361aba28d375E, symObjAddr: 0x304F0, symBinAddr: 0x100029CB0, symSize: 0x140 }
  - { offset: 0x3BC81, size: 0x8, addend: 0x0, symName: __ZN4core5slice4sort6shared5pivot11median3_rec17h864e4c2ed0405f91E, symObjAddr: 0x30630, symBinAddr: 0x100029DF0, symSize: 0xC0 }
  - { offset: 0x3BD88, size: 0x8, addend: 0x0, symName: __ZN4core5slice4sort6shared5pivot11median3_rec17h9ee77f2cab2d4c5dE, symObjAddr: 0x306F0, symBinAddr: 0x100029EB0, symSize: 0xC0 }
  - { offset: 0x3BE8F, size: 0x8, addend: 0x0, symName: __ZN4core5slice4sort6shared5pivot11median3_rec17ha14fc07cd9e49161E, symObjAddr: 0x307B0, symBinAddr: 0x100029F70, symSize: 0xC0 }
  - { offset: 0x3BF96, size: 0x8, addend: 0x0, symName: __ZN4core5slice4sort6shared5pivot11median3_rec17hfa048ff775602914E, symObjAddr: 0x30870, symBinAddr: 0x10002A030, symSize: 0x110 }
  - { offset: 0x3C1A2, size: 0x8, addend: 0x0, symName: '__ZN55_$LT$$RF$str$u20$as$u20$core..str..pattern..Pattern$GT$15is_contained_in17hc8794a96b582b38aE', symObjAddr: 0x3B790, symBinAddr: 0x100034260, symSize: 0x860 }
  - { offset: 0x3C93D, size: 0x8, addend: 0x0, symName: '__ZN4core3str7pattern13simd_contains28_$u7b$$u7b$closure$u7d$$u7d$17ha6d539c15f4ab7c0E', symObjAddr: 0x2C040, symBinAddr: 0x100058B00, symSize: 0x100 }
  - { offset: 0x3E4B2, size: 0x8, addend: 0x0, symName: '__ZN4core3ops8function6FnOnce40call_once$u7b$$u7b$vtable.shim$u7d$$u7d$17h0d3238feb6ae2c7dE', symObjAddr: 0x29150, symBinAddr: 0x100027730, symSize: 0x10 }
  - { offset: 0x3E4EE, size: 0x8, addend: 0x0, symName: '__ZN4core3ops8function6FnOnce40call_once$u7b$$u7b$vtable.shim$u7d$$u7d$17h3292d6654d591370E', symObjAddr: 0x29160, symBinAddr: 0x100027740, symSize: 0x90 }
  - { offset: 0x3E5D2, size: 0x8, addend: 0x0, symName: '__ZN4core3ops8function6FnOnce40call_once$u7b$$u7b$vtable.shim$u7d$$u7d$17h59b44727da8ea4adE', symObjAddr: 0x29280, symBinAddr: 0x1000277D0, symSize: 0x90 }
  - { offset: 0x3E73C, size: 0x8, addend: 0x0, symName: '__ZN4core3ops8function6FnOnce40call_once$u7b$$u7b$vtable.shim$u7d$$u7d$17h8ff5d8d366cb3dcdE', symObjAddr: 0x29350, symBinAddr: 0x100027860, symSize: 0x90 }
  - { offset: 0x3E882, size: 0x8, addend: 0x0, symName: '__ZN4core3ops8function6FnOnce40call_once$u7b$$u7b$vtable.shim$u7d$$u7d$17h994b7e277a3827ddE', symObjAddr: 0x293E0, symBinAddr: 0x1000278F0, symSize: 0x10 }
  - { offset: 0x3E8D3, size: 0x8, addend: 0x0, symName: '__ZN4core3ops8function6FnOnce40call_once$u7b$$u7b$vtable.shim$u7d$$u7d$17h9e6dbb12aa376ac1E', symObjAddr: 0x29400, symBinAddr: 0x100027900, symSize: 0x10 }
  - { offset: 0x3E90F, size: 0x8, addend: 0x0, symName: '__ZN4core3ops8function6FnOnce40call_once$u7b$$u7b$vtable.shim$u7d$$u7d$17hdb0d13364863d228E', symObjAddr: 0x29420, symBinAddr: 0x100027910, symSize: 0x20 }
  - { offset: 0x3E94B, size: 0x8, addend: 0x0, symName: '__ZN4core3ops8function6FnOnce40call_once$u7b$$u7b$vtable.shim$u7d$$u7d$17hf1524fee5c53f54cE', symObjAddr: 0x294E0, symBinAddr: 0x100027930, symSize: 0x10 }
  - { offset: 0x3EABA, size: 0x8, addend: 0x0, symName: __ZN4core3ops8function2Fn4call17h338481cfccfcf83dE, symObjAddr: 0x28EA0, symBinAddr: 0x1000275D0, symSize: 0xA0 }
  - { offset: 0x3EBCA, size: 0x8, addend: 0x0, symName: __ZN4core3ops8function2Fn4call17h79e358cbe1b93b7aE, symObjAddr: 0x28FB0, symBinAddr: 0x100027670, symSize: 0xC0 }
  - { offset: 0x3FA41, size: 0x8, addend: 0x0, symName: '__ZN36_$LT$T$u20$as$u20$core..any..Any$GT$7type_id17hf38d30a50d909875E', symObjAddr: 0x1250, symBinAddr: 0x100012500, symSize: 0x30 }
  - { offset: 0x3FA70, size: 0x8, addend: 0x0, symName: '__ZN36_$LT$T$u20$as$u20$core..any..Any$GT$7type_id17hfe9fbb449010764eE', symObjAddr: 0x1280, symBinAddr: 0x100012530, symSize: 0x30 }
  - { offset: 0x40A5F, size: 0x8, addend: 0x0, symName: '__ZN4core5array69_$LT$impl$u20$core..fmt..Debug$u20$for$u20$$u5b$T$u3b$$u20$N$u5d$$GT$3fmt17h374d7be30a463273E', symObjAddr: 0x300E0, symBinAddr: 0x100029910, symSize: 0xF0 }
  - { offset: 0x40CE9, size: 0x8, addend: 0x0, symName: '__ZN4core4cell4once17OnceCell$LT$T$GT$8try_init17h164ad122d3fdde11E', symObjAddr: 0x2C140, symBinAddr: 0x100058C00, symSize: 0x70 }
  - { offset: 0x40D07, size: 0x8, addend: 0x0, symName: '__ZN4core4cell4once17OnceCell$LT$T$GT$8try_init17h164ad122d3fdde11E', symObjAddr: 0x2C140, symBinAddr: 0x100058C00, symSize: 0x70 }
  - { offset: 0x40D1C, size: 0x8, addend: 0x0, symName: '__ZN4core4cell4once17OnceCell$LT$T$GT$8try_init17h164ad122d3fdde11E', symObjAddr: 0x2C140, symBinAddr: 0x100058C00, symSize: 0x70 }
  - { offset: 0x40D30, size: 0x8, addend: 0x0, symName: '__ZN4core4cell4once17OnceCell$LT$T$GT$8try_init17h164ad122d3fdde11E', symObjAddr: 0x2C140, symBinAddr: 0x100058C00, symSize: 0x70 }
  - { offset: 0x40D87, size: 0x8, addend: 0x0, symName: '__ZN4core4cell4once17OnceCell$LT$T$GT$8try_init17h5eaa6e42f622c98bE', symObjAddr: 0x2C1B0, symBinAddr: 0x100058C70, symSize: 0x80 }
  - { offset: 0x40E3A, size: 0x8, addend: 0x0, symName: '__ZN4core4cell4once17OnceCell$LT$T$GT$8try_init17h8d9b52977b5ff1b0E', symObjAddr: 0x2C230, symBinAddr: 0x100058CF0, symSize: 0x8B0 }
  - { offset: 0x419F7, size: 0x8, addend: 0x0, symName: '__ZN4core4cell4once17OnceCell$LT$T$GT$8try_init17h963735826f59da1dE', symObjAddr: 0x2CAE0, symBinAddr: 0x1000595A0, symSize: 0x110 }
  - { offset: 0x41C57, size: 0x8, addend: 0x0, symName: '__ZN4core4cell4once17OnceCell$LT$T$GT$8try_init17hbb32d690264a29aeE', symObjAddr: 0x2CBF0, symBinAddr: 0x1000596B0, symSize: 0x25C0 }
  - { offset: 0x44E03, size: 0x8, addend: 0x0, symName: '__ZN4core4cell4once17OnceCell$LT$T$GT$8try_init17he85fbe2a3a1ae7fbE', symObjAddr: 0x2F1B0, symBinAddr: 0x10005BC70, symSize: 0xF30 }
  - { offset: 0x46A04, size: 0x8, addend: 0x0, symName: __ZN4core5error5Error11description17ha6a6a08fd0b06ebcE, symObjAddr: 0x301F0, symBinAddr: 0x100029A00, symSize: 0x20 }
  - { offset: 0x46A1E, size: 0x8, addend: 0x0, symName: __ZN4core5error5Error5cause17h5b5fd61b0af24bd8E, symObjAddr: 0x30210, symBinAddr: 0x100029A20, symSize: 0x10 }
  - { offset: 0x46A38, size: 0x8, addend: 0x0, symName: __ZN4core5error5Error7provide17hcf50e4f5391fe1b4E, symObjAddr: 0x30240, symBinAddr: 0x100029A30, symSize: 0x10 }
  - { offset: 0x46A52, size: 0x8, addend: 0x0, symName: __ZN4core5error5Error7type_id17h1548aa106e60bc02E, symObjAddr: 0x30250, symBinAddr: 0x100029A40, symSize: 0x30 }
  - { offset: 0x46A88, size: 0x8, addend: 0x0, symName: __ZN4core9panicking13assert_failed17h65a30f1e9a91e300E, symObjAddr: 0x3AA61, symBinAddr: 0x10005CBA1, symSize: 0x33 }
  - { offset: 0x46AA4, size: 0x8, addend: 0x0, symName: __ZN4core9panicking13assert_failed17hd751ab4adab24333E, symObjAddr: 0x3AAF2, symBinAddr: 0x10005CBE2, symSize: 0x3E }
  - { offset: 0x46B89, size: 0x8, addend: 0x0, symName: __RNvCskdKJRKLKjqM_7___rustc10rust_panic, symObjAddr: 0x0, symBinAddr: 0x100057E10, symSize: 0x70 }
  - { offset: 0x46BBA, size: 0x8, addend: 0x0, symName: __RNvCskdKJRKLKjqM_7___rustc17___rust_drop_panic, symObjAddr: 0x1D0, symBinAddr: 0x100012120, symSize: 0xD0 }
  - { offset: 0x46E05, size: 0x8, addend: 0x0, symName: __RNvCskdKJRKLKjqM_7___rustc17rust_begin_unwind, symObjAddr: 0x2A0, symBinAddr: 0x1000121F0, symSize: 0x30 }
  - { offset: 0x46E4B, size: 0x8, addend: 0x0, symName: __RNvCskdKJRKLKjqM_7___rustc24___rust_foreign_exception, symObjAddr: 0x360, symBinAddr: 0x1000122B0, symSize: 0xD0 }
  - { offset: 0x47114, size: 0x8, addend: 0x0, symName: __ZN3std9panicking11panic_count17is_zero_slow_path17hc9cf2ba853cb1a44E, symObjAddr: 0x26310, symBinAddr: 0x100058AE0, symSize: 0x20 }
  - { offset: 0x471C3, size: 0x8, addend: 0x0, symName: __ZN3std9panicking11panic_count8increase17hf57f6317579ad19bE, symObjAddr: 0x26370, symBinAddr: 0x100025E70, symSize: 0x40 }
  - { offset: 0x471DA, size: 0x8, addend: 0x0, symName: __ZN3std9panicking11panic_count8increase17hf57f6317579ad19bE, symObjAddr: 0x26370, symBinAddr: 0x100025E70, symSize: 0x40 }
  - { offset: 0x471EF, size: 0x8, addend: 0x0, symName: __ZN3std9panicking11panic_count8increase17hf57f6317579ad19bE, symObjAddr: 0x26370, symBinAddr: 0x100025E70, symSize: 0x40 }
  - { offset: 0x473A5, size: 0x8, addend: 0x0, symName: __ZN3std9panicking12default_hook17hfd692237a6812b4aE, symObjAddr: 0x263EB, symBinAddr: 0x100025EBB, symSize: 0x12B }
  - { offset: 0x4753C, size: 0x8, addend: 0x0, symName: '__ZN3std9panicking12default_hook28_$u7b$$u7b$closure$u7d$$u7d$17h4c39689ecd8341bfE', symObjAddr: 0x26516, symBinAddr: 0x100025FE6, symSize: 0x18A }
  - { offset: 0x47703, size: 0x8, addend: 0x0, symName: '__ZN3std9panicking12default_hook28_$u7b$$u7b$closure$u7d$$u7d$28_$u7b$$u7b$closure$u7d$$u7d$17h141942b3ab6b1748E', symObjAddr: 0x266A0, symBinAddr: 0x100026170, symSize: 0x380 }
  - { offset: 0x47E33, size: 0x8, addend: 0x0, symName: __ZN3std9panicking13panic_handler19FormatStringPayload4fill17hd583736f0adc2b9eE, symObjAddr: 0x26A20, symBinAddr: 0x1000264F0, symSize: 0xC0 }
  - { offset: 0x47F50, size: 0x8, addend: 0x0, symName: '__ZN3std9panicking13panic_handler28_$u7b$$u7b$closure$u7d$$u7d$17h0449b52d62cc4acdE', symObjAddr: 0x26AE0, symBinAddr: 0x1000265B0, symSize: 0xD0 }
  - { offset: 0x480AC, size: 0x8, addend: 0x0, symName: '__ZN86_$LT$std..panicking..panic_handler..StaticStrPayload$u20$as$u20$core..fmt..Display$GT$3fmt17h611d737e25d39e04E', symObjAddr: 0x58C20, symBinAddr: 0x100046930, symSize: 0x20 }
  - { offset: 0x480CD, size: 0x8, addend: 0x0, symName: '__ZN89_$LT$std..panicking..panic_handler..FormatStringPayload$u20$as$u20$core..fmt..Display$GT$3fmt17h2c418704e9a80b67E', symObjAddr: 0x59030, symBinAddr: 0x100046AB0, symSize: 0x70 }
  - { offset: 0x481C1, size: 0x8, addend: 0x0, symName: '__ZN93_$LT$std..panicking..panic_handler..StaticStrPayload$u20$as$u20$core..panic..PanicPayload$GT$3get17h54b2dcb3b150a54cE', symObjAddr: 0x59900, symBinAddr: 0x100046C40, symSize: 0x10 }
  - { offset: 0x481DC, size: 0x8, addend: 0x0, symName: '__ZN93_$LT$std..panicking..panic_handler..StaticStrPayload$u20$as$u20$core..panic..PanicPayload$GT$6as_str17h5a1a7c38fda21c29E', symObjAddr: 0x59910, symBinAddr: 0x100046C50, symSize: 0x10 }
  - { offset: 0x481F7, size: 0x8, addend: 0x0, symName: '__ZN93_$LT$std..panicking..panic_handler..StaticStrPayload$u20$as$u20$core..panic..PanicPayload$GT$8take_box17hdf5e7dcb860e8869E', symObjAddr: 0x59920, symBinAddr: 0x100046C60, symSize: 0x50 }
  - { offset: 0x48274, size: 0x8, addend: 0x0, symName: '__ZN96_$LT$std..panicking..panic_handler..FormatStringPayload$u20$as$u20$core..panic..PanicPayload$GT$3get17he619996a915dba5aE', symObjAddr: 0x5A150, symBinAddr: 0x1000470D0, symSize: 0x20 }
  - { offset: 0x4828F, size: 0x8, addend: 0x0, symName: '__ZN96_$LT$std..panicking..panic_handler..FormatStringPayload$u20$as$u20$core..panic..PanicPayload$GT$8take_box17h1d68480d8bee4f17E', symObjAddr: 0x5A170, symBinAddr: 0x1000470F0, symSize: 0xA0 }
  - { offset: 0x483E1, size: 0x8, addend: 0x0, symName: __ZN3std9panicking14payload_as_str17h7b83b1c48b989ea0E, symObjAddr: 0x26C50, symBinAddr: 0x100026680, symSize: 0x7D }
  - { offset: 0x48526, size: 0x8, addend: 0x0, symName: __ZN3std9panicking15panic_with_hook17he1033abc98626357E, symObjAddr: 0x26CCD, symBinAddr: 0x1000266FD, symSize: 0x43D }
  - { offset: 0x48E37, size: 0x8, addend: 0x0, symName: '__ZN102_$LT$std..sys..process..unix..common..cstring_array..CStringArray$u20$as$u20$core..ops..drop..Drop$GT$4drop17he5543c9769e7fd90E', symObjAddr: 0x450, symBinAddr: 0x100012380, symSize: 0x80 }
  - { offset: 0x49026, size: 0x8, addend: 0x0, symName: '__ZN3std3sys7process4unix4unix58_$LT$impl$u20$std..sys..process..unix..common..Command$GT$5spawn17h46e68499be7c758aE', symObjAddr: 0x1C540, symBinAddr: 0x1000214D0, symSize: 0xB40 }
  - { offset: 0x4A15E, size: 0x8, addend: 0x0, symName: '__ZN3std3sys7process4unix4unix58_$LT$impl$u20$std..sys..process..unix..common..Command$GT$7do_exec17hc77e9106886026bdE', symObjAddr: 0x1D080, symBinAddr: 0x100022010, symSize: 0x300 }
  - { offset: 0x4AA70, size: 0x8, addend: 0x0, symName: __ZN3std3sys7process4unix6common7Command11capture_env17hd300f48339f72723E, symObjAddr: 0x1D560, symBinAddr: 0x1000224F0, symSize: 0x1340 }
  - { offset: 0x4CEA9, size: 0x8, addend: 0x0, symName: __ZN3std3sys7process4unix6common7Command3arg17h2290bede5cd0c511E, symObjAddr: 0x1E8A0, symBinAddr: 0x100023830, symSize: 0xE0 }
  - { offset: 0x4D1C1, size: 0x8, addend: 0x0, symName: __ZN3std3sys7process4unix6common7Command3new17h8c9a3e952b3e1597E, symObjAddr: 0x1EA50, symBinAddr: 0x100023910, symSize: 0x2C0 }
  - { offset: 0x4D740, size: 0x8, addend: 0x0, symName: __ZN3std3sys7process4unix6common7Command6stderr17h70fa018e0e3cfec9E, symObjAddr: 0x1EE50, symBinAddr: 0x100023BD0, symSize: 0x40 }
  - { offset: 0x4D7C9, size: 0x8, addend: 0x0, symName: __ZN3std3sys7process4unix6common7Command8setup_io17h44d01f140f181a7bE, symObjAddr: 0x1EF40, symBinAddr: 0x100023C10, symSize: 0x2C0 }
  - { offset: 0x4DC11, size: 0x8, addend: 0x0, symName: __ZN3std3sys7process4unix6common5Stdio14to_child_stdio17h71e11b2b2a755fcfE, symObjAddr: 0x1D410, symBinAddr: 0x1000223A0, symSize: 0x150 }
  - { offset: 0x4DDDF, size: 0x8, addend: 0x0, symName: __ZN3std3sys7process4unix4unix7Process4wait17h0b44ee4aeb74829cE, symObjAddr: 0x1D380, symBinAddr: 0x100022310, symSize: 0x90 }
  - { offset: 0x4DEE8, size: 0x8, addend: 0x0, symName: __ZN3std3sys7process3env10CommandEnv6remove17h87684f93ffb54f01E, symObjAddr: 0x1BF40, symBinAddr: 0x100020ED0, symSize: 0x600 }
  - { offset: 0x4EB12, size: 0x8, addend: 0x0, symName: __ZN3std3sys3pal6common14small_c_string24run_with_cstr_allocating17h5cc89072fa4ee439E, symObjAddr: 0x19EE0, symBinAddr: 0x100058130, symSize: 0x90 }
  - { offset: 0x4EC81, size: 0x8, addend: 0x0, symName: __ZN3std3sys3pal6common14small_c_string24run_with_cstr_allocating17h65d9406162e2b0deE, symObjAddr: 0x19F70, symBinAddr: 0x1000581C0, symSize: 0xB0 }
  - { offset: 0x4EE5D, size: 0x8, addend: 0x0, symName: __ZN3std3sys3pal6common14small_c_string24run_with_cstr_allocating17hc579900339e23d19E, symObjAddr: 0x1A190, symBinAddr: 0x100058270, symSize: 0xB0 }
  - { offset: 0x4F039, size: 0x8, addend: 0x0, symName: __ZN3std3sys3pal6common14small_c_string24run_with_cstr_allocating17he476d4c4f028b54aE, symObjAddr: 0x1A240, symBinAddr: 0x100058320, symSize: 0xB0 }
  - { offset: 0x4F215, size: 0x8, addend: 0x0, symName: __ZN3std3sys3pal6common14small_c_string24run_with_cstr_allocating17he4af3d6cbd61cc52E, symObjAddr: 0x1A2F0, symBinAddr: 0x1000583D0, symSize: 0xB0 }
  - { offset: 0x4F436, size: 0x8, addend: 0x0, symName: __ZN3std3sys3pal4unix14stack_overflow11thread_info16set_current_info17h9c07c7c3f5a792f2E, symObjAddr: 0x17860, symBinAddr: 0x10001EA90, symSize: 0xEA0 }
  - { offset: 0x50728, size: 0x8, addend: 0x0, symName: __ZN3std3sys3pal4unix14stack_overflow3imp12drop_handler17h10e97a4f0d9b05d8E, symObjAddr: 0x18700, symBinAddr: 0x10001F930, symSize: 0x520 }
  - { offset: 0x50FA9, size: 0x8, addend: 0x0, symName: __ZN3std3sys3pal4unix14stack_overflow3imp12make_handler17h7ea0af42963bc428E, symObjAddr: 0x18C20, symBinAddr: 0x10001FE50, symSize: 0x290 }
  - { offset: 0x5137C, size: 0x8, addend: 0x0, symName: __ZN3std3sys3pal4unix14stack_overflow3imp14signal_handler17ha77e123931615aa3E, symObjAddr: 0x18EB0, symBinAddr: 0x1000200E0, symSize: 0x380 }
  - { offset: 0x51A0C, size: 0x8, addend: 0x0, symName: __ZN3std3sys3pal4unix2os4exit17hf38d9ce7660fe6b3E, symObjAddr: 0x19500, symBinAddr: 0x1000206B0, symSize: 0x10 }
  - { offset: 0x51A95, size: 0x8, addend: 0x0, symName: __ZN3std3sys3pal4unix4sync5mutex5Mutex4init17hc0cd42f50e15ec42E, symObjAddr: 0x199B0, symBinAddr: 0x100020A60, symSize: 0x160 }
  - { offset: 0x51B51, size: 0x8, addend: 0x0, symName: __ZN3std3sys3pal4unix4sync5mutex5Mutex4lock4fail17ha33bd018f471c78aE, symObjAddr: 0x19B30, symBinAddr: 0x100058030, symSize: 0x100 }
  - { offset: 0x51E87, size: 0x8, addend: 0x0, symName: __ZN3std3sys3pal4unix14abort_internal17h2d7ebcba1920d509E, symObjAddr: 0x17850, symBinAddr: 0x100058020, symSize: 0x10 }
  - { offset: 0x51EA2, size: 0x8, addend: 0x0, symName: __ZN3std3sys3pal4unix17decode_error_kind17h447b85d7b88dc1dcE, symObjAddr: 0x19230, symBinAddr: 0x100020460, symSize: 0x250 }
  - { offset: 0x51EF4, size: 0x8, addend: 0x0, symName: __ZN3std3sys3pal4unix4pipe5read217ha7a4612c351c75ceE, symObjAddr: 0x19610, symBinAddr: 0x1000206C0, symSize: 0x240 }
  - { offset: 0x523EA, size: 0x8, addend: 0x0, symName: __ZN3std3sys3pal4unix4pipe8AnonPipe5write17h03f32ade1d6c5c2bE, symObjAddr: 0x19850, symBinAddr: 0x100020900, symSize: 0x50 }
  - { offset: 0x524DA, size: 0x8, addend: 0x0, symName: __ZN3std3sys3pal4unix4pipe9anon_pipe17h32c3626b874411c6E, symObjAddr: 0x198A0, symBinAddr: 0x100020950, symSize: 0x110 }
  - { offset: 0x5289D, size: 0x8, addend: 0x0, symName: __ZN3std3sys12thread_local6native5eager7destroy17h52ab99797ee9e6c0E, symObjAddr: 0x122C0, symBinAddr: 0x10001DBD0, symSize: 0x20 }
  - { offset: 0x52A1F, size: 0x8, addend: 0x0, symName: __ZN3std3sys12thread_local5guard5apple6enable9run_dtors17h38edc9b0697859adE, symObjAddr: 0x121D0, symBinAddr: 0x10001DAE0, symSize: 0xF0 }
  - { offset: 0x52EBD, size: 0x8, addend: 0x0, symName: __ZN3std3sys12thread_local11destructors4list8register17h1d9ec60dd9886de7E, symObjAddr: 0x120E0, symBinAddr: 0x10001D9F0, symSize: 0xF0 }
  - { offset: 0x53199, size: 0x8, addend: 0x0, symName: __ZN3std3sys3env4unix13env_read_lock17h6b780f3777072ce3E, symObjAddr: 0x165B0, symBinAddr: 0x10001E6F0, symSize: 0x280 }
  - { offset: 0x53860, size: 0x8, addend: 0x0, symName: '__ZN3std3sys3env4unix6getenv28_$u7b$$u7b$closure$u7d$$u7d$17hbced0c0771611cafE', symObjAddr: 0x16830, symBinAddr: 0x10001E970, symSize: 0x120 }
  - { offset: 0x53B73, size: 0x8, addend: 0x0, symName: __ZN3std3sys2fs4unix4File6open_c17he05b2f9a6cd0c0a5E, symObjAddr: 0x14FB0, symBinAddr: 0x10001E370, symSize: 0x180 }
  - { offset: 0x53CB4, size: 0x8, addend: 0x0, symName: '__ZN86_$LT$std..sys..fs..unix..ReadDir$u20$as$u20$core..iter..traits..iterator..Iterator$GT$4next17h6b3c5487c6bbb501E', symObjAddr: 0x58C70, symBinAddr: 0x100046950, symSize: 0x160 }
  - { offset: 0x53F15, size: 0x8, addend: 0x0, symName: '__ZN3std3sys2fs4unix10DirBuilder5mkdir28_$u7b$$u7b$closure$u7d$$u7d$17h922018e44465dca1E', symObjAddr: 0x14A90, symBinAddr: 0x10001DFC0, symSize: 0x30 }
  - { offset: 0x54020, size: 0x8, addend: 0x0, symName: __ZN3std3sys2fs4unix15remove_dir_impl24remove_dir_all_recursive17hace398d65256e8b4E, symObjAddr: 0x14B90, symBinAddr: 0x10001DFF0, symSize: 0x380 }
  - { offset: 0x5482B, size: 0x8, addend: 0x0, symName: '__ZN65_$LT$std..sys..fs..unix..Dir$u20$as$u20$core..ops..drop..Drop$GT$4drop17h00566fb81437571eE', symObjAddr: 0x531C0, symBinAddr: 0x100045BE0, symSize: 0xD0 }
  - { offset: 0x54921, size: 0x8, addend: 0x0, symName: __ZN3std3sys2fs14remove_dir_all17hd8a910ff117d8ca9E, symObjAddr: 0x14140, symBinAddr: 0x10001DE90, symSize: 0x130 }
  - { offset: 0x54AC7, size: 0x8, addend: 0x0, symName: __ZN3std3sys2fs8read_dir17he96197a45d71fcd1E, symObjAddr: 0x160D0, symBinAddr: 0x10001E4F0, symSize: 0x200 }
  - { offset: 0x54F14, size: 0x8, addend: 0x0, symName: __ZN3std3sys2fd4unix8FileDesc11read_to_end17h9d33e58bea107262E, symObjAddr: 0x137D0, symBinAddr: 0x10001DBF0, symSize: 0x2A0 }
  - { offset: 0x553C2, size: 0x8, addend: 0x0, symName: '__ZN64_$LT$std..sys..stdio..unix..Stderr$u20$as$u20$std..io..Write$GT$14write_vectored17h2dbb79a2e8dce948E', symObjAddr: 0x52F00, symBinAddr: 0x100045B20, symSize: 0x50 }
  - { offset: 0x55491, size: 0x8, addend: 0x0, symName: '__ZN64_$LT$std..sys..stdio..unix..Stderr$u20$as$u20$std..io..Write$GT$17is_write_vectored17h9d9019aa34dca71eE', symObjAddr: 0x52F50, symBinAddr: 0x100045B70, symSize: 0x10 }
  - { offset: 0x554AB, size: 0x8, addend: 0x0, symName: '__ZN64_$LT$std..sys..stdio..unix..Stderr$u20$as$u20$std..io..Write$GT$5flush17haca374bc2fb40ebcE', symObjAddr: 0x52F60, symBinAddr: 0x100045B80, symSize: 0x10 }
  - { offset: 0x554C5, size: 0x8, addend: 0x0, symName: '__ZN64_$LT$std..sys..stdio..unix..Stderr$u20$as$u20$std..io..Write$GT$5write17h4b5035fe5e5f2032E', symObjAddr: 0x52F70, symBinAddr: 0x100045B90, symSize: 0x50 }
  - { offset: 0x55612, size: 0x8, addend: 0x0, symName: '__ZN3std3sys4sync8once_box16OnceBox$LT$T$GT$10initialize17h6aa2ce4cfc78c157E', symObjAddr: 0x1B490, symBinAddr: 0x100058720, symSize: 0x120 }
  - { offset: 0x558EE, size: 0x8, addend: 0x0, symName: __ZN3std3sys4sync4once5queue4Once4call17h8e466067d86cbcb3E, symObjAddr: 0x1A7E0, symBinAddr: 0x100058480, symSize: 0x210 }
  - { offset: 0x55BA8, size: 0x8, addend: 0x0, symName: '__ZN82_$LT$std..sys..sync..once..queue..WaiterQueue$u20$as$u20$core..ops..drop..Drop$GT$4drop17h17a27c240e6095eaE', symObjAddr: 0x586D0, symBinAddr: 0x100046860, symSize: 0xD0 }
  - { offset: 0x55D5D, size: 0x8, addend: 0x0, symName: __ZN3std3sys4sync4once5queue4wait17hcf137e24f8369e0fE, symObjAddr: 0x1ABE0, symBinAddr: 0x100020BC0, symSize: 0x160 }
  - { offset: 0x56240, size: 0x8, addend: 0x0, symName: __ZN3std3sys4sync6rwlock5queue6RwLock12unlock_queue17h2b38c5d2f4e14db6E, symObjAddr: 0x1AD60, symBinAddr: 0x100020D20, symSize: 0x180 }
  - { offset: 0x5685F, size: 0x8, addend: 0x0, symName: __ZN3std3sys4sync6rwlock5queue6RwLock16unlock_contended17h434533e27b51e3a9E, symObjAddr: 0x1B1F0, symBinAddr: 0x100058690, symSize: 0x40 }
  - { offset: 0x5693B, size: 0x8, addend: 0x0, symName: __ZN3std3sys4sync6rwlock5queue6RwLock21read_unlock_contended17ha0f88a0fd7df0d66E, symObjAddr: 0x1B230, symBinAddr: 0x1000586D0, symSize: 0x50 }
  - { offset: 0x56B93, size: 0x8, addend: 0x0, symName: __ZN3std3sys4sync6rwlock5queue9read_lock17h5e2659437ef5e87cE, symObjAddr: 0x1B280, symBinAddr: 0x100020EA0, symSize: 0x30 }
  - { offset: 0x56BAC, size: 0x8, addend: 0x0, symName: '__ZN83_$LT$std..sys..sync..rwlock..queue..PanicGuard$u20$as$u20$core..ops..drop..Drop$GT$4drop17h9abf048048014633E', symObjAddr: 0x58950, symBinAddr: 0x10005CD70, symSize: 0x60 }
  - { offset: 0x56C71, size: 0x8, addend: 0x0, symName: '__ZN3std3sys11personality3gcc14find_eh_action28_$u7b$$u7b$closure$u7d$$u7d$17h71a716f7697f7c23E', symObjAddr: 0x120C0, symBinAddr: 0x10001D9D0, symSize: 0x10 }
  - { offset: 0x56C85, size: 0x8, addend: 0x0, symName: '__ZN3std3sys11personality3gcc14find_eh_action28_$u7b$$u7b$closure$u7d$$u7d$17hf3d297c424dd88bbE', symObjAddr: 0x120D0, symBinAddr: 0x10001D9E0, symSize: 0x10 }
  - { offset: 0x56CD1, size: 0x8, addend: 0x0, symName: _rust_eh_personality, symObjAddr: 0x5D880, symBinAddr: 0x10004A560, symSize: 0x640 }
  - { offset: 0x577C0, size: 0x8, addend: 0x0, symName: '__ZN3std3sys9backtrace10_print_fmt28_$u7b$$u7b$closure$u7d$$u7d$17h240c89470c2fecd8E', symObjAddr: 0x1F310, symBinAddr: 0x100023ED0, symSize: 0x130 }
  - { offset: 0x578A8, size: 0x8, addend: 0x0, symName: '__ZN3std3sys9backtrace10_print_fmt28_$u7b$$u7b$closure$u7d$$u7d$17h32646e4212c9eef0E', symObjAddr: 0x1F440, symBinAddr: 0x100024000, symSize: 0x20 }
  - { offset: 0x578E9, size: 0x8, addend: 0x0, symName: '__ZN3std3sys9backtrace10_print_fmt28_$u7b$$u7b$closure$u7d$$u7d$28_$u7b$$u7b$closure$u7d$$u7d$17h9218d583d276298aE', symObjAddr: 0x1F460, symBinAddr: 0x100024020, symSize: 0x2A0 }
  - { offset: 0x57ADC, size: 0x8, addend: 0x0, symName: __ZN3std3sys9backtrace13BacktraceLock5print17h5e73de0c808691a4E, symObjAddr: 0x1F700, symBinAddr: 0x1000242C0, symSize: 0x60 }
  - { offset: 0x57B0D, size: 0x8, addend: 0x0, symName: __ZN3std3sys9backtrace15output_filename17ha87664c578f770efE, symObjAddr: 0x1F760, symBinAddr: 0x100024320, symSize: 0x120 }
  - { offset: 0x57C79, size: 0x8, addend: 0x0, symName: __ZN3std3sys9backtrace26__rust_end_short_backtrace17h3fc1fab9d4b6800aE, symObjAddr: 0x1F880, symBinAddr: 0x100024440, symSize: 0x10 }
  - { offset: 0x57C93, size: 0x8, addend: 0x0, symName: __ZN3std3sys9backtrace4lock17h2bb35fe2884a3a88E, symObjAddr: 0x1F8A0, symBinAddr: 0x100024450, symSize: 0x80 }
  - { offset: 0x57DE9, size: 0x8, addend: 0x0, symName: '__ZN98_$LT$std..sys..backtrace..BacktraceLock..print..DisplayBacktrace$u20$as$u20$core..fmt..Display$GT$3fmt17hbb4f642dcc320b1dE', symObjAddr: 0x5A3B0, symBinAddr: 0x100047190, symSize: 0x280 }
  - { offset: 0x58348, size: 0x8, addend: 0x0, symName: __RNvCskdKJRKLKjqM_7___rustc11___rdl_alloc, symObjAddr: 0x70, symBinAddr: 0x100011FD0, symSize: 0x70 }
  - { offset: 0x583C6, size: 0x8, addend: 0x0, symName: __RNvCskdKJRKLKjqM_7___rustc13___rdl_dealloc, symObjAddr: 0xF0, symBinAddr: 0x100012040, symSize: 0x10 }
  - { offset: 0x583F7, size: 0x8, addend: 0x0, symName: __RNvCskdKJRKLKjqM_7___rustc13___rdl_realloc, symObjAddr: 0x100, symBinAddr: 0x100012050, symSize: 0xD0 }
  - { offset: 0x584DB, size: 0x8, addend: 0x0, symName: __RNvCskdKJRKLKjqM_7___rustc18___rdl_alloc_zeroed, symObjAddr: 0x2D0, symBinAddr: 0x100012220, symSize: 0x90 }
  - { offset: 0x58580, size: 0x8, addend: 0x0, symName: __RNvCskdKJRKLKjqM_7___rustc8___rg_oom, symObjAddr: 0x430, symBinAddr: 0x100057E80, symSize: 0x20 }
  - { offset: 0x5859C, size: 0x8, addend: 0x0, symName: __ZN3std5alloc24default_alloc_error_hook17h037631a9e9542696E, symObjAddr: 0x23AD0, symBinAddr: 0x100025610, symSize: 0x160 }
  - { offset: 0x58829, size: 0x8, addend: 0x0, symName: __ZN3std5alloc8rust_oom17he6554ab5e3e4bfbfE, symObjAddr: 0x23C30, symBinAddr: 0x100058900, symSize: 0x20 }
  - { offset: 0x58876, size: 0x8, addend: 0x0, symName: __ZN3std2rt15handle_rt_panic17hc19cb4ec1bf553a3E, symObjAddr: 0xF090, symBinAddr: 0x100057FC0, symSize: 0x60 }
  - { offset: 0x58906, size: 0x8, addend: 0x0, symName: __ZN3std2rt19lang_start_internal17he54b1e510ff92df3E, symObjAddr: 0xF0F0, symBinAddr: 0x10001CAB0, symSize: 0x6C0 }
  - { offset: 0x5940C, size: 0x8, addend: 0x0, symName: __ZN3std2rt7cleanup17h67949fb3a9403564E, symObjAddr: 0xF7B0, symBinAddr: 0x10001D170, symSize: 0x50 }
  - { offset: 0x5942F, size: 0x8, addend: 0x0, symName: __ZN3std2rt7cleanup17h67949fb3a9403564E, symObjAddr: 0xF7B0, symBinAddr: 0x10001D170, symSize: 0x50 }
  - { offset: 0x59443, size: 0x8, addend: 0x0, symName: __ZN3std2rt7cleanup17h67949fb3a9403564E, symObjAddr: 0xF7B0, symBinAddr: 0x10001D170, symSize: 0x50 }
  - { offset: 0x59457, size: 0x8, addend: 0x0, symName: __ZN3std2rt7cleanup17h67949fb3a9403564E, symObjAddr: 0xF7B0, symBinAddr: 0x10001D170, symSize: 0x50 }
  - { offset: 0x5958D, size: 0x8, addend: 0x0, symName: __ZN3std2io5error14repr_bitpacked11decode_repr17ha713e1d9a867e6ffE, symObjAddr: 0xC820, symBinAddr: 0x10001BAA0, symSize: 0x60 }
  - { offset: 0x5962F, size: 0x8, addend: 0x0, symName: __ZN3std2io5error5Error3new17hca09cf106a8bb92bE, symObjAddr: 0xC960, symBinAddr: 0x10001BB00, symSize: 0x120 }
  - { offset: 0x59A3A, size: 0x8, addend: 0x0, symName: '__ZN3std2io5error83_$LT$impl$u20$core..fmt..Debug$u20$for$u20$std..io..error..repr_bitpacked..Repr$GT$3fmt17h0c2c47996b5c8151E', symObjAddr: 0xCB00, symBinAddr: 0x10001BC20, symSize: 0x300 }
  - { offset: 0x59C92, size: 0x8, addend: 0x0, symName: '__ZN58_$LT$std..io..error..Error$u20$as$u20$core..fmt..Debug$GT$3fmt17h4e87839884dfef9aE', symObjAddr: 0x3D080, symBinAddr: 0x100034CB0, symSize: 0x10 }
  - { offset: 0x59CAC, size: 0x8, addend: 0x0, symName: '__ZN60_$LT$std..io..error..Error$u20$as$u20$core..fmt..Display$GT$3fmt17hb9b71bb9d61087ecE', symObjAddr: 0x4F030, symBinAddr: 0x100044F90, symSize: 0x280 }
  - { offset: 0x59EDF, size: 0x8, addend: 0x0, symName: '__ZN62_$LT$std..io..error..ErrorKind$u20$as$u20$core..fmt..Debug$GT$3fmt17hd88fc964aff56ab8E', symObjAddr: 0x51C40, symBinAddr: 0x1000459D0, symSize: 0x30 }
  - { offset: 0x59F72, size: 0x8, addend: 0x0, symName: '__ZN3std2io8buffered9bufwriter18BufWriter$LT$W$GT$14write_all_cold17h4cf021826987ea15E', symObjAddr: 0xDCD0, symBinAddr: 0x100057EA0, symSize: 0x120 }
  - { offset: 0x5A1B1, size: 0x8, addend: 0x0, symName: '__ZN3std2io8buffered9bufwriter18BufWriter$LT$W$GT$9flush_buf17h223037aba0b50117E', symObjAddr: 0xDDF0, symBinAddr: 0x10001C870, symSize: 0x240 }
  - { offset: 0x5A7D7, size: 0x8, addend: 0x0, symName: __ZN3std2io5Write18write_all_vectored17hc2fed901070b4d06E, symObjAddr: 0xC160, symBinAddr: 0x10001B3E0, symSize: 0x1D0 }
  - { offset: 0x5AA1C, size: 0x8, addend: 0x0, symName: __ZN3std2io5Write9write_all17ha0278d11ab8e55b7E, symObjAddr: 0xC330, symBinAddr: 0x10001B5B0, symSize: 0xA0 }
  - { offset: 0x5AB0C, size: 0x8, addend: 0x0, symName: __ZN3std2io5Write9write_fmt17h0157f34dfbceefe5E, symObjAddr: 0xC3D0, symBinAddr: 0x10001B650, symSize: 0x170 }
  - { offset: 0x5ADE6, size: 0x8, addend: 0x0, symName: __ZN3std2io5Write9write_fmt17h24b62528f4d1168aE, symObjAddr: 0xC540, symBinAddr: 0x10001B7C0, symSize: 0x170 }
  - { offset: 0x5B0C0, size: 0x8, addend: 0x0, symName: __ZN3std2io5Write9write_fmt17h5e34a6300392fe22E, symObjAddr: 0xC6B0, symBinAddr: 0x10001B930, symSize: 0x170 }
  - { offset: 0x5B413, size: 0x8, addend: 0x0, symName: __ZN3std2io5stdio22try_set_output_capture17hb613035c20b6d0f1E, symObjAddr: 0xD2C0, symBinAddr: 0x10001C310, symSize: 0xB0 }
  - { offset: 0x5B6BC, size: 0x8, addend: 0x0, symName: __ZN3std2io5stdio31print_to_buffer_if_capture_used17hde0c84d24b5006f1E, symObjAddr: 0xD440, symBinAddr: 0x10001C3C0, symSize: 0x220 }
  - { offset: 0x5BDCE, size: 0x8, addend: 0x0, symName: __ZN3std2io5stdio6Stderr4lock17h9794f8e40f87e1fdE, symObjAddr: 0xD8C0, symBinAddr: 0x10001C5E0, symSize: 0xC0 }
  - { offset: 0x5C09D, size: 0x8, addend: 0x0, symName: __ZN3std2io5stdio6_print17he5f702afc7c35b8cE, symObjAddr: 0xD980, symBinAddr: 0x10001C6A0, symSize: 0xF0 }
  - { offset: 0x5C1AB, size: 0x8, addend: 0x0, symName: __ZN3std2io5stdio7_eprint17h975cd51aa0c9b8cfE, symObjAddr: 0xDAA0, symBinAddr: 0x10001C790, symSize: 0xE0 }
  - { offset: 0x5C275, size: 0x8, addend: 0x0, symName: '__ZN61_$LT$$RF$std..io..stdio..Stderr$u20$as$u20$std..io..Write$GT$9write_fmt17h4e3fdff94d0882edE', symObjAddr: 0x50110, symBinAddr: 0x100045210, symSize: 0x1C0 }
  - { offset: 0x5C6F9, size: 0x8, addend: 0x0, symName: '__ZN61_$LT$std..io..stdio..StderrLock$u20$as$u20$std..io..Write$GT$9write_all17h468845e2c0726439E', symObjAddr: 0x509B0, symBinAddr: 0x100045590, symSize: 0x100 }
  - { offset: 0x5C979, size: 0x8, addend: 0x0, symName: '__ZN61_$LT$$RF$std..io..stdio..Stdout$u20$as$u20$std..io..Write$GT$9write_fmt17h0eee9ce97af14d23E', symObjAddr: 0x50590, symBinAddr: 0x1000453D0, symSize: 0x1C0 }
  - { offset: 0x5CE1D, size: 0x8, addend: 0x0, symName: '__ZN61_$LT$std..io..stdio..StdoutLock$u20$as$u20$std..io..Write$GT$9write_all17h054337cb99b92b16E', symObjAddr: 0x51070, symBinAddr: 0x100045690, symSize: 0x260 }
  - { offset: 0x5D49F, size: 0x8, addend: 0x0, symName: '__ZN3std2io5impls74_$LT$impl$u20$std..io..Write$u20$for$u20$alloc..vec..Vec$LT$u8$C$A$GT$$GT$14write_vectored17h396066abfc006fcaE', symObjAddr: 0xCE00, symBinAddr: 0x10001BF20, symSize: 0x180 }
  - { offset: 0x5D6A1, size: 0x8, addend: 0x0, symName: '__ZN3std2io5impls74_$LT$impl$u20$std..io..Write$u20$for$u20$alloc..vec..Vec$LT$u8$C$A$GT$$GT$17is_write_vectored17h473fffb9382bf9c6E', symObjAddr: 0xCF80, symBinAddr: 0x10001C0A0, symSize: 0x10 }
  - { offset: 0x5D6CA, size: 0x8, addend: 0x0, symName: '__ZN3std2io5impls74_$LT$impl$u20$std..io..Write$u20$for$u20$alloc..vec..Vec$LT$u8$C$A$GT$$GT$18write_all_vectored17hcfe81a52ebadbc0bE', symObjAddr: 0xCF90, symBinAddr: 0x10001C0B0, symSize: 0x170 }
  - { offset: 0x5D6F5, size: 0x8, addend: 0x0, symName: '__ZN3std2io5impls74_$LT$impl$u20$std..io..Write$u20$for$u20$alloc..vec..Vec$LT$u8$C$A$GT$$GT$18write_all_vectored17hcfe81a52ebadbc0bE', symObjAddr: 0xCF90, symBinAddr: 0x10001C0B0, symSize: 0x170 }
  - { offset: 0x5D70A, size: 0x8, addend: 0x0, symName: '__ZN3std2io5impls74_$LT$impl$u20$std..io..Write$u20$for$u20$alloc..vec..Vec$LT$u8$C$A$GT$$GT$18write_all_vectored17hcfe81a52ebadbc0bE', symObjAddr: 0xCF90, symBinAddr: 0x10001C0B0, symSize: 0x170 }
  - { offset: 0x5D71F, size: 0x8, addend: 0x0, symName: '__ZN3std2io5impls74_$LT$impl$u20$std..io..Write$u20$for$u20$alloc..vec..Vec$LT$u8$C$A$GT$$GT$18write_all_vectored17hcfe81a52ebadbc0bE', symObjAddr: 0xCF90, symBinAddr: 0x10001C0B0, symSize: 0x170 }
  - { offset: 0x5D733, size: 0x8, addend: 0x0, symName: '__ZN3std2io5impls74_$LT$impl$u20$std..io..Write$u20$for$u20$alloc..vec..Vec$LT$u8$C$A$GT$$GT$18write_all_vectored17hcfe81a52ebadbc0bE', symObjAddr: 0xCF90, symBinAddr: 0x10001C0B0, symSize: 0x170 }
  - { offset: 0x5D747, size: 0x8, addend: 0x0, symName: '__ZN3std2io5impls74_$LT$impl$u20$std..io..Write$u20$for$u20$alloc..vec..Vec$LT$u8$C$A$GT$$GT$18write_all_vectored17hcfe81a52ebadbc0bE', symObjAddr: 0xCF90, symBinAddr: 0x10001C0B0, symSize: 0x170 }
  - { offset: 0x5D901, size: 0x8, addend: 0x0, symName: '__ZN3std2io5impls74_$LT$impl$u20$std..io..Write$u20$for$u20$alloc..vec..Vec$LT$u8$C$A$GT$$GT$5flush17hc83d241489517b1fE', symObjAddr: 0xD100, symBinAddr: 0x10001C220, symSize: 0x10 }
  - { offset: 0x5D91C, size: 0x8, addend: 0x0, symName: '__ZN3std2io5impls74_$LT$impl$u20$std..io..Write$u20$for$u20$alloc..vec..Vec$LT$u8$C$A$GT$$GT$5write17h0e0da068fc5acedeE', symObjAddr: 0xD110, symBinAddr: 0x10001C230, symSize: 0x70 }
  - { offset: 0x5DA02, size: 0x8, addend: 0x0, symName: '__ZN3std2io5impls74_$LT$impl$u20$std..io..Write$u20$for$u20$alloc..vec..Vec$LT$u8$C$A$GT$$GT$9write_all17h7bccd6e9d3e19e7fE', symObjAddr: 0xD180, symBinAddr: 0x10001C2A0, symSize: 0x70 }
  - { offset: 0x5DB0A, size: 0x8, addend: 0x0, symName: __ZN3std2io19default_read_to_end16small_probe_read17hed37023dae20d6feE, symObjAddr: 0xB720, symBinAddr: 0x10001B2F0, symSize: 0xF0 }
  - { offset: 0x5DDF1, size: 0x8, addend: 0x0, symName: '__ZN81_$LT$std..io..default_write_fmt..Adapter$LT$T$GT$$u20$as$u20$core..fmt..Write$GT$9write_str17h1649a3991f2ea191E', symObjAddr: 0x57A70, symBinAddr: 0x1000465E0, symSize: 0xD0 }
  - { offset: 0x5DEFD, size: 0x8, addend: 0x0, symName: '__ZN81_$LT$std..io..default_write_fmt..Adapter$LT$T$GT$$u20$as$u20$core..fmt..Write$GT$9write_str17h284670e048cc9fa3E', symObjAddr: 0x57B40, symBinAddr: 0x1000466B0, symSize: 0x50 }
  - { offset: 0x5DF27, size: 0x8, addend: 0x0, symName: '__ZN81_$LT$std..io..default_write_fmt..Adapter$LT$T$GT$$u20$as$u20$core..fmt..Write$GT$9write_str17h65288afb60bc4b22E', symObjAddr: 0x57C60, symBinAddr: 0x100046700, symSize: 0x70 }
  - { offset: 0x5E014, size: 0x8, addend: 0x0, symName: '__ZN81_$LT$std..io..default_write_fmt..Adapter$LT$T$GT$$u20$as$u20$core..fmt..Write$GT$9write_str17h9ddd3fd8700ebc6eE', symObjAddr: 0x57CD0, symBinAddr: 0x100046770, symSize: 0x50 }
  - { offset: 0x5E03E, size: 0x8, addend: 0x0, symName: '__ZN81_$LT$std..io..default_write_fmt..Adapter$LT$T$GT$$u20$as$u20$core..fmt..Write$GT$9write_str17hf60e64c5a7fc0711E', symObjAddr: 0x57D20, symBinAddr: 0x1000467C0, symSize: 0xA0 }
  - { offset: 0x5E28F, size: 0x8, addend: 0x0, symName: __ZN3std4path4Path13_strip_prefix17h57206cfe16291a76E, symObjAddr: 0x20BD0, symBinAddr: 0x100024B10, symSize: 0x3C0 }
  - { offset: 0x5E39F, size: 0x8, addend: 0x0, symName: __ZN3std4path4Path5_join17hf8c84868fde1d922E, symObjAddr: 0x21720, symBinAddr: 0x100024ED0, symSize: 0x190 }
  - { offset: 0x5E98C, size: 0x8, addend: 0x0, symName: __ZN3std4path4Path6is_dir17ha85723d377dee2d9E, symObjAddr: 0x218B0, symBinAddr: 0x100025060, symSize: 0x1E0 }
  - { offset: 0x5EF01, size: 0x8, addend: 0x0, symName: __ZN3std4path10Components15len_before_body17hc0c9c8c5c44312a5E, symObjAddr: 0x1F920, symBinAddr: 0x1000244D0, symSize: 0x170 }
  - { offset: 0x5EF18, size: 0x8, addend: 0x0, symName: __ZN3std4path10Components15len_before_body17hc0c9c8c5c44312a5E, symObjAddr: 0x1F920, symBinAddr: 0x1000244D0, symSize: 0x170 }
  - { offset: 0x5EF2D, size: 0x8, addend: 0x0, symName: __ZN3std4path10Components15len_before_body17hc0c9c8c5c44312a5E, symObjAddr: 0x1F920, symBinAddr: 0x1000244D0, symSize: 0x170 }
  - { offset: 0x5F105, size: 0x8, addend: 0x0, symName: __ZN3std4path10Components25parse_next_component_back17h39a0247b7cda8e0bE, symObjAddr: 0x1FA90, symBinAddr: 0x100024640, symSize: 0xF0 }
  - { offset: 0x5F2A4, size: 0x8, addend: 0x0, symName: __ZN3std4path10Components7as_path17h069c6a5a65b7ff44E, symObjAddr: 0x1FB80, symBinAddr: 0x100024730, symSize: 0x3E0 }
  - { offset: 0x5F60F, size: 0x8, addend: 0x0, symName: '__ZN57_$LT$std..path..Display$u20$as$u20$core..fmt..Display$GT$3fmt17h4b31f13031a7fa47E', symObjAddr: 0x3CD90, symBinAddr: 0x100034AF0, symSize: 0x10 }
  - { offset: 0x5F6D6, size: 0x8, addend: 0x0, symName: '__ZN55_$LT$std..path..PathBuf$u20$as$u20$core..fmt..Debug$GT$3fmt17h473ded3c475bb424E', symObjAddr: 0x3C630, symBinAddr: 0x100034AC0, symSize: 0x30 }
  - { offset: 0x5F865, size: 0x8, addend: 0x0, symName: '__ZN61_$LT$std..path..Component$u20$as$u20$core..cmp..PartialEq$GT$2eq17h491fa3e2db060d13E', symObjAddr: 0x512F0, symBinAddr: 0x1000458F0, symSize: 0xE0 }
  - { offset: 0x5F91F, size: 0x8, addend: 0x0, symName: '__ZN80_$LT$std..path..Components$u20$as$u20$core..iter..traits..iterator..Iterator$GT$4next17hee0b9dd08b602416E', symObjAddr: 0x57330, symBinAddr: 0x1000461D0, symSize: 0x410 }
  - { offset: 0x5FCC0, size: 0x8, addend: 0x0, symName: '__ZN95_$LT$std..path..Components$u20$as$u20$core..iter..traits..double_ended..DoubleEndedIterator$GT$9next_back17h714e7cb7d2d85f84E', symObjAddr: 0x59CE0, symBinAddr: 0x100046CB0, symSize: 0x420 }
  - { offset: 0x5FECC, size: 0x8, addend: 0x0, symName: __ZN3std7process4exit17h8c009252ab1ca590E, symObjAddr: 0x24F70, symBinAddr: 0x100025A00, symSize: 0x20 }
  - { offset: 0x5FEFB, size: 0x8, addend: 0x0, symName: __ZN3std7process5abort17h0d4477327f66e8fbE, symObjAddr: 0x25400, symBinAddr: 0x100058AD0, symSize: 0x10 }
  - { offset: 0x5FF1B, size: 0x8, addend: 0x0, symName: __ZN3std7process7Command6output17hff2e6d5f551a1910E, symObjAddr: 0x25550, symBinAddr: 0x100025A20, symSize: 0x350 }
  - { offset: 0x604B9, size: 0x8, addend: 0x0, symName: __ZN3std7process7Command6status17h9dafcb85898b4dcdE, symObjAddr: 0x258A0, symBinAddr: 0x100025D70, symSize: 0x100 }
  - { offset: 0x6079D, size: 0x8, addend: 0x0, symName: '__ZN118_$LT$std..thread..thread_name_string..ThreadNameString$u20$as$u20$core..convert..From$LT$alloc..string..String$GT$$GT$4from17h61e83cd51d9b6e6aE', symObjAddr: 0x10C0, symBinAddr: 0x100012400, symSize: 0x100 }
  - { offset: 0x60B55, size: 0x8, addend: 0x0, symName: __ZN3std6thread7current12init_current17h90dce586534f49cdE, symObjAddr: 0x245B0, symBinAddr: 0x100058920, symSize: 0x160 }
  - { offset: 0x60E6D, size: 0x8, addend: 0x0, symName: __ZN3std6thread7current13current_os_id17h7dd262076b74b984E, symObjAddr: 0x24710, symBinAddr: 0x100025980, symSize: 0x80 }
  - { offset: 0x61080, size: 0x8, addend: 0x0, symName: __ZN3std6thread6Thread3new17haba3f9a731f34843E, symObjAddr: 0x241F0, symBinAddr: 0x100025840, symSize: 0x140 }
  - { offset: 0x613C7, size: 0x8, addend: 0x0, symName: __ZN3std6thread8ThreadId3new9exhausted17h406b0b054c541c40E, symObjAddr: 0x248A0, symBinAddr: 0x100058A80, symSize: 0x50 }
  - { offset: 0x61447, size: 0x8, addend: 0x0, symName: __ZN3std12backtrace_rs5print17BacktraceFrameFmt21print_raw_with_column17h124737e9f41c54b0E, symObjAddr: 0x12B0, symBinAddr: 0x100012560, symSize: 0x560 }
  - { offset: 0x6163D, size: 0x8, addend: 0x0, symName: __ZN3std12backtrace_rs9backtrace9libunwind5trace8trace_fn17hc5d3caa7e26e2d87E, symObjAddr: 0x1810, symBinAddr: 0x100012AC0, symSize: 0x50 }
  - { offset: 0x616F8, size: 0x8, addend: 0x0, symName: __ZN3std12backtrace_rs9symbolize5gimli4mmap17h12ebabe808a68383E, symObjAddr: 0x1860, symBinAddr: 0x100012B10, symSize: 0x210 }
  - { offset: 0x61BE5, size: 0x8, addend: 0x0, symName: __ZN3std12backtrace_rs9symbolize5gimli5macho11find_header17hde9f2a87e444cec9E, symObjAddr: 0x1A70, symBinAddr: 0x100012D20, symSize: 0x190 }
  - { offset: 0x622C3, size: 0x8, addend: 0x0, symName: __ZN3std12backtrace_rs9symbolize5gimli5macho6Object5parse17h400ac0874d941337E, symObjAddr: 0x1C00, symBinAddr: 0x100012EB0, symSize: 0x1040 }
  - { offset: 0x641EA, size: 0x8, addend: 0x0, symName: __ZN3std12backtrace_rs9symbolize5gimli5macho6Object7section17hf53b9a42818e2c3dE, symObjAddr: 0x2C40, symBinAddr: 0x100013EF0, symSize: 0x180 }
  - { offset: 0x64624, size: 0x8, addend: 0x0, symName: __ZN3std12backtrace_rs9symbolize5gimli7Context11find_frames17h15418eb91b7e6263E, symObjAddr: 0x2DC0, symBinAddr: 0x100014070, symSize: 0x3D0 }
  - { offset: 0x64A04, size: 0x8, addend: 0x0, symName: __ZN3std12backtrace_rs9symbolize5gimli7Context3new17hb329d27e4d696e6aE, symObjAddr: 0x3190, symBinAddr: 0x100014440, symSize: 0x3050 }
  - { offset: 0x68B62, size: 0x8, addend: 0x0, symName: __ZN3std12backtrace_rs9symbolize5gimli7resolve17h34165e1bf34eef53E, symObjAddr: 0x61E0, symBinAddr: 0x100017490, symSize: 0x3560 }
  - { offset: 0x6EBEE, size: 0x8, addend: 0x0, symName: __ZN3std12backtrace_rs9symbolize6Symbol4name17hd612854ad8f0ffd0E, symObjAddr: 0x9780, symBinAddr: 0x10001A9F0, symSize: 0x110 }
  - { offset: 0x6ED27, size: 0x8, addend: 0x0, symName: '__ZN79_$LT$std..backtrace_rs..symbolize..SymbolName$u20$as$u20$core..fmt..Display$GT$3fmt17hdc33297e1ed74ca2E', symObjAddr: 0x56AE0, symBinAddr: 0x1000460F0, symSize: 0xE0 }
  - { offset: 0x6EEF7, size: 0x8, addend: 0x0, symName: __ZN3std2fs10DirBuilder14create_dir_all17h33a040ada4c7192cE, symObjAddr: 0x9890, symBinAddr: 0x10001AB00, symSize: 0x590 }
  - { offset: 0x6F6C5, size: 0x8, addend: 0x0, symName: __ZN3std2fs10DirBuilder7_create17h6f7003bb5724e554E, symObjAddr: 0x9E20, symBinAddr: 0x10001B090, symSize: 0xC0 }
  - { offset: 0x6F821, size: 0x8, addend: 0x0, symName: __ZN3std2fs5write5inner17h39b303b81400a4a0E, symObjAddr: 0xA910, symBinAddr: 0x10001B150, symSize: 0x1A0 }
  - { offset: 0x6FE30, size: 0x8, addend: 0x0, symName: '__ZN64_$LT$std..ffi..os_str..Display$u20$as$u20$core..fmt..Display$GT$3fmt17hc3b4edbdc1de5d2aE', symObjAddr: 0x52BC0, symBinAddr: 0x100045A50, symSize: 0xD0 }
  - { offset: 0x6FEB5, size: 0x8, addend: 0x0, symName: '__ZN3std4sync6poison5mutex14Mutex$LT$T$GT$4lock17hc2ce4f843db9b8deE', symObjAddr: 0x23070, symBinAddr: 0x1000255A0, symSize: 0x70 }
  - { offset: 0x70114, size: 0x8, addend: 0x0, symName: '__ZN3std4sync6poison4once4Once15call_once_force28_$u7b$$u7b$closure$u7d$$u7d$17h3fd27ef06f442f06E', symObjAddr: 0x22AF0, symBinAddr: 0x100025240, symSize: 0x90 }
  - { offset: 0x701CB, size: 0x8, addend: 0x0, symName: '__ZN3std4sync6poison4once4Once15call_once_force28_$u7b$$u7b$closure$u7d$$u7d$17hcef2943343630694E', symObjAddr: 0x22D80, symBinAddr: 0x1000252D0, symSize: 0x90 }
  - { offset: 0x70328, size: 0x8, addend: 0x0, symName: '__ZN3std4sync6poison4once4Once9call_once28_$u7b$$u7b$closure$u7d$$u7d$17h5c617ced4614c08fE', symObjAddr: 0x22E30, symBinAddr: 0x100025360, symSize: 0x240 }
  - { offset: 0x70ACB, size: 0x8, addend: 0x0, symName: '__ZN3std4sync9once_lock17OnceLock$LT$T$GT$10initialize17h9ad90c5bfd166a66E', symObjAddr: 0x23793, symBinAddr: 0x100058843, symSize: 0x59 }
  - { offset: 0x70AF6, size: 0x8, addend: 0x0, symName: '__ZN3std4sync9once_lock17OnceLock$LT$T$GT$10initialize17h9ad90c5bfd166a66E', symObjAddr: 0x23793, symBinAddr: 0x100058843, symSize: 0x59 }
  - { offset: 0x70B0A, size: 0x8, addend: 0x0, symName: '__ZN3std4sync9once_lock17OnceLock$LT$T$GT$10initialize17h9ad90c5bfd166a66E', symObjAddr: 0x23793, symBinAddr: 0x100058843, symSize: 0x59 }
  - { offset: 0x70B1E, size: 0x8, addend: 0x0, symName: '__ZN3std4sync9once_lock17OnceLock$LT$T$GT$10initialize17h9ad90c5bfd166a66E', symObjAddr: 0x23793, symBinAddr: 0x100058843, symSize: 0x59 }
  - { offset: 0x70B34, size: 0x8, addend: 0x0, symName: '__ZN3std4sync9once_lock17OnceLock$LT$T$GT$10initialize17hdc61a2003d8acd11E', symObjAddr: 0x23841, symBinAddr: 0x1000588A1, symSize: 0x5F }
  - { offset: 0x70B5F, size: 0x8, addend: 0x0, symName: '__ZN3std4sync9once_lock17OnceLock$LT$T$GT$10initialize17hdc61a2003d8acd11E', symObjAddr: 0x23841, symBinAddr: 0x1000588A1, symSize: 0x5F }
  - { offset: 0x70B73, size: 0x8, addend: 0x0, symName: '__ZN3std4sync9once_lock17OnceLock$LT$T$GT$10initialize17hdc61a2003d8acd11E', symObjAddr: 0x23841, symBinAddr: 0x1000588A1, symSize: 0x5F }
  - { offset: 0x70B87, size: 0x8, addend: 0x0, symName: '__ZN3std4sync9once_lock17OnceLock$LT$T$GT$10initialize17hdc61a2003d8acd11E', symObjAddr: 0x23841, symBinAddr: 0x1000588A1, symSize: 0x5F }
  - { offset: 0x70D32, size: 0x8, addend: 0x0, symName: __ZN3std5panic19get_backtrace_style17h4c7362303865842eE, symObjAddr: 0x23C60, symBinAddr: 0x100025770, symSize: 0xD0 }
  - { offset: 0x70D50, size: 0x8, addend: 0x0, symName: __ZN3std5panic19get_backtrace_style17h4c7362303865842eE, symObjAddr: 0x23C60, symBinAddr: 0x100025770, symSize: 0xD0 }
  - { offset: 0x70D65, size: 0x8, addend: 0x0, symName: __ZN3std5panic19get_backtrace_style17h4c7362303865842eE, symObjAddr: 0x23C60, symBinAddr: 0x100025770, symSize: 0xD0 }
  - { offset: 0x70FD2, size: 0x8, addend: 0x0, symName: __ZN3std3env11current_dir17h09876c9b4b89060dE, symObjAddr: 0xF800, symBinAddr: 0x10001D1C0, symSize: 0x1C0 }
  - { offset: 0x7140F, size: 0x8, addend: 0x0, symName: __ZN3std3env4_var17h75d65b34efbdced7E, symObjAddr: 0xFAA0, symBinAddr: 0x10001D380, symSize: 0xA0 }
  - { offset: 0x7150B, size: 0x8, addend: 0x0, symName: __ZN3std3env7_var_os17ha90d6152c34619e1E, symObjAddr: 0xFB80, symBinAddr: 0x10001D420, symSize: 0x170 }
  - { offset: 0x717CB, size: 0x8, addend: 0x0, symName: __ZN3std3env7vars_os17hc4844c317b828c1aE, symObjAddr: 0xFF30, symBinAddr: 0x10001D590, symSize: 0x440 }
  - { offset: 0x725AF, size: 0x8, addend: 0x0, symName: __ZN5alloc5alloc15exchange_malloc17hdc54b6ad35f557b1E, symObjAddr: 0x452D0, symBinAddr: 0x10003B7C0, symSize: 0x40 }
  - { offset: 0x73869, size: 0x8, addend: 0x0, symName: '__ZN64_$LT$alloc..ffi..c_str..NulError$u20$as$u20$core..fmt..Debug$GT$3fmt17h42a8844572b8105bE', symObjAddr: 0x524F0, symBinAddr: 0x100045A00, symSize: 0x50 }
  - { offset: 0x74E21, size: 0x8, addend: 0x0, symName: '__ZN5alloc11collections5btree4node208Handle$LT$alloc..collections..btree..node..NodeRef$LT$alloc..collections..btree..node..marker..Mut$C$K$C$V$C$alloc..collections..btree..node..marker..Leaf$GT$$C$alloc..collections..btree..node..marker..KV$GT$5split17h2e0ddf5cd10d99d6E', symObjAddr: 0x40F70, symBinAddr: 0x1000374D0, symSize: 0x1C0 }
  - { offset: 0x751FD, size: 0x8, addend: 0x0, symName: '__ZN5alloc11collections5btree4node208Handle$LT$alloc..collections..btree..node..NodeRef$LT$alloc..collections..btree..node..marker..Mut$C$K$C$V$C$alloc..collections..btree..node..marker..Leaf$GT$$C$alloc..collections..btree..node..marker..KV$GT$5split17h9dabb5bd0fd366e5E', symObjAddr: 0x41130, symBinAddr: 0x100037690, symSize: 0x200 }
  - { offset: 0x756B0, size: 0x8, addend: 0x0, symName: '__ZN5alloc11collections5btree4node208Handle$LT$alloc..collections..btree..node..NodeRef$LT$alloc..collections..btree..node..marker..Mut$C$K$C$V$C$alloc..collections..btree..node..marker..Leaf$GT$$C$alloc..collections..btree..node..marker..KV$GT$5split17hb1ffacf0e82edab8E', symObjAddr: 0x41330, symBinAddr: 0x100037890, symSize: 0x1F0 }
  - { offset: 0x75B62, size: 0x8, addend: 0x0, symName: '__ZN5alloc11collections5btree4node212Handle$LT$alloc..collections..btree..node..NodeRef$LT$alloc..collections..btree..node..marker..Mut$C$K$C$V$C$alloc..collections..btree..node..marker..Internal$GT$$C$alloc..collections..btree..node..marker..KV$GT$5split17h049602c25495a0d5E', symObjAddr: 0x41520, symBinAddr: 0x100037A80, symSize: 0x300 }
  - { offset: 0x76206, size: 0x8, addend: 0x0, symName: '__ZN5alloc11collections5btree4node212Handle$LT$alloc..collections..btree..node..NodeRef$LT$alloc..collections..btree..node..marker..Mut$C$K$C$V$C$alloc..collections..btree..node..marker..Internal$GT$$C$alloc..collections..btree..node..marker..KV$GT$5split17h17c643d4c82620a0E', symObjAddr: 0x41820, symBinAddr: 0x100037D80, symSize: 0x280 }
  - { offset: 0x76750, size: 0x8, addend: 0x0, symName: '__ZN5alloc11collections5btree4node212Handle$LT$alloc..collections..btree..node..NodeRef$LT$alloc..collections..btree..node..marker..Mut$C$K$C$V$C$alloc..collections..btree..node..marker..Internal$GT$$C$alloc..collections..btree..node..marker..KV$GT$5split17hce29b28e134d751bE', symObjAddr: 0x41AA0, symBinAddr: 0x100038000, symSize: 0x2F0 }
  - { offset: 0x76E63, size: 0x8, addend: 0x0, symName: '__ZN5alloc11collections5btree6remove259_$LT$impl$u20$alloc..collections..btree..node..Handle$LT$alloc..collections..btree..node..NodeRef$LT$alloc..collections..btree..node..marker..Mut$C$K$C$V$C$alloc..collections..btree..node..marker..Leaf$GT$$C$alloc..collections..btree..node..marker..KV$GT$$GT$14remove_leaf_kv17h2a34ebe0da4333d8E', symObjAddr: 0x434D0, symBinAddr: 0x100039A30, symSize: 0x8C0 }
  - { offset: 0x77AA4, size: 0x8, addend: 0x0, symName: '__ZN5alloc11collections5btree6remove259_$LT$impl$u20$alloc..collections..btree..node..Handle$LT$alloc..collections..btree..node..NodeRef$LT$alloc..collections..btree..node..marker..Mut$C$K$C$V$C$alloc..collections..btree..node..marker..Leaf$GT$$C$alloc..collections..btree..node..marker..KV$GT$$GT$14remove_leaf_kv17hc8882eb65a8263c2E', symObjAddr: 0x43D90, symBinAddr: 0x10003A2F0, symSize: 0x900 }
  - { offset: 0x7865B, size: 0x8, addend: 0x0, symName: '__ZN5alloc11collections5btree6remove259_$LT$impl$u20$alloc..collections..btree..node..Handle$LT$alloc..collections..btree..node..NodeRef$LT$alloc..collections..btree..node..marker..Mut$C$K$C$V$C$alloc..collections..btree..node..marker..Leaf$GT$$C$alloc..collections..btree..node..marker..KV$GT$$GT$14remove_leaf_kv17hcfdc75911d37b1d8E', symObjAddr: 0x44690, symBinAddr: 0x10003ABF0, symSize: 0x900 }
  - { offset: 0x794F0, size: 0x8, addend: 0x0, symName: '__ZN5alloc11collections5btree4node29BalancingContext$LT$K$C$V$GT$15bulk_steal_left17h3b899cdacc6f7634E', symObjAddr: 0x41D90, symBinAddr: 0x1000382F0, symSize: 0x400 }
  - { offset: 0x799B6, size: 0x8, addend: 0x0, symName: '__ZN5alloc11collections5btree4node29BalancingContext$LT$K$C$V$GT$15bulk_steal_left17h66a91518f6da12fdE', symObjAddr: 0x42190, symBinAddr: 0x1000386F0, symSize: 0x370 }
  - { offset: 0x79E9A, size: 0x8, addend: 0x0, symName: '__ZN5alloc11collections5btree4node29BalancingContext$LT$K$C$V$GT$16bulk_steal_right17h4e21d715a5e05da5E', symObjAddr: 0x42500, symBinAddr: 0x100038A60, symSize: 0x3C0 }
  - { offset: 0x7A4B4, size: 0x8, addend: 0x0, symName: '__ZN5alloc11collections5btree4node29BalancingContext$LT$K$C$V$GT$16bulk_steal_right17ha9d1e50b5a62421eE', symObjAddr: 0x428C0, symBinAddr: 0x100038E20, symSize: 0x440 }
  - { offset: 0x7AA42, size: 0x8, addend: 0x0, symName: '__ZN5alloc11collections5btree4node29BalancingContext$LT$K$C$V$GT$8do_merge17h23068df04fc85f6cE', symObjAddr: 0x42D00, symBinAddr: 0x100039260, symSize: 0x400 }
  - { offset: 0x7AF99, size: 0x8, addend: 0x0, symName: '__ZN5alloc11collections5btree4node29BalancingContext$LT$K$C$V$GT$8do_merge17h59e33ac8b4f1aedbE', symObjAddr: 0x43100, symBinAddr: 0x100039660, symSize: 0x3D0 }
  - { offset: 0x7B8AF, size: 0x8, addend: 0x0, symName: '__ZN5alloc11collections5btree3map25BTreeMap$LT$K$C$V$C$A$GT$6insert17h573ce44374f5ebb6E', symObjAddr: 0x3E760, symBinAddr: 0x100034CC0, symSize: 0xE50 }
  - { offset: 0x7CC92, size: 0x8, addend: 0x0, symName: '__ZN5alloc11collections5btree3map25BTreeMap$LT$K$C$V$C$A$GT$6insert17h8707bbeb01060a3bE', symObjAddr: 0x3F5B0, symBinAddr: 0x100035B10, symSize: 0xE80 }
  - { offset: 0x7E2F5, size: 0x8, addend: 0x0, symName: '__ZN5alloc11collections5btree3map25IntoIter$LT$K$C$V$C$A$GT$10dying_next17h0137cfdaf279346fE', symObjAddr: 0x40430, symBinAddr: 0x100036990, symSize: 0x3C0 }
  - { offset: 0x7E661, size: 0x8, addend: 0x0, symName: '__ZN5alloc11collections5btree3map25IntoIter$LT$K$C$V$C$A$GT$10dying_next17h74ba4dc90cd3bd84E', symObjAddr: 0x407F0, symBinAddr: 0x100036D50, symSize: 0x3C0 }
  - { offset: 0x7E9CD, size: 0x8, addend: 0x0, symName: '__ZN5alloc11collections5btree3map25IntoIter$LT$K$C$V$C$A$GT$10dying_next17h786570e0d2d29ee1E', symObjAddr: 0x40BB0, symBinAddr: 0x100037110, symSize: 0x3C0 }
  - { offset: 0x7F9C3, size: 0x8, addend: 0x0, symName: '__ZN5alloc7raw_vec19RawVec$LT$T$C$A$GT$8grow_one17h1578391f1dd2c7daE', symObjAddr: 0x45380, symBinAddr: 0x10003B800, symSize: 0xC0 }
  - { offset: 0x7FAD9, size: 0x8, addend: 0x0, symName: '__ZN5alloc7raw_vec19RawVec$LT$T$C$A$GT$8grow_one17h1a8e605a6c9c7a9cE', symObjAddr: 0x45440, symBinAddr: 0x10003B8C0, symSize: 0xC0 }
  - { offset: 0x7FC04, size: 0x8, addend: 0x0, symName: '__ZN5alloc7raw_vec19RawVec$LT$T$C$A$GT$8grow_one17h496d6c99f941dcd8E', symObjAddr: 0x45500, symBinAddr: 0x10003B980, symSize: 0xB0 }
  - { offset: 0x7FD1A, size: 0x8, addend: 0x0, symName: '__ZN5alloc7raw_vec19RawVec$LT$T$C$A$GT$8grow_one17h62d92001f5fd4088E', symObjAddr: 0x455B0, symBinAddr: 0x10003BA30, symSize: 0xC0 }
  - { offset: 0x7FE30, size: 0x8, addend: 0x0, symName: '__ZN5alloc7raw_vec19RawVec$LT$T$C$A$GT$8grow_one17h882f0afd17fb4cf1E', symObjAddr: 0x45670, symBinAddr: 0x10003BAF0, symSize: 0xC0 }
  - { offset: 0x7FF5B, size: 0x8, addend: 0x0, symName: '__ZN5alloc7raw_vec19RawVec$LT$T$C$A$GT$8grow_one17h9215a3a3eddacbe8E', symObjAddr: 0x45730, symBinAddr: 0x10003BBB0, symSize: 0xC0 }
  - { offset: 0x80071, size: 0x8, addend: 0x0, symName: '__ZN5alloc7raw_vec19RawVec$LT$T$C$A$GT$8grow_one17h944deff35e2917e9E', symObjAddr: 0x457F0, symBinAddr: 0x10003BC70, symSize: 0xC0 }
  - { offset: 0x8019C, size: 0x8, addend: 0x0, symName: '__ZN5alloc7raw_vec19RawVec$LT$T$C$A$GT$8grow_one17h9e141b6ec2b6b304E', symObjAddr: 0x458B0, symBinAddr: 0x10003BD30, symSize: 0xB0 }
  - { offset: 0x802B2, size: 0x8, addend: 0x0, symName: '__ZN5alloc7raw_vec19RawVec$LT$T$C$A$GT$8grow_one17haba969b9d90e429dE', symObjAddr: 0x45960, symBinAddr: 0x10003BDE0, symSize: 0xC0 }
  - { offset: 0x803DD, size: 0x8, addend: 0x0, symName: '__ZN5alloc7raw_vec19RawVec$LT$T$C$A$GT$8grow_one17hea102eabff85231dE', symObjAddr: 0x45AD0, symBinAddr: 0x10003BEA0, symSize: 0xB0 }
  - { offset: 0x804F3, size: 0x8, addend: 0x0, symName: '__ZN5alloc7raw_vec19RawVec$LT$T$C$A$GT$8grow_one17hf1b3041c36e8ca25E', symObjAddr: 0x45B80, symBinAddr: 0x10003BF50, symSize: 0xB0 }
  - { offset: 0x80869, size: 0x8, addend: 0x0, symName: __ZN5alloc7raw_vec11finish_grow17h446b951c64c58a29E, symObjAddr: 0x45310, symBinAddr: 0x10005CC20, symSize: 0x70 }
  - { offset: 0x808F5, size: 0x8, addend: 0x0, symName: '__ZN5alloc7raw_vec20RawVecInner$LT$A$GT$7reserve21do_reserve_and_handle17ha31d691a92aa6984E', symObjAddr: 0x45C30, symBinAddr: 0x10005CC90, symSize: 0xE0 }
  - { offset: 0x80BAD, size: 0x8, addend: 0x0, symName: '__ZN58_$LT$alloc..string..String$u20$as$u20$core..fmt..Debug$GT$3fmt17hc75db25d6de527ebE', symObjAddr: 0x3CEA0, symBinAddr: 0x100034B00, symSize: 0x20 }
  - { offset: 0x80C68, size: 0x8, addend: 0x0, symName: '__ZN58_$LT$alloc..string..String$u20$as$u20$core..fmt..Write$GT$10write_char17hba3be11e36d4a54fE', symObjAddr: 0x3CEC0, symBinAddr: 0x100034B20, symSize: 0x120 }
  - { offset: 0x80DEE, size: 0x8, addend: 0x0, symName: '__ZN58_$LT$alloc..string..String$u20$as$u20$core..fmt..Write$GT$9write_str17h0e3a6c0844845614E', symObjAddr: 0x3CFE0, symBinAddr: 0x100034C40, symSize: 0x70 }
  - { offset: 0x80EE8, size: 0x8, addend: 0x0, symName: '__ZN60_$LT$alloc..string..String$u20$as$u20$core..fmt..Display$GT$3fmt17h3ce6768c6f20d89dE', symObjAddr: 0x4EC80, symBinAddr: 0x100044F70, symSize: 0x20 }
  - { offset: 0x813AF, size: 0x8, addend: 0x0, symName: '__ZN5alloc4sync16Arc$LT$T$C$A$GT$9drop_slow17h165e22aa5ecb5c14E', symObjAddr: 0x44F90, symBinAddr: 0x10003B4F0, symSize: 0x90 }
  - { offset: 0x816AB, size: 0x8, addend: 0x0, symName: '__ZN5alloc4sync16Arc$LT$T$C$A$GT$9drop_slow17h1b88c69b37654d90E', symObjAddr: 0x45020, symBinAddr: 0x10003B580, symSize: 0xA0 }
  - { offset: 0x818B4, size: 0x8, addend: 0x0, symName: '__ZN5alloc4sync16Arc$LT$T$C$A$GT$9drop_slow17h38a2709360a70488E', symObjAddr: 0x450C0, symBinAddr: 0x10003B620, symSize: 0x60 }
  - { offset: 0x81A7C, size: 0x8, addend: 0x0, symName: '__ZN5alloc4sync16Arc$LT$T$C$A$GT$9drop_slow17h4fe547a59c8e5f5cE', symObjAddr: 0x45120, symBinAddr: 0x10003B680, symSize: 0x30 }
  - { offset: 0x81B5D, size: 0x8, addend: 0x0, symName: '__ZN5alloc4sync16Arc$LT$T$C$A$GT$9drop_slow17h5dbc3385cf3806bdE', symObjAddr: 0x45150, symBinAddr: 0x10003B6B0, symSize: 0x70 }
  - { offset: 0x81D03, size: 0x8, addend: 0x0, symName: '__ZN5alloc4sync16Arc$LT$T$C$A$GT$9drop_slow17h6f3c55e925f13c23E', symObjAddr: 0x451C0, symBinAddr: 0x10003B720, symSize: 0xA0 }
  - { offset: 0x828E3, size: 0x8, addend: 0x0, symName: __ZN6object4read7archive13ArchiveMember5parse17hd3e51da29e5488c1E, symObjAddr: 0x53F80, symBinAddr: 0x100045CB0, symSize: 0x350 }
  - { offset: 0x8303A, size: 0x8, addend: 0x0, symName: __ZN6object4read7archive23parse_bsd_extended_name17h1aeb333c92faa5e9E, symObjAddr: 0x542D0, symBinAddr: 0x100046000, symSize: 0xB0 }
  - { offset: 0x8344E, size: 0x8, addend: 0x0, symName: '__ZN9addr2line4unit16ResUnit$LT$R$GT$25find_function_or_location28_$u7b$$u7b$closure$u7d$$u7d$17h74f8b46b09233272E', symObjAddr: 0x5B2C0, symBinAddr: 0x1000480A0, symSize: 0x2F0 }
  - { offset: 0x837F4, size: 0x8, addend: 0x0, symName: '__ZN9addr2line4unit16ResUnit$LT$R$GT$25find_function_or_location17h779b8cc8975ca827E', symObjAddr: 0x5AE20, symBinAddr: 0x100047C00, symSize: 0x4A0 }
  - { offset: 0x83D1F, size: 0x8, addend: 0x0, symName: '__ZN9addr2line16Context$LT$R$GT$9find_unit17hafe5c4000e4dcc90E', symObjAddr: 0x5A630, symBinAddr: 0x100047410, symSize: 0x150 }
  - { offset: 0x83F04, size: 0x8, addend: 0x0, symName: '__ZN9addr2line6lookup30LoopingLookup$LT$T$C$L$C$F$GT$10new_lookup17hcb3afea57a5db3abE', symObjAddr: 0x5B900, symBinAddr: 0x1000486E0, symSize: 0x530 }
  - { offset: 0x8442C, size: 0x8, addend: 0x0, symName: __ZN9addr2line4line11render_file17h1c7a4084725a11a9E, symObjAddr: 0x5A780, symBinAddr: 0x100047560, symSize: 0x6A0 }
  - { offset: 0x84DC2, size: 0x8, addend: 0x0, symName: '__ZN9addr2line8function17Function$LT$R$GT$14parse_children17h1b46ddfba7fb182cE', symObjAddr: 0x5C240, symBinAddr: 0x100049020, symSize: 0x1390 }
  - { offset: 0x863DE, size: 0x8, addend: 0x0, symName: __ZN9addr2line8function10name_entry17h5deb9017d935ead1E, symObjAddr: 0x5BE30, symBinAddr: 0x100048C10, symSize: 0x410 }
  - { offset: 0x8683A, size: 0x8, addend: 0x0, symName: __ZN9addr2line8function9name_attr17hc5ba8693362fa215E, symObjAddr: 0x5D5D0, symBinAddr: 0x10004A3B0, symSize: 0x1B0 }
  - { offset: 0x86A5F, size: 0x8, addend: 0x0, symName: '__ZN9addr2line5frame18FrameIter$LT$R$GT$4next17h7dae5ed4e94f9885E', symObjAddr: 0x5B5B0, symBinAddr: 0x100048390, symSize: 0x350 }
  - { offset: 0x87312, size: 0x8, addend: 0x0, symName: '__ZN5gimli4read5dwarf14Dwarf$LT$R$GT$11attr_string17hc5d4d70dcc99f435E', symObjAddr: 0x4CCF0, symBinAddr: 0x100042FE0, symSize: 0x210 }
  - { offset: 0x87B2F, size: 0x8, addend: 0x0, symName: '__ZN5gimli4read5dwarf13Unit$LT$R$GT$3new17h575ffe3f9752d03fE', symObjAddr: 0x4A4A0, symBinAddr: 0x100040790, symSize: 0x2850 }
  - { offset: 0x8B0AA, size: 0x8, addend: 0x0, symName: '__ZN5gimli4read7aranges30ArangeHeader$LT$R$C$Offset$GT$5parse17h9e159263f6fe8401E', symObjAddr: 0x4DA20, symBinAddr: 0x100043D10, symSize: 0x2A0 }
  - { offset: 0x8BBAD, size: 0x8, addend: 0x0, symName: '__ZN5gimli4read4unit18Attribute$LT$R$GT$5value17h523c462abedaae9bE', symObjAddr: 0x492D0, symBinAddr: 0x10003F5C0, symSize: 0x7C0 }
  - { offset: 0x8BFB8, size: 0x8, addend: 0x0, symName: '__ZN90_$LT$gimli..read..unit..AttributeValue$LT$R$C$Offset$GT$$u20$as$u20$core..clone..Clone$GT$5clone17h098c211905b07158E', symObjAddr: 0x590A0, symBinAddr: 0x100046B20, symSize: 0x120 }
  - { offset: 0x8C018, size: 0x8, addend: 0x0, symName: '__ZN5gimli4read4unit32AttributeValue$LT$R$C$Offset$GT$11udata_value17h684c5d824dd1bde2E', symObjAddr: 0x49DC0, symBinAddr: 0x1000400B0, symSize: 0x80 }
  - { offset: 0x8C073, size: 0x8, addend: 0x0, symName: __ZN5gimli4read4unit15parse_attribute17h3d2d3a95c0efe23eE, symObjAddr: 0x47250, symBinAddr: 0x10003D540, symSize: 0x1960 }
  - { offset: 0x8F40E, size: 0x8, addend: 0x0, symName: __ZN5gimli4read4unit15skip_attributes17h92846bd14a53eed5E, symObjAddr: 0x48BB0, symBinAddr: 0x10003EEA0, symSize: 0x720 }
  - { offset: 0x8FDDC, size: 0x8, addend: 0x0, symName: '__ZN5gimli4read4unit22EntriesCursor$LT$R$GT$10next_entry17hd847dc3188d94e5bE', symObjAddr: 0x49A90, symBinAddr: 0x10003FD80, symSize: 0x330 }
  - { offset: 0x90323, size: 0x8, addend: 0x0, symName: '__ZN5gimli4read4unit33DebugInfoUnitHeadersIter$LT$R$GT$4next17hed0a8460df0391bfE', symObjAddr: 0x49E40, symBinAddr: 0x100040130, symSize: 0x660 }
  - { offset: 0x91500, size: 0x8, addend: 0x0, symName: __ZN5gimli4read6reader6Reader11read_offset17h5a1a189216526f37E, symObjAddr: 0x4D790, symBinAddr: 0x100043A80, symSize: 0xB0 }
  - { offset: 0x9173D, size: 0x8, addend: 0x0, symName: __ZN5gimli4read6reader6Reader12read_uleb12817hf97552d5eed3df2dE, symObjAddr: 0x4D840, symBinAddr: 0x100043B30, symSize: 0xB0 }
  - { offset: 0x917EB, size: 0x8, addend: 0x0, symName: __ZN5gimli4read6reader6Reader17read_sized_offset17h97b79870f9951699E, symObjAddr: 0x4D8F0, symBinAddr: 0x100043BE0, symSize: 0x130 }
  - { offset: 0x91EBB, size: 0x8, addend: 0x0, symName: '__ZN5gimli4read8rnglists20RngListIter$LT$R$GT$4next17h8b60fae141bf2d6cE', symObjAddr: 0x4DCC0, symBinAddr: 0x100043FB0, symSize: 0xFC0 }
  - { offset: 0x94583, size: 0x8, addend: 0x0, symName: '__ZN5gimli4read5index18UnitIndex$LT$R$GT$5parse17h95a74f9af645c1edE', symObjAddr: 0x4CF00, symBinAddr: 0x1000431F0, symSize: 0x890 }
  - { offset: 0x945A0, size: 0x8, addend: 0x0, symName: '__ZN5gimli4read5index18UnitIndex$LT$R$GT$5parse17h95a74f9af645c1edE', symObjAddr: 0x4CF00, symBinAddr: 0x1000431F0, symSize: 0x890 }
  - { offset: 0x945B4, size: 0x8, addend: 0x0, symName: '__ZN5gimli4read5index18UnitIndex$LT$R$GT$5parse17h95a74f9af645c1edE', symObjAddr: 0x4CF00, symBinAddr: 0x1000431F0, symSize: 0x890 }
  - { offset: 0x94C79, size: 0x8, addend: 0x0, symName: '__ZN5gimli4read4line27FileEntry$LT$R$C$Offset$GT$5parse17hd9bc2270faf33decE', symObjAddr: 0x46FF0, symBinAddr: 0x10003D2E0, symSize: 0x260 }
  - { offset: 0x94EC5, size: 0x8, addend: 0x0, symName: __ZN5gimli4read4line13parse_file_v517hd02b9988ac8f9c5bE, symObjAddr: 0x45D10, symBinAddr: 0x10003C000, symSize: 0x350 }
  - { offset: 0x9503E, size: 0x8, addend: 0x0, symName: __ZN5gimli4read4line15FileEntryFormat5parse17h2a60ff0d29a79605E, symObjAddr: 0x46060, symBinAddr: 0x10003C350, symSize: 0x3B0 }
  - { offset: 0x957D8, size: 0x8, addend: 0x0, symName: __ZN5gimli4read4line15parse_attribute17h7d59469e6c7378d7E, symObjAddr: 0x46410, symBinAddr: 0x10003C700, symSize: 0xAD0 }
  - { offset: 0x971DD, size: 0x8, addend: 0x0, symName: __ZN5gimli4read4line18parse_directory_v517hb56c57b85d13b5daE, symObjAddr: 0x46EE0, symBinAddr: 0x10003D1D0, symSize: 0x110 }
  - { offset: 0x97491, size: 0x8, addend: 0x0, symName: __RNvCskdKJRKLKjqM_7___rustc18___rust_start_panic, symObjAddr: 0x0, symBinAddr: 0x10004ABA0, symSize: 0xB0 }
  - { offset: 0x9756C, size: 0x8, addend: 0x0, symName: __ZN12panic_unwind3imp5panic17exception_cleanup17hb98a4cfa7a07ae95E, symObjAddr: 0x100, symBinAddr: 0x10004ACA0, symSize: 0x20 }
  - { offset: 0x97588, size: 0x8, addend: 0x0, symName: __RNvCskdKJRKLKjqM_7___rustc18___rust_start_panic, symObjAddr: 0x0, symBinAddr: 0x10004ABA0, symSize: 0xB0 }
  - { offset: 0x97612, size: 0x8, addend: 0x0, symName: __RNvCskdKJRKLKjqM_7___rustc20___rust_panic_cleanup, symObjAddr: 0xB0, symBinAddr: 0x10004AC50, symSize: 0x50 }
  - { offset: 0x976B5, size: 0x8, addend: 0x0, symName: '__ZN4core3ptr49drop_in_place$LT$panic_unwind..imp..Exception$GT$17h0f7b2fc4f2fea7f1E', symObjAddr: 0x120, symBinAddr: 0x10004ACC0, symSize: 0x70 }
  - { offset: 0x977BC, size: 0x8, addend: 0x0, symName: '__ZN4core3ptr74drop_in_place$LT$alloc..boxed..Box$LT$panic_unwind..imp..Exception$GT$$GT$17hcd43110ac76b9736E', symObjAddr: 0x190, symBinAddr: 0x10004AD30, symSize: 0x89 }
  - { offset: 0x97C06, size: 0x8, addend: 0x0, symName: __ZN6memchr4arch6x86_646memchr10memchr_raw6detect17h2099730146b20b08E, symObjAddr: 0xF90, symBinAddr: 0x10004B0E0, symSize: 0x1C0 }
  - { offset: 0x981BB, size: 0x8, addend: 0x0, symName: __ZN6memchr4arch6x86_646memchr10memchr_raw9find_sse217ha1fdf339af5e94d5E, symObjAddr: 0x1150, symBinAddr: 0x10004B2A0, symSize: 0x1B0 }
  - { offset: 0x98746, size: 0x8, addend: 0x0, symName: __ZN6memchr4arch6x86_646memchr11memchr2_raw6detect17h84a70ada683e86a1E, symObjAddr: 0x1300, symBinAddr: 0x10004B450, symSize: 0x1A0 }
  - { offset: 0x98DD9, size: 0x8, addend: 0x0, symName: __ZN6memchr4arch6x86_646memchr11memchr2_raw9find_sse217hc70ae4e2a27bbbefE, symObjAddr: 0x14A0, symBinAddr: 0x10004B5F0, symSize: 0x1A0 }
  - { offset: 0x9963D, size: 0x8, addend: 0x0, symName: '__ZN69_$LT$core..alloc..layout..LayoutError$u20$as$u20$core..fmt..Debug$GT$3fmt17hb904d59a11340822E', symObjAddr: 0x57F0, symBinAddr: 0x1000530E0, symSize: 0x20 }
  - { offset: 0x998C6, size: 0x8, addend: 0x0, symName: __ZN5alloc5alloc18handle_alloc_error17h3762db9dd870b9a9E, symObjAddr: 0x35BA, symBinAddr: 0x10005CE7A, symSize: 0x16 }
  - { offset: 0x99B63, size: 0x8, addend: 0x0, symName: __ZN5alloc7raw_vec11finish_grow17h3ef34721aec5e3b7E, symObjAddr: 0x52C0, symBinAddr: 0x10005CE90, symSize: 0x6E }
  - { offset: 0x99BD8, size: 0x8, addend: 0x0, symName: __ZN5alloc7raw_vec12handle_error17h937a4fa340d4a4b8E, symObjAddr: 0x532E, symBinAddr: 0x10005CEFE, symSize: 0x22 }
  - { offset: 0x99C17, size: 0x8, addend: 0x0, symName: __ZN5alloc7raw_vec17capacity_overflow17hfafd9746150329d6E, symObjAddr: 0x5350, symBinAddr: 0x10005CF20, symSize: 0x40 }
  - { offset: 0x99C50, size: 0x8, addend: 0x0, symName: '__ZN5alloc7raw_vec20RawVecInner$LT$A$GT$7reserve21do_reserve_and_handle17h05c0f4d79cdd84bfE', symObjAddr: 0x5430, symBinAddr: 0x10005CF60, symSize: 0xB0 }
  - { offset: 0x99DDC, size: 0x8, addend: 0x0, symName: '__ZN254_$LT$alloc..boxed..convert..$LT$impl$u20$core..convert..From$LT$alloc..string..String$GT$$u20$for$u20$alloc..boxed..Box$LT$dyn$u20$core..error..Error$u2b$core..marker..Sync$u2b$core..marker..Send$GT$$GT$..from..StringError$u20$as$u20$core..fmt..Debug$GT$3fmt17hcf569323b84bf267E', symObjAddr: 0x140, symBinAddr: 0x100052C80, symSize: 0x20 }
  - { offset: 0x99EAD, size: 0x8, addend: 0x0, symName: '__ZN256_$LT$alloc..boxed..convert..$LT$impl$u20$core..convert..From$LT$alloc..string..String$GT$$u20$for$u20$alloc..boxed..Box$LT$dyn$u20$core..error..Error$u2b$core..marker..Sync$u2b$core..marker..Send$GT$$GT$..from..StringError$u20$as$u20$core..fmt..Display$GT$3fmt17h1b1a69dfec465030E', symObjAddr: 0x160, symBinAddr: 0x100052CA0, symSize: 0x20 }
  - { offset: 0x99FA0, size: 0x8, addend: 0x0, symName: '__ZN100_$LT$alloc..ffi..c_str..CString$u20$as$u20$core..convert..From$LT$$RF$core..ffi..c_str..CStr$GT$$GT$4from17hc090e98bd546633bE', symObjAddr: 0xC0, symBinAddr: 0x100052C00, symSize: 0x80 }
  - { offset: 0x9A110, size: 0x8, addend: 0x0, symName: __ZN5alloc3ffi5c_str7CString19_from_vec_unchecked17ha526334e500b1abdE, symObjAddr: 0xC50, symBinAddr: 0x100052CC0, symSize: 0x120 }
  - { offset: 0x9A460, size: 0x8, addend: 0x0, symName: __ZN5alloc3ffi5c_str7CString8from_raw17h143e54ce9e8a4932E, symObjAddr: 0xE20, symBinAddr: 0x100052DE0, symSize: 0x20 }
  - { offset: 0x9A499, size: 0x8, addend: 0x0, symName: '__ZN72_$LT$$RF$str$u20$as$u20$alloc..ffi..c_str..CString..new..SpecNewImpl$GT$13spec_new_impl17h86c6e2e3ca147532E', symObjAddr: 0x5810, symBinAddr: 0x100053100, symSize: 0x120 }
  - { offset: 0x9A8AF, size: 0x8, addend: 0x0, symName: __ZN5alloc6string6String15from_utf8_lossy17h0471d885b3e9b3ebE, symObjAddr: 0x4790, symBinAddr: 0x100052E70, symSize: 0x270 }
  - { offset: 0x9AF5B, size: 0x8, addend: 0x0, symName: '__ZN98_$LT$alloc..string..String$u20$as$u20$core..convert..From$LT$alloc..borrow..Cow$LT$str$GT$$GT$$GT$4from17h1463175ae5508b78E', symObjAddr: 0x61F0, symBinAddr: 0x100053220, symSize: 0xAB }
  - { offset: 0x9B15B, size: 0x8, addend: 0x0, symName: __ZN5alloc4sync32arcinner_layout_for_value_layout17h6aceeaaa01c07cfaE, symObjAddr: 0x2690, symBinAddr: 0x100052E00, symSize: 0x70 }
  - { offset: 0x9B172, size: 0x8, addend: 0x0, symName: __ZN5alloc4sync32arcinner_layout_for_value_layout17h6aceeaaa01c07cfaE, symObjAddr: 0x2690, symBinAddr: 0x100052E00, symSize: 0x70 }
  - { offset: 0x9B187, size: 0x8, addend: 0x0, symName: __ZN5alloc4sync32arcinner_layout_for_value_layout17h6aceeaaa01c07cfaE, symObjAddr: 0x2690, symBinAddr: 0x100052E00, symSize: 0x70 }
  - { offset: 0x9B2B0, size: 0x8, addend: 0x0, symName: '__ZN71_$LT$core..ops..range..Range$LT$Idx$GT$$u20$as$u20$core..fmt..Debug$GT$3fmt17hc330239f60cc9eb3E', symObjAddr: 0x1F4B0, symBinAddr: 0x100057C20, symSize: 0x50 }
  - { offset: 0x9B564, size: 0x8, addend: 0x0, symName: '__ZN4core4char7methods22_$LT$impl$u20$char$GT$16escape_debug_ext17hb449749641e3affeE', symObjAddr: 0x176B0, symBinAddr: 0x100056C00, symSize: 0x2D0 }
  - { offset: 0x9B778, size: 0x8, addend: 0x0, symName: __ZN4core4char7methods15encode_utf8_raw8do_panic7runtime17hb720cf973e12fcdfE, symObjAddr: 0x17590, symBinAddr: 0x10005D100, symSize: 0x90 }
  - { offset: 0x9B964, size: 0x8, addend: 0x0, symName: __ZN4core3num22from_ascii_radix_panic8do_panic7runtime17hf55c31c541c87b43E, symObjAddr: 0xD980, symBinAddr: 0x10005D020, symSize: 0x60 }
  - { offset: 0x9B997, size: 0x8, addend: 0x0, symName: __ZN4core3num22from_ascii_radix_panic17h56065ab58d046821E, symObjAddr: 0xD970, symBinAddr: 0x10005D010, symSize: 0x10 }
  - { offset: 0x9BC56, size: 0x8, addend: 0x0, symName: __ZN4core6option13expect_failed17h1ec281f12b35982eE, symObjAddr: 0x18040, symBinAddr: 0x10005D370, symSize: 0x60 }
  - { offset: 0x9BC9E, size: 0x8, addend: 0x0, symName: __ZN4core6option13unwrap_failed17hd0abc7d118070f58E, symObjAddr: 0x180A0, symBinAddr: 0x10005D3D0, symSize: 0x20 }
  - { offset: 0x9C1D5, size: 0x8, addend: 0x0, symName: __ZN4core5slice5index16slice_index_fail8do_panic7runtime17h41282b038f05ddfaE, symObjAddr: 0x17D00, symBinAddr: 0x10005D220, symSize: 0x70 }
  - { offset: 0x9C206, size: 0x8, addend: 0x0, symName: __ZN4core5slice5index16slice_index_fail8do_panic7runtime17haaf49c781c78a5c0E, symObjAddr: 0x17D70, symBinAddr: 0x10005D290, symSize: 0x70 }
  - { offset: 0x9C237, size: 0x8, addend: 0x0, symName: __ZN4core5slice5index16slice_index_fail8do_panic7runtime17hae4da62edc07a39fE, symObjAddr: 0x17DE0, symBinAddr: 0x10005D300, symSize: 0x70 }
  - { offset: 0x9C26A, size: 0x8, addend: 0x0, symName: __ZN4core5slice5index16slice_index_fail17h1a065c4e1a1e0b41E, symObjAddr: 0x17CC0, symBinAddr: 0x10005D1E0, symSize: 0x40 }
  - { offset: 0x9C316, size: 0x8, addend: 0x0, symName: __ZN4core5slice6memchr14memchr_aligned17hbe324882bd8e8f20E, symObjAddr: 0x17E50, symBinAddr: 0x100056F30, symSize: 0xE0 }
  - { offset: 0x9C410, size: 0x8, addend: 0x0, symName: __ZN4core5slice6memchr7memrchr17h3060eb51c807ecd7E, symObjAddr: 0x17F30, symBinAddr: 0x100057010, symSize: 0x110 }
  - { offset: 0x9C600, size: 0x8, addend: 0x0, symName: __ZN4core5slice4sort6shared9smallsort22panic_on_ord_violation17hd9a4c3c4a8ebe09aE, symObjAddr: 0x17BA0, symBinAddr: 0x10005D190, symSize: 0x50 }
  - { offset: 0x9C63D, size: 0x8, addend: 0x0, symName: __ZN4core5slice4sort6stable5drift11sqrt_approx17h5b54c8126d8482dbE, symObjAddr: 0x17BF0, symBinAddr: 0x100056F00, symSize: 0x30 }
  - { offset: 0x9C732, size: 0x8, addend: 0x0, symName: __ZN4core3fmt9Formatter10debug_list17h9d2456a350d67ad8E, symObjAddr: 0xA1C0, symBinAddr: 0x100054BA0, symSize: 0x40 }
  - { offset: 0x9C772, size: 0x8, addend: 0x0, symName: __ZN4core3fmt9Formatter11debug_tuple17hdcc53271f394ac41E, symObjAddr: 0xA200, symBinAddr: 0x100054BE0, symSize: 0x50 }
  - { offset: 0x9C7C7, size: 0x8, addend: 0x0, symName: __ZN4core3fmt9Formatter12debug_struct17h8c9b9889fabaa42eE, symObjAddr: 0xA250, symBinAddr: 0x100054C30, symSize: 0x40 }
  - { offset: 0x9C830, size: 0x8, addend: 0x0, symName: __ZN4core3fmt9Formatter12pad_integral17h5b6fb6906b7fe010E, symObjAddr: 0xA2F0, symBinAddr: 0x100054CD0, symSize: 0x4A0 }
  - { offset: 0x9CABF, size: 0x8, addend: 0x0, symName: __ZN4core3fmt9Formatter25debug_tuple_field1_finish17hc108d765633dc1f9E, symObjAddr: 0xACB0, symBinAddr: 0x100055170, symSize: 0x140 }
  - { offset: 0x9CCC7, size: 0x8, addend: 0x0, symName: __ZN4core3fmt9Formatter25debug_tuple_field2_finish17h3020954311064adeE, symObjAddr: 0xADF0, symBinAddr: 0x1000552B0, symSize: 0x1A0 }
  - { offset: 0x9CFBF, size: 0x8, addend: 0x0, symName: __ZN4core3fmt9Formatter26debug_struct_field1_finish17h161bc6caec1550cdE, symObjAddr: 0xBA70, symBinAddr: 0x100055450, symSize: 0xB0 }
  - { offset: 0x9D096, size: 0x8, addend: 0x0, symName: __ZN4core3fmt9Formatter26debug_struct_field2_finish17h9392189e9ab00f59E, symObjAddr: 0xBB20, symBinAddr: 0x100055500, symSize: 0xD0 }
  - { offset: 0x9D16D, size: 0x8, addend: 0x0, symName: __ZN4core3fmt9Formatter3pad17h37b5dfd85e2b0428E, symObjAddr: 0xC000, symBinAddr: 0x1000555D0, symSize: 0x3D0 }
  - { offset: 0x9D3DF, size: 0x8, addend: 0x0, symName: __ZN4core3fmt9Formatter9write_str17h532155584af4b419E, symObjAddr: 0xC460, symBinAddr: 0x1000559A0, symSize: 0x20 }
  - { offset: 0x9D44F, size: 0x8, addend: 0x0, symName: __ZN4core3fmt8builders11DebugStruct5field17h99bfe0cd343e038aE, symObjAddr: 0x97F0, symBinAddr: 0x100054850, symSize: 0x190 }
  - { offset: 0x9D663, size: 0x8, addend: 0x0, symName: __ZN4core3fmt8builders11DebugStruct6finish17h759eca09f088587cE, symObjAddr: 0x9980, symBinAddr: 0x1000549E0, symSize: 0x60 }
  - { offset: 0x9D78B, size: 0x8, addend: 0x0, symName: __ZN4core3fmt8builders10DebugTuple5field17hcff3261d35d211e6E, symObjAddr: 0x9550, symBinAddr: 0x100054690, symSize: 0x130 }
  - { offset: 0x9D8F9, size: 0x8, addend: 0x0, symName: __ZN4core3fmt8builders10DebugTuple6finish17hee865a46ed84494bE, symObjAddr: 0x9680, symBinAddr: 0x1000547C0, symSize: 0x90 }
  - { offset: 0x9DA34, size: 0x8, addend: 0x0, symName: __ZN4core3fmt8builders8DebugSet5entry17h9ad4bd41e6760f90E, symObjAddr: 0x9F60, symBinAddr: 0x100054A40, symSize: 0x120 }
  - { offset: 0x9DC15, size: 0x8, addend: 0x0, symName: __ZN4core3fmt8builders9DebugList6finish17he5544af857123449E, symObjAddr: 0xA180, symBinAddr: 0x100054B60, symSize: 0x40 }
  - { offset: 0x9DC92, size: 0x8, addend: 0x0, symName: '__ZN68_$LT$core..fmt..builders..PadAdapter$u20$as$u20$core..fmt..Write$GT$10write_char17h8781eb8fef702588E', symObjAddr: 0x1E270, symBinAddr: 0x100057940, symSize: 0x60 }
  - { offset: 0x9DCBB, size: 0x8, addend: 0x0, symName: '__ZN68_$LT$core..fmt..builders..PadAdapter$u20$as$u20$core..fmt..Write$GT$9write_str17h3ac9bf90fc6b2989E', symObjAddr: 0x1E2D0, symBinAddr: 0x1000579A0, symSize: 0x280 }
  - { offset: 0x9DF1D, size: 0x8, addend: 0x0, symName: '__ZN57_$LT$core..fmt..Formatter$u20$as$u20$core..fmt..Write$GT$10write_char17h4978b0c667a9d8b0E', symObjAddr: 0x1A5E0, symBinAddr: 0x1000574B0, symSize: 0x20 }
  - { offset: 0x9DF59, size: 0x8, addend: 0x0, symName: '__ZN40_$LT$str$u20$as$u20$core..fmt..Debug$GT$3fmt17h3cbb4b7bcf7be3d7E', symObjAddr: 0x240, symBinAddr: 0x1000532D0, symSize: 0x3A0 }
  - { offset: 0x9E3BC, size: 0x8, addend: 0x0, symName: '__ZN41_$LT$char$u20$as$u20$core..fmt..Debug$GT$3fmt17h4e11ed1b5452e387E', symObjAddr: 0x5E0, symBinAddr: 0x100053670, symSize: 0xA0 }
  - { offset: 0x9E4E5, size: 0x8, addend: 0x0, symName: '__ZN42_$LT$$RF$T$u20$as$u20$core..fmt..Debug$GT$3fmt17h0f40b67a922b1ec5E', symObjAddr: 0x680, symBinAddr: 0x100053710, symSize: 0x10 }
  - { offset: 0x9E500, size: 0x8, addend: 0x0, symName: '__ZN42_$LT$$RF$T$u20$as$u20$core..fmt..Debug$GT$3fmt17h7680cd2a2d1e04fdE', symObjAddr: 0x6B0, symBinAddr: 0x100053720, symSize: 0x20 }
  - { offset: 0x9E522, size: 0x8, addend: 0x0, symName: '__ZN42_$LT$$RF$T$u20$as$u20$core..fmt..Debug$GT$3fmt17he2aa20ce460ddad7E', symObjAddr: 0x860, symBinAddr: 0x100053740, symSize: 0x10 }
  - { offset: 0x9E54A, size: 0x8, addend: 0x0, symName: '__ZN42_$LT$str$u20$as$u20$core..fmt..Display$GT$3fmt17h83ec9ba80990d67aE', symObjAddr: 0x870, symBinAddr: 0x100053750, symSize: 0x20 }
  - { offset: 0x9E572, size: 0x8, addend: 0x0, symName: '__ZN43_$LT$char$u20$as$u20$core..fmt..Display$GT$3fmt17ha887c9494bff9603E', symObjAddr: 0x8D0, symBinAddr: 0x100053770, symSize: 0xC0 }
  - { offset: 0x9E5E1, size: 0x8, addend: 0x0, symName: '__ZN44_$LT$$RF$T$u20$as$u20$core..fmt..Display$GT$3fmt17h1fb02a4f1d7d14b9E', symObjAddr: 0x990, symBinAddr: 0x100053830, symSize: 0x20 }
  - { offset: 0x9E6B5, size: 0x8, addend: 0x0, symName: '__ZN4core3fmt3num3imp51_$LT$impl$u20$core..fmt..Display$u20$for$u20$u8$GT$3fmt17h1a13e7c6295dbb75E', symObjAddr: 0x2630, symBinAddr: 0x100053A10, symSize: 0xA0 }
  - { offset: 0x9E79A, size: 0x8, addend: 0x0, symName: '__ZN4core3fmt3num3imp52_$LT$impl$u20$core..fmt..Display$u20$for$u20$i32$GT$3fmt17h4add2573f547cd42E', symObjAddr: 0x27D0, symBinAddr: 0x100053AB0, symSize: 0x120 }
  - { offset: 0x9E8BA, size: 0x8, addend: 0x0, symName: '__ZN4core3fmt3num3imp52_$LT$impl$u20$core..fmt..Display$u20$for$u20$u32$GT$3fmt17haa57ce01fac3917eE', symObjAddr: 0x2B00, symBinAddr: 0x100053BD0, symSize: 0x110 }
  - { offset: 0x9E9C7, size: 0x8, addend: 0x0, symName: '__ZN4core3fmt3num3imp52_$LT$impl$u20$core..fmt..Display$u20$for$u20$u64$GT$3fmt17h8b8600c70b3a3ac8E', symObjAddr: 0x2C10, symBinAddr: 0x100053CE0, symSize: 0x110 }
  - { offset: 0x9EB02, size: 0x8, addend: 0x0, symName: '__ZN4core3fmt3num52_$LT$impl$u20$core..fmt..LowerHex$u20$for$u20$u8$GT$3fmt17h39a52b6e10cf70aeE', symObjAddr: 0x4AE0, symBinAddr: 0x100054140, symSize: 0x70 }
  - { offset: 0x9EB93, size: 0x8, addend: 0x0, symName: '__ZN4core3fmt3num52_$LT$impl$u20$core..fmt..UpperHex$u20$for$u20$u8$GT$3fmt17h865b83e01c77f87fE', symObjAddr: 0x4BC0, symBinAddr: 0x1000541B0, symSize: 0x70 }
  - { offset: 0x9EC37, size: 0x8, addend: 0x0, symName: '__ZN4core3fmt3num53_$LT$impl$u20$core..fmt..UpperHex$u20$for$u20$u32$GT$3fmt17he24323287b2084c2E', symObjAddr: 0x5170, symBinAddr: 0x100054370, symSize: 0x70 }
  - { offset: 0x9ECC8, size: 0x8, addend: 0x0, symName: '__ZN4core3fmt3num53_$LT$impl$u20$core..fmt..LowerHex$u20$for$u20$u64$GT$3fmt17h3112ef8c0abad7d1E', symObjAddr: 0x4F40, symBinAddr: 0x100054290, symSize: 0x70 }
  - { offset: 0x9ED59, size: 0x8, addend: 0x0, symName: '__ZN4core3fmt3num53_$LT$impl$u20$core..fmt..UpperHex$u20$for$u20$u64$GT$3fmt17hf363a6f2e4cad34eE', symObjAddr: 0x51E0, symBinAddr: 0x1000543E0, symSize: 0x70 }
  - { offset: 0x9EDDD, size: 0x8, addend: 0x0, symName: '__ZN4core3fmt3num50_$LT$impl$u20$core..fmt..Debug$u20$for$u20$u64$GT$3fmt17h376bce9b57b8a762E', symObjAddr: 0x3E60, symBinAddr: 0x100053DF0, symSize: 0x1A0 }
  - { offset: 0x9EF71, size: 0x8, addend: 0x0, symName: '__ZN4core3fmt3num52_$LT$impl$u20$core..fmt..Debug$u20$for$u20$usize$GT$3fmt17h4806199c82f902ceE', symObjAddr: 0x48C0, symBinAddr: 0x100053F90, symSize: 0x1B0 }
  - { offset: 0x9F0F2, size: 0x8, addend: 0x0, symName: '__ZN4core3fmt3num53_$LT$impl$u20$core..fmt..LowerHex$u20$for$u20$i32$GT$3fmt17hfee837de970427b1E', symObjAddr: 0x4D80, symBinAddr: 0x100054220, symSize: 0x70 }
  - { offset: 0x9F198, size: 0x8, addend: 0x0, symName: '__ZN4core3fmt3num53_$LT$impl$u20$core..fmt..UpperHex$u20$for$u20$i32$GT$3fmt17h26acf60f65152f77E', symObjAddr: 0x5020, symBinAddr: 0x100054300, symSize: 0x70 }
  - { offset: 0x9F3B9, size: 0x8, addend: 0x0, symName: __ZN4core3fmt17pointer_fmt_inner17h97023b135e02a0e7E, symObjAddr: 0x1240, symBinAddr: 0x100053970, symSize: 0xA0 }
  - { offset: 0x9F4AA, size: 0x8, addend: 0x0, symName: __ZN4core3fmt5Write9write_fmt17h852655db2bea3a71E, symObjAddr: 0x6270, symBinAddr: 0x100054450, symSize: 0x20 }
  - { offset: 0x9F529, size: 0x8, addend: 0x0, symName: __ZN4core3fmt5write17h32d512c5550f2c71E, symObjAddr: 0x9280, symBinAddr: 0x100054470, symSize: 0x220 }
  - { offset: 0x9F6D7, size: 0x8, addend: 0x0, symName: __ZN4core3fmt9Formatter12pad_integral12write_prefix17he3bb54c358307d3fE, symObjAddr: 0xA290, symBinAddr: 0x100054C70, symSize: 0x60 }
  - { offset: 0x9F73F, size: 0x8, addend: 0x0, symName: '__ZN59_$LT$core..fmt..Arguments$u20$as$u20$core..fmt..Display$GT$3fmt17hfd1b80e04662b19aE', symObjAddr: 0x1B480, symBinAddr: 0x1000574D0, symSize: 0x20 }
  - { offset: 0x9F862, size: 0x8, addend: 0x0, symName: __ZN4core6result13unwrap_failed17h5b5681f5bd639151E, symObjAddr: 0x180C0, symBinAddr: 0x10005D3F0, symSize: 0x80 }
  - { offset: 0x9FAF0, size: 0x8, addend: 0x0, symName: __ZN4core3str5count14do_count_chars17hc493e781e0338f55E, symObjAddr: 0x16370, symBinAddr: 0x100055D60, symSize: 0x5A0 }
  - { offset: 0x9FF38, size: 0x8, addend: 0x0, symName: __ZN4core3str5count23char_count_general_case17h45b75eff409d0732E, symObjAddr: 0x16910, symBinAddr: 0x100056300, symSize: 0xB0 }
  - { offset: 0x9FF8C, size: 0x8, addend: 0x0, symName: __ZN4core3str5count23char_count_general_case17h45b75eff409d0732E, symObjAddr: 0x16910, symBinAddr: 0x100056300, symSize: 0xB0 }
  - { offset: 0xA0009, size: 0x8, addend: 0x0, symName: __ZN4core3str16slice_error_fail17h7ebf3d4aa8bf503fE, symObjAddr: 0x15DF0, symBinAddr: 0x10005D080, symSize: 0x10 }
  - { offset: 0xA0023, size: 0x8, addend: 0x0, symName: __ZN4core3str19slice_error_fail_rt17hfa55243860877ddbE, symObjAddr: 0x15E40, symBinAddr: 0x1000559C0, symSize: 0x3A0 }
  - { offset: 0xA020A, size: 0x8, addend: 0x0, symName: __ZN4core3str7pattern11StrSearcher3new17hfab9aab88f91478aE, symObjAddr: 0x16A00, symBinAddr: 0x1000563B0, symSize: 0x640 }
  - { offset: 0xA04CA, size: 0x8, addend: 0x0, symName: __ZN4core3str8converts9from_utf817hab685de2f5c40023E, symObjAddr: 0x17250, symBinAddr: 0x1000569F0, symSize: 0x210 }
  - { offset: 0xA0525, size: 0x8, addend: 0x0, symName: '__ZN60_$LT$core..str..lossy..Debug$u20$as$u20$core..fmt..Debug$GT$3fmt17h0efb8d0ae8c168dfE', symObjAddr: 0x1BBD0, symBinAddr: 0x1000574F0, symSize: 0x430 }
  - { offset: 0xA08C6, size: 0x8, addend: 0x0, symName: '__ZN87_$LT$core..str..lossy..Utf8Chunks$u20$as$u20$core..iter..traits..iterator..Iterator$GT$4next17hc6bf0146e235ca7cE', symObjAddr: 0x217F0, symBinAddr: 0x100057C70, symSize: 0x1A0 }
  - { offset: 0xA0ADA, size: 0x8, addend: 0x0, symName: __ZN4core3ffi5c_str4CStr19from_bytes_with_nul17h663354f457718412E, symObjAddr: 0xFF0, symBinAddr: 0x100053850, symSize: 0x120 }
  - { offset: 0xA0BF0, size: 0x8, addend: 0x0, symName: __ZN4core4cell22panic_already_borrowed8do_panic7runtime17hb02334c284ba6668E, symObjAddr: 0x17470, symBinAddr: 0x10005D0A0, symSize: 0x60 }
  - { offset: 0xA0C23, size: 0x8, addend: 0x0, symName: __ZN4core4cell22panic_already_borrowed17h380a7ae12b05c21bE, symObjAddr: 0x17460, symBinAddr: 0x10005D090, symSize: 0x10 }
  - { offset: 0xA0C58, size: 0x8, addend: 0x0, symName: '__ZN65_$LT$core..cell..BorrowMutError$u20$as$u20$core..fmt..Display$GT$3fmt17hbdc0278247eb0cacE', symObjAddr: 0x1C610, symBinAddr: 0x100057920, symSize: 0x20 }
  - { offset: 0xA0CA8, size: 0x8, addend: 0x0, symName: __ZN4core7unicode12unicode_data15grapheme_extend11lookup_slow17hdcf8fe3bcaa288d6E, symObjAddr: 0x185E0, symBinAddr: 0x100057120, symSize: 0x100 }
  - { offset: 0xA0EC3, size: 0x8, addend: 0x0, symName: __ZN4core7unicode9printable12is_printable17hc67588a861ee36a9E, symObjAddr: 0x18AB0, symBinAddr: 0x100057220, symSize: 0x290 }
  - { offset: 0xA11F4, size: 0x8, addend: 0x0, symName: __ZN4core5alloc6layout6Layout19is_size_align_valid17h9b309ba4c67ddf6eE, symObjAddr: 0x17A30, symBinAddr: 0x100056ED0, symSize: 0x30 }
  - { offset: 0xA123E, size: 0x8, addend: 0x0, symName: __ZN4core9panicking11panic_const23panic_const_div_by_zero17h1817bf4a5c63dcf1E, symObjAddr: 0x18D40, symBinAddr: 0x10005D470, symSize: 0x40 }
  - { offset: 0xA126D, size: 0x8, addend: 0x0, symName: __ZN4core9panicking11panic_const23panic_const_rem_by_zero17h66d921d73263a198E, symObjAddr: 0x18DC0, symBinAddr: 0x10005D4B0, symSize: 0x40 }
  - { offset: 0xA129D, size: 0x8, addend: 0x0, symName: __ZN4core9panicking13assert_failed17haff998095acd4f8eE, symObjAddr: 0x192EE, symBinAddr: 0x10005D4FE, symSize: 0x2F }
  - { offset: 0xA12B8, size: 0x8, addend: 0x0, symName: __ZN4core9panicking13assert_failed17hf790c8989ead8b5cE, symObjAddr: 0x1931D, symBinAddr: 0x10005D52D, symSize: 0x33 }
  - { offset: 0xA12D3, size: 0x8, addend: 0x0, symName: __ZN4core9panicking14panic_nounwind17h4e71c9dba73fe19eE, symObjAddr: 0x19350, symBinAddr: 0x10005D560, symSize: 0x50 }
  - { offset: 0xA1302, size: 0x8, addend: 0x0, symName: __ZN4core9panicking16panic_in_cleanup17h278dcedb7b834eecE, symObjAddr: 0x19418, symBinAddr: 0x10005D5B8, symSize: 0x13 }
  - { offset: 0xA131D, size: 0x8, addend: 0x0, symName: __ZN4core9panicking18panic_bounds_check17hd6c879668b498650E, symObjAddr: 0x1942B, symBinAddr: 0x10005D5CB, symSize: 0x65 }
  - { offset: 0xA135C, size: 0x8, addend: 0x0, symName: __ZN4core9panicking18panic_nounwind_fmt17h13cf4419fe26bc7eE, symObjAddr: 0x19490, symBinAddr: 0x10005D630, symSize: 0x5B }
  - { offset: 0xA13A1, size: 0x8, addend: 0x0, symName: __ZN4core9panicking19assert_failed_inner17h4305f0dee9388e3cE, symObjAddr: 0x194EB, symBinAddr: 0x10005D68B, symSize: 0x127 }
  - { offset: 0xA13DB, size: 0x8, addend: 0x0, symName: __ZN4core9panicking19panic_cannot_unwind17ha66eab6f79487262E, symObjAddr: 0x19612, symBinAddr: 0x10005D7B2, symSize: 0x1E }
  - { offset: 0xA13F6, size: 0x8, addend: 0x0, symName: __ZN4core9panicking26panic_nounwind_nobacktrace17hb4fbf937932f35e4E, symObjAddr: 0x19630, symBinAddr: 0x10005D7D0, symSize: 0x4D }
  - { offset: 0xA1425, size: 0x8, addend: 0x0, symName: __ZN4core9panicking5panic17hea69a7d4c28c810cE, symObjAddr: 0x19780, symBinAddr: 0x10005D820, symSize: 0x50 }
  - { offset: 0xA1454, size: 0x8, addend: 0x0, symName: __ZN4core9panicking9panic_fmt17h46fb0d6076d2bd77E, symObjAddr: 0x197D0, symBinAddr: 0x10005D870, symSize: 0x20 }
...
