---
triple:          'x86_64-apple-darwin'
binary-path:     '/Users/kema/git/rust-serv/target/debug/deps/libzerovec_derive-3da2e895644b2e3c.dylib'
relocations:
  - { offset: 0x1E, size: 0x8, addend: 0x0, symName: __RNCNvMNtCscG178fYrITo_14zerovec_derive11make_varuleNtB4_13UnsizedFields19maybe_multi_getters0B6_, symObjAddr: 0x0, symBinAddr: 0xBD0, symSize: 0x6B0 }
  - { offset: 0x4D, size: 0x8, addend: 0x0, symName: __RNvNvMs0_NtCscG178fYrITo_14zerovec_derive11make_varuleNtB7_16UnsizedFieldKind3new24PATH_TYPE_GENERICS_ERROR, symObjAddr: 0x13A38, symBinAddr: 0x21A800, symSize: 0x0 }
  - { offset: 0x68, size: 0x8, addend: 0x0, symName: __RNvNvMs0_NtCscG178fYrITo_14zerovec_derive11make_varuleNtB7_16UnsizedFieldKind3new24PATH_TYPE_IDENTITY_ERROR, symObjAddr: 0x13A48, symBinAddr: 0x21A810, symSize: 0x0 }
  - { offset: 0x2B1, size: 0x8, addend: 0x0, symName: __RNCNvMNtCscG178fYrITo_14zerovec_derive11make_varuleNtB4_13UnsizedFields19maybe_multi_getters0B6_, symObjAddr: 0x0, symBinAddr: 0xBD0, symSize: 0x6B0 }
  - { offset: 0x451, size: 0x8, addend: 0x0, symName: __RNCNvMNtCscG178fYrITo_14zerovec_derive11make_varuleNtB4_13UnsizedFields3new0B6_, symObjAddr: 0x6B0, symBinAddr: 0x1280, symSize: 0xE0 }
  - { offset: 0x49E, size: 0x8, addend: 0x0, symName: __RNCNvMNtCscG178fYrITo_14zerovec_derive11make_varuleNtB4_13UnsizedFields6has_zf0B6_, symObjAddr: 0x790, symBinAddr: 0x1360, symSize: 0x40 }
  - { offset: 0x4E5, size: 0x8, addend: 0x0, symName: __RNCNvNtCscG178fYrITo_14zerovec_derive11make_varule16make_encode_impl0B5_, symObjAddr: 0x7D0, symBinAddr: 0x13A0, symSize: 0x960 }
  - { offset: 0x630, size: 0x8, addend: 0x0, symName: __RNCNvNtCscG178fYrITo_14zerovec_derive11make_varule16make_varule_impl0B5_, symObjAddr: 0x1130, symBinAddr: 0x1D00, symSize: 0x20 }
  - { offset: 0x666, size: 0x8, addend: 0x0, symName: __RNCNvNtCscG178fYrITo_14zerovec_derive11make_varule16make_varule_impls_0B5_, symObjAddr: 0x1150, symBinAddr: 0x1D20, symSize: 0xB0 }
  - { offset: 0x6C5, size: 0x8, addend: 0x0, symName: __RNCNvNtCscG178fYrITo_14zerovec_derive11make_varule21make_zf_and_from_impl0B5_, symObjAddr: 0x1200, symBinAddr: 0x1DD0, symSize: 0x250 }
  - { offset: 0x782, size: 0x8, addend: 0x0, symName: __RNcNtNtNtCscG178fYrITo_14zerovec_derive11make_varule16UnsizedFieldKind10VarZeroCow0B7_, symObjAddr: 0x1450, symBinAddr: 0x2020, symSize: 0x20 }
  - { offset: 0x7B2, size: 0x8, addend: 0x0, symName: __RNcNtNtNtCscG178fYrITo_14zerovec_derive11make_varule16UnsizedFieldKind3Cow0B7_, symObjAddr: 0x1470, symBinAddr: 0x2040, symSize: 0x20 }
  - { offset: 0x7E2, size: 0x8, addend: 0x0, symName: __RNcNtNtNtCscG178fYrITo_14zerovec_derive11make_varule16UnsizedFieldKind3Ref0B7_, symObjAddr: 0x1490, symBinAddr: 0x2060, symSize: 0x20 }
  - { offset: 0x812, size: 0x8, addend: 0x0, symName: __RNcNtNtNtCscG178fYrITo_14zerovec_derive11make_varule16UnsizedFieldKind5Boxed0B7_, symObjAddr: 0x14B0, symBinAddr: 0x2080, symSize: 0x20 }
  - { offset: 0x9D8, size: 0x8, addend: 0x0, symName: __RNvNtCscG178fYrITo_14zerovec_derive11make_varule16make_encode_impl, symObjAddr: 0x65D0, symBinAddr: 0x71A0, symSize: 0x21A0 }
  - { offset: 0xE8B, size: 0x8, addend: 0x0, symName: __RNvNtCscG178fYrITo_14zerovec_derive11make_varule16make_varule_impl, symObjAddr: 0x8770, symBinAddr: 0x9340, symSize: 0x78C0 }
  - { offset: 0x1B64, size: 0x8, addend: 0x0, symName: __RNvNtCscG178fYrITo_14zerovec_derive11make_varule21make_zf_and_from_impl, symObjAddr: 0x10030, symBinAddr: 0x10C00, symSize: 0xC60 }
  - { offset: 0x1D70, size: 0x8, addend: 0x0, symName: __RNvXs4_NtCscG178fYrITo_14zerovec_derive11make_varuleNtB5_8OwnULETyNtNtCsieiGu2EXtoJ_4core3fmt5Debug3fmtB7_, symObjAddr: 0x10CB0, symBinAddr: 0x11880, symSize: 0x90 }
  - { offset: 0x1DD1, size: 0x8, addend: 0x0, symName: __RNvXs6_NtCscG178fYrITo_14zerovec_derive11make_varuleNtB5_16UnsizedFieldKindNtNtCsieiGu2EXtoJ_4core3fmt5Debug3fmtB7_, symObjAddr: 0x10D40, symBinAddr: 0x11910, symSize: 0x220 }
  - { offset: 0x1F17, size: 0x8, addend: 0x0, symName: __RNvXs8_NtCscG178fYrITo_14zerovec_derive11make_varuleNtB5_12UnsizedFieldNtNtCsieiGu2EXtoJ_4core3fmt5Debug3fmtB7_, symObjAddr: 0x10F60, symBinAddr: 0x11B30, symSize: 0x90 }
  - { offset: 0x9B70, size: 0x8, addend: 0x0, symName: __RNvMNtCsieiGu2EXtoJ_4core5sliceSNtNtCscG178fYrITo_14zerovec_derive11make_varule12UnsizedField4iterBy_, symObjAddr: 0x4200, symBinAddr: 0x4DD0, symSize: 0x20 }
  - { offset: 0x9BA7, size: 0x8, addend: 0x0, symName: __RNvMNtCsieiGu2EXtoJ_4core5sliceSNtNtCscG178fYrITo_14zerovec_derive11make_varule12UnsizedField5firstBy_, symObjAddr: 0x4220, symBinAddr: 0x4DF0, symSize: 0x40 }
  - { offset: 0x9F6E, size: 0x8, addend: 0x0, symName: __RNvXs19_NtCsieiGu2EXtoJ_4core3fmtRNtNtCscG178fYrITo_14zerovec_derive11make_varule8OwnULETyNtB6_5Debug3fmtBA_, symObjAddr: 0x10C90, symBinAddr: 0x11860, symSize: 0x20 }
  - { offset: 0xB5AE, size: 0x8, addend: 0x0, symName: __RNvMNtCscG178fYrITo_14zerovec_derive11make_varuleNtB2_13UnsizedFields10encode_len, symObjAddr: 0x14D0, symBinAddr: 0x20A0, symSize: 0x6B0 }
  - { offset: 0xB755, size: 0x8, addend: 0x0, symName: __RNvMNtCscG178fYrITo_14zerovec_derive11make_varuleNtB2_13UnsizedFields10varule_vis, symObjAddr: 0x1B80, symBinAddr: 0x2750, symSize: 0x80 }
  - { offset: 0xB778, size: 0x8, addend: 0x0, symName: __RNvMNtCscG178fYrITo_14zerovec_derive11make_varuleNtB2_13UnsizedFields12encode_write, symObjAddr: 0x1C00, symBinAddr: 0x27D0, symSize: 0xD40 }
  - { offset: 0xBA7A, size: 0x8, addend: 0x0, symName: __RNvMNtCscG178fYrITo_14zerovec_derive11make_varuleNtB2_13UnsizedFields13varule_setter, symObjAddr: 0x2940, symBinAddr: 0x3510, symSize: 0x120 }
  - { offset: 0xBACD, size: 0x8, addend: 0x0, symName: __RNvMNtCscG178fYrITo_14zerovec_derive11make_varuleNtB2_13UnsizedFields15push_zf_setters, symObjAddr: 0x2A60, symBinAddr: 0x3630, symSize: 0x8C0 }
  - { offset: 0xBC86, size: 0x8, addend: 0x0, symName: __RNvMNtCscG178fYrITo_14zerovec_derive11make_varuleNtB2_13UnsizedFields15varule_accessor, symObjAddr: 0x3320, symBinAddr: 0x3EF0, symSize: 0x130 }
  - { offset: 0xBCBF, size: 0x8, addend: 0x0, symName: __RNvMNtCscG178fYrITo_14zerovec_derive11make_varuleNtB2_13UnsizedFields16varule_validator, symObjAddr: 0x3450, symBinAddr: 0x4020, symSize: 0x780 }
  - { offset: 0xBE76, size: 0x8, addend: 0x0, symName: __RNvMNtCscG178fYrITo_14zerovec_derive11make_varuleNtB2_13UnsizedFields19maybe_multi_getters, symObjAddr: 0x3BD0, symBinAddr: 0x47A0, symSize: 0x2E0 }
  - { offset: 0xBF6E, size: 0x8, addend: 0x0, symName: __RNvMNtCscG178fYrITo_14zerovec_derive11make_varuleNtB2_13UnsizedFields3new, symObjAddr: 0x3EB0, symBinAddr: 0x4A80, symSize: 0x190 }
  - { offset: 0xBFC2, size: 0x8, addend: 0x0, symName: __RNvMNtCscG178fYrITo_14zerovec_derive11make_varuleNtB2_13UnsizedFields6has_zf, symObjAddr: 0x4040, symBinAddr: 0x4C10, symSize: 0x40 }
  - { offset: 0xBFE5, size: 0x8, addend: 0x0, symName: __RNvMNtCscG178fYrITo_14zerovec_derive11make_varuleNtB2_13UnsizedFields9varule_ty, symObjAddr: 0x4080, symBinAddr: 0x4C50, symSize: 0x180 }
  - { offset: 0xC058, size: 0x8, addend: 0x0, symName: __RNvMs0_NtCscG178fYrITo_14zerovec_derive11make_varuleNtB5_16UnsizedFieldKind13encodeable_ty, symObjAddr: 0x4260, symBinAddr: 0x4E30, symSize: 0x350 }
  - { offset: 0xC122, size: 0x8, addend: 0x0, symName: __RNvMs0_NtCscG178fYrITo_14zerovec_derive11make_varuleNtB5_16UnsizedFieldKind16encodeable_value, symObjAddr: 0x45B0, symBinAddr: 0x5180, symSize: 0x270 }
  - { offset: 0xC1FC, size: 0x8, addend: 0x0, symName: __RNvMs0_NtCscG178fYrITo_14zerovec_derive11make_varuleNtB5_16UnsizedFieldKind3new, symObjAddr: 0x4820, symBinAddr: 0x53F0, symSize: 0xC90 }
  - { offset: 0xC3C3, size: 0x8, addend: 0x0, symName: __RNvMs0_NtCscG178fYrITo_14zerovec_derive11make_varuleNtB5_16UnsizedFieldKind6has_zf, symObjAddr: 0x54B0, symBinAddr: 0x6080, symSize: 0xB0 }
  - { offset: 0xC3E6, size: 0x8, addend: 0x0, symName: __RNvMs0_NtCscG178fYrITo_14zerovec_derive11make_varuleNtB5_16UnsizedFieldKind9varule_ty, symObjAddr: 0x5560, symBinAddr: 0x6130, symSize: 0x400 }
  - { offset: 0xC4D6, size: 0x8, addend: 0x0, symName: __RNvMs1_NtCscG178fYrITo_14zerovec_derive11make_varuleNtB5_8OwnULETy3new, symObjAddr: 0x5960, symBinAddr: 0x6530, symSize: 0x2C0 }
  - { offset: 0xC5B0, size: 0x8, addend: 0x0, symName: __RNvMs1_NtCscG178fYrITo_14zerovec_derive11make_varuleNtB5_8OwnULETy9varule_ty, symObjAddr: 0x5C20, symBinAddr: 0x67F0, symSize: 0x1C0 }
  - { offset: 0xC643, size: 0x8, addend: 0x0, symName: __RNvMs_NtCscG178fYrITo_14zerovec_derive11make_varuleNtB4_12UnsizedField11encode_func, symObjAddr: 0x5DE0, symBinAddr: 0x69B0, symSize: 0x430 }
  - { offset: 0xC73E, size: 0x8, addend: 0x0, symName: __RNvMs_NtCscG178fYrITo_14zerovec_derive11make_varuleNtB4_12UnsizedField17encodeable_tokens, symObjAddr: 0x6210, symBinAddr: 0x6DE0, symSize: 0x1E0 }
  - { offset: 0xC7E4, size: 0x8, addend: 0x0, symName: __RNvMs_NtCscG178fYrITo_14zerovec_derive11make_varuleNtB4_12UnsizedField3new, symObjAddr: 0x63F0, symBinAddr: 0x6FC0, symSize: 0x1E0 }
  - { offset: 0xCC20, size: 0x8, addend: 0x0, symName: __RINvMs6_NtCsjK30CmJ87bX_9hashbrown3rawINtB6_8RawTableThuEE12remove_entryNCINvNtB8_3map14equivalent_keyhhuE0ECscG178fYrITo_14zerovec_derive, symObjAddr: 0x0, symBinAddr: 0x11BC0, symSize: 0x70 }
  - { offset: 0xCC5C, size: 0x8, addend: 0x0, symName: __RNCINvMs6_NtCsjK30CmJ87bX_9hashbrown3rawINtB8_8RawTableThuEE14reserve_rehashNCINvNtBa_3map11make_hasherhuNtNtNtCsHUR1vrdMJt_3std4hash6random11RandomStateE0E0CscG178fYrITo_14zerovec_derive, symObjAddr: 0x1EB0, symBinAddr: 0x12D20, symSize: 0xA0 }
  - { offset: 0xCE28, size: 0x8, addend: 0x0, symName: __RNCINvMs6_NtCsjK30CmJ87bX_9hashbrown3rawINtB8_8RawTableThuEE24find_or_find_insert_slotNCINvNtBa_3map14equivalent_keyhhuE0NCINvB1r_11make_hasherhuNtNtNtCsHUR1vrdMJt_3std4hash6random11RandomStateE0E0CscG178fYrITo_14zerovec_derive, symObjAddr: 0x1F50, symBinAddr: 0x12DC0, symSize: 0xB0 }
  - { offset: 0xD004, size: 0x8, addend: 0x0, symName: __RNCINvMs6_NtCsjK30CmJ87bX_9hashbrown3rawINtB8_8RawTableThuEE4findNCINvNtBa_3map14equivalent_keyhhuE0E0CscG178fYrITo_14zerovec_derive, symObjAddr: 0x2000, symBinAddr: 0x12E70, symSize: 0xB0 }
  - { offset: 0xD9E6, size: 0x8, addend: 0x0, symName: __RNCINvMsa_NtCsjK30CmJ87bX_9hashbrown3rawNtB8_13RawTableInner14prepare_resizeNtNtCslJiobkLta79_5alloc5alloc6GlobalE0CscG178fYrITo_14zerovec_derive, symObjAddr: 0x20B0, symBinAddr: 0x12F20, symSize: 0xD0 }
  - { offset: 0xDBB4, size: 0x8, addend: 0x0, symName: __RNCNvMsa_NtCsjK30CmJ87bX_9hashbrown3rawNtB7_13RawTableInner15rehash_in_place0CscG178fYrITo_14zerovec_derive, symObjAddr: 0x2180, symBinAddr: 0x12FF0, symSize: 0x250 }
  - { offset: 0xE1FE, size: 0x8, addend: 0x0, symName: __RNvNtCsjK30CmJ87bX_9hashbrown3raw19capacity_to_bucketsCscG178fYrITo_14zerovec_derive, symObjAddr: 0x3DC0, symBinAddr: 0x14C30, symSize: 0x280 }
  - { offset: 0xE414, size: 0x8, addend: 0x0, symName: __RNvXsg_NtCsjK30CmJ87bX_9hashbrown3rawINtB5_8RawTableThuEENtNtNtCsieiGu2EXtoJ_4core3ops4drop4Drop4dropCscG178fYrITo_14zerovec_derive, symObjAddr: 0x4040, symBinAddr: 0x14EB0, symSize: 0x30 }
  - { offset: 0x115D9, size: 0x8, addend: 0x0, symName: __RINvMs6_NtCsjK30CmJ87bX_9hashbrown3rawINtB6_8RawTableThuEE12remove_entryNCINvNtB8_3map14equivalent_keyhhuE0ECscG178fYrITo_14zerovec_derive, symObjAddr: 0x0, symBinAddr: 0x11BC0, symSize: 0x70 }
  - { offset: 0x11D17, size: 0x8, addend: 0x0, symName: __RINvMs6_NtCsjK30CmJ87bX_9hashbrown3rawINtB6_8RawTableThuEE14reserve_rehashNCINvNtB8_3map11make_hasherhuNtNtNtCsHUR1vrdMJt_3std4hash6random11RandomStateE0ECscG178fYrITo_14zerovec_derive, symObjAddr: 0x70, symBinAddr: 0x1D1DD0, symSize: 0xD50 }
  - { offset: 0x127EA, size: 0x8, addend: 0x0, symName: __RINvMs6_NtCsjK30CmJ87bX_9hashbrown3rawINtB6_8RawTableThuEE24find_or_find_insert_slotNCINvNtB8_3map14equivalent_keyhhuE0NCINvB1p_11make_hasherhuNtNtNtCsHUR1vrdMJt_3std4hash6random11RandomStateE0ECscG178fYrITo_14zerovec_derive, symObjAddr: 0xDC0, symBinAddr: 0x11C30, symSize: 0x160 }
  - { offset: 0x12CB4, size: 0x8, addend: 0x0, symName: __RINvMs6_NtCsjK30CmJ87bX_9hashbrown3rawINtB6_8RawTableThuEE4findNCINvNtB8_3map14equivalent_keyhhuE0ECscG178fYrITo_14zerovec_derive, symObjAddr: 0xF20, symBinAddr: 0x11D90, symSize: 0x480 }
  - { offset: 0x131CD, size: 0x8, addend: 0x0, symName: __RINvMs6_NtCsjK30CmJ87bX_9hashbrown3rawINtB6_8RawTableThuEE7reserveNCINvNtB8_3map11make_hasherhuNtNtNtCsHUR1vrdMJt_3std4hash6random11RandomStateE0ECscG178fYrITo_14zerovec_derive, symObjAddr: 0x13A0, symBinAddr: 0x12210, symSize: 0xC0 }
  - { offset: 0x13341, size: 0x8, addend: 0x0, symName: __RINvMsa_NtCsjK30CmJ87bX_9hashbrown3rawNtB6_13RawTableInner13drop_elementsThuEECscG178fYrITo_14zerovec_derive, symObjAddr: 0x1460, symBinAddr: 0x122D0, symSize: 0x30 }
  - { offset: 0x13598, size: 0x8, addend: 0x0, symName: __RINvMsa_NtCsjK30CmJ87bX_9hashbrown3rawNtB6_13RawTableInner16drop_inner_tableThuENtNtCslJiobkLta79_5alloc5alloc6GlobalECscG178fYrITo_14zerovec_derive, symObjAddr: 0x1490, symBinAddr: 0x12300, symSize: 0xD0 }
  - { offset: 0x13794, size: 0x8, addend: 0x0, symName: __RINvMsa_NtCsjK30CmJ87bX_9hashbrown3rawNtB6_13RawTableInner17new_uninitializedNtNtCslJiobkLta79_5alloc5alloc6GlobalECscG178fYrITo_14zerovec_derive, symObjAddr: 0x1560, symBinAddr: 0x123D0, symSize: 0x290 }
  - { offset: 0x139E8, size: 0x8, addend: 0x0, symName: __RINvMsa_NtCsjK30CmJ87bX_9hashbrown3rawNtB6_13RawTableInner22fallible_with_capacityNtNtCslJiobkLta79_5alloc5alloc6GlobalECscG178fYrITo_14zerovec_derive, symObjAddr: 0x17F0, symBinAddr: 0x12660, symSize: 0x430 }
  - { offset: 0x13EB1, size: 0x8, addend: 0x0, symName: __RINvMsi_NtCsjK30CmJ87bX_9hashbrown3rawINtB6_12RawIterRangeThuEE9next_implKb0_ECscG178fYrITo_14zerovec_derive, symObjAddr: 0x1C20, symBinAddr: 0x12A90, symSize: 0x290 }
  - { offset: 0x147F0, size: 0x8, addend: 0x0, symName: __RNvMs1_NtCsjK30CmJ87bX_9hashbrown3rawNtB5_11TableLayout20calculate_layout_forCscG178fYrITo_14zerovec_derive, symObjAddr: 0x23D0, symBinAddr: 0x13240, symSize: 0x2F0 }
  - { offset: 0x14B4F, size: 0x8, addend: 0x0, symName: __RNvMs6_NtCsjK30CmJ87bX_9hashbrown3rawINtB5_8RawTableThuEE13erase_no_dropCscG178fYrITo_14zerovec_derive, symObjAddr: 0x26C0, symBinAddr: 0x13530, symSize: 0x70 }
  - { offset: 0x14E8D, size: 0x8, addend: 0x0, symName: __RNvMs6_NtCsjK30CmJ87bX_9hashbrown3rawINtB5_8RawTableThuEE14insert_in_slotCscG178fYrITo_14zerovec_derive, symObjAddr: 0x2730, symBinAddr: 0x135A0, symSize: 0x130 }
  - { offset: 0x1530D, size: 0x8, addend: 0x0, symName: __RNvMs6_NtCsjK30CmJ87bX_9hashbrown3rawINtB5_8RawTableThuEE6removeCscG178fYrITo_14zerovec_derive, symObjAddr: 0x2860, symBinAddr: 0x136D0, symSize: 0xE0 }
  - { offset: 0x1562F, size: 0x8, addend: 0x0, symName: __RNvMsa_NtCsjK30CmJ87bX_9hashbrown3rawNtB5_13RawTableInner15fix_insert_slotCscG178fYrITo_14zerovec_derive, symObjAddr: 0x2940, symBinAddr: 0x137B0, symSize: 0x140 }
  - { offset: 0x159C8, size: 0x8, addend: 0x0, symName: __RNvMsa_NtCsjK30CmJ87bX_9hashbrown3rawNtB5_13RawTableInner15rehash_in_placeCscG178fYrITo_14zerovec_derive, symObjAddr: 0x2A80, symBinAddr: 0x138F0, symSize: 0x5B0 }
  - { offset: 0x16194, size: 0x8, addend: 0x0, symName: __RNvMsa_NtCsjK30CmJ87bX_9hashbrown3rawNtB5_13RawTableInner16find_insert_slotCscG178fYrITo_14zerovec_derive, symObjAddr: 0x3030, symBinAddr: 0x13EA0, symSize: 0x130 }
  - { offset: 0x16393, size: 0x8, addend: 0x0, symName: __RNvMsa_NtCsjK30CmJ87bX_9hashbrown3rawNtB5_13RawTableInner19prepare_insert_slotCscG178fYrITo_14zerovec_derive, symObjAddr: 0x3160, symBinAddr: 0x13FD0, symSize: 0x60 }
  - { offset: 0x16684, size: 0x8, addend: 0x0, symName: __RNvMsa_NtCsjK30CmJ87bX_9hashbrown3rawNtB5_13RawTableInner23prepare_rehash_in_placeCscG178fYrITo_14zerovec_derive, symObjAddr: 0x31C0, symBinAddr: 0x14030, symSize: 0x340 }
  - { offset: 0x16DAB, size: 0x8, addend: 0x0, symName: __RNvMsa_NtCsjK30CmJ87bX_9hashbrown3rawNtB5_13RawTableInner25find_insert_slot_in_groupCscG178fYrITo_14zerovec_derive, symObjAddr: 0x3500, symBinAddr: 0x14370, symSize: 0x160 }
  - { offset: 0x170A9, size: 0x8, addend: 0x0, symName: __RNvMsa_NtCsjK30CmJ87bX_9hashbrown3rawNtB5_13RawTableInner30find_or_find_insert_slot_innerCscG178fYrITo_14zerovec_derive, symObjAddr: 0x3660, symBinAddr: 0x144D0, symSize: 0x410 }
  - { offset: 0x17583, size: 0x8, addend: 0x0, symName: __RNvMsa_NtCsjK30CmJ87bX_9hashbrown3rawNtB5_13RawTableInner5eraseCscG178fYrITo_14zerovec_derive, symObjAddr: 0x3A70, symBinAddr: 0x148E0, symSize: 0x230 }
  - { offset: 0x1791E, size: 0x8, addend: 0x0, symName: __RNvMsi_NtCsjK30CmJ87bX_9hashbrown3rawINtB5_12RawIterRangeThuEE3newCscG178fYrITo_14zerovec_derive, symObjAddr: 0x3CA0, symBinAddr: 0x14B10, symSize: 0x120 }
  - { offset: 0x17BE4, size: 0x8, addend: 0x0, symName: __RINvMs_NtCslJiobkLta79_5alloc3vecINtB5_3VecNtNtCsdGrGZaRBwMb_3syn4attr9AttributeE10retain_mutNCINvB2_6retainNCNvNtCscG178fYrITo_14zerovec_derive5utils22extract_single_tt_attr0E0EB1O_, symObjAddr: 0x0, symBinAddr: 0x14EE0, symSize: 0x160 }
  - { offset: 0x1CADB, size: 0x8, addend: 0x0, symName: __RINvNvMs_NtCslJiobkLta79_5alloc3vecINtB7_3VecppE10retain_mut12process_loopNCINvMs_B7_IBy_NtNtCsdGrGZaRBwMb_3syn4attr9AttributeE6retainNCNvNtCscG178fYrITo_14zerovec_derive5utils22extract_single_tt_attr0E0B1p_NtNtB9_5alloc6GlobalKb0_EB2e_, symObjAddr: 0x1110, symBinAddr: 0x15FF0, symSize: 0xC0 }
  - { offset: 0x1CC2F, size: 0x8, addend: 0x0, symName: __RINvNvMs_NtCslJiobkLta79_5alloc3vecINtB7_3VecppE10retain_mut12process_loopNCINvMs_B7_IBy_NtNtCsdGrGZaRBwMb_3syn4attr9AttributeE6retainNCNvNtCscG178fYrITo_14zerovec_derive5utils22extract_single_tt_attr0E0B1p_NtNtB9_5alloc6GlobalKb1_EB2e_, symObjAddr: 0x11D0, symBinAddr: 0x160B0, symSize: 0x130 }
  - { offset: 0x1CE20, size: 0x8, addend: 0x0, symName: __RINvNvMs_NtCslJiobkLta79_5alloc3vecINtB7_3VecppE10retain_mut12process_loopNCINvMs_B7_IBy_NtNtCsdGrGZaRBwMb_3syn4attr9AttributeE6retainNCNvNtCscG178fYrITo_14zerovec_derive5utils26extract_zerovec_attributes0E0B1p_NtNtB9_5alloc6GlobalKb0_EB2e_, symObjAddr: 0x1300, symBinAddr: 0x161E0, symSize: 0xC0 }
  - { offset: 0x1CF74, size: 0x8, addend: 0x0, symName: __RINvNvMs_NtCslJiobkLta79_5alloc3vecINtB7_3VecppE10retain_mut12process_loopNCINvMs_B7_IBy_NtNtCsdGrGZaRBwMb_3syn4attr9AttributeE6retainNCNvNtCscG178fYrITo_14zerovec_derive5utils26extract_zerovec_attributes0E0B1p_NtNtB9_5alloc6GlobalKb1_EB2e_, symObjAddr: 0x13C0, symBinAddr: 0x162A0, symSize: 0x130 }
  - { offset: 0x1D165, size: 0x8, addend: 0x0, symName: __RINvNvMs_NtCslJiobkLta79_5alloc3vecINtB7_3VecppE10retain_mut12process_loopNCINvMs_B7_IBy_NtNtCsdGrGZaRBwMb_3syn4attr9AttributeE6retainNCNvNtCscG178fYrITo_14zerovec_derive5utils35extract_parenthetical_zerovec_attrs0E0B1p_NtNtB9_5alloc6GlobalKb0_EB2e_, symObjAddr: 0x14F0, symBinAddr: 0x163D0, symSize: 0xC0 }
  - { offset: 0x1D2B9, size: 0x8, addend: 0x0, symName: __RINvNvMs_NtCslJiobkLta79_5alloc3vecINtB7_3VecppE10retain_mut12process_loopNCINvMs_B7_IBy_NtNtCsdGrGZaRBwMb_3syn4attr9AttributeE6retainNCNvNtCscG178fYrITo_14zerovec_derive5utils35extract_parenthetical_zerovec_attrs0E0B1p_NtNtB9_5alloc6GlobalKb1_EB2e_, symObjAddr: 0x15B0, symBinAddr: 0x16490, symSize: 0x130 }
  - { offset: 0x1D4AF, size: 0x8, addend: 0x0, symName: __RNvXNvMs_NtCslJiobkLta79_5alloc3vecINtB7_3VecppE10retain_mutINtB2_15BackshiftOnDropNtNtCsdGrGZaRBwMb_3syn4attr9AttributeNtNtB9_5alloc6GlobalENtNtNtCsieiGu2EXtoJ_4core3ops4drop4Drop4dropCscG178fYrITo_14zerovec_derive, symObjAddr: 0x31C0, symBinAddr: 0x180A0, symSize: 0x190 }
  - { offset: 0x1D72E, size: 0x8, addend: 0x0, symName: __RNCINvMs_NtCslJiobkLta79_5alloc3vecINtB7_3VecNtNtCsdGrGZaRBwMb_3syn4attr9AttributeE6retainNCNvNtCscG178fYrITo_14zerovec_derive5utils22extract_single_tt_attr0E0B1w_, symObjAddr: 0x18B0, symBinAddr: 0x16790, symSize: 0x20 }
  - { offset: 0x1D789, size: 0x8, addend: 0x0, symName: __RNCINvMs_NtCslJiobkLta79_5alloc3vecINtB7_3VecNtNtCsdGrGZaRBwMb_3syn4attr9AttributeE6retainNCNvNtCscG178fYrITo_14zerovec_derive5utils26extract_zerovec_attributes0E0B1w_, symObjAddr: 0x18D0, symBinAddr: 0x167B0, symSize: 0x20 }
  - { offset: 0x1D7E4, size: 0x8, addend: 0x0, symName: __RNCINvMs_NtCslJiobkLta79_5alloc3vecINtB7_3VecNtNtCsdGrGZaRBwMb_3syn4attr9AttributeE6retainNCNvNtCscG178fYrITo_14zerovec_derive5utils35extract_parenthetical_zerovec_attrs0E0B1w_, symObjAddr: 0x18F0, symBinAddr: 0x167D0, symSize: 0x20 }
  - { offset: 0x1D845, size: 0x8, addend: 0x0, symName: __RNvNvMs_NtCslJiobkLta79_5alloc3vecINtB6_3VecppE7set_len18precondition_checkCscG178fYrITo_14zerovec_derive, symObjAddr: 0x25D0, symBinAddr: 0x174B0, symSize: 0xA0 }
  - { offset: 0x1E191, size: 0x8, addend: 0x0, symName: __RINvXsd_NtCslJiobkLta79_5alloc3vecINtB6_3VecNtCsaKzlTDPUHDb_11proc_macro211TokenStreamEINtNtNtNtCsieiGu2EXtoJ_4core4iter6traits7collect12FromIteratorBG_E9from_iterINtNtNtB1u_8adapters3map3MapINtNtNtB1w_5slice4iter4IterNtNtCscG178fYrITo_14zerovec_derive5utils9FieldInfoENCNvNtB3y_11make_varule21make_zf_and_from_impl0EEB3y_, symObjAddr: 0x16E0, symBinAddr: 0x165C0, symSize: 0x60 }
  - { offset: 0x1E1D1, size: 0x8, addend: 0x0, symName: __RINvXsd_NtCslJiobkLta79_5alloc3vecINtB6_3VecNtCsaKzlTDPUHDb_11proc_macro211TokenStreamEINtNtNtNtCsieiGu2EXtoJ_4core4iter6traits7collect12FromIteratorBG_E9from_iterINtNtNtB1u_8adapters3map3MapINtNtNtB1w_5slice4iter4IterNtNtCscG178fYrITo_14zerovec_derive5utils9FieldInfoENCNvNtB3y_3ule15make_ule_fields0EEB3y_, symObjAddr: 0x1740, symBinAddr: 0x16620, symSize: 0x60 }
  - { offset: 0x1E211, size: 0x8, addend: 0x0, symName: __RINvXsd_NtCslJiobkLta79_5alloc3vecINtB6_3VecNtNtCscG178fYrITo_14zerovec_derive5utils9FieldInfoEINtNtNtNtCsieiGu2EXtoJ_4core4iter6traits7collect12FromIteratorBG_E9from_iterINtNtNtB1C_8adapters3map3MapINtNtB2O_9enumerate9EnumerateINtNtB2O_4take4TakeINtNtCsdGrGZaRBwMb_3syn10punctuated4IterNtNtB42_4data5FieldEEENCINvMs0_BI_BG_9make_listB3E_E0EEBK_, symObjAddr: 0x17A0, symBinAddr: 0x16680, symSize: 0x40 }
  - { offset: 0x1E252, size: 0x8, addend: 0x0, symName: __RINvXsd_NtCslJiobkLta79_5alloc3vecINtB6_3VecNtNtCscG178fYrITo_14zerovec_derive5utils9FieldInfoEINtNtNtNtCsieiGu2EXtoJ_4core4iter6traits7collect12FromIteratorBG_E9from_iterINtNtNtB1C_8adapters3map3MapINtNtB2O_9enumerate9EnumerateINtNtCsdGrGZaRBwMb_3syn10punctuated4IterNtNtB3J_4data5FieldEENCINvMs0_BI_BG_9make_listB3E_E0EEBK_, symObjAddr: 0x17E0, symBinAddr: 0x166C0, symSize: 0x40 }
  - { offset: 0x1E293, size: 0x8, addend: 0x0, symName: __RINvXsd_NtCslJiobkLta79_5alloc3vecINtB6_3VecRhEINtNtNtNtCsieiGu2EXtoJ_4core4iter6traits7collect12FromIteratorBG_E9from_iterINtNtNtNtCsHUR1vrdMJt_3std11collections4hash3set4IterhEECscG178fYrITo_14zerovec_derive, symObjAddr: 0x1820, symBinAddr: 0x16700, symSize: 0x40 }
  - { offset: 0x1E2DA, size: 0x8, addend: 0x0, symName: __RINvXsh_NtCslJiobkLta79_5alloc3vecINtB6_3VecNtCsaKzlTDPUHDb_11proc_macro25IdentEINtNtNtNtCsieiGu2EXtoJ_4core4iter6traits7collect6ExtendBG_E6extendINtNtNtB1n_8adapters6cloned6ClonedINtNtCsdGrGZaRBwMb_3syn10punctuated4IterBG_EEECscG178fYrITo_14zerovec_derive, symObjAddr: 0x1860, symBinAddr: 0x16740, symSize: 0x50 }
  - { offset: 0x1E339, size: 0x8, addend: 0x0, symName: __RNCINvMsi_NtCslJiobkLta79_5alloc3vecINtB8_3VecNtCsaKzlTDPUHDb_11proc_macro211TokenStreamE14extend_trustedINtNtNtNtCsieiGu2EXtoJ_4core4iter8adapters3map3MapINtNtNtB1O_5slice4iter4IterNtNtCscG178fYrITo_14zerovec_derive5utils9FieldInfoENCNvNtB2Y_11make_varule21make_zf_and_from_impl0EE0B2Y_, symObjAddr: 0x1910, symBinAddr: 0x167F0, symSize: 0x50 }
  - { offset: 0x1E3F6, size: 0x8, addend: 0x0, symName: __RNCINvMsi_NtCslJiobkLta79_5alloc3vecINtB8_3VecNtCsaKzlTDPUHDb_11proc_macro211TokenStreamE14extend_trustedINtNtNtNtCsieiGu2EXtoJ_4core4iter8adapters3map3MapINtNtNtB1O_5slice4iter4IterNtNtCscG178fYrITo_14zerovec_derive5utils9FieldInfoENCNvNtB2Y_3ule15make_ule_fields0EE0B2Y_, symObjAddr: 0x1960, symBinAddr: 0x16840, symSize: 0x50 }
  - { offset: 0x1E87E, size: 0x8, addend: 0x0, symName: __RNvXNtNtCslJiobkLta79_5alloc3vec11spec_extendINtB4_3VecNtCsaKzlTDPUHDb_11proc_macro25IdentEINtB2_10SpecExtendBR_INtNtNtNtCsieiGu2EXtoJ_4core4iter8adapters6cloned6ClonedINtNtCsdGrGZaRBwMb_3syn10punctuated4IterBR_EEE11spec_extendCscG178fYrITo_14zerovec_derive, symObjAddr: 0x2670, symBinAddr: 0x17550, symSize: 0x20 }
  - { offset: 0x1E8CF, size: 0x8, addend: 0x0, symName: __RNvXNtNtCslJiobkLta79_5alloc3vec11spec_extendINtB4_3VecNtNtCscG178fYrITo_14zerovec_derive5utils9FieldInfoEINtB2_10SpecExtendBR_INtNtNtNtCsieiGu2EXtoJ_4core4iter8adapters3map3MapINtNtB26_9enumerate9EnumerateINtNtB26_4take4TakeINtNtCsdGrGZaRBwMb_3syn10punctuated4IterNtNtB3G_4data5FieldEEENCINvMs0_BT_BR_9make_listB3i_E0EE11spec_extendBV_, symObjAddr: 0x2690, symBinAddr: 0x17570, symSize: 0x20 }
  - { offset: 0x1E921, size: 0x8, addend: 0x0, symName: __RNvXNtNtCslJiobkLta79_5alloc3vec11spec_extendINtB4_3VecNtNtCscG178fYrITo_14zerovec_derive5utils9FieldInfoEINtB2_10SpecExtendBR_INtNtNtNtCsieiGu2EXtoJ_4core4iter8adapters3map3MapINtNtB26_9enumerate9EnumerateINtNtCsdGrGZaRBwMb_3syn10punctuated4IterNtNtB3n_4data5FieldEENCINvMs0_BT_BR_9make_listB3i_E0EE11spec_extendBV_, symObjAddr: 0x26B0, symBinAddr: 0x17590, symSize: 0x20 }
  - { offset: 0x1E973, size: 0x8, addend: 0x0, symName: __RNvXNtNtCslJiobkLta79_5alloc3vec11spec_extendINtB4_3VecRhEINtB2_10SpecExtendBR_INtNtNtNtCsHUR1vrdMJt_3std11collections4hash3set4IterhEE11spec_extendCscG178fYrITo_14zerovec_derive, symObjAddr: 0x26D0, symBinAddr: 0x175B0, symSize: 0x20 }
  - { offset: 0x1E9CB, size: 0x8, addend: 0x0, symName: __RNvXs_NtNtCslJiobkLta79_5alloc3vec11spec_extendINtB6_3VecNtCsaKzlTDPUHDb_11proc_macro211TokenStreamEINtB4_10SpecExtendBT_INtNtNtNtCsieiGu2EXtoJ_4core4iter8adapters3map3MapINtNtNtB24_5slice4iter4IterNtNtCscG178fYrITo_14zerovec_derive5utils9FieldInfoENCNvNtB3e_11make_varule21make_zf_and_from_impl0EE11spec_extendB3e_, symObjAddr: 0x3420, symBinAddr: 0x18300, symSize: 0x20 }
  - { offset: 0x1EA1C, size: 0x8, addend: 0x0, symName: __RNvXs_NtNtCslJiobkLta79_5alloc3vec11spec_extendINtB6_3VecNtCsaKzlTDPUHDb_11proc_macro211TokenStreamEINtB4_10SpecExtendBT_INtNtNtNtCsieiGu2EXtoJ_4core4iter8adapters3map3MapINtNtNtB24_5slice4iter4IterNtNtCscG178fYrITo_14zerovec_derive5utils9FieldInfoENCNvNtB3e_3ule15make_ule_fields0EE11spec_extendB3e_, symObjAddr: 0x3440, symBinAddr: 0x18320, symSize: 0x20 }
  - { offset: 0x1EA79, size: 0x8, addend: 0x0, symName: __RNvXNtNtCslJiobkLta79_5alloc3vec14spec_from_iterINtB4_3VecNtCsaKzlTDPUHDb_11proc_macro211TokenStreamEINtB2_12SpecFromIterBU_INtNtNtNtCsieiGu2EXtoJ_4core4iter8adapters3map3MapINtNtNtB27_5slice4iter4IterNtNtCscG178fYrITo_14zerovec_derive5utils9FieldInfoENCNvNtB3h_11make_varule21make_zf_and_from_impl0EE9from_iterB3h_, symObjAddr: 0x26F0, symBinAddr: 0x175D0, symSize: 0x30 }
  - { offset: 0x1EAB7, size: 0x8, addend: 0x0, symName: __RNvXNtNtCslJiobkLta79_5alloc3vec14spec_from_iterINtB4_3VecNtCsaKzlTDPUHDb_11proc_macro211TokenStreamEINtB2_12SpecFromIterBU_INtNtNtNtCsieiGu2EXtoJ_4core4iter8adapters3map3MapINtNtNtB27_5slice4iter4IterNtNtCscG178fYrITo_14zerovec_derive5utils9FieldInfoENCNvNtB3h_3ule15make_ule_fields0EE9from_iterB3h_, symObjAddr: 0x2720, symBinAddr: 0x17600, symSize: 0x30 }
  - { offset: 0x1EAF5, size: 0x8, addend: 0x0, symName: __RNvXNtNtCslJiobkLta79_5alloc3vec14spec_from_iterINtB4_3VecNtNtCscG178fYrITo_14zerovec_derive5utils9FieldInfoEINtB2_12SpecFromIterBU_INtNtNtNtCsieiGu2EXtoJ_4core4iter8adapters3map3MapINtNtB2b_9enumerate9EnumerateINtNtB2b_4take4TakeINtNtCsdGrGZaRBwMb_3syn10punctuated4IterNtNtB3L_4data5FieldEEENCINvMs0_BW_BU_9make_listB3n_E0EE9from_iterBY_, symObjAddr: 0x2750, symBinAddr: 0x17630, symSize: 0x20 }
  - { offset: 0x1EB34, size: 0x8, addend: 0x0, symName: __RNvXNtNtCslJiobkLta79_5alloc3vec14spec_from_iterINtB4_3VecNtNtCscG178fYrITo_14zerovec_derive5utils9FieldInfoEINtB2_12SpecFromIterBU_INtNtNtNtCsieiGu2EXtoJ_4core4iter8adapters3map3MapINtNtB2b_9enumerate9EnumerateINtNtCsdGrGZaRBwMb_3syn10punctuated4IterNtNtB3s_4data5FieldEENCINvMs0_BW_BU_9make_listB3n_E0EE9from_iterBY_, symObjAddr: 0x2770, symBinAddr: 0x17650, symSize: 0x20 }
  - { offset: 0x1EB73, size: 0x8, addend: 0x0, symName: __RNvXNtNtCslJiobkLta79_5alloc3vec14spec_from_iterINtB4_3VecRhEINtB2_12SpecFromIterBU_INtNtNtNtCsHUR1vrdMJt_3std11collections4hash3set4IterhEE9from_iterCscG178fYrITo_14zerovec_derive, symObjAddr: 0x2790, symBinAddr: 0x17670, symSize: 0x20 }
  - { offset: 0x1EBBE, size: 0x8, addend: 0x0, symName: __RNvXNtNtCslJiobkLta79_5alloc3vec21spec_from_iter_nestedINtB4_3VecNtNtCscG178fYrITo_14zerovec_derive5utils9FieldInfoEINtB2_18SpecFromIterNestedB11_INtNtNtNtCsieiGu2EXtoJ_4core4iter8adapters3map3MapINtNtB2p_9enumerate9EnumerateINtNtB2p_4take4TakeINtNtCsdGrGZaRBwMb_3syn10punctuated4IterNtNtB3Z_4data5FieldEEENCINvMs0_B13_B11_9make_listB3B_E0EE9from_iterB15_, symObjAddr: 0x27B0, symBinAddr: 0x17690, symSize: 0x380 }
  - { offset: 0x1EE73, size: 0x8, addend: 0x0, symName: __RNvXNtNtCslJiobkLta79_5alloc3vec21spec_from_iter_nestedINtB4_3VecNtNtCscG178fYrITo_14zerovec_derive5utils9FieldInfoEINtB2_18SpecFromIterNestedB11_INtNtNtNtCsieiGu2EXtoJ_4core4iter8adapters3map3MapINtNtB2p_9enumerate9EnumerateINtNtCsdGrGZaRBwMb_3syn10punctuated4IterNtNtB3G_4data5FieldEENCINvMs0_B13_B11_9make_listB3B_E0EE9from_iterB15_, symObjAddr: 0x2B30, symBinAddr: 0x17A10, symSize: 0x380 }
  - { offset: 0x1F128, size: 0x8, addend: 0x0, symName: __RNvXNtNtCslJiobkLta79_5alloc3vec21spec_from_iter_nestedINtB4_3VecRhEINtB2_18SpecFromIterNestedB11_INtNtNtNtCsHUR1vrdMJt_3std11collections4hash3set4IterhEE9from_iterCscG178fYrITo_14zerovec_derive, symObjAddr: 0x2EB0, symBinAddr: 0x17D90, symSize: 0x310 }
  - { offset: 0x1F3E7, size: 0x8, addend: 0x0, symName: __RNvXs_NtNtCslJiobkLta79_5alloc3vec21spec_from_iter_nestedINtB6_3VecNtCsaKzlTDPUHDb_11proc_macro211TokenStreamEINtB4_18SpecFromIterNestedB13_INtNtNtNtCsieiGu2EXtoJ_4core4iter8adapters3map3MapINtNtNtB2n_5slice4iter4IterNtNtCscG178fYrITo_14zerovec_derive5utils9FieldInfoENCNvNtB3x_11make_varule21make_zf_and_from_impl0EE9from_iterB3x_, symObjAddr: 0x3460, symBinAddr: 0x18340, symSize: 0x1B0 }
  - { offset: 0x1F4BF, size: 0x8, addend: 0x0, symName: __RNvXs_NtNtCslJiobkLta79_5alloc3vec21spec_from_iter_nestedINtB6_3VecNtCsaKzlTDPUHDb_11proc_macro211TokenStreamEINtB4_18SpecFromIterNestedB13_INtNtNtNtCsieiGu2EXtoJ_4core4iter8adapters3map3MapINtNtNtB2n_5slice4iter4IterNtNtCscG178fYrITo_14zerovec_derive5utils9FieldInfoENCNvNtB3x_3ule15make_ule_fields0EE9from_iterB3x_, symObjAddr: 0x3610, symBinAddr: 0x184F0, symSize: 0x1B0 }
  - { offset: 0x1F59E, size: 0x8, addend: 0x0, symName: __RNvXs6_NtCslJiobkLta79_5alloc3vecINtB5_3VecNtCsaKzlTDPUHDb_11proc_macro211TokenStreamENtNtNtCsieiGu2EXtoJ_4core3ops5deref5Deref5derefCscG178fYrITo_14zerovec_derive, symObjAddr: 0x3380, symBinAddr: 0x18260, symSize: 0x20 }
  - { offset: 0x1F5DE, size: 0x8, addend: 0x0, symName: __RNvXs6_NtCslJiobkLta79_5alloc3vecINtB5_3VecNtCsaKzlTDPUHDb_11proc_macro25IdentENtNtNtCsieiGu2EXtoJ_4core3ops5deref5Deref5derefCscG178fYrITo_14zerovec_derive, symObjAddr: 0x33A0, symBinAddr: 0x18280, symSize: 0x20 }
  - { offset: 0x1F61E, size: 0x8, addend: 0x0, symName: __RNvXs6_NtCslJiobkLta79_5alloc3vecINtB5_3VecNtNtCscG178fYrITo_14zerovec_derive11make_varule12UnsizedFieldENtNtNtCsieiGu2EXtoJ_4core3ops5deref5Deref5derefBJ_, symObjAddr: 0x33C0, symBinAddr: 0x182A0, symSize: 0x20 }
  - { offset: 0x1F65E, size: 0x8, addend: 0x0, symName: __RNvXs6_NtCslJiobkLta79_5alloc3vecINtB5_3VecNtNtCscG178fYrITo_14zerovec_derive5utils9FieldInfoENtNtNtCsieiGu2EXtoJ_4core3ops5deref5Deref5derefBJ_, symObjAddr: 0x33E0, symBinAddr: 0x182C0, symSize: 0x20 }
  - { offset: 0x1F69E, size: 0x8, addend: 0x0, symName: __RNvXs6_NtCslJiobkLta79_5alloc3vecINtB5_3VecTNtCsaKzlTDPUHDb_11proc_macro25IdentNtNtCsdGrGZaRBwMb_3syn5token5CommaEENtNtNtCsieiGu2EXtoJ_4core3ops5deref5Deref5derefCscG178fYrITo_14zerovec_derive, symObjAddr: 0x3400, symBinAddr: 0x182E0, symSize: 0x20 }
  - { offset: 0x1F7D4, size: 0x8, addend: 0x0, symName: __RNvXsb_NtCslJiobkLta79_5alloc3vecINtB5_3VecINtNtCsieiGu2EXtoJ_4core6option6OptionNtCsaKzlTDPUHDb_11proc_macro25IdentEEINtNtNtBK_3ops5index5IndexjE5indexCscG178fYrITo_14zerovec_derive, symObjAddr: 0x37C0, symBinAddr: 0x186A0, symSize: 0x80 }
  - { offset: 0x1F956, size: 0x8, addend: 0x0, symName: __RNvXsb_NtCslJiobkLta79_5alloc3vecINtB5_3VecNtCsaKzlTDPUHDb_11proc_macro25IdentEINtNtNtCsieiGu2EXtoJ_4core3ops5index5IndexjE5indexCscG178fYrITo_14zerovec_derive, symObjAddr: 0x3840, symBinAddr: 0x18720, symSize: 0x80 }
  - { offset: 0x1FAD8, size: 0x8, addend: 0x0, symName: __RNvXsb_NtCslJiobkLta79_5alloc3vecINtB5_3VecNtNtCscG178fYrITo_14zerovec_derive11make_varule12UnsizedFieldEINtNtNtCsieiGu2EXtoJ_4core3ops5index5IndexjE5indexBJ_, symObjAddr: 0x38C0, symBinAddr: 0x187A0, symSize: 0x80 }
  - { offset: 0x1FC5A, size: 0x8, addend: 0x0, symName: __RNvXsb_NtCslJiobkLta79_5alloc3vecINtB5_3VecNtNtCsdGrGZaRBwMb_3syn4attr9AttributeEINtNtNtCsieiGu2EXtoJ_4core3ops5index5IndexjE5indexCscG178fYrITo_14zerovec_derive, symObjAddr: 0x3940, symBinAddr: 0x18820, symSize: 0x80 }
  - { offset: 0x1FDE2, size: 0x8, addend: 0x0, symName: __RNvXse_NtCslJiobkLta79_5alloc3vecINtB5_3VecNtCsaKzlTDPUHDb_11proc_macro25IdentENtNtNtNtCsieiGu2EXtoJ_4core4iter6traits7collect12IntoIterator9into_iterCscG178fYrITo_14zerovec_derive, symObjAddr: 0x39C0, symBinAddr: 0x188A0, symSize: 0x140 }
  - { offset: 0x20078, size: 0x8, addend: 0x0, symName: __RNvXsn_NtCslJiobkLta79_5alloc3vecINtB5_3VecINtNtCsieiGu2EXtoJ_4core6option6OptionNtCsaKzlTDPUHDb_11proc_macro25IdentEENtNtNtBK_3ops4drop4Drop4dropCscG178fYrITo_14zerovec_derive, symObjAddr: 0x3B00, symBinAddr: 0x189E0, symSize: 0x30 }
  - { offset: 0x20128, size: 0x8, addend: 0x0, symName: __RNvXsn_NtCslJiobkLta79_5alloc3vecINtB5_3VecNtCsaKzlTDPUHDb_11proc_macro211TokenStreamENtNtNtCsieiGu2EXtoJ_4core3ops4drop4Drop4dropCscG178fYrITo_14zerovec_derive, symObjAddr: 0x3B30, symBinAddr: 0x18A10, symSize: 0x30 }
  - { offset: 0x201D8, size: 0x8, addend: 0x0, symName: __RNvXsn_NtCslJiobkLta79_5alloc3vecINtB5_3VecNtCsaKzlTDPUHDb_11proc_macro25IdentENtNtNtCsieiGu2EXtoJ_4core3ops4drop4Drop4dropCscG178fYrITo_14zerovec_derive, symObjAddr: 0x3B60, symBinAddr: 0x18A40, symSize: 0x30 }
  - { offset: 0x20288, size: 0x8, addend: 0x0, symName: __RNvXsn_NtCslJiobkLta79_5alloc3vecINtB5_3VecNtNtCscG178fYrITo_14zerovec_derive11make_varule12UnsizedFieldENtNtNtCsieiGu2EXtoJ_4core3ops4drop4Drop4dropBJ_, symObjAddr: 0x3B90, symBinAddr: 0x18A70, symSize: 0x30 }
  - { offset: 0x20338, size: 0x8, addend: 0x0, symName: __RNvXsn_NtCslJiobkLta79_5alloc3vecINtB5_3VecNtNtCscG178fYrITo_14zerovec_derive5utils9FieldInfoENtNtNtCsieiGu2EXtoJ_4core3ops4drop4Drop4dropBJ_, symObjAddr: 0x3BC0, symBinAddr: 0x18AA0, symSize: 0x30 }
  - { offset: 0x203E8, size: 0x8, addend: 0x0, symName: __RNvXsn_NtCslJiobkLta79_5alloc3vecINtB5_3VecRhENtNtNtCsieiGu2EXtoJ_4core3ops4drop4Drop4dropCscG178fYrITo_14zerovec_derive, symObjAddr: 0x3BF0, symBinAddr: 0x18AD0, symSize: 0x20 }
  - { offset: 0x20498, size: 0x8, addend: 0x0, symName: __RNvXsn_NtCslJiobkLta79_5alloc3vecINtB5_3VecTNtCsaKzlTDPUHDb_11proc_macro25IdentNtNtCsdGrGZaRBwMb_3syn5token5CommaEENtNtNtCsieiGu2EXtoJ_4core3ops4drop4Drop4dropCscG178fYrITo_14zerovec_derive, symObjAddr: 0x3C10, symBinAddr: 0x18AF0, symSize: 0x30 }
  - { offset: 0x2054E, size: 0x8, addend: 0x0, symName: __RNvXsp_NtCslJiobkLta79_5alloc3vecINtB5_3VecRhENtNtCsieiGu2EXtoJ_4core3fmt5Debug3fmtCscG178fYrITo_14zerovec_derive, symObjAddr: 0x3C40, symBinAddr: 0x18B20, symSize: 0x70 }
  - { offset: 0x26D0E, size: 0x8, addend: 0x0, symName: __RINvMs_NtCslJiobkLta79_5alloc3vecINtB5_3VecNtNtCsdGrGZaRBwMb_3syn4attr9AttributeE10retain_mutNCINvB2_6retainNCNvNtCscG178fYrITo_14zerovec_derive5utils22extract_single_tt_attr0E0EB1O_, symObjAddr: 0x0, symBinAddr: 0x14EE0, symSize: 0x160 }
  - { offset: 0x26F65, size: 0x8, addend: 0x0, symName: __RINvMs_NtCslJiobkLta79_5alloc3vecINtB5_3VecNtNtCsdGrGZaRBwMb_3syn4attr9AttributeE10retain_mutNCINvB2_6retainNCNvNtCscG178fYrITo_14zerovec_derive5utils26extract_zerovec_attributes0E0EB1O_, symObjAddr: 0x160, symBinAddr: 0x15040, symSize: 0x160 }
  - { offset: 0x271C9, size: 0x8, addend: 0x0, symName: __RINvMs_NtCslJiobkLta79_5alloc3vecINtB5_3VecNtNtCsdGrGZaRBwMb_3syn4attr9AttributeE10retain_mutNCINvB2_6retainNCNvNtCscG178fYrITo_14zerovec_derive5utils35extract_parenthetical_zerovec_attrs0E0EB1O_, symObjAddr: 0x2C0, symBinAddr: 0x151A0, symSize: 0x160 }
  - { offset: 0x27338, size: 0x8, addend: 0x0, symName: __RINvMs_NtCslJiobkLta79_5alloc3vecINtB5_3VecNtNtCsdGrGZaRBwMb_3syn4attr9AttributeE6retainNCNvNtCscG178fYrITo_14zerovec_derive5utils22extract_single_tt_attr0EB1u_, symObjAddr: 0x420, symBinAddr: 0x15300, symSize: 0x30 }
  - { offset: 0x27386, size: 0x8, addend: 0x0, symName: __RINvMs_NtCslJiobkLta79_5alloc3vecINtB5_3VecNtNtCsdGrGZaRBwMb_3syn4attr9AttributeE6retainNCNvNtCscG178fYrITo_14zerovec_derive5utils26extract_zerovec_attributes0EB1u_, symObjAddr: 0x450, symBinAddr: 0x15330, symSize: 0x40 }
  - { offset: 0x273D3, size: 0x8, addend: 0x0, symName: __RINvMs_NtCslJiobkLta79_5alloc3vecINtB5_3VecNtNtCsdGrGZaRBwMb_3syn4attr9AttributeE6retainNCNvNtCscG178fYrITo_14zerovec_derive5utils35extract_parenthetical_zerovec_attrs0EB1u_, symObjAddr: 0x490, symBinAddr: 0x15370, symSize: 0x30 }
  - { offset: 0x276B3, size: 0x8, addend: 0x0, symName: __RINvMsi_NtCslJiobkLta79_5alloc3vecINtB6_3VecNtCsaKzlTDPUHDb_11proc_macro211TokenStreamE14extend_trustedINtNtNtNtCsieiGu2EXtoJ_4core4iter8adapters3map3MapINtNtNtB1M_5slice4iter4IterNtNtCscG178fYrITo_14zerovec_derive5utils9FieldInfoENCNvNtB2W_11make_varule21make_zf_and_from_impl0EEB2W_, symObjAddr: 0x4C0, symBinAddr: 0x153A0, symSize: 0x1A0 }
  - { offset: 0x2796A, size: 0x8, addend: 0x0, symName: __RINvMsi_NtCslJiobkLta79_5alloc3vecINtB6_3VecNtCsaKzlTDPUHDb_11proc_macro211TokenStreamE14extend_trustedINtNtNtNtCsieiGu2EXtoJ_4core4iter8adapters3map3MapINtNtNtB1M_5slice4iter4IterNtNtCscG178fYrITo_14zerovec_derive5utils9FieldInfoENCNvNtB2W_3ule15make_ule_fields0EEB2W_, symObjAddr: 0x660, symBinAddr: 0x15540, symSize: 0x1A0 }
  - { offset: 0x27D34, size: 0x8, addend: 0x0, symName: __RINvMsi_NtCslJiobkLta79_5alloc3vecINtB6_3VecNtCsaKzlTDPUHDb_11proc_macro25IdentE16extend_desugaredINtNtNtNtCsieiGu2EXtoJ_4core4iter8adapters6cloned6ClonedINtNtCsdGrGZaRBwMb_3syn10punctuated4IterBG_EEECscG178fYrITo_14zerovec_derive, symObjAddr: 0x800, symBinAddr: 0x156E0, symSize: 0x270 }
  - { offset: 0x281AA, size: 0x8, addend: 0x0, symName: __RINvMsi_NtCslJiobkLta79_5alloc3vecINtB6_3VecNtNtCscG178fYrITo_14zerovec_derive5utils9FieldInfoE16extend_desugaredINtNtNtNtCsieiGu2EXtoJ_4core4iter8adapters3map3MapINtNtB1S_9enumerate9EnumerateINtNtB1S_4take4TakeINtNtCsdGrGZaRBwMb_3syn10punctuated4IterNtNtB3s_4data5FieldEEENCINvMs0_BI_BG_9make_listB34_E0EEBK_, symObjAddr: 0xA70, symBinAddr: 0x15950, symSize: 0x250 }
  - { offset: 0x285BE, size: 0x8, addend: 0x0, symName: __RINvMsi_NtCslJiobkLta79_5alloc3vecINtB6_3VecNtNtCscG178fYrITo_14zerovec_derive5utils9FieldInfoE16extend_desugaredINtNtNtNtCsieiGu2EXtoJ_4core4iter8adapters3map3MapINtNtB1S_9enumerate9EnumerateINtNtCsdGrGZaRBwMb_3syn10punctuated4IterNtNtB39_4data5FieldEENCINvMs0_BI_BG_9make_listB34_E0EEBK_, symObjAddr: 0xCC0, symBinAddr: 0x15BA0, symSize: 0x250 }
  - { offset: 0x28BB9, size: 0x8, addend: 0x0, symName: __RINvMsi_NtCslJiobkLta79_5alloc3vecINtB6_3VecRhE16extend_desugaredINtNtNtNtCsHUR1vrdMJt_3std11collections4hash3set4IterhEECscG178fYrITo_14zerovec_derive, symObjAddr: 0xF10, symBinAddr: 0x15DF0, symSize: 0x200 }
  - { offset: 0x291CD, size: 0x8, addend: 0x0, symName: __RNvMNtCslJiobkLta79_5alloc3vecINtB2_3VecINtNtCsieiGu2EXtoJ_4core6option6OptionNtCsaKzlTDPUHDb_11proc_macro25IdentEE3newCscG178fYrITo_14zerovec_derive, symObjAddr: 0x19B0, symBinAddr: 0x16890, symSize: 0x30 }
  - { offset: 0x291EA, size: 0x8, addend: 0x0, symName: __RNvMNtCslJiobkLta79_5alloc3vecINtB2_3VecNtCsaKzlTDPUHDb_11proc_macro211TokenStreamE3newCscG178fYrITo_14zerovec_derive, symObjAddr: 0x19E0, symBinAddr: 0x168C0, symSize: 0x30 }
  - { offset: 0x29207, size: 0x8, addend: 0x0, symName: __RNvMNtCslJiobkLta79_5alloc3vecINtB2_3VecNtCsaKzlTDPUHDb_11proc_macro25IdentE3newCscG178fYrITo_14zerovec_derive, symObjAddr: 0x1A10, symBinAddr: 0x168F0, symSize: 0x30 }
  - { offset: 0x2923E, size: 0x8, addend: 0x0, symName: __RNvMNtCslJiobkLta79_5alloc3vecINtB2_3VecNtNtCscG178fYrITo_14zerovec_derive11make_varule12UnsizedFieldE3newBG_, symObjAddr: 0x1A40, symBinAddr: 0x16920, symSize: 0x30 }
  - { offset: 0x2925B, size: 0x8, addend: 0x0, symName: __RNvMNtCslJiobkLta79_5alloc3vecINtB2_3VecNtNtCscG178fYrITo_14zerovec_derive5utils9FieldInfoE3newBG_, symObjAddr: 0x1A70, symBinAddr: 0x16950, symSize: 0x30 }
  - { offset: 0x29296, size: 0x8, addend: 0x0, symName: __RNvMNtCslJiobkLta79_5alloc3vecINtB2_3VecTNtCsaKzlTDPUHDb_11proc_macro25IdentNtNtCsdGrGZaRBwMb_3syn5token5CommaEE3newCscG178fYrITo_14zerovec_derive, symObjAddr: 0x1AA0, symBinAddr: 0x16980, symSize: 0x30 }
  - { offset: 0x292C0, size: 0x8, addend: 0x0, symName: __RNvMs_NtCslJiobkLta79_5alloc3vecINtB4_3VecINtNtCsieiGu2EXtoJ_4core6option6OptionNtCsaKzlTDPUHDb_11proc_macro25IdentEE4pushCscG178fYrITo_14zerovec_derive, symObjAddr: 0x1AD0, symBinAddr: 0x169B0, symSize: 0x20 }
  - { offset: 0x29418, size: 0x8, addend: 0x0, symName: __RNvMs_NtCslJiobkLta79_5alloc3vecINtB4_3VecINtNtCsieiGu2EXtoJ_4core6option6OptionNtCsaKzlTDPUHDb_11proc_macro25IdentEE8push_mutCscG178fYrITo_14zerovec_derive, symObjAddr: 0x1AF0, symBinAddr: 0x169D0, symSize: 0x110 }
  - { offset: 0x295CD, size: 0x8, addend: 0x0, symName: __RNvMs_NtCslJiobkLta79_5alloc3vecINtB4_3VecNtCsaKzlTDPUHDb_11proc_macro211TokenStreamE4pushCscG178fYrITo_14zerovec_derive, symObjAddr: 0x1C00, symBinAddr: 0x16AE0, symSize: 0x20 }
  - { offset: 0x29742, size: 0x8, addend: 0x0, symName: __RNvMs_NtCslJiobkLta79_5alloc3vecINtB4_3VecNtCsaKzlTDPUHDb_11proc_macro211TokenStreamE7reserveCscG178fYrITo_14zerovec_derive, symObjAddr: 0x1C20, symBinAddr: 0x16B00, symSize: 0xB0 }
  - { offset: 0x29953, size: 0x8, addend: 0x0, symName: __RNvMs_NtCslJiobkLta79_5alloc3vecINtB4_3VecNtCsaKzlTDPUHDb_11proc_macro211TokenStreamE8as_sliceCscG178fYrITo_14zerovec_derive, symObjAddr: 0x1CD0, symBinAddr: 0x16BB0, symSize: 0x50 }
  - { offset: 0x29AF9, size: 0x8, addend: 0x0, symName: __RNvMs_NtCslJiobkLta79_5alloc3vecINtB4_3VecNtCsaKzlTDPUHDb_11proc_macro211TokenStreamE8push_mutCscG178fYrITo_14zerovec_derive, symObjAddr: 0x1D20, symBinAddr: 0x16C00, symSize: 0x120 }
  - { offset: 0x29CAE, size: 0x8, addend: 0x0, symName: __RNvMs_NtCslJiobkLta79_5alloc3vecINtB4_3VecNtCsaKzlTDPUHDb_11proc_macro25IdentE3lenCscG178fYrITo_14zerovec_derive, symObjAddr: 0x1E40, symBinAddr: 0x16D20, symSize: 0x10 }
  - { offset: 0x29DF9, size: 0x8, addend: 0x0, symName: __RNvMs_NtCslJiobkLta79_5alloc3vecINtB4_3VecNtCsaKzlTDPUHDb_11proc_macro25IdentE7reserveCscG178fYrITo_14zerovec_derive, symObjAddr: 0x1E50, symBinAddr: 0x16D30, symSize: 0xB0 }
  - { offset: 0x29FFD, size: 0x8, addend: 0x0, symName: __RNvMs_NtCslJiobkLta79_5alloc3vecINtB4_3VecNtCsaKzlTDPUHDb_11proc_macro25IdentE8as_sliceCscG178fYrITo_14zerovec_derive, symObjAddr: 0x1F00, symBinAddr: 0x16DE0, symSize: 0x50 }
  - { offset: 0x2A0C4, size: 0x8, addend: 0x0, symName: __RNvMs_NtCslJiobkLta79_5alloc3vecINtB4_3VecNtNtCscG178fYrITo_14zerovec_derive11make_varule12UnsizedFieldE3lenBI_, symObjAddr: 0x1F50, symBinAddr: 0x16E30, symSize: 0x10 }
  - { offset: 0x2A106, size: 0x8, addend: 0x0, symName: __RNvMs_NtCslJiobkLta79_5alloc3vecINtB4_3VecNtNtCscG178fYrITo_14zerovec_derive11make_varule12UnsizedFieldE4pushBI_, symObjAddr: 0x1F60, symBinAddr: 0x16E40, symSize: 0x20 }
  - { offset: 0x2A209, size: 0x8, addend: 0x0, symName: __RNvMs_NtCslJiobkLta79_5alloc3vecINtB4_3VecNtNtCscG178fYrITo_14zerovec_derive11make_varule12UnsizedFieldE8as_sliceBI_, symObjAddr: 0x1F80, symBinAddr: 0x16E60, symSize: 0x50 }
  - { offset: 0x2A2E8, size: 0x8, addend: 0x0, symName: __RNvMs_NtCslJiobkLta79_5alloc3vecINtB4_3VecNtNtCscG178fYrITo_14zerovec_derive11make_varule12UnsizedFieldE8is_emptyBI_, symObjAddr: 0x1FD0, symBinAddr: 0x16EB0, symSize: 0x20 }
  - { offset: 0x2A427, size: 0x8, addend: 0x0, symName: __RNvMs_NtCslJiobkLta79_5alloc3vecINtB4_3VecNtNtCscG178fYrITo_14zerovec_derive11make_varule12UnsizedFieldE8push_mutBI_, symObjAddr: 0x1FF0, symBinAddr: 0x16ED0, symSize: 0x130 }
  - { offset: 0x2A5DC, size: 0x8, addend: 0x0, symName: __RNvMs_NtCslJiobkLta79_5alloc3vecINtB4_3VecNtNtCscG178fYrITo_14zerovec_derive5utils9FieldInfoE4pushBI_, symObjAddr: 0x2120, symBinAddr: 0x17000, symSize: 0x20 }
  - { offset: 0x2A737, size: 0x8, addend: 0x0, symName: __RNvMs_NtCslJiobkLta79_5alloc3vecINtB4_3VecNtNtCscG178fYrITo_14zerovec_derive5utils9FieldInfoE7reserveBI_, symObjAddr: 0x2140, symBinAddr: 0x17020, symSize: 0xB0 }
  - { offset: 0x2A93B, size: 0x8, addend: 0x0, symName: __RNvMs_NtCslJiobkLta79_5alloc3vecINtB4_3VecNtNtCscG178fYrITo_14zerovec_derive5utils9FieldInfoE8as_sliceBI_, symObjAddr: 0x21F0, symBinAddr: 0x170D0, symSize: 0x50 }
  - { offset: 0x2AAE1, size: 0x8, addend: 0x0, symName: __RNvMs_NtCslJiobkLta79_5alloc3vecINtB4_3VecNtNtCscG178fYrITo_14zerovec_derive5utils9FieldInfoE8push_mutBI_, symObjAddr: 0x2240, symBinAddr: 0x17120, symSize: 0x130 }
  - { offset: 0x2AC96, size: 0x8, addend: 0x0, symName: __RNvMs_NtCslJiobkLta79_5alloc3vecINtB4_3VecRhE3lenCscG178fYrITo_14zerovec_derive, symObjAddr: 0x2370, symBinAddr: 0x17250, symSize: 0x10 }
  - { offset: 0x2ADE1, size: 0x8, addend: 0x0, symName: __RNvMs_NtCslJiobkLta79_5alloc3vecINtB4_3VecRhE7reserveCscG178fYrITo_14zerovec_derive, symObjAddr: 0x2380, symBinAddr: 0x17260, symSize: 0xB0 }
  - { offset: 0x2AF5B, size: 0x8, addend: 0x0, symName: __RNvMs_NtCslJiobkLta79_5alloc3vecINtB4_3VecTNtCsaKzlTDPUHDb_11proc_macro25IdentNtNtCsdGrGZaRBwMb_3syn5token5CommaEE4pushCscG178fYrITo_14zerovec_derive, symObjAddr: 0x2430, symBinAddr: 0x17310, symSize: 0x20 }
  - { offset: 0x2B06B, size: 0x8, addend: 0x0, symName: __RNvMs_NtCslJiobkLta79_5alloc3vecINtB4_3VecTNtCsaKzlTDPUHDb_11proc_macro25IdentNtNtCsdGrGZaRBwMb_3syn5token5CommaEE8as_sliceCscG178fYrITo_14zerovec_derive, symObjAddr: 0x2450, symBinAddr: 0x17330, symSize: 0x50 }
  - { offset: 0x2B211, size: 0x8, addend: 0x0, symName: __RNvMs_NtCslJiobkLta79_5alloc3vecINtB4_3VecTNtCsaKzlTDPUHDb_11proc_macro25IdentNtNtCsdGrGZaRBwMb_3syn5token5CommaEE8push_mutCscG178fYrITo_14zerovec_derive, symObjAddr: 0x24A0, symBinAddr: 0x17380, symSize: 0x120 }
  - { offset: 0x2B3D3, size: 0x8, addend: 0x0, symName: __RNvMs_NtCslJiobkLta79_5alloc3vecINtB4_3VecTNtNtCsdGrGZaRBwMb_3syn4data7VariantNtNtBJ_5token5CommaEE3lenCscG178fYrITo_14zerovec_derive, symObjAddr: 0x25C0, symBinAddr: 0x174A0, symSize: 0x10 }
  - { offset: 0x2BAD4, size: 0x8, addend: 0x0, symName: __RNvXs4_NtNtCs9OU1sGv5X54_5quote9___private3extINtNtCslJiobkLta79_5alloc3vec3VecNtCsaKzlTDPUHDb_11proc_macro211TokenStreamENtB5_16RepAsIteratorExt15quote_into_iterCscG178fYrITo_14zerovec_derive, symObjAddr: 0x3350, symBinAddr: 0x18230, symSize: 0x30 }
  - { offset: 0x2C590, size: 0x8, addend: 0x0, symName: __RINvMs0_NtCscG178fYrITo_14zerovec_derive5utilsNtB6_9FieldInfo9make_listINtNtCsdGrGZaRBwMb_3syn10punctuated4IterNtNtB1c_4data5FieldEEB8_, symObjAddr: 0x0, symBinAddr: 0x18B90, symSize: 0x50 }
  - { offset: 0x2CDC8, size: 0x8, addend: 0x0, symName: __RNvXs1J_NtCscKtU6MdFI5n_10proc_macro6bridgeINtB6_11ExpnGlobalsNtNtB6_6client4SpanEINtNtB6_3rpc9DecodeMutuE6decodeCscG178fYrITo_14zerovec_derive, symObjAddr: 0x5850, symBinAddr: 0x1E3E0, symSize: 0xA0 }
  - { offset: 0x2CE1F, size: 0x8, addend: 0x0, symName: __RNvXs9_NtNtCscKtU6MdFI5n_10proc_macro6bridge3rpcTINtB7_11ExpnGlobalsNtNtB7_6client4SpanENtB16_11TokenStreamEINtB5_9DecodeMutuE6decodeCscG178fYrITo_14zerovec_derive, symObjAddr: 0x63E0, symBinAddr: 0x1EF70, symSize: 0x80 }
  - { offset: 0x2CE74, size: 0x8, addend: 0x0, symName: __RNvXs9_NtNtCscKtU6MdFI5n_10proc_macro6bridge3rpcTINtB7_11ExpnGlobalsNtNtB7_6client4SpanETNtB16_11TokenStreamB1p_EEINtB5_9DecodeMutuE6decodeCscG178fYrITo_14zerovec_derive, symObjAddr: 0x6460, symBinAddr: 0x1EFF0, symSize: 0x80 }
  - { offset: 0x2FE63, size: 0x8, addend: 0x0, symName: __RINvYINtNtNtNtCsHUR1vrdMJt_3std11collections4hash3set4IterhENtNtNtNtCsieiGu2EXtoJ_4core4iter6traits8iterator8Iterator7collectINtNtCslJiobkLta79_5alloc3vec3VecRhEECscG178fYrITo_14zerovec_derive, symObjAddr: 0x16B0, symBinAddr: 0x1A240, symSize: 0x80 }
  - { offset: 0x2FF05, size: 0x8, addend: 0x0, symName: __RNvXNtNtNtCsieiGu2EXtoJ_4core4iter6traits7collectINtNtNtNtCsHUR1vrdMJt_3std11collections4hash3set4IterhENtB2_12IntoIterator9into_iterCscG178fYrITo_14zerovec_derive, symObjAddr: 0x57D0, symBinAddr: 0x1E360, symSize: 0x30 }
  - { offset: 0x2FF50, size: 0x8, addend: 0x0, symName: __RINvXs3_NtNtCsieiGu2EXtoJ_4core4hash5implsRhNtB8_4Hash4hashNtNtNtCsHUR1vrdMJt_3std4hash6random13DefaultHasherECscG178fYrITo_14zerovec_derive, symObjAddr: 0x1660, symBinAddr: 0x1A1F0, symSize: 0x20 }
  - { offset: 0x2FFA1, size: 0x8, addend: 0x0, symName: __RINvXs7_NtNtCsieiGu2EXtoJ_4core4hash5implshNtB8_4Hash4hashNtNtNtCsHUR1vrdMJt_3std4hash6random13DefaultHasherECscG178fYrITo_14zerovec_derive, symObjAddr: 0x1680, symBinAddr: 0x1A210, symSize: 0x30 }
  - { offset: 0x300AB, size: 0x8, addend: 0x0, symName: __RNvNtNtCsieiGu2EXtoJ_4core4hash3sip9u8to64_leCscG178fYrITo_14zerovec_derive, symObjAddr: 0x5150, symBinAddr: 0x1DCE0, symSize: 0x290 }
  - { offset: 0x30268, size: 0x8, addend: 0x0, symName: __RNvXs3_NtNtCsieiGu2EXtoJ_4core4hash3sipINtB5_6HasherNtB5_11Sip13RoundsENtB7_6Hasher5writeCscG178fYrITo_14zerovec_derive, symObjAddr: 0x5A20, symBinAddr: 0x1E5B0, symSize: 0x260 }
  - { offset: 0x303DE, size: 0x8, addend: 0x0, symName: __RNvXs3_NtNtCsieiGu2EXtoJ_4core4hash3sipINtB5_6HasherNtB5_11Sip13RoundsENtB7_6Hasher6finishCscG178fYrITo_14zerovec_derive, symObjAddr: 0x5C80, symBinAddr: 0x1E810, symSize: 0x90 }
  - { offset: 0x30457, size: 0x8, addend: 0x0, symName: __RNvXs6_NtNtCsieiGu2EXtoJ_4core4hash3sipNtB5_11Sip13RoundsNtB5_3Sip8c_roundsCscG178fYrITo_14zerovec_derive, symObjAddr: 0x5DA0, symBinAddr: 0x1E930, symSize: 0x180 }
  - { offset: 0x305D3, size: 0x8, addend: 0x0, symName: __RNvXs6_NtNtCsieiGu2EXtoJ_4core4hash3sipNtB5_11Sip13RoundsNtB5_3Sip8d_roundsCscG178fYrITo_14zerovec_derive, symObjAddr: 0x5F20, symBinAddr: 0x1EAB0, symSize: 0x4C0 }
  - { offset: 0x30C07, size: 0x8, addend: 0x0, symName: __RNvXs19_NtCsieiGu2EXtoJ_4core3fmtRNtNtCscG178fYrITo_14zerovec_derive5utils9FieldInfoNtB6_5Debug3fmtBA_, symObjAddr: 0x5830, symBinAddr: 0x1E3C0, symSize: 0x20 }
  - { offset: 0x31225, size: 0x8, addend: 0x0, symName: __RNvMNtCsieiGu2EXtoJ_4core5sliceSNtNtCscG178fYrITo_14zerovec_derive5utils9FieldInfo4iterBy_, symObjAddr: 0x2740, symBinAddr: 0x1B2D0, symSize: 0x20 }
  - { offset: 0x313A8, size: 0x8, addend: 0x0, symName: __RNvXs_NtNtCsieiGu2EXtoJ_4core5slice4iterRSNtNtCscG178fYrITo_14zerovec_derive5utils9FieldInfoNtNtNtNtB8_4iter6traits7collect12IntoIterator9into_iterBI_, symObjAddr: 0x66B0, symBinAddr: 0x1F240, symSize: 0x50 }
  - { offset: 0x316D2, size: 0x8, addend: 0x0, symName: __RNvXs1_NtNtNtCsieiGu2EXtoJ_4core3ops8function5implsQNCNvMNtCscG178fYrITo_14zerovec_derive5utilsNtBT_8ReprInfo7compute0INtB7_5FnMutTRRNtNtCsdGrGZaRBwMb_3syn4attr9AttributeEE8call_mutBV_, symObjAddr: 0x5920, symBinAddr: 0x1E4B0, symSize: 0x30 }
  - { offset: 0x31734, size: 0x8, addend: 0x0, symName: __RNvNtNtNtCsieiGu2EXtoJ_4core9core_arch3x864sse212__mm_or_si128CscG178fYrITo_14zerovec_derive, symObjAddr: 0x53E0, symBinAddr: 0x1DF70, symSize: 0x20 }
  - { offset: 0x31843, size: 0x8, addend: 0x0, symName: __RNvNtNtNtCsieiGu2EXtoJ_4core9core_arch3x864sse213__mm_set1_epi8CscG178fYrITo_14zerovec_derive, symObjAddr: 0x5400, symBinAddr: 0x1DF90, symSize: 0x90 }
  - { offset: 0x3199D, size: 0x8, addend: 0x0, symName: __RNvNtNtNtCsieiGu2EXtoJ_4core9core_arch3x864sse214__mm_cmpeq_epi8CscG178fYrITo_14zerovec_derive, symObjAddr: 0x5490, symBinAddr: 0x1E020, symSize: 0x80 }
  - { offset: 0x319DD, size: 0x8, addend: 0x0, symName: __RNvNtNtNtCsieiGu2EXtoJ_4core9core_arch3x864sse214__mm_cmpgt_epi8CscG178fYrITo_14zerovec_derive, symObjAddr: 0x5510, symBinAddr: 0x1E0A0, symSize: 0x80 }
  - { offset: 0x31A1D, size: 0x8, addend: 0x0, symName: __RNvNtNtNtCsieiGu2EXtoJ_4core9core_arch3x864sse214__mm_load_si128CscG178fYrITo_14zerovec_derive, symObjAddr: 0x5590, symBinAddr: 0x1E120, symSize: 0x20 }
  - { offset: 0x31A5C, size: 0x8, addend: 0x0, symName: __RNvNtNtNtCsieiGu2EXtoJ_4core9core_arch3x864sse215__mm_loadu_si128CscG178fYrITo_14zerovec_derive, symObjAddr: 0x55B0, symBinAddr: 0x1E140, symSize: 0x90 }
  - { offset: 0x31AEB, size: 0x8, addend: 0x0, symName: __RNvNtNtNtCsieiGu2EXtoJ_4core9core_arch3x864sse215__mm_store_si128CscG178fYrITo_14zerovec_derive, symObjAddr: 0x5640, symBinAddr: 0x1E1D0, symSize: 0x20 }
  - { offset: 0x31B24, size: 0x8, addend: 0x0, symName: __RNvNtNtNtCsieiGu2EXtoJ_4core9core_arch3x864sse217__mm_movemask_epi8CscG178fYrITo_14zerovec_derive, symObjAddr: 0x5660, symBinAddr: 0x1E1F0, symSize: 0x50 }
  - { offset: 0x31B90, size: 0x8, addend: 0x0, symName: __RNvNtNtNtCsieiGu2EXtoJ_4core9core_arch3x864sse217__mm_setzero_si128CscG178fYrITo_14zerovec_derive, symObjAddr: 0x56B0, symBinAddr: 0x1E240, symSize: 0x10 }
  - { offset: 0x31C6F, size: 0x8, addend: 0x0, symName: __RNvNvNtCsieiGu2EXtoJ_4core9ub_checks23maybe_is_nonoverlapping7runtimeCscG178fYrITo_14zerovec_derive, symObjAddr: 0x56C0, symBinAddr: 0x1E250, symSize: 0xC0 }
  - { offset: 0x32604, size: 0x8, addend: 0x0, symName: __RNvXs_NtCslJiobkLta79_5alloc5allocNtB4_6GlobalNtNtCsieiGu2EXtoJ_4core5alloc9Allocator10deallocateCscG178fYrITo_14zerovec_derive, symObjAddr: 0x6610, symBinAddr: 0x1F1A0, symSize: 0x70 }
  - { offset: 0x326CC, size: 0x8, addend: 0x0, symName: __RNvXs_NtCslJiobkLta79_5alloc5allocNtB4_6GlobalNtNtCsieiGu2EXtoJ_4core5alloc9Allocator8allocateCscG178fYrITo_14zerovec_derive, symObjAddr: 0x6680, symBinAddr: 0x1F210, symSize: 0x30 }
  - { offset: 0x32707, size: 0x8, addend: 0x0, symName: __RNvNtCslJiobkLta79_5alloc5alloc15exchange_mallocCscG178fYrITo_14zerovec_derive, symObjAddr: 0x50B0, symBinAddr: 0x1DC40, symSize: 0xA0 }
  - { offset: 0x327A3, size: 0x8, addend: 0x0, symName: __RNvXs2_NtCslJiobkLta79_5alloc5allocNtB5_6GlobalNtNtCsieiGu2EXtoJ_4core7default7Default7defaultCscG178fYrITo_14zerovec_derive, symObjAddr: 0x5950, symBinAddr: 0x1E4E0, symSize: 0x10 }
  - { offset: 0x37D7A, size: 0x8, addend: 0x0, symName: __RNvXNtCsdGrGZaRBwMb_3syn7spannedNtNtB4_4expr4ExprNtB2_7Spanned4spanCscG178fYrITo_14zerovec_derive, symObjAddr: 0x57B0, symBinAddr: 0x1E340, symSize: 0x20 }
  - { offset: 0x385AD, size: 0x8, addend: 0x0, symName: __RINvNtCscG178fYrITo_14zerovec_derive5utils26generate_per_field_offsetsNCNvNtB4_11make_varule16make_encode_impl0EB4_, symObjAddr: 0xE0, symBinAddr: 0x18C70, symSize: 0xAC0 }
  - { offset: 0x38740, size: 0x8, addend: 0x0, symName: __RINvNtCscG178fYrITo_14zerovec_derive5utils26generate_per_field_offsetsNCNvNtB4_3ule23generate_ule_validators0EB4_, symObjAddr: 0xBA0, symBinAddr: 0x19730, symSize: 0xAC0 }
  - { offset: 0x388DD, size: 0x8, addend: 0x0, symName: __RNCINvMs0_NtCscG178fYrITo_14zerovec_derive5utilsNtB8_9FieldInfo9make_listINtNtCsdGrGZaRBwMb_3syn10punctuated4IterNtNtB1e_4data5FieldEE0Ba_, symObjAddr: 0x1730, symBinAddr: 0x1A2C0, symSize: 0x50 }
  - { offset: 0x3893C, size: 0x8, addend: 0x0, symName: __RNCINvMs0_NtCscG178fYrITo_14zerovec_derive5utilsNtB8_9FieldInfo9make_listINtNtNtNtCsieiGu2EXtoJ_4core4iter8adapters4take4TakeINtNtCsdGrGZaRBwMb_3syn10punctuated4IterNtNtB24_4data5FieldEEE0Ba_, symObjAddr: 0x1780, symBinAddr: 0x1A310, symSize: 0x50 }
  - { offset: 0x389B5, size: 0x8, addend: 0x0, symName: __RNCNvMNtCscG178fYrITo_14zerovec_derive5utilsNtB4_8ReprInfo7compute0B6_, symObjAddr: 0x17D0, symBinAddr: 0x1A360, symSize: 0x40 }
  - { offset: 0x389F9, size: 0x8, addend: 0x0, symName: __RNCNvNtCscG178fYrITo_14zerovec_derive5utils22extract_single_tt_attr0B5_, symObjAddr: 0x1810, symBinAddr: 0x1A3A0, symSize: 0x580 }
  - { offset: 0x38AE9, size: 0x8, addend: 0x0, symName: __RNCNvNtCscG178fYrITo_14zerovec_derive5utils26extract_zerovec_attributes0B5_, symObjAddr: 0x1D90, symBinAddr: 0x1A920, symSize: 0x100 }
  - { offset: 0x38B2F, size: 0x8, addend: 0x0, symName: __RNCNvNtCscG178fYrITo_14zerovec_derive5utils35extract_parenthetical_zerovec_attrs0B5_, symObjAddr: 0x1E90, symBinAddr: 0x1AA20, symSize: 0x490 }
  - { offset: 0x38C91, size: 0x8, addend: 0x0, symName: __RNvNtCscG178fYrITo_14zerovec_derive5utils14suffixed_ident, symObjAddr: 0x30D0, symBinAddr: 0x1BC60, symSize: 0x180 }
  - { offset: 0x38D2C, size: 0x8, addend: 0x0, symName: __RNvNtCscG178fYrITo_14zerovec_derive5utils16wrap_field_inits, symObjAddr: 0x3250, symBinAddr: 0x1BDE0, symSize: 0x440 }
  - { offset: 0x38EEE, size: 0x8, addend: 0x0, symName: __RNvNtCscG178fYrITo_14zerovec_derive5utils22extract_single_tt_attr, symObjAddr: 0x3690, symBinAddr: 0x1C220, symSize: 0x1D0 }
  - { offset: 0x38F74, size: 0x8, addend: 0x0, symName: __RNvNtCscG178fYrITo_14zerovec_derive5utils24extract_field_attributes, symObjAddr: 0x3860, symBinAddr: 0x1C3F0, symSize: 0x360 }
  - { offset: 0x39006, size: 0x8, addend: 0x0, symName: __RNvNtCscG178fYrITo_14zerovec_derive5utils25extract_attributes_common, symObjAddr: 0x3BC0, symBinAddr: 0x1C750, symSize: 0x10C0 }
  - { offset: 0x3935C, size: 0x8, addend: 0x0, symName: __RNvNtCscG178fYrITo_14zerovec_derive5utils26extract_zerovec_attributes, symObjAddr: 0x4C80, symBinAddr: 0x1D810, symSize: 0x90 }
  - { offset: 0x393A0, size: 0x8, addend: 0x0, symName: __RNvNtCscG178fYrITo_14zerovec_derive5utils35extract_parenthetical_zerovec_attrs, symObjAddr: 0x4D10, symBinAddr: 0x1D8A0, symSize: 0x1B0 }
  - { offset: 0x39425, size: 0x8, addend: 0x0, symName: __RNvNtCscG178fYrITo_14zerovec_derive5utils8repr_for, symObjAddr: 0x4EC0, symBinAddr: 0x1DA50, symSize: 0x140 }
  - { offset: 0x3947C, size: 0x8, addend: 0x0, symName: __RNvNtCscG178fYrITo_14zerovec_derive5utils8semi_for, symObjAddr: 0x5000, symBinAddr: 0x1DB90, symSize: 0xB0 }
  - { offset: 0x394C2, size: 0x8, addend: 0x0, symName: __RNvXs1_NtCscG178fYrITo_14zerovec_derive5utilsNtB5_8ReprInfoNtNtCsieiGu2EXtoJ_4core7default7Default7defaultB7_, symObjAddr: 0x58F0, symBinAddr: 0x1E480, symSize: 0x30 }
  - { offset: 0x394E5, size: 0x8, addend: 0x0, symName: __RNvXs3_NtCscG178fYrITo_14zerovec_derive5utilsNtB5_9FieldInfoNtNtCsieiGu2EXtoJ_4core3fmt5Debug3fmtB7_, symObjAddr: 0x5960, symBinAddr: 0x1E4F0, symSize: 0xC0 }
  - { offset: 0x39525, size: 0x8, addend: 0x0, symName: __RNvXs4_NtCscG178fYrITo_14zerovec_derive5utilsNtB5_12ZeroVecAttrsNtNtCsieiGu2EXtoJ_4core7default7Default7defaultB7_, symObjAddr: 0x5D10, symBinAddr: 0x1E8A0, symSize: 0x90 }
  - { offset: 0x39549, size: 0x8, addend: 0x0, symName: __RNvXs_NtCscG178fYrITo_14zerovec_derive5utilsNtB4_18IdentListAttributeNtNtCsdGrGZaRBwMb_3syn5parse5Parse5parse, symObjAddr: 0x64E0, symBinAddr: 0x1F070, symSize: 0x130 }
  - { offset: 0x3968D, size: 0x8, addend: 0x0, symName: __RINvMs0_NtCscG178fYrITo_14zerovec_derive5utilsNtB6_9FieldInfo9make_listINtNtCsdGrGZaRBwMb_3syn10punctuated4IterNtNtB1c_4data5FieldEEB8_, symObjAddr: 0x0, symBinAddr: 0x18B90, symSize: 0x50 }
  - { offset: 0x396B8, size: 0x8, addend: 0x0, symName: __RINvMs0_NtCscG178fYrITo_14zerovec_derive5utilsNtB6_9FieldInfo9make_listINtNtNtNtCsieiGu2EXtoJ_4core4iter8adapters4take4TakeINtNtCsdGrGZaRBwMb_3syn10punctuated4IterNtNtB22_4data5FieldEEEB8_, symObjAddr: 0x50, symBinAddr: 0x18BE0, symSize: 0x50 }
  - { offset: 0x39C9D, size: 0x8, addend: 0x0, symName: __RNvXsj_NtNtNtCsHUR1vrdMJt_3std11collections4hash3setINtB5_4IterhENtNtNtNtCsieiGu2EXtoJ_4core4iter6traits8iterator8Iterator4nextCscG178fYrITo_14zerovec_derive, symObjAddr: 0x6700, symBinAddr: 0x1F290, symSize: 0x60 }
  - { offset: 0x39D2A, size: 0x8, addend: 0x0, symName: __RNvXsj_NtNtNtCsHUR1vrdMJt_3std11collections4hash3setINtB5_4IterhENtNtNtNtCsieiGu2EXtoJ_4core4iter6traits8iterator8Iterator9size_hintCscG178fYrITo_14zerovec_derive, symObjAddr: 0x6760, symBinAddr: 0x1F2F0, symSize: 0x20 }
  - { offset: 0x39E89, size: 0x8, addend: 0x0, symName: __RINvMs0_NtNtNtCsHUR1vrdMJt_3std11collections4hash3setINtB6_7HashSethE6removehECscG178fYrITo_14zerovec_derive, symObjAddr: 0xA0, symBinAddr: 0x18C30, symSize: 0x40 }
  - { offset: 0x3A085, size: 0x8, addend: 0x0, symName: __RNvMNtCscG178fYrITo_14zerovec_derive5utilsNtB2_8ReprInfo22cpacked_or_transparent, symObjAddr: 0x2320, symBinAddr: 0x1AEB0, symSize: 0x50 }
  - { offset: 0x3A0CE, size: 0x8, addend: 0x0, symName: __RNvMNtCscG178fYrITo_14zerovec_derive5utilsNtB2_8ReprInfo7compute, symObjAddr: 0x2370, symBinAddr: 0x1AF00, symSize: 0x3D0 }
  - { offset: 0x3A32A, size: 0x8, addend: 0x0, symName: __RNvMNtCslJiobkLta79_5alloc5allocNtB2_6Global10alloc_implCscG178fYrITo_14zerovec_derive, symObjAddr: 0x2760, symBinAddr: 0x1B2F0, symSize: 0x290 }
  - { offset: 0x3A6A4, size: 0x8, addend: 0x0, symName: __RNvMNtNtNtCsHUR1vrdMJt_3std11collections4hash3setINtB2_7HashSethE3newCscG178fYrITo_14zerovec_derive, symObjAddr: 0x29F0, symBinAddr: 0x1B580, symSize: 0x50 }
  - { offset: 0x3A6EB, size: 0x8, addend: 0x0, symName: __RNvMs0_NtCscG178fYrITo_14zerovec_derive5utilsNtB5_9FieldInfo13new_for_field, symObjAddr: 0x2A40, symBinAddr: 0x1B5D0, symSize: 0x200 }
  - { offset: 0x3A77F, size: 0x8, addend: 0x0, symName: __RNvMs0_NtCscG178fYrITo_14zerovec_derive5utilsNtB5_9FieldInfo15getter_doc_name, symObjAddr: 0x2C40, symBinAddr: 0x1B7D0, symSize: 0x160 }
  - { offset: 0x3A836, size: 0x8, addend: 0x0, symName: __RNvMs0_NtCscG178fYrITo_14zerovec_derive5utilsNtB5_9FieldInfo6getter, symObjAddr: 0x2DA0, symBinAddr: 0x1B930, symSize: 0x110 }
  - { offset: 0x3A884, size: 0x8, addend: 0x0, symName: __RNvMs0_NtCscG178fYrITo_14zerovec_derive5utilsNtB5_9FieldInfo6setter, symObjAddr: 0x2EB0, symBinAddr: 0x1BA40, symSize: 0xE0 }
  - { offset: 0x3A8DD, size: 0x8, addend: 0x0, symName: __RNvMs0_NtNtCsieiGu2EXtoJ_4core4hash3sipINtB5_6HasherNtB5_11Sip13RoundsE5resetCscG178fYrITo_14zerovec_derive, symObjAddr: 0x2F90, symBinAddr: 0x1BB20, symSize: 0x70 }
  - { offset: 0x3A97A, size: 0x8, addend: 0x0, symName: __RNvMs0_NtNtNtCsHUR1vrdMJt_3std11collections4hash3setINtB5_7HashSethE6insertCscG178fYrITo_14zerovec_derive, symObjAddr: 0x3000, symBinAddr: 0x1BB90, symSize: 0x50 }
  - { offset: 0x3AAD7, size: 0x8, addend: 0x0, symName: __RNvMs_NtNtNtCsHUR1vrdMJt_3std11collections4hash3setINtB4_7HashSethE4iterCscG178fYrITo_14zerovec_derive, symObjAddr: 0x3050, symBinAddr: 0x1BBE0, symSize: 0x80 }
  - { offset: 0x3AC8D, size: 0x8, addend: 0x0, symName: __RNvXNtCs9OU1sGv5X54_5quote9to_tokensRRNtNtCsdGrGZaRBwMb_3syn8lifetime8LifetimeNtB2_8ToTokens9to_tokensCscG178fYrITo_14zerovec_derive, symObjAddr: 0x5780, symBinAddr: 0x1E310, symSize: 0x30 }
  - { offset: 0x3ACD2, size: 0x8, addend: 0x0, symName: __RNvYRNtNtCsdGrGZaRBwMb_3syn4expr4ExprNtNtCs9OU1sGv5X54_5quote9to_tokens8ToTokens15to_token_streamCscG178fYrITo_14zerovec_derive, symObjAddr: 0x6780, symBinAddr: 0x1F310, symSize: 0x90 }
  - { offset: 0x3AD1C, size: 0x8, addend: 0x0, symName: __RNvYRNtNtCsdGrGZaRBwMb_3syn4expr4ExprNtNtCs9OU1sGv5X54_5quote9to_tokens8ToTokens17into_token_streamCscG178fYrITo_14zerovec_derive, symObjAddr: 0x6810, symBinAddr: 0x1F3A0, symSize: 0x50 }
  - { offset: 0x3AD5D, size: 0x8, addend: 0x0, symName: __RNvXs0_NtCs9OU1sGv5X54_5quote7spannedNtNtCsdGrGZaRBwMb_3syn4expr4ExprNtB5_7Spanned6___spanCscG178fYrITo_14zerovec_derive, symObjAddr: 0x5800, symBinAddr: 0x1E390, symSize: 0x30 }
  - { offset: 0x3B2FA, size: 0x8, addend: 0x0, symName: __RINvMNtCsieiGu2EXtoJ_4core3stre5parseyECscG178fYrITo_14zerovec_derive, symObjAddr: 0x0, symBinAddr: 0x1F3F0, symSize: 0x30 }
  - { offset: 0x3B31C, size: 0x8, addend: 0x0, symName: ___rustc_proc_macro_decls_93aa458007f80ba4__, symObjAddr: 0x5A88, symBinAddr: 0x21B088, symSize: 0x0 }
  - { offset: 0x3B582, size: 0x8, addend: 0x0, symName: __RNCNvNtCscG178fYrITo_14zerovec_derive3ule15make_ule_fields0B5_, symObjAddr: 0xA60, symBinAddr: 0x1FE20, symSize: 0x290 }
  - { offset: 0x3B641, size: 0x8, addend: 0x0, symName: __RNCNvNtCscG178fYrITo_14zerovec_derive3ule23generate_ule_validators0B5_, symObjAddr: 0xCF0, symBinAddr: 0x200B0, symSize: 0x6F0 }
  - { offset: 0x3B74D, size: 0x8, addend: 0x0, symName: __RNvNtCscG178fYrITo_14zerovec_derive3ule11derive_impl, symObjAddr: 0x1FF0, symBinAddr: 0x213B0, symSize: 0x16B0 }
  - { offset: 0x3B96B, size: 0x8, addend: 0x0, symName: __RNvNtCscG178fYrITo_14zerovec_derive3ule15make_ule_fields, symObjAddr: 0x36A0, symBinAddr: 0x22A60, symSize: 0x60 }
  - { offset: 0x3B997, size: 0x8, addend: 0x0, symName: __RNvNtCscG178fYrITo_14zerovec_derive3ule23generate_ule_validators, symObjAddr: 0x3700, symBinAddr: 0x22AC0, symSize: 0x30 }
  - { offset: 0x3B9C4, size: 0x8, addend: 0x0, symName: __RNvCscG178fYrITo_14zerovec_derive10ule_derive, symObjAddr: 0x13E0, symBinAddr: 0x207A0, symSize: 0x180 }
  - { offset: 0x3BA3A, size: 0x8, addend: 0x0, symName: __RNvCscG178fYrITo_14zerovec_derive11make_varule, symObjAddr: 0x1560, symBinAddr: 0x20920, symSize: 0x3B0 }
  - { offset: 0x3BB09, size: 0x8, addend: 0x0, symName: __RNvCscG178fYrITo_14zerovec_derive13varule_derive, symObjAddr: 0x1910, symBinAddr: 0x20CD0, symSize: 0x1A0 }
  - { offset: 0x3BB7F, size: 0x8, addend: 0x0, symName: __RNvCscG178fYrITo_14zerovec_derive8make_ule, symObjAddr: 0x1AB0, symBinAddr: 0x20E70, symSize: 0x3B0 }
  - { offset: 0x3C18F, size: 0x8, addend: 0x0, symName: __RNvXs7_NtNtCscKtU6MdFI5n_10proc_macro6bridge3rpcINtNtNtCsieiGu2EXtoJ_4core3num7nonzero7NonZeromEINtB5_9DecodeMutuE6decodeCscG178fYrITo_14zerovec_derive, symObjAddr: 0x4730, symBinAddr: 0x23AE0, symSize: 0x50 }
  - { offset: 0x3C34F, size: 0x8, addend: 0x0, symName: __RNvXs1e_CscKtU6MdFI5n_10proc_macroNtB6_5IdentNtNtCsieiGu2EXtoJ_4core5clone5Clone5cloneCscG178fYrITo_14zerovec_derive, symObjAddr: 0x4060, symBinAddr: 0x23410, symSize: 0x40 }
  - { offset: 0x3C383, size: 0x8, addend: 0x0, symName: __RNvXsU_CscKtU6MdFI5n_10proc_macroNtB5_11TokenStreamNtNtCsieiGu2EXtoJ_4core5clone5Clone5cloneCscG178fYrITo_14zerovec_derive, symObjAddr: 0x4810, symBinAddr: 0x23BC0, symSize: 0x50 }
  - { offset: 0x3E730, size: 0x8, addend: 0x0, symName: __RNvNvMsd_NtNtCsieiGu2EXtoJ_4core3num7nonzeroINtB7_7NonZeropE13new_unchecked18precondition_checkCscG178fYrITo_14zerovec_derive, symObjAddr: 0x38B0, symBinAddr: 0x22C60, symSize: 0x80 }
  - { offset: 0x3EF0B, size: 0x8, addend: 0x0, symName: __RINvMNtCsieiGu2EXtoJ_4core3stre5parseyECscG178fYrITo_14zerovec_derive, symObjAddr: 0x0, symBinAddr: 0x1F3F0, symSize: 0x30 }
  - { offset: 0x3F1A2, size: 0x8, addend: 0x0, symName: __RNvXs19_NtCsieiGu2EXtoJ_4core3fmtRRhNtB6_5Debug3fmtCscG178fYrITo_14zerovec_derive, symObjAddr: 0x4020, symBinAddr: 0x233D0, symSize: 0x20 }
  - { offset: 0x3F1E8, size: 0x8, addend: 0x0, symName: __RNvXs19_NtCsieiGu2EXtoJ_4core3fmtRjNtB6_5Debug3fmtCscG178fYrITo_14zerovec_derive, symObjAddr: 0x4040, symBinAddr: 0x233F0, symSize: 0x20 }
  - { offset: 0x3F234, size: 0x8, addend: 0x0, symName: __RNvXsq_NtCsieiGu2EXtoJ_4core3fmtSRhNtB5_5Debug3fmtCscG178fYrITo_14zerovec_derive, symObjAddr: 0x4C80, symBinAddr: 0x24030, symSize: 0x80 }
  - { offset: 0x4018E, size: 0x8, addend: 0x0, symName: __RNCINvNtNtNtCsieiGu2EXtoJ_4core4iter8adapters3map8map_foldRNtNtCscG178fYrITo_14zerovec_derive5utils9FieldInfoNtCsaKzlTDPUHDb_11proc_macro211TokenStreamuNCNvNtBZ_11make_varule21make_zf_and_from_impl0NCINvNvNtNtNtB8_6traits8iterator8Iterator8for_each4callB1J_NCINvMsi_NtCslJiobkLta79_5alloc3vecINtB4g_3VecB1J_E14extend_trustedINtB4_3MapINtNtNtBa_5slice4iter4IterBV_EB2q_EE0E0E0BZ_, symObjAddr: 0x940, symBinAddr: 0x1FD00, symSize: 0x90 }
  - { offset: 0x40213, size: 0x8, addend: 0x0, symName: __RNCINvNtNtNtCsieiGu2EXtoJ_4core4iter8adapters3map8map_foldRNtNtCscG178fYrITo_14zerovec_derive5utils9FieldInfoNtCsaKzlTDPUHDb_11proc_macro211TokenStreamuNCNvNtBZ_3ule15make_ule_fields0NCINvNvNtNtNtB8_6traits8iterator8Iterator8for_each4callB1J_NCINvMsi_NtCslJiobkLta79_5alloc3vecINtB41_3VecB1J_E14extend_trustedINtB4_3MapINtNtNtBa_5slice4iter4IterBV_EB2q_EE0E0E0BZ_, symObjAddr: 0x9D0, symBinAddr: 0x1FD90, symSize: 0x90 }
  - { offset: 0x4029E, size: 0x8, addend: 0x0, symName: __RINvXs0_NtNtNtCsieiGu2EXtoJ_4core4iter8adapters3mapINtB6_3MapINtNtNtBc_5slice4iter4IterNtNtCscG178fYrITo_14zerovec_derive5utils9FieldInfoENCNvNtB1r_11make_varule21make_zf_and_from_impl0ENtNtNtBa_6traits8iterator8Iterator4folduNCINvNvB2Y_8for_each4callNtCsaKzlTDPUHDb_11proc_macro211TokenStreamNCINvMsi_NtCslJiobkLta79_5alloc3vecINtB4Q_3VecB41_E14extend_trustedBN_E0E0EB1r_, symObjAddr: 0x1C0, symBinAddr: 0x1F580, symSize: 0x40 }
  - { offset: 0x40335, size: 0x8, addend: 0x0, symName: __RINvXs0_NtNtNtCsieiGu2EXtoJ_4core4iter8adapters3mapINtB6_3MapINtNtNtBc_5slice4iter4IterNtNtCscG178fYrITo_14zerovec_derive5utils9FieldInfoENCNvNtB1r_3ule15make_ule_fields0ENtNtNtBa_6traits8iterator8Iterator4folduNCINvNvB2J_8for_each4callNtCsaKzlTDPUHDb_11proc_macro211TokenStreamNCINvMsi_NtCslJiobkLta79_5alloc3vecINtB4B_3VecB3M_E14extend_trustedBN_E0E0EB1r_, symObjAddr: 0x200, symBinAddr: 0x1F5C0, symSize: 0x40 }
  - { offset: 0x403CC, size: 0x8, addend: 0x0, symName: __RNvXs0_NtNtNtCsieiGu2EXtoJ_4core4iter8adapters3mapINtB5_3MapINtNtB7_9enumerate9EnumerateINtNtB7_4take4TakeINtNtCsdGrGZaRBwMb_3syn10punctuated4IterNtNtB1L_4data5FieldEEENCINvMs0_NtCscG178fYrITo_14zerovec_derive5utilsNtB2P_9FieldInfo9make_listB1o_E0ENtNtNtB9_6traits8iterator8Iterator4nextB2R_, symObjAddr: 0x3C60, symBinAddr: 0x23010, symSize: 0xC0 }
  - { offset: 0x40479, size: 0x8, addend: 0x0, symName: __RNvXs0_NtNtNtCsieiGu2EXtoJ_4core4iter8adapters3mapINtB5_3MapINtNtB7_9enumerate9EnumerateINtNtB7_4take4TakeINtNtCsdGrGZaRBwMb_3syn10punctuated4IterNtNtB1L_4data5FieldEEENCINvMs0_NtCscG178fYrITo_14zerovec_derive5utilsNtB2P_9FieldInfo9make_listB1o_E0ENtNtNtB9_6traits8iterator8Iterator9size_hintB2R_, symObjAddr: 0x3D20, symBinAddr: 0x230D0, symSize: 0x30 }
  - { offset: 0x404C0, size: 0x8, addend: 0x0, symName: __RNvXs0_NtNtNtCsieiGu2EXtoJ_4core4iter8adapters3mapINtB5_3MapINtNtB7_9enumerate9EnumerateINtNtCsdGrGZaRBwMb_3syn10punctuated4IterNtNtB1t_4data5FieldEENCINvMs0_NtCscG178fYrITo_14zerovec_derive5utilsNtB2w_9FieldInfo9make_listB1o_E0ENtNtNtB9_6traits8iterator8Iterator4nextB2y_, symObjAddr: 0x3D50, symBinAddr: 0x23100, symSize: 0xC0 }
  - { offset: 0x4056D, size: 0x8, addend: 0x0, symName: __RNvXs0_NtNtNtCsieiGu2EXtoJ_4core4iter8adapters3mapINtB5_3MapINtNtB7_9enumerate9EnumerateINtNtCsdGrGZaRBwMb_3syn10punctuated4IterNtNtB1t_4data5FieldEENCINvMs0_NtCscG178fYrITo_14zerovec_derive5utilsNtB2w_9FieldInfo9make_listB1o_E0ENtNtNtB9_6traits8iterator8Iterator9size_hintB2y_, symObjAddr: 0x3E10, symBinAddr: 0x231C0, symSize: 0x30 }
  - { offset: 0x405B4, size: 0x8, addend: 0x0, symName: __RNvXs0_NtNtNtCsieiGu2EXtoJ_4core4iter8adapters3mapINtB5_3MapINtNtB7_9enumerate9EnumerateINtNtNtBb_5slice4iter4IterNtNtCscG178fYrITo_14zerovec_derive11make_varule12UnsizedFieldEENCNvMB1Q_NtB1Q_13UnsizedFields19maybe_multi_getters0ENtNtNtB9_6traits8iterator8Iterator4nextB1S_, symObjAddr: 0x3E40, symBinAddr: 0x231F0, symSize: 0xD0 }
  - { offset: 0x40661, size: 0x8, addend: 0x0, symName: __RNvXs0_NtNtNtCsieiGu2EXtoJ_4core4iter8adapters3mapINtB5_3MapINtNtNtBb_5slice4iter4IterNtNtCscG178fYrITo_14zerovec_derive5utils9FieldInfoENCNvNtB1q_11make_varule21make_zf_and_from_impl0ENtNtNtB9_6traits8iterator8Iterator9size_hintB1q_, symObjAddr: 0x3F10, symBinAddr: 0x232C0, symSize: 0x30 }
  - { offset: 0x406A8, size: 0x8, addend: 0x0, symName: __RNvXs0_NtNtNtCsieiGu2EXtoJ_4core4iter8adapters3mapINtB5_3MapINtNtNtBb_5slice4iter4IterNtNtCscG178fYrITo_14zerovec_derive5utils9FieldInfoENCNvNtB1q_3ule15make_ule_fields0ENtNtNtB9_6traits8iterator8Iterator9size_hintB1q_, symObjAddr: 0x3F40, symBinAddr: 0x232F0, symSize: 0x30 }
  - { offset: 0x406EF, size: 0x8, addend: 0x0, symName: __RNvXs0_NtNtNtCsieiGu2EXtoJ_4core4iter8adapters3mapINtB5_3MapINtNtNtBb_5slice4iter4IterNtNtCscG178fYrITo_14zerovec_derive5utils9FieldInfoENCNvNtB1q_6varule11derive_impl0ENtNtNtB9_6traits8iterator8Iterator4nextB1q_, symObjAddr: 0x3F70, symBinAddr: 0x23320, symSize: 0xB0 }
  - { offset: 0x40B19, size: 0x8, addend: 0x0, symName: __RINvYINtNtNtCsieiGu2EXtoJ_4core5slice4iter4IterNtNtCscG178fYrITo_14zerovec_derive5utils9FieldInfoENtNtNtNtBa_4iter6traits8iterator8Iterator3mapNtCsaKzlTDPUHDb_11proc_macro211TokenStreamNCNvNtBN_11make_varule21make_zf_and_from_impl0EBN_, symObjAddr: 0x6A0, symBinAddr: 0x1FA60, symSize: 0x20 }
  - { offset: 0x40B71, size: 0x8, addend: 0x0, symName: __RINvYINtNtNtCsieiGu2EXtoJ_4core5slice4iter4IterNtNtCscG178fYrITo_14zerovec_derive5utils9FieldInfoENtNtNtNtBa_4iter6traits8iterator8Iterator3mapNtCsaKzlTDPUHDb_11proc_macro211TokenStreamNCNvNtBN_3ule15make_ule_fields0EBN_, symObjAddr: 0x6C0, symBinAddr: 0x1FA80, symSize: 0x20 }
  - { offset: 0x40BC9, size: 0x8, addend: 0x0, symName: __RINvYINtNtNtCsieiGu2EXtoJ_4core5slice4iter4IterNtNtCscG178fYrITo_14zerovec_derive5utils9FieldInfoENtNtNtNtBa_4iter6traits8iterator8Iterator3mapNtCsaKzlTDPUHDb_11proc_macro211TokenStreamNCNvNtBN_6varule11derive_impl0EBN_, symObjAddr: 0x6E0, symBinAddr: 0x1FAA0, symSize: 0x20 }
  - { offset: 0x40C21, size: 0x8, addend: 0x0, symName: __RINvYINtNtNtCsieiGu2EXtoJ_4core5slice4iter4IterNtNtCsdGrGZaRBwMb_3syn4attr9AttributeENtNtNtNtBa_4iter6traits8iterator8Iterator6filterNCNvMNtCscG178fYrITo_14zerovec_derive5utilsNtB2c_8ReprInfo7compute0EB2e_, symObjAddr: 0x700, symBinAddr: 0x1FAC0, symSize: 0x20 }
  - { offset: 0x40C70, size: 0x8, addend: 0x0, symName: __RINvYINtNtNtNtCsieiGu2EXtoJ_4core4iter8adapters3map3MapINtNtB8_9enumerate9EnumerateINtNtB8_4take4TakeINtNtCsdGrGZaRBwMb_3syn10punctuated4IterNtNtB1G_4data5FieldEEENCINvMs0_NtCscG178fYrITo_14zerovec_derive5utilsNtB2K_9FieldInfo9make_listB1j_E0ENtNtNtBa_6traits8iterator8Iterator7collectINtNtCslJiobkLta79_5alloc3vec3VecB3m_EEB2M_, symObjAddr: 0x720, symBinAddr: 0x1FAE0, symSize: 0x70 }
  - { offset: 0x40D06, size: 0x8, addend: 0x0, symName: __RINvYINtNtNtNtCsieiGu2EXtoJ_4core4iter8adapters3map3MapINtNtB8_9enumerate9EnumerateINtNtCsdGrGZaRBwMb_3syn10punctuated4IterNtNtB1o_4data5FieldEENCINvMs0_NtCscG178fYrITo_14zerovec_derive5utilsNtB2r_9FieldInfo9make_listB1j_E0ENtNtNtBa_6traits8iterator8Iterator7collectINtNtCslJiobkLta79_5alloc3vec3VecB33_EEB2t_, symObjAddr: 0x790, symBinAddr: 0x1FB50, symSize: 0x70 }
  - { offset: 0x40D9C, size: 0x8, addend: 0x0, symName: __RINvYINtNtNtNtCsieiGu2EXtoJ_4core4iter8adapters3map3MapINtNtNtBc_5slice4iter4IterNtNtCscG178fYrITo_14zerovec_derive5utils9FieldInfoENCNvNtB1l_11make_varule21make_zf_and_from_impl0ENtNtNtBa_6traits8iterator8Iterator7collectINtNtCslJiobkLta79_5alloc3vec3VecNtCsaKzlTDPUHDb_11proc_macro211TokenStreamEEB1l_, symObjAddr: 0x800, symBinAddr: 0x1FBC0, symSize: 0x60 }
  - { offset: 0x40E31, size: 0x8, addend: 0x0, symName: __RINvYINtNtNtNtCsieiGu2EXtoJ_4core4iter8adapters3map3MapINtNtNtBc_5slice4iter4IterNtNtCscG178fYrITo_14zerovec_derive5utils9FieldInfoENCNvNtB1l_11make_varule21make_zf_and_from_impl0ENtNtNtBa_6traits8iterator8Iterator8for_eachNCINvMsi_NtCslJiobkLta79_5alloc3vecINtB3I_3VecNtCsaKzlTDPUHDb_11proc_macro211TokenStreamE14extend_trustedB3_E0EB1l_, symObjAddr: 0x860, symBinAddr: 0x1FC20, symSize: 0x40 }
  - { offset: 0x40E9B, size: 0x8, addend: 0x0, symName: __RINvYINtNtNtNtCsieiGu2EXtoJ_4core4iter8adapters3map3MapINtNtNtBc_5slice4iter4IterNtNtCscG178fYrITo_14zerovec_derive5utils9FieldInfoENCNvNtB1l_3ule15make_ule_fields0ENtNtNtBa_6traits8iterator8Iterator7collectINtNtCslJiobkLta79_5alloc3vec3VecNtCsaKzlTDPUHDb_11proc_macro211TokenStreamEEB1l_, symObjAddr: 0x8A0, symBinAddr: 0x1FC60, symSize: 0x60 }
  - { offset: 0x40F30, size: 0x8, addend: 0x0, symName: __RINvYINtNtNtNtCsieiGu2EXtoJ_4core4iter8adapters3map3MapINtNtNtBc_5slice4iter4IterNtNtCscG178fYrITo_14zerovec_derive5utils9FieldInfoENCNvNtB1l_3ule15make_ule_fields0ENtNtNtBa_6traits8iterator8Iterator8for_eachNCINvMsi_NtCslJiobkLta79_5alloc3vecINtB3t_3VecNtCsaKzlTDPUHDb_11proc_macro211TokenStreamE14extend_trustedB3_E0EB1l_, symObjAddr: 0x900, symBinAddr: 0x1FCC0, symSize: 0x40 }
  - { offset: 0x40F9A, size: 0x8, addend: 0x0, symName: __RNvYINtNtNtCsieiGu2EXtoJ_4core5slice4iter4IterNtNtCscG178fYrITo_14zerovec_derive11make_varule12UnsizedFieldENtNtNtNtB9_4iter6traits8iterator8Iterator9enumerateBM_, symObjAddr: 0x4D80, symBinAddr: 0x24130, symSize: 0x20 }
  - { offset: 0x40FE6, size: 0x8, addend: 0x0, symName: __RNvYINtNtNtCsieiGu2EXtoJ_4core5slice4iter4IterNtNtCscG178fYrITo_14zerovec_derive5utils9FieldInfoENtNtNtNtB9_4iter6traits8iterator8Iterator9enumerateBM_, symObjAddr: 0x4DA0, symBinAddr: 0x24150, symSize: 0x20 }
  - { offset: 0x4103E, size: 0x8, addend: 0x0, symName: __RNvXNtNtNtCsieiGu2EXtoJ_4core4iter6traits7collectINtNtNtB6_8adapters3map3MapINtNtBQ_9enumerate9EnumerateINtNtBQ_4take4TakeINtNtCsdGrGZaRBwMb_3syn10punctuated4IterNtNtB21_4data5FieldEEENCINvMs0_NtCscG178fYrITo_14zerovec_derive5utilsNtB35_9FieldInfo9make_listB1E_E0ENtB2_12IntoIterator9into_iterB37_, symObjAddr: 0x3B90, symBinAddr: 0x22F40, symSize: 0x30 }
  - { offset: 0x41075, size: 0x8, addend: 0x0, symName: __RNvXNtNtNtCsieiGu2EXtoJ_4core4iter6traits7collectINtNtNtB6_8adapters3map3MapINtNtBQ_9enumerate9EnumerateINtNtCsdGrGZaRBwMb_3syn10punctuated4IterNtNtB1J_4data5FieldEENCINvMs0_NtCscG178fYrITo_14zerovec_derive5utilsNtB2M_9FieldInfo9make_listB1E_E0ENtB2_12IntoIterator9into_iterB2O_, symObjAddr: 0x3BC0, symBinAddr: 0x22F70, symSize: 0x20 }
  - { offset: 0x410AC, size: 0x8, addend: 0x0, symName: __RNvXNtNtNtCsieiGu2EXtoJ_4core4iter6traits7collectINtNtNtB6_8adapters3map3MapINtNtNtB8_5slice4iter4IterNtNtCscG178fYrITo_14zerovec_derive5utils9FieldInfoENCNvNtB1G_11make_varule21make_zf_and_from_impl0ENtB2_12IntoIterator9into_iterB1G_, symObjAddr: 0x3BE0, symBinAddr: 0x22F90, symSize: 0x20 }
  - { offset: 0x410E3, size: 0x8, addend: 0x0, symName: __RNvXNtNtNtCsieiGu2EXtoJ_4core4iter6traits7collectINtNtNtB6_8adapters3map3MapINtNtNtB8_5slice4iter4IterNtNtCscG178fYrITo_14zerovec_derive5utils9FieldInfoENCNvNtB1G_3ule15make_ule_fields0ENtB2_12IntoIterator9into_iterB1G_, symObjAddr: 0x3C00, symBinAddr: 0x22FB0, symSize: 0x20 }
  - { offset: 0x4111A, size: 0x8, addend: 0x0, symName: __RNvXNtNtNtCsieiGu2EXtoJ_4core4iter6traits7collectINtNtNtB8_5slice4iter4IterNtNtCscG178fYrITo_14zerovec_derive11make_varule12UnsizedFieldENtB2_12IntoIterator9into_iterB1f_, symObjAddr: 0x3C20, symBinAddr: 0x22FD0, symSize: 0x20 }
  - { offset: 0x41151, size: 0x8, addend: 0x0, symName: __RNvXNtNtNtCsieiGu2EXtoJ_4core4iter6traits7collectINtNtNtB8_5slice4iter4IterRhENtB2_12IntoIterator9into_iterCscG178fYrITo_14zerovec_derive, symObjAddr: 0x3C40, symBinAddr: 0x22FF0, symSize: 0x20 }
  - { offset: 0x41195, size: 0x8, addend: 0x0, symName: __RNvXsx_NtNtCsieiGu2EXtoJ_4core4iter5rangehNtB5_4Step17forward_uncheckedCscG178fYrITo_14zerovec_derive, symObjAddr: 0x4D30, symBinAddr: 0x240E0, symSize: 0x50 }
  - { offset: 0x41206, size: 0x8, addend: 0x0, symName: __RINvXs2E_NtNtCsieiGu2EXtoJ_4core5slice4iterINtB7_4IterNtNtCscG178fYrITo_14zerovec_derive11make_varule12UnsizedFieldENtNtNtNtBb_4iter6traits8iterator8Iterator3allNCNvMBS_NtBS_13UnsizedFields6has_zf0EBU_, symObjAddr: 0x240, symBinAddr: 0x1F600, symSize: 0xA0 }
  - { offset: 0x4126B, size: 0x8, addend: 0x0, symName: __RINvXs2E_NtNtCsieiGu2EXtoJ_4core5slice4iterINtB7_4IterNtNtCscG178fYrITo_14zerovec_derive5utils9FieldInfoENtNtNtNtBb_4iter6traits8iterator8Iterator4folduNCINvNtNtB1L_8adapters3map8map_foldRBQ_NtCsaKzlTDPUHDb_11proc_macro211TokenStreamuNCNvNtBU_11make_varule21make_zf_and_from_impl0NCINvNvB1F_8for_each4callB33_NCINvMsi_NtCslJiobkLta79_5alloc3vecINtB56_3VecB33_E14extend_trustedINtB2v_3MapBF_B3K_EE0E0E0EBU_, symObjAddr: 0x2E0, symBinAddr: 0x1F6A0, symSize: 0x190 }
  - { offset: 0x413AC, size: 0x8, addend: 0x0, symName: __RINvXs2E_NtNtCsieiGu2EXtoJ_4core5slice4iterINtB7_4IterNtNtCscG178fYrITo_14zerovec_derive5utils9FieldInfoENtNtNtNtBb_4iter6traits8iterator8Iterator4folduNCINvNtNtB1L_8adapters3map8map_foldRBQ_NtCsaKzlTDPUHDb_11proc_macro211TokenStreamuNCNvNtBU_3ule15make_ule_fields0NCINvNvB1F_8for_each4callB33_NCINvMsi_NtCslJiobkLta79_5alloc3vecINtB4R_3VecB33_E14extend_trustedINtB2v_3MapBF_B3K_EE0E0E0EBU_, symObjAddr: 0x470, symBinAddr: 0x1F830, symSize: 0x190 }
  - { offset: 0x414ED, size: 0x8, addend: 0x0, symName: __RINvXs2E_NtNtCsieiGu2EXtoJ_4core5slice4iterINtB7_4IterNtNtCsdGrGZaRBwMb_3syn4attr9AttributeENtNtNtNtBb_4iter6traits8iterator8Iterator4findQNCNvMNtCscG178fYrITo_14zerovec_derive5utilsNtB2i_8ReprInfo7compute0EB2k_, symObjAddr: 0x600, symBinAddr: 0x1F9C0, symSize: 0xA0 }
  - { offset: 0x41552, size: 0x8, addend: 0x0, symName: __RNvXs2E_NtNtCsieiGu2EXtoJ_4core5slice4iterINtB6_4IterNtCsaKzlTDPUHDb_11proc_macro211TokenStreamENtNtNtNtBa_4iter6traits8iterator8Iterator4nextCscG178fYrITo_14zerovec_derive, symObjAddr: 0x40A0, symBinAddr: 0x23450, symSize: 0x90 }
  - { offset: 0x41673, size: 0x8, addend: 0x0, symName: __RNvXs2E_NtNtCsieiGu2EXtoJ_4core5slice4iterINtB6_4IterNtNtCscG178fYrITo_14zerovec_derive11make_varule12UnsizedFieldENtNtNtNtBa_4iter6traits8iterator8Iterator4nextBT_, symObjAddr: 0x4130, symBinAddr: 0x234E0, symSize: 0x90 }
  - { offset: 0x41794, size: 0x8, addend: 0x0, symName: __RNvXs2E_NtNtCsieiGu2EXtoJ_4core5slice4iterINtB6_4IterNtNtCscG178fYrITo_14zerovec_derive5utils9FieldInfoENtNtNtNtBa_4iter6traits8iterator8Iterator4nextBT_, symObjAddr: 0x41C0, symBinAddr: 0x23570, symSize: 0x90 }
  - { offset: 0x418B5, size: 0x8, addend: 0x0, symName: __RNvXs2E_NtNtCsieiGu2EXtoJ_4core5slice4iterINtB6_4IterNtNtCscG178fYrITo_14zerovec_derive5utils9FieldInfoENtNtNtNtBa_4iter6traits8iterator8Iterator9size_hintBT_, symObjAddr: 0x4250, symBinAddr: 0x23600, symSize: 0x60 }
  - { offset: 0x41924, size: 0x8, addend: 0x0, symName: __RNvXs2E_NtNtCsieiGu2EXtoJ_4core5slice4iterINtB6_4IterRhENtNtNtNtBa_4iter6traits8iterator8Iterator4nextCscG178fYrITo_14zerovec_derive, symObjAddr: 0x42B0, symBinAddr: 0x23660, symSize: 0x90 }
  - { offset: 0x41A45, size: 0x8, addend: 0x0, symName: __RNvXs2E_NtNtCsieiGu2EXtoJ_4core5slice4iterINtB6_4IterTNtCsaKzlTDPUHDb_11proc_macro25IdentNtNtCsdGrGZaRBwMb_3syn5token5CommaEENtNtNtNtBa_4iter6traits8iterator8Iterator4nextCscG178fYrITo_14zerovec_derive, symObjAddr: 0x4340, symBinAddr: 0x236F0, symSize: 0x90 }
  - { offset: 0x41CFD, size: 0x8, addend: 0x0, symName: __RNvXs2F_NtNtCsieiGu2EXtoJ_4core5slice4iterINtB6_4IterTNtCsaKzlTDPUHDb_11proc_macro25IdentNtNtCsdGrGZaRBwMb_3syn5token5CommaEENtNtNtNtBa_4iter6traits12double_ended19DoubleEndedIterator9next_backCscG178fYrITo_14zerovec_derive, symObjAddr: 0x43D0, symBinAddr: 0x23780, symSize: 0x100 }
  - { offset: 0x41E4C, size: 0x8, addend: 0x0, symName: __RNvXs2F_NtNtCsieiGu2EXtoJ_4core5slice4iterINtB6_4IterTNtNtCsdGrGZaRBwMb_3syn4data7VariantNtNtBU_5token5CommaEENtNtNtNtBa_4iter6traits12double_ended19DoubleEndedIterator9next_backCscG178fYrITo_14zerovec_derive, symObjAddr: 0x44D0, symBinAddr: 0x23880, symSize: 0x100 }
  - { offset: 0x41F9B, size: 0x8, addend: 0x0, symName: __RNvXs2F_NtNtCsieiGu2EXtoJ_4core5slice4iterINtB6_4IterTNtNtCsdGrGZaRBwMb_3syn4path15GenericArgumentNtNtBU_5token5CommaEENtNtNtNtBa_4iter6traits12double_ended19DoubleEndedIterator9next_backCscG178fYrITo_14zerovec_derive, symObjAddr: 0x45D0, symBinAddr: 0x23980, symSize: 0x100 }
  - { offset: 0x421DE, size: 0x8, addend: 0x0, symName: __RNvXs5_NtNtCsieiGu2EXtoJ_4core5slice4iterINtB5_4IterTNtCsaKzlTDPUHDb_11proc_macro25IdentNtNtCsdGrGZaRBwMb_3syn5token5CommaEENtNtB9_5clone5Clone5cloneCscG178fYrITo_14zerovec_derive, symObjAddr: 0x46D0, symBinAddr: 0x23A80, symSize: 0x20 }
  - { offset: 0x42213, size: 0x8, addend: 0x0, symName: __RNvXs5_NtNtCsieiGu2EXtoJ_4core5slice4iterINtB5_4IterTNtNtCsdGrGZaRBwMb_3syn4data7VariantNtNtBT_5token5CommaEENtNtB9_5clone5Clone5cloneCscG178fYrITo_14zerovec_derive, symObjAddr: 0x46F0, symBinAddr: 0x23AA0, symSize: 0x20 }
  - { offset: 0x42248, size: 0x8, addend: 0x0, symName: __RNvXs5_NtNtCsieiGu2EXtoJ_4core5slice4iterINtB5_4IterTNtNtCsdGrGZaRBwMb_3syn4path15GenericArgumentNtNtBT_5token5CommaEENtNtB9_5clone5Clone5cloneCscG178fYrITo_14zerovec_derive, symObjAddr: 0x4710, symBinAddr: 0x23AC0, symSize: 0x20 }
  - { offset: 0x42313, size: 0x8, addend: 0x0, symName: __RNvNvNtNtCsieiGu2EXtoJ_4core5slice3raw14from_raw_parts18precondition_checkCscG178fYrITo_14zerovec_derive, symObjAddr: 0x3930, symBinAddr: 0x22CE0, symSize: 0x260 }
  - { offset: 0x4251F, size: 0x8, addend: 0x0, symName: __RNvNvMNtNtCsieiGu2EXtoJ_4core5alloc6layoutNtB4_6Layout25from_size_align_unchecked18precondition_checkCscG178fYrITo_14zerovec_derive, symObjAddr: 0x3800, symBinAddr: 0x22BB0, symSize: 0xB0 }
  - { offset: 0x427AC, size: 0x8, addend: 0x0, symName: __RNvXsk_NtNtCsieiGu2EXtoJ_4core3cmp5implshNtB7_9PartialEq2eqCscG178fYrITo_14zerovec_derive, symObjAddr: 0x4C60, symBinAddr: 0x24010, symSize: 0x20 }
  - { offset: 0x42C38, size: 0x8, addend: 0x0, symName: __RNvXsA_NtCsaKzlTDPUHDb_11proc_macro28fallbackNtB5_5IdentNtNtCsieiGu2EXtoJ_4core5clone5Clone5cloneCscG178fYrITo_14zerovec_derive, symObjAddr: 0x4780, symBinAddr: 0x23B30, symSize: 0x90 }
  - { offset: 0x42C6C, size: 0x8, addend: 0x0, symName: __RNvXss_NtCsaKzlTDPUHDb_11proc_macro28fallbackNtB5_11TokenStreamNtNtCsieiGu2EXtoJ_4core5clone5Clone5cloneCscG178fYrITo_14zerovec_derive, symObjAddr: 0x4D00, symBinAddr: 0x240B0, symSize: 0x20 }
  - { offset: 0x42C9E, size: 0x8, addend: 0x0, symName: __RNvXsu_NtCsaKzlTDPUHDb_11proc_macro28fallbackNtB5_4SpanNtNtCsieiGu2EXtoJ_4core5clone5Clone5cloneCscG178fYrITo_14zerovec_derive, symObjAddr: 0x4D20, symBinAddr: 0x240D0, symSize: 0x10 }
  - { offset: 0x4300E, size: 0x8, addend: 0x0, symName: __RINvMs_NtNtCsieiGu2EXtoJ_4core3fmt2rtNtB7_9Arguments6new_v1Kj1_Kj0_ECscG178fYrITo_14zerovec_derive, symObjAddr: 0x30, symBinAddr: 0x1F420, symSize: 0x40 }
  - { offset: 0x43072, size: 0x8, addend: 0x0, symName: __RINvMs_NtNtCsieiGu2EXtoJ_4core3fmt2rtNtB7_9Arguments6new_v1Kj3_Kj2_ECscG178fYrITo_14zerovec_derive, symObjAddr: 0x70, symBinAddr: 0x1F460, symSize: 0x40 }
  - { offset: 0x430AC, size: 0x8, addend: 0x0, symName: __RINvNtCsdGrGZaRBwMb_3syn11parse_quote5parseNtNtB4_6derive11DeriveInputECscG178fYrITo_14zerovec_derive, symObjAddr: 0xB0, symBinAddr: 0x1F4A0, symSize: 0xE0 }
  - { offset: 0x47D4E, size: 0x8, addend: 0x0, symName: __RNvXsh_NtCsdGrGZaRBwMb_3syn5parseNvYNtNtB7_6derive11DeriveInputNtNtB7_11parse_quote10ParseQuote5parseNtB5_6Parser6parse2CscG178fYrITo_14zerovec_derive, symObjAddr: 0x4860, symBinAddr: 0x23C10, symSize: 0x400 }
  - { offset: 0x490E2, size: 0x8, addend: 0x0, symName: __RNvNtCslJiobkLta79_5alloc3fmt6formatCscG178fYrITo_14zerovec_derive, symObjAddr: 0x3740, symBinAddr: 0x22AF0, symSize: 0xC0 }
  - { offset: 0x49830, size: 0x8, addend: 0x0, symName: __RNvMs4_NtNtCsieiGu2EXtoJ_4core5slice4iterINtB5_4IterNtCsaKzlTDPUHDb_11proc_macro211TokenStreamE3newCscG178fYrITo_14zerovec_derive, symObjAddr: 0x1E60, symBinAddr: 0x21220, symSize: 0x50 }
  - { offset: 0x49A11, size: 0x8, addend: 0x0, symName: __RNvMs4_NtNtCsieiGu2EXtoJ_4core5slice4iterINtB5_4IterNtNtCscG178fYrITo_14zerovec_derive11make_varule12UnsizedFieldE3newBS_, symObjAddr: 0x1EB0, symBinAddr: 0x21270, symSize: 0x50 }
  - { offset: 0x49BBE, size: 0x8, addend: 0x0, symName: __RNvMs4_NtNtCsieiGu2EXtoJ_4core5slice4iterINtB5_4IterNtNtCscG178fYrITo_14zerovec_derive5utils9FieldInfoE3newBS_, symObjAddr: 0x1F00, symBinAddr: 0x212C0, symSize: 0x50 }
  - { offset: 0x49DA3, size: 0x8, addend: 0x0, symName: __RNvMs4_NtNtCsieiGu2EXtoJ_4core5slice4iterINtB5_4IterTNtCsaKzlTDPUHDb_11proc_macro25IdentNtNtCsdGrGZaRBwMb_3syn5token5CommaEE3newCscG178fYrITo_14zerovec_derive, symObjAddr: 0x1F50, symBinAddr: 0x21310, symSize: 0x50 }
  - { offset: 0x49EA1, size: 0x8, addend: 0x0, symName: __RNvMs_NtNtCsieiGu2EXtoJ_4core3fmt2rtNtB6_9Arguments16new_v1_formattedCscG178fYrITo_14zerovec_derive, symObjAddr: 0x1FA0, symBinAddr: 0x21360, symSize: 0x50 }
  - { offset: 0x4A81E, size: 0x8, addend: 0x0, symName: __RNvYINtNtNtNtCsieiGu2EXtoJ_4core4iter8adapters3map3MapINtNtB7_9enumerate9EnumerateINtNtNtBb_5slice4iter4IterNtNtCscG178fYrITo_14zerovec_derive11make_varule12UnsizedFieldEENCNvMB1K_NtB1K_13UnsizedFields19maybe_multi_getters0ENtNtNtCs9OU1sGv5X54_5quote9___private3ext14RepIteratorExt15quote_into_iterB1M_, symObjAddr: 0x4DC0, symBinAddr: 0x24170, symSize: 0x30 }
  - { offset: 0x4A853, size: 0x8, addend: 0x0, symName: __RNvYINtNtNtNtCsieiGu2EXtoJ_4core4iter8adapters3map3MapINtNtNtBb_5slice4iter4IterNtNtCscG178fYrITo_14zerovec_derive5utils9FieldInfoENCNvNtB1k_6varule11derive_impl0ENtNtNtCs9OU1sGv5X54_5quote9___private3ext14RepIteratorExt15quote_into_iterB1k_, symObjAddr: 0x4DF0, symBinAddr: 0x241A0, symSize: 0x20 }
  - { offset: 0x4ABEB, size: 0x8, addend: 0x0, symName: __RINvMNtCsdGrGZaRBwMb_3syn4attrNtB3_9Attribute10parse_argsNtCsaKzlTDPUHDb_11proc_macro211TokenStreamECscG178fYrITo_14zerovec_derive, symObjAddr: 0x0, symBinAddr: 0x241C0, symSize: 0x30 }
  - { offset: 0x4FFE7, size: 0x8, addend: 0x0, symName: __RNvXNtCsdGrGZaRBwMb_3syn7spannedNtNtB4_4attr9AttributeNtB2_7Spanned4spanCscG178fYrITo_14zerovec_derive, symObjAddr: 0x44C0, symBinAddr: 0x28640, symSize: 0x20 }
  - { offset: 0x5001C, size: 0x8, addend: 0x0, symName: __RNvXNtCsdGrGZaRBwMb_3syn7spannedNtNtB4_4data5FieldNtB2_7Spanned4spanCscG178fYrITo_14zerovec_derive, symObjAddr: 0x44E0, symBinAddr: 0x28660, symSize: 0x20 }
  - { offset: 0x50051, size: 0x8, addend: 0x0, symName: __RNvXNtCsdGrGZaRBwMb_3syn7spannedNtNtB4_4data7VariantNtB2_7Spanned4spanCscG178fYrITo_14zerovec_derive, symObjAddr: 0x4500, symBinAddr: 0x28680, symSize: 0x20 }
  - { offset: 0x50086, size: 0x8, addend: 0x0, symName: __RNvXNtCsdGrGZaRBwMb_3syn7spannedRNtNtB4_4data5FieldNtB2_7Spanned4spanCscG178fYrITo_14zerovec_derive, symObjAddr: 0x4520, symBinAddr: 0x286A0, symSize: 0x20 }
  - { offset: 0x50636, size: 0x8, addend: 0x0, symName: __RNvXsA_NtCsaKzlTDPUHDb_11proc_macro23impNtB5_19DeferredTokenStreamNtNtCsieiGu2EXtoJ_4core5clone5Clone5cloneCscG178fYrITo_14zerovec_derive, symObjAddr: 0x4780, symBinAddr: 0x28900, symSize: 0xA0 }
  - { offset: 0x50668, size: 0x8, addend: 0x0, symName: __RNvXsF_NtCsaKzlTDPUHDb_11proc_macro23impNtB5_5IdentNtNtCsieiGu2EXtoJ_4core5clone5Clone5cloneCscG178fYrITo_14zerovec_derive, symObjAddr: 0x4860, symBinAddr: 0x289E0, symSize: 0x90 }
  - { offset: 0x506D8, size: 0x8, addend: 0x0, symName: __RNvXsz_NtCsaKzlTDPUHDb_11proc_macro23impNtB5_11TokenStreamNtNtCsieiGu2EXtoJ_4core5clone5Clone5cloneCscG178fYrITo_14zerovec_derive, symObjAddr: 0x5580, symBinAddr: 0x29700, symSize: 0xB0 }
  - { offset: 0x50EDE, size: 0x8, addend: 0x0, symName: __RNvXs5_NtNtCscKtU6MdFI5n_10proc_macro6bridge6bufferNtB5_6BufferNtNtNtCsieiGu2EXtoJ_4core3ops4drop4Drop4dropCscG178fYrITo_14zerovec_derive, symObjAddr: 0x46E0, symBinAddr: 0x28860, symSize: 0xA0 }
  - { offset: 0x50FDF, size: 0x8, addend: 0x0, symName: __RINvNvNtNtCscKtU6MdFI5n_10proc_macro6bridge14selfless_reify31reify_to_extern_c_fn_hrt_bridge7wrapperNtNtB6_6buffer6BufferNCINvMs6_NtB6_6clientINtB24_6ClientNtB8_11TokenStreamB2u_E7expand1NvCscG178fYrITo_14zerovec_derive10ule_deriveE0EB31_, symObjAddr: 0x2B50, symBinAddr: 0x26CD0, symSize: 0xA0 }
  - { offset: 0x51077, size: 0x8, addend: 0x0, symName: __RINvNvNtNtCscKtU6MdFI5n_10proc_macro6bridge14selfless_reify31reify_to_extern_c_fn_hrt_bridge7wrapperNtNtB6_6buffer6BufferNCINvMs6_NtB6_6clientINtB24_6ClientNtB8_11TokenStreamB2u_E7expand1NvCscG178fYrITo_14zerovec_derive13varule_deriveE0EB31_, symObjAddr: 0x2BF0, symBinAddr: 0x26D70, symSize: 0xA0 }
  - { offset: 0x5110F, size: 0x8, addend: 0x0, symName: __RINvNvNtNtCscKtU6MdFI5n_10proc_macro6bridge14selfless_reify31reify_to_extern_c_fn_hrt_bridge7wrapperNtNtB6_6buffer6BufferNCINvMs7_NtB6_6clientINtB24_6ClientTNtB8_11TokenStreamB2v_EB2v_E7expand2NvCscG178fYrITo_14zerovec_derive11make_varuleE0EB37_, symObjAddr: 0x2C90, symBinAddr: 0x26E10, symSize: 0xA0 }
  - { offset: 0x511A7, size: 0x8, addend: 0x0, symName: __RINvNvNtNtCscKtU6MdFI5n_10proc_macro6bridge14selfless_reify31reify_to_extern_c_fn_hrt_bridge7wrapperNtNtB6_6buffer6BufferNCINvMs7_NtB6_6clientINtB24_6ClientTNtB8_11TokenStreamB2v_EB2v_E7expand2NvCscG178fYrITo_14zerovec_derive8make_uleE0EB37_, symObjAddr: 0x2D30, symBinAddr: 0x26EB0, symSize: 0xA0 }
  - { offset: 0x5124B, size: 0x8, addend: 0x0, symName: __RNvXNtNtCscKtU6MdFI5n_10proc_macro6bridge3rpcuINtB2_6EncodeuE6encodeCscG178fYrITo_14zerovec_derive, symObjAddr: 0x4540, symBinAddr: 0x286C0, symSize: 0x10 }
  - { offset: 0x51324, size: 0x8, addend: 0x0, symName: __RNvXsa_NtNtCscKtU6MdFI5n_10proc_macro6bridge3rpcRShINtB5_6EncodeuE6encodeCscG178fYrITo_14zerovec_derive, symObjAddr: 0x4B80, symBinAddr: 0x28D00, symSize: 0xD0 }
  - { offset: 0x5142C, size: 0x8, addend: 0x0, symName: __RNvXsc_NtNtCscKtU6MdFI5n_10proc_macro6bridge3rpcReINtB5_6EncodeuE6encodeCscG178fYrITo_14zerovec_derive, symObjAddr: 0x4C50, symBinAddr: 0x28DD0, symSize: 0x30 }
  - { offset: 0x51514, size: 0x8, addend: 0x0, symName: __RNvXsl_NtNtCscKtU6MdFI5n_10proc_macro6bridge3rpcNtB5_12PanicMessageINtB5_6EncodeuE6encodeCscG178fYrITo_14zerovec_derive, symObjAddr: 0x4C80, symBinAddr: 0x28E00, symSize: 0x130 }
  - { offset: 0x516E4, size: 0x8, addend: 0x0, symName: __RNvXso_NtNtCscKtU6MdFI5n_10proc_macro6bridge3rpcmINtB5_9DecodeMutuE6decodeCscG178fYrITo_14zerovec_derive, symObjAddr: 0x4DB0, symBinAddr: 0x28F30, symSize: 0x140 }
  - { offset: 0x51852, size: 0x8, addend: 0x0, symName: __RNvXsV_NtCscKtU6MdFI5n_10proc_macro6bridgeINtNtCsieiGu2EXtoJ_4core6result6ResultINtNtBJ_6option6OptionNtNtB5_6client11TokenStreamEuEINtNtB5_3rpc6EncodeuE6encodeCscG178fYrITo_14zerovec_derive, symObjAddr: 0x48F0, symBinAddr: 0x28A70, symSize: 0xE0 }
  - { offset: 0x51916, size: 0x8, addend: 0x0, symName: __RNvXsV_NtCscKtU6MdFI5n_10proc_macro6bridgeINtNtCsieiGu2EXtoJ_4core6result6ResultuNtNtB5_3rpc12PanicMessageEINtB1j_6EncodeuE6encodeCscG178fYrITo_14zerovec_derive, symObjAddr: 0x49D0, symBinAddr: 0x28B50, symSize: 0x120 }
  - { offset: 0x51CE6, size: 0x8, addend: 0x0, symName: __RNvNvMs3_NtCsieiGu2EXtoJ_4core3numi13unchecked_neg18precondition_checkCscG178fYrITo_14zerovec_derive, symObjAddr: 0x4210, symBinAddr: 0x28390, symSize: 0xB0 }
  - { offset: 0x51EDF, size: 0x8, addend: 0x0, symName: __RNvMsC_NtCsieiGu2EXtoJ_4core3numy16from_ascii_radixCscG178fYrITo_14zerovec_derive, symObjAddr: 0x35B0, symBinAddr: 0x27730, symSize: 0x610 }
  - { offset: 0x52186, size: 0x8, addend: 0x0, symName: __RNvNvMs4_NtCsieiGu2EXtoJ_4core3numh13unchecked_add18precondition_checkCscG178fYrITo_14zerovec_derive, symObjAddr: 0x42C0, symBinAddr: 0x28440, symSize: 0xA0 }
  - { offset: 0x5224A, size: 0x8, addend: 0x0, symName: __RNvNvMs9_NtCsieiGu2EXtoJ_4core3numj13unchecked_add18precondition_checkCscG178fYrITo_14zerovec_derive, symObjAddr: 0x4360, symBinAddr: 0x284E0, symSize: 0xA0 }
  - { offset: 0x5233A, size: 0x8, addend: 0x0, symName: __RNvXsB_NtCsieiGu2EXtoJ_4core3numyNtNtNtB7_3str6traits7FromStr8from_strCscG178fYrITo_14zerovec_derive, symObjAddr: 0x4820, symBinAddr: 0x289A0, symSize: 0x40 }
  - { offset: 0x52B6C, size: 0x8, addend: 0x0, symName: __RNvNvMNtNtCsieiGu2EXtoJ_4core3ptr9const_ptrPp20offset_from_unsigned18precondition_checkCscG178fYrITo_14zerovec_derive, symObjAddr: 0x4170, symBinAddr: 0x282F0, symSize: 0xA0 }
  - { offset: 0x52E85, size: 0x8, addend: 0x0, symName: __RINvNtCsieiGu2EXtoJ_4core3ptr13drop_in_placeINtNtB4_4cell10UnsafeCellNtNtNtCscKtU6MdFI5n_10proc_macro6bridge6client6BridgeEECscG178fYrITo_14zerovec_derive, symObjAddr: 0x15C0, symBinAddr: 0x25740, symSize: 0x20 }
  - { offset: 0x52EB4, size: 0x8, addend: 0x0, symName: __RINvNtCsieiGu2EXtoJ_4core3ptr13drop_in_placeINtNtB4_4cell7RefCellNtNtNtCscKtU6MdFI5n_10proc_macro6bridge6client6BridgeEECscG178fYrITo_14zerovec_derive, symObjAddr: 0x15E0, symBinAddr: 0x25760, symSize: 0x20 }
  - { offset: 0x52EE3, size: 0x8, addend: 0x0, symName: __RINvNtCsieiGu2EXtoJ_4core3ptr13drop_in_placeINtNtB4_6option6OptionINtNtCslJiobkLta79_5alloc5boxed3BoxNtCsaKzlTDPUHDb_11proc_macro25IdentEEECscG178fYrITo_14zerovec_derive, symObjAddr: 0x1600, symBinAddr: 0x25780, symSize: 0x40 }
  - { offset: 0x52F12, size: 0x8, addend: 0x0, symName: __RINvNtCsieiGu2EXtoJ_4core3ptr13drop_in_placeINtNtB4_6option6OptionNtNtCsdGrGZaRBwMb_3syn5error5ErrorEECscG178fYrITo_14zerovec_derive, symObjAddr: 0x1640, symBinAddr: 0x257C0, symSize: 0x40 }
  - { offset: 0x52F41, size: 0x8, addend: 0x0, symName: __RINvNtCsieiGu2EXtoJ_4core3ptr13drop_in_placeINtNtB4_6result6ResultNtCsaKzlTDPUHDb_11proc_macro211TokenStreamNtNtCsdGrGZaRBwMb_3syn5error5ErrorEECscG178fYrITo_14zerovec_derive, symObjAddr: 0x1680, symBinAddr: 0x25800, symSize: 0x50 }
  - { offset: 0x52F70, size: 0x8, addend: 0x0, symName: __RINvNtCsieiGu2EXtoJ_4core3ptr13drop_in_placeINtNtB4_6result6ResultNtNtCscG178fYrITo_14zerovec_derive11make_varule12UnsizedFieldNtNtCslJiobkLta79_5alloc6string6StringEEB16_, symObjAddr: 0x16D0, symBinAddr: 0x25850, symSize: 0x50 }
  - { offset: 0x52F9F, size: 0x8, addend: 0x0, symName: __RINvNtCsieiGu2EXtoJ_4core3ptr13drop_in_placeINtNtB4_6result6ResultNtNtCscG178fYrITo_14zerovec_derive5utils18IdentListAttributeNtNtCsdGrGZaRBwMb_3syn5error5ErrorEEB16_, symObjAddr: 0x1720, symBinAddr: 0x258A0, symSize: 0x50 }
  - { offset: 0x52FCE, size: 0x8, addend: 0x0, symName: __RINvNtCsieiGu2EXtoJ_4core3ptr13drop_in_placeINtNtB4_6result6ResultyNtNtCsdGrGZaRBwMb_3syn5error5ErrorEECscG178fYrITo_14zerovec_derive, symObjAddr: 0x1770, symBinAddr: 0x258F0, symSize: 0x40 }
  - { offset: 0x52FFD, size: 0x8, addend: 0x0, symName: __RINvNtCsieiGu2EXtoJ_4core3ptr13drop_in_placeINtNtCs9OU1sGv5X54_5quote9___private9RepInterpNtCsaKzlTDPUHDb_11proc_macro211TokenStreamEECscG178fYrITo_14zerovec_derive, symObjAddr: 0x17B0, symBinAddr: 0x25930, symSize: 0x20 }
  - { offset: 0x5302C, size: 0x8, addend: 0x0, symName: __RINvNtCsieiGu2EXtoJ_4core3ptr13drop_in_placeINtNtCsdGrGZaRBwMb_3syn10punctuated10PunctuatedNtCsaKzlTDPUHDb_11proc_macro25IdentNtNtBL_5token5CommaEECscG178fYrITo_14zerovec_derive, symObjAddr: 0x17D0, symBinAddr: 0x25950, symSize: 0x60 }
  - { offset: 0x5305B, size: 0x8, addend: 0x0, symName: __RINvNtCsieiGu2EXtoJ_4core3ptr13drop_in_placeINtNtCsdGrGZaRBwMb_3syn10punctuated4IterNtCsaKzlTDPUHDb_11proc_macro25IdentEECscG178fYrITo_14zerovec_derive, symObjAddr: 0x1830, symBinAddr: 0x259B0, symSize: 0x20 }
  - { offset: 0x5308A, size: 0x8, addend: 0x0, symName: __RINvNtCsieiGu2EXtoJ_4core3ptr13drop_in_placeINtNtCsdGrGZaRBwMb_3syn10punctuated4IterNtNtBL_4data5FieldEECscG178fYrITo_14zerovec_derive, symObjAddr: 0x1850, symBinAddr: 0x259D0, symSize: 0x20 }
  - { offset: 0x530B9, size: 0x8, addend: 0x0, symName: __RINvNtCsieiGu2EXtoJ_4core3ptr13drop_in_placeINtNtCsdGrGZaRBwMb_3syn10punctuated4IterNtNtBL_4data7VariantEECscG178fYrITo_14zerovec_derive, symObjAddr: 0x1870, symBinAddr: 0x259F0, symSize: 0x20 }
  - { offset: 0x530E8, size: 0x8, addend: 0x0, symName: __RINvNtCsieiGu2EXtoJ_4core3ptr13drop_in_placeINtNtCsdGrGZaRBwMb_3syn10punctuated4IterNtNtBL_4path15GenericArgumentEECscG178fYrITo_14zerovec_derive, symObjAddr: 0x1890, symBinAddr: 0x25A10, symSize: 0x20 }
  - { offset: 0x53117, size: 0x8, addend: 0x0, symName: __RINvNtCsieiGu2EXtoJ_4core3ptr13drop_in_placeINtNtCsdGrGZaRBwMb_3syn10punctuated4IterNtNtBL_8generics12GenericParamEECscG178fYrITo_14zerovec_derive, symObjAddr: 0x18B0, symBinAddr: 0x25A30, symSize: 0x20 }
  - { offset: 0x53146, size: 0x8, addend: 0x0, symName: __RINvNtCsieiGu2EXtoJ_4core3ptr13drop_in_placeINtNtCsdGrGZaRBwMb_3syn10punctuated7IterMutNtNtBL_4data5FieldEECscG178fYrITo_14zerovec_derive, symObjAddr: 0x18D0, symBinAddr: 0x25A50, symSize: 0x20 }
  - { offset: 0x53175, size: 0x8, addend: 0x0, symName: __RINvNtCsieiGu2EXtoJ_4core3ptr13drop_in_placeINtNtCsjK30CmJ87bX_9hashbrown10scopeguard10ScopeGuardNtNtBL_3raw13RawTableInnerNCINvMsa_B1z_B1x_14prepare_resizeNtNtCslJiobkLta79_5alloc5alloc6GlobalE0EECscG178fYrITo_14zerovec_derive, symObjAddr: 0x18F0, symBinAddr: 0x25A70, symSize: 0x20 }
  - { offset: 0x531A4, size: 0x8, addend: 0x0, symName: __RINvNtCsieiGu2EXtoJ_4core3ptr13drop_in_placeINtNtCsjK30CmJ87bX_9hashbrown10scopeguard10ScopeGuardQNtNtBL_3raw13RawTableInnerNCNvMsa_B1A_B1y_15rehash_in_place0EECscG178fYrITo_14zerovec_derive, symObjAddr: 0x1910, symBinAddr: 0x25A90, symSize: 0x20 }
  - { offset: 0x531D3, size: 0x8, addend: 0x0, symName: __RINvNtCsieiGu2EXtoJ_4core3ptr13drop_in_placeINtNtCsjK30CmJ87bX_9hashbrown3map7HashMaphuNtNtNtCsHUR1vrdMJt_3std4hash6random11RandomStateEECscG178fYrITo_14zerovec_derive, symObjAddr: 0x1930, symBinAddr: 0x25AB0, symSize: 0x20 }
  - { offset: 0x53202, size: 0x8, addend: 0x0, symName: __RINvNtCsieiGu2EXtoJ_4core3ptr13drop_in_placeINtNtCsjK30CmJ87bX_9hashbrown3raw8RawTableThuEEECscG178fYrITo_14zerovec_derive, symObjAddr: 0x1950, symBinAddr: 0x25AD0, symSize: 0x20 }
  - { offset: 0x53231, size: 0x8, addend: 0x0, symName: __RINvNtCsieiGu2EXtoJ_4core3ptr13drop_in_placeINtNtCsjK30CmJ87bX_9hashbrown3set7HashSethNtNtNtCsHUR1vrdMJt_3std4hash6random11RandomStateEECscG178fYrITo_14zerovec_derive, symObjAddr: 0x1970, symBinAddr: 0x25AF0, symSize: 0x20 }
  - { offset: 0x53260, size: 0x8, addend: 0x0, symName: __RINvNtCsieiGu2EXtoJ_4core3ptr13drop_in_placeINtNtCslJiobkLta79_5alloc3vec3VecINtNtB4_6option6OptionNtCsaKzlTDPUHDb_11proc_macro25IdentEEECscG178fYrITo_14zerovec_derive, symObjAddr: 0x1990, symBinAddr: 0x25B10, symSize: 0x50 }
  - { offset: 0x5328F, size: 0x8, addend: 0x0, symName: __RINvNtCsieiGu2EXtoJ_4core3ptr13drop_in_placeINtNtCslJiobkLta79_5alloc3vec3VecNtCsaKzlTDPUHDb_11proc_macro211TokenStreamEECscG178fYrITo_14zerovec_derive, symObjAddr: 0x19E0, symBinAddr: 0x25B60, symSize: 0x50 }
  - { offset: 0x532BE, size: 0x8, addend: 0x0, symName: __RINvNtCsieiGu2EXtoJ_4core3ptr13drop_in_placeINtNtCslJiobkLta79_5alloc3vec3VecNtCsaKzlTDPUHDb_11proc_macro25IdentEECscG178fYrITo_14zerovec_derive, symObjAddr: 0x1A30, symBinAddr: 0x25BB0, symSize: 0x50 }
  - { offset: 0x532ED, size: 0x8, addend: 0x0, symName: __RINvNtCsieiGu2EXtoJ_4core3ptr13drop_in_placeINtNtCslJiobkLta79_5alloc3vec3VecNtNtCscG178fYrITo_14zerovec_derive11make_varule12UnsizedFieldEEB1h_, symObjAddr: 0x1A80, symBinAddr: 0x25C00, symSize: 0x50 }
  - { offset: 0x5331C, size: 0x8, addend: 0x0, symName: __RINvNtCsieiGu2EXtoJ_4core3ptr13drop_in_placeINtNtCslJiobkLta79_5alloc3vec3VecNtNtCscG178fYrITo_14zerovec_derive5utils9FieldInfoEEB1h_, symObjAddr: 0x1AD0, symBinAddr: 0x25C50, symSize: 0x50 }
  - { offset: 0x5334B, size: 0x8, addend: 0x0, symName: __RINvNtCsieiGu2EXtoJ_4core3ptr13drop_in_placeINtNtCslJiobkLta79_5alloc3vec3VecRhEECscG178fYrITo_14zerovec_derive, symObjAddr: 0x1B20, symBinAddr: 0x25CA0, symSize: 0x50 }
  - { offset: 0x5337A, size: 0x8, addend: 0x0, symName: __RINvNtCsieiGu2EXtoJ_4core3ptr13drop_in_placeINtNtCslJiobkLta79_5alloc3vec3VecTNtCsaKzlTDPUHDb_11proc_macro25IdentNtNtCsdGrGZaRBwMb_3syn5token5CommaEEECscG178fYrITo_14zerovec_derive, symObjAddr: 0x1B70, symBinAddr: 0x25CF0, symSize: 0x50 }
  - { offset: 0x533A9, size: 0x8, addend: 0x0, symName: __RINvNtCsieiGu2EXtoJ_4core3ptr13drop_in_placeINtNtCslJiobkLta79_5alloc5boxed3BoxDNtNtB4_5error5ErrorNtNtB4_6marker4SyncNtB1B_4SendEL_EECscG178fYrITo_14zerovec_derive, symObjAddr: 0x1BC0, symBinAddr: 0x25D40, symSize: 0x70 }
  - { offset: 0x533D8, size: 0x8, addend: 0x0, symName: __RINvNtCsieiGu2EXtoJ_4core3ptr13drop_in_placeINtNtCslJiobkLta79_5alloc5boxed3BoxINtNtCsdGrGZaRBwMb_3syn5drops6NoDropDINtNtB1k_10punctuated12IterMutTraitNtNtB1k_4data5FieldEp4ItemQB2p_EL_EEECscG178fYrITo_14zerovec_derive, symObjAddr: 0x1C30, symBinAddr: 0x25DB0, symSize: 0x20 }
  - { offset: 0x53407, size: 0x8, addend: 0x0, symName: __RINvNtCsieiGu2EXtoJ_4core3ptr13drop_in_placeINtNtCslJiobkLta79_5alloc5boxed3BoxINtNtCsdGrGZaRBwMb_3syn5drops6NoDropDINtNtB1k_10punctuated9IterTraitNtCsaKzlTDPUHDb_11proc_macro25IdentEp4ItemRB2l_EL_EEECscG178fYrITo_14zerovec_derive, symObjAddr: 0x1C50, symBinAddr: 0x25DD0, symSize: 0x20 }
  - { offset: 0x53436, size: 0x8, addend: 0x0, symName: __RINvNtCsieiGu2EXtoJ_4core3ptr13drop_in_placeINtNtCslJiobkLta79_5alloc5boxed3BoxINtNtCsdGrGZaRBwMb_3syn5drops6NoDropDINtNtB1k_10punctuated9IterTraitNtNtB1k_4data5FieldEp4ItemRB2l_EL_EEECscG178fYrITo_14zerovec_derive, symObjAddr: 0x1C70, symBinAddr: 0x25DF0, symSize: 0x20 }
  - { offset: 0x53465, size: 0x8, addend: 0x0, symName: __RINvNtCsieiGu2EXtoJ_4core3ptr13drop_in_placeINtNtCslJiobkLta79_5alloc5boxed3BoxINtNtCsdGrGZaRBwMb_3syn5drops6NoDropDINtNtB1k_10punctuated9IterTraitNtNtB1k_4data7VariantEp4ItemRB2l_EL_EEECscG178fYrITo_14zerovec_derive, symObjAddr: 0x1C90, symBinAddr: 0x25E10, symSize: 0x20 }
  - { offset: 0x53494, size: 0x8, addend: 0x0, symName: __RINvNtCsieiGu2EXtoJ_4core3ptr13drop_in_placeINtNtCslJiobkLta79_5alloc5boxed3BoxINtNtCsdGrGZaRBwMb_3syn5drops6NoDropDINtNtB1k_10punctuated9IterTraitNtNtB1k_4path15GenericArgumentEp4ItemRB2l_EL_EEECscG178fYrITo_14zerovec_derive, symObjAddr: 0x1CB0, symBinAddr: 0x25E30, symSize: 0x20 }
  - { offset: 0x534C3, size: 0x8, addend: 0x0, symName: __RINvNtCsieiGu2EXtoJ_4core3ptr13drop_in_placeINtNtCslJiobkLta79_5alloc5boxed3BoxINtNtCsdGrGZaRBwMb_3syn5drops6NoDropDINtNtB1k_10punctuated9IterTraitNtNtB1k_8generics12GenericParamEp4ItemRB2l_EL_EEECscG178fYrITo_14zerovec_derive, symObjAddr: 0x1CD0, symBinAddr: 0x25E50, symSize: 0x20 }
  - { offset: 0x534F2, size: 0x8, addend: 0x0, symName: __RINvNtCsieiGu2EXtoJ_4core3ptr13drop_in_placeINtNtCslJiobkLta79_5alloc5boxed3BoxNtCsaKzlTDPUHDb_11proc_macro25IdentEECscG178fYrITo_14zerovec_derive, symObjAddr: 0x1CF0, symBinAddr: 0x25E70, symSize: 0x50 }
  - { offset: 0x53521, size: 0x8, addend: 0x0, symName: __RINvNtCsieiGu2EXtoJ_4core3ptr13drop_in_placeINtNtCslJiobkLta79_5alloc5boxed3BoxNtNtNtCsHUR1vrdMJt_3std2io5error6CustomEECscG178fYrITo_14zerovec_derive, symObjAddr: 0x1D40, symBinAddr: 0x25EC0, symSize: 0x50 }
  - { offset: 0x53550, size: 0x8, addend: 0x0, symName: __RINvNtCsieiGu2EXtoJ_4core3ptr13drop_in_placeINtNtCslJiobkLta79_5alloc7raw_vec6RawVecINtNtB4_6option6OptionNtCsaKzlTDPUHDb_11proc_macro25IdentEEECscG178fYrITo_14zerovec_derive, symObjAddr: 0x1D90, symBinAddr: 0x25F10, symSize: 0x20 }
  - { offset: 0x5357F, size: 0x8, addend: 0x0, symName: __RINvNtCsieiGu2EXtoJ_4core3ptr13drop_in_placeINtNtCslJiobkLta79_5alloc7raw_vec6RawVecNtCsaKzlTDPUHDb_11proc_macro211TokenStreamEECscG178fYrITo_14zerovec_derive, symObjAddr: 0x1DB0, symBinAddr: 0x25F30, symSize: 0x20 }
  - { offset: 0x535AE, size: 0x8, addend: 0x0, symName: __RINvNtCsieiGu2EXtoJ_4core3ptr13drop_in_placeINtNtCslJiobkLta79_5alloc7raw_vec6RawVecNtCsaKzlTDPUHDb_11proc_macro25IdentEECscG178fYrITo_14zerovec_derive, symObjAddr: 0x1DD0, symBinAddr: 0x25F50, symSize: 0x20 }
  - { offset: 0x535DD, size: 0x8, addend: 0x0, symName: __RINvNtCsieiGu2EXtoJ_4core3ptr13drop_in_placeINtNtCslJiobkLta79_5alloc7raw_vec6RawVecNtNtCscG178fYrITo_14zerovec_derive11make_varule12UnsizedFieldEEB1o_, symObjAddr: 0x1DF0, symBinAddr: 0x25F70, symSize: 0x20 }
  - { offset: 0x5360C, size: 0x8, addend: 0x0, symName: __RINvNtCsieiGu2EXtoJ_4core3ptr13drop_in_placeINtNtCslJiobkLta79_5alloc7raw_vec6RawVecNtNtCscG178fYrITo_14zerovec_derive5utils9FieldInfoEEB1o_, symObjAddr: 0x1E10, symBinAddr: 0x25F90, symSize: 0x20 }
  - { offset: 0x5363B, size: 0x8, addend: 0x0, symName: __RINvNtCsieiGu2EXtoJ_4core3ptr13drop_in_placeINtNtCslJiobkLta79_5alloc7raw_vec6RawVecRhEECscG178fYrITo_14zerovec_derive, symObjAddr: 0x1E30, symBinAddr: 0x25FB0, symSize: 0x20 }
  - { offset: 0x5366A, size: 0x8, addend: 0x0, symName: __RINvNtCsieiGu2EXtoJ_4core3ptr13drop_in_placeINtNtCslJiobkLta79_5alloc7raw_vec6RawVecTNtCsaKzlTDPUHDb_11proc_macro25IdentNtNtCsdGrGZaRBwMb_3syn5token5CommaEEECscG178fYrITo_14zerovec_derive, symObjAddr: 0x1E50, symBinAddr: 0x25FD0, symSize: 0x20 }
  - { offset: 0x53699, size: 0x8, addend: 0x0, symName: __RINvNtCsieiGu2EXtoJ_4core3ptr13drop_in_placeINtNtNtCsHUR1vrdMJt_3std2io5error9ErrorDataINtNtCslJiobkLta79_5alloc5boxed3BoxNtBJ_6CustomEEECscG178fYrITo_14zerovec_derive, symObjAddr: 0x1E70, symBinAddr: 0x25FF0, symSize: 0x30 }
  - { offset: 0x536C8, size: 0x8, addend: 0x0, symName: __RINvNtCsieiGu2EXtoJ_4core3ptr13drop_in_placeINtNtNtCslJiobkLta79_5alloc3vec9into_iter8IntoIterNtCsaKzlTDPUHDb_11proc_macro25IdentEECscG178fYrITo_14zerovec_derive, symObjAddr: 0x1EA0, symBinAddr: 0x26020, symSize: 0x20 }
  - { offset: 0x536F7, size: 0x8, addend: 0x0, symName: __RINvNtCsieiGu2EXtoJ_4core3ptr13drop_in_placeINtNtNtNtB4_4iter8adapters3map3MapINtNtBL_9enumerate9EnumerateINtNtBL_4take4TakeINtNtCsdGrGZaRBwMb_3syn10punctuated4IterNtNtB23_4data5FieldEEENCINvMs0_NtCscG178fYrITo_14zerovec_derive5utilsNtB37_9FieldInfo9make_listB1G_E0EEB39_, symObjAddr: 0x1EC0, symBinAddr: 0x26040, symSize: 0x20 }
  - { offset: 0x53726, size: 0x8, addend: 0x0, symName: __RINvNtCsieiGu2EXtoJ_4core3ptr13drop_in_placeINtNtNtNtB4_4iter8adapters3map3MapINtNtBL_9enumerate9EnumerateINtNtCsdGrGZaRBwMb_3syn10punctuated4IterNtNtB1L_4data5FieldEENCINvMs0_NtCscG178fYrITo_14zerovec_derive5utilsNtB2O_9FieldInfo9make_listB1G_E0EEB2Q_, symObjAddr: 0x1EE0, symBinAddr: 0x26060, symSize: 0x20 }
  - { offset: 0x53755, size: 0x8, addend: 0x0, symName: __RINvNtCsieiGu2EXtoJ_4core3ptr13drop_in_placeINtNtNtNtB4_4iter8adapters4take4TakeINtNtCsdGrGZaRBwMb_3syn10punctuated4IterNtNtB1l_4data5FieldEEECscG178fYrITo_14zerovec_derive, symObjAddr: 0x1F00, symBinAddr: 0x26080, symSize: 0x20 }
  - { offset: 0x53784, size: 0x8, addend: 0x0, symName: __RINvNtCsieiGu2EXtoJ_4core3ptr13drop_in_placeINtNtNtNtB4_4iter8adapters6cloned6ClonedINtNtCsdGrGZaRBwMb_3syn10punctuated4IterNtCsaKzlTDPUHDb_11proc_macro25IdentEEECscG178fYrITo_14zerovec_derive, symObjAddr: 0x1F20, symBinAddr: 0x260A0, symSize: 0x20 }
  - { offset: 0x537B3, size: 0x8, addend: 0x0, symName: __RINvNtCsieiGu2EXtoJ_4core3ptr13drop_in_placeINtNtNtNtB4_4iter8adapters9enumerate9EnumerateINtNtBL_4take4TakeINtNtCsdGrGZaRBwMb_3syn10punctuated4IterNtNtB1N_4data5FieldEEEECscG178fYrITo_14zerovec_derive, symObjAddr: 0x1F40, symBinAddr: 0x260C0, symSize: 0x20 }
  - { offset: 0x537E2, size: 0x8, addend: 0x0, symName: __RINvNtCsieiGu2EXtoJ_4core3ptr13drop_in_placeINtNtNtNtB4_4iter8adapters9enumerate9EnumerateINtNtCsdGrGZaRBwMb_3syn10punctuated4IterNtNtB1v_4data5FieldEEECscG178fYrITo_14zerovec_derive, symObjAddr: 0x1F60, symBinAddr: 0x260E0, symSize: 0x20 }
  - { offset: 0x53811, size: 0x8, addend: 0x0, symName: __RINvNtCsieiGu2EXtoJ_4core3ptr13drop_in_placeINtNtNtNtB4_4iter8adapters9enumerate9EnumerateINtNtCsdGrGZaRBwMb_3syn10punctuated4IterNtNtB1v_4data7VariantEEECscG178fYrITo_14zerovec_derive, symObjAddr: 0x1F80, symBinAddr: 0x26100, symSize: 0x20 }
  - { offset: 0x53840, size: 0x8, addend: 0x0, symName: __RINvNtCsieiGu2EXtoJ_4core3ptr13drop_in_placeINtNtNtNtCsHUR1vrdMJt_3std11collections4hash3set7HashSethEECscG178fYrITo_14zerovec_derive, symObjAddr: 0x1FA0, symBinAddr: 0x26120, symSize: 0x20 }
  - { offset: 0x5386F, size: 0x8, addend: 0x0, symName: __RINvNtCsieiGu2EXtoJ_4core3ptr13drop_in_placeINtNvMs_NtCslJiobkLta79_5alloc3vecINtBO_3VecppE10retain_mut15BackshiftOnDropNtNtCsdGrGZaRBwMb_3syn4attr9AttributeNtNtBQ_5alloc6GlobalEECscG178fYrITo_14zerovec_derive, symObjAddr: 0x1FC0, symBinAddr: 0x26140, symSize: 0x20 }
  - { offset: 0x5389E, size: 0x8, addend: 0x0, symName: __RINvNtCsieiGu2EXtoJ_4core3ptr13drop_in_placeINtNvXsd_NtNtCslJiobkLta79_5alloc3vec9into_iterINtBP_8IntoIterppENtNtNtB4_3ops4drop4Drop4drop9DropGuardNtCsaKzlTDPUHDb_11proc_macro25IdentNtNtBT_5alloc6GlobalEECscG178fYrITo_14zerovec_derive, symObjAddr: 0x1FE0, symBinAddr: 0x26160, symSize: 0x20 }
  - { offset: 0x538CD, size: 0x8, addend: 0x0, symName: __RINvNtCsieiGu2EXtoJ_4core3ptr13drop_in_placeNCINvMsi_NtCslJiobkLta79_5alloc3vecINtBP_3VecNtCsaKzlTDPUHDb_11proc_macro211TokenStreamE14extend_trustedINtNtNtNtB4_4iter8adapters3map3MapINtNtNtB4_5slice4iter4IterNtNtCscG178fYrITo_14zerovec_derive5utils9FieldInfoENCNvNtB3o_11make_varule21make_zf_and_from_impl0EE0EB3o_, symObjAddr: 0x2000, symBinAddr: 0x26180, symSize: 0x20 }
  - { offset: 0x538FC, size: 0x8, addend: 0x0, symName: __RINvNtCsieiGu2EXtoJ_4core3ptr13drop_in_placeNCINvMsi_NtCslJiobkLta79_5alloc3vecINtBP_3VecNtCsaKzlTDPUHDb_11proc_macro211TokenStreamE14extend_trustedINtNtNtNtB4_4iter8adapters3map3MapINtNtNtB4_5slice4iter4IterNtNtCscG178fYrITo_14zerovec_derive5utils9FieldInfoENCNvNtB3o_3ule15make_ule_fields0EE0EB3o_, symObjAddr: 0x2020, symBinAddr: 0x261A0, symSize: 0x20 }
  - { offset: 0x5392B, size: 0x8, addend: 0x0, symName: __RINvNtCsieiGu2EXtoJ_4core3ptr13drop_in_placeNCINvNtNtNtB4_4iter8adapters3map8map_foldRNtNtCscG178fYrITo_14zerovec_derive5utils9FieldInfoNtCsaKzlTDPUHDb_11proc_macro211TokenStreamuNCNvNtB1q_11make_varule21make_zf_and_from_impl0NCINvNvNtNtNtBP_6traits8iterator8Iterator8for_each4callB2a_NCINvMsi_NtCslJiobkLta79_5alloc3vecINtB4I_3VecB2a_E14extend_trustedINtBL_3MapINtNtNtB4_5slice4iter4IterB1m_EB2R_EE0E0E0EB1q_, symObjAddr: 0x2040, symBinAddr: 0x261C0, symSize: 0x20 }
  - { offset: 0x5395A, size: 0x8, addend: 0x0, symName: __RINvNtCsieiGu2EXtoJ_4core3ptr13drop_in_placeNCINvNtNtNtB4_4iter8adapters3map8map_foldRNtNtCscG178fYrITo_14zerovec_derive5utils9FieldInfoNtCsaKzlTDPUHDb_11proc_macro211TokenStreamuNCNvNtB1q_3ule15make_ule_fields0NCINvNvNtNtNtBP_6traits8iterator8Iterator8for_each4callB2a_NCINvMsi_NtCslJiobkLta79_5alloc3vecINtB4t_3VecB2a_E14extend_trustedINtBL_3MapINtNtNtB4_5slice4iter4IterB1m_EB2R_EE0E0E0EB1q_, symObjAddr: 0x2060, symBinAddr: 0x261E0, symSize: 0x20 }
  - { offset: 0x53989, size: 0x8, addend: 0x0, symName: __RINvNtCsieiGu2EXtoJ_4core3ptr13drop_in_placeNCINvNvNtNtNtNtB4_4iter6traits8iterator8Iterator8for_each4callNtCsaKzlTDPUHDb_11proc_macro211TokenStreamNCINvMsi_NtCslJiobkLta79_5alloc3vecINtB2v_3VecB1G_E14extend_trustedINtNtNtBT_8adapters3map3MapINtNtNtB4_5slice4iter4IterNtNtCscG178fYrITo_14zerovec_derive5utils9FieldInfoENCNvNtB4m_11make_varule21make_zf_and_from_impl0EE0E0EB4m_, symObjAddr: 0x2080, symBinAddr: 0x26200, symSize: 0x20 }
  - { offset: 0x539B8, size: 0x8, addend: 0x0, symName: __RINvNtCsieiGu2EXtoJ_4core3ptr13drop_in_placeNCINvNvNtNtNtNtB4_4iter6traits8iterator8Iterator8for_each4callNtCsaKzlTDPUHDb_11proc_macro211TokenStreamNCINvMsi_NtCslJiobkLta79_5alloc3vecINtB2v_3VecB1G_E14extend_trustedINtNtNtBT_8adapters3map3MapINtNtNtB4_5slice4iter4IterNtNtCscG178fYrITo_14zerovec_derive5utils9FieldInfoENCNvNtB4m_3ule15make_ule_fields0EE0E0EB4m_, symObjAddr: 0x20A0, symBinAddr: 0x26220, symSize: 0x20 }
  - { offset: 0x539E7, size: 0x8, addend: 0x0, symName: __RINvNtCsieiGu2EXtoJ_4core3ptr13drop_in_placeNCNCINvNtNtCscKtU6MdFI5n_10proc_macro6bridge6client10run_clientNtBN_11TokenStreamINtNtB4_6option6OptionB1H_ENCNCINvMs6_BN_INtBN_6ClientNtBR_11TokenStreamB2R_E7expand1NvCscG178fYrITo_14zerovec_derive10ule_deriveE00E00EB3o_, symObjAddr: 0x20C0, symBinAddr: 0x26240, symSize: 0x20 }
  - { offset: 0x53A16, size: 0x8, addend: 0x0, symName: __RINvNtCsieiGu2EXtoJ_4core3ptr13drop_in_placeNCNCINvNtNtCscKtU6MdFI5n_10proc_macro6bridge6client10run_clientNtBN_11TokenStreamINtNtB4_6option6OptionB1H_ENCNCINvMs6_BN_INtBN_6ClientNtBR_11TokenStreamB2R_E7expand1NvCscG178fYrITo_14zerovec_derive13varule_deriveE00E00EB3o_, symObjAddr: 0x20E0, symBinAddr: 0x26260, symSize: 0x20 }
  - { offset: 0x53A45, size: 0x8, addend: 0x0, symName: __RINvNtCsieiGu2EXtoJ_4core3ptr13drop_in_placeNCNCINvNtNtCscKtU6MdFI5n_10proc_macro6bridge6client10run_clientTNtBN_11TokenStreamB1I_EINtNtB4_6option6OptionB1I_ENCNCINvMs7_BN_INtBN_6ClientTNtBR_11TokenStreamB2Y_EB2Y_E7expand2NvCscG178fYrITo_14zerovec_derive11make_varuleE00E00EB3A_, symObjAddr: 0x2100, symBinAddr: 0x26280, symSize: 0x20 }
  - { offset: 0x53A74, size: 0x8, addend: 0x0, symName: __RINvNtCsieiGu2EXtoJ_4core3ptr13drop_in_placeNCNCINvNtNtCscKtU6MdFI5n_10proc_macro6bridge6client10run_clientTNtBN_11TokenStreamB1I_EINtNtB4_6option6OptionB1I_ENCNCINvMs7_BN_INtBN_6ClientTNtBR_11TokenStreamB2Y_EB2Y_E7expand2NvCscG178fYrITo_14zerovec_derive8make_uleE00E00EB3A_, symObjAddr: 0x2120, symBinAddr: 0x262A0, symSize: 0x20 }
  - { offset: 0x53AA3, size: 0x8, addend: 0x0, symName: __RINvNtCsieiGu2EXtoJ_4core3ptr13drop_in_placeNtNtCscG178fYrITo_14zerovec_derive11make_varule12UnsizedFieldEBK_, symObjAddr: 0x2140, symBinAddr: 0x262C0, symSize: 0x60 }
  - { offset: 0x53AD2, size: 0x8, addend: 0x0, symName: __RINvNtCsieiGu2EXtoJ_4core3ptr13drop_in_placeNtNtCscG178fYrITo_14zerovec_derive11make_varule13UnsizedFieldsEBK_, symObjAddr: 0x21A0, symBinAddr: 0x26320, symSize: 0x60 }
  - { offset: 0x53B01, size: 0x8, addend: 0x0, symName: __RINvNtCsieiGu2EXtoJ_4core3ptr13drop_in_placeNtNtCscG178fYrITo_14zerovec_derive11make_varule16UnsizedFieldKindEBK_, symObjAddr: 0x2200, symBinAddr: 0x26380, symSize: 0x50 }
  - { offset: 0x53B30, size: 0x8, addend: 0x0, symName: __RINvNtCsieiGu2EXtoJ_4core3ptr13drop_in_placeNtNtCscG178fYrITo_14zerovec_derive5utils12ZeroVecAttrsEBK_, symObjAddr: 0x2250, symBinAddr: 0x263D0, symSize: 0x20 }
  - { offset: 0x53B5F, size: 0x8, addend: 0x0, symName: __RINvNtCsieiGu2EXtoJ_4core3ptr13drop_in_placeNtNtCscG178fYrITo_14zerovec_derive5utils18IdentListAttributeEBK_, symObjAddr: 0x2270, symBinAddr: 0x263F0, symSize: 0x20 }
  - { offset: 0x53B8E, size: 0x8, addend: 0x0, symName: __RINvNtCsieiGu2EXtoJ_4core3ptr13drop_in_placeNtNtCscG178fYrITo_14zerovec_derive5utils9FieldInfoEBK_, symObjAddr: 0x2290, symBinAddr: 0x26410, symSize: 0x20 }
  - { offset: 0x53BBD, size: 0x8, addend: 0x0, symName: __RINvNtCsieiGu2EXtoJ_4core3ptr13drop_in_placeNtNtCsdGrGZaRBwMb_3syn6derive11DeriveInputECscG178fYrITo_14zerovec_derive, symObjAddr: 0x22B0, symBinAddr: 0x26430, symSize: 0xF0 }
  - { offset: 0x53BEC, size: 0x8, addend: 0x0, symName: __RINvNtCsieiGu2EXtoJ_4core3ptr13drop_in_placeNtNtCsdGrGZaRBwMb_3syn8generics10TypeParamsECscG178fYrITo_14zerovec_derive, symObjAddr: 0x23A0, symBinAddr: 0x26520, symSize: 0x20 }
  - { offset: 0x53C1B, size: 0x8, addend: 0x0, symName: __RINvNtCsieiGu2EXtoJ_4core3ptr13drop_in_placeNtNtCsdGrGZaRBwMb_3syn8generics11ConstParamsECscG178fYrITo_14zerovec_derive, symObjAddr: 0x23C0, symBinAddr: 0x26540, symSize: 0x20 }
  - { offset: 0x53C4A, size: 0x8, addend: 0x0, symName: __RINvNtCsieiGu2EXtoJ_4core3ptr13drop_in_placeNtNtCsdGrGZaRBwMb_3syn8generics9LifetimesECscG178fYrITo_14zerovec_derive, symObjAddr: 0x23E0, symBinAddr: 0x26560, symSize: 0x20 }
  - { offset: 0x53C79, size: 0x8, addend: 0x0, symName: __RINvNtCsieiGu2EXtoJ_4core3ptr13drop_in_placeNtNtNtCsHUR1vrdMJt_3std2io5error5ErrorECscG178fYrITo_14zerovec_derive, symObjAddr: 0x2400, symBinAddr: 0x26580, symSize: 0x20 }
  - { offset: 0x53CA8, size: 0x8, addend: 0x0, symName: __RINvNtCsieiGu2EXtoJ_4core3ptr13drop_in_placeNtNtNtCsHUR1vrdMJt_3std2io5error6CustomECscG178fYrITo_14zerovec_derive, symObjAddr: 0x2420, symBinAddr: 0x265A0, symSize: 0x20 }
  - { offset: 0x53CD7, size: 0x8, addend: 0x0, symName: __RINvNtCsieiGu2EXtoJ_4core3ptr13drop_in_placeNtNtNtCscKtU6MdFI5n_10proc_macro6bridge3rpc12PanicMessageECscG178fYrITo_14zerovec_derive, symObjAddr: 0x2440, symBinAddr: 0x265C0, symSize: 0x50 }
  - { offset: 0x53D06, size: 0x8, addend: 0x0, symName: __RINvNtCsieiGu2EXtoJ_4core3ptr13drop_in_placeNtNtNtCscKtU6MdFI5n_10proc_macro6bridge6buffer6BufferECscG178fYrITo_14zerovec_derive, symObjAddr: 0x2490, symBinAddr: 0x26610, symSize: 0x20 }
  - { offset: 0x53D35, size: 0x8, addend: 0x0, symName: __RINvNtCsieiGu2EXtoJ_4core3ptr13drop_in_placeNtNtNtCscKtU6MdFI5n_10proc_macro6bridge6client6BridgeECscG178fYrITo_14zerovec_derive, symObjAddr: 0x24B0, symBinAddr: 0x26630, symSize: 0x20 }
  - { offset: 0x53D64, size: 0x8, addend: 0x0, symName: __RINvNtCsieiGu2EXtoJ_4core3ptr13drop_in_placeNtNtNtNtCsHUR1vrdMJt_3std2io5error14repr_bitpacked4ReprECscG178fYrITo_14zerovec_derive, symObjAddr: 0x24D0, symBinAddr: 0x26650, symSize: 0x20 }
  - { offset: 0x53D93, size: 0x8, addend: 0x0, symName: __RINvNtCsieiGu2EXtoJ_4core3ptr13drop_in_placeNtNvNtNtNtCscKtU6MdFI5n_10proc_macro6bridge6client5state3set13RestoreOnDropECscG178fYrITo_14zerovec_derive, symObjAddr: 0x24F0, symBinAddr: 0x26670, symSize: 0x20 }
  - { offset: 0x53DC2, size: 0x8, addend: 0x0, symName: __RINvNtCsieiGu2EXtoJ_4core3ptr13drop_in_placeSINtNtB4_6option6OptionNtCsaKzlTDPUHDb_11proc_macro25IdentEECscG178fYrITo_14zerovec_derive, symObjAddr: 0x2510, symBinAddr: 0x26690, symSize: 0xA0 }
  - { offset: 0x53DF1, size: 0x8, addend: 0x0, symName: __RINvNtCsieiGu2EXtoJ_4core3ptr13drop_in_placeSNtCsaKzlTDPUHDb_11proc_macro211TokenStreamECscG178fYrITo_14zerovec_derive, symObjAddr: 0x25B0, symBinAddr: 0x26730, symSize: 0xA0 }
  - { offset: 0x53E20, size: 0x8, addend: 0x0, symName: __RINvNtCsieiGu2EXtoJ_4core3ptr13drop_in_placeSNtCsaKzlTDPUHDb_11proc_macro25IdentECscG178fYrITo_14zerovec_derive, symObjAddr: 0x2650, symBinAddr: 0x267D0, symSize: 0xA0 }
  - { offset: 0x53E4F, size: 0x8, addend: 0x0, symName: __RINvNtCsieiGu2EXtoJ_4core3ptr13drop_in_placeSNtNtCscG178fYrITo_14zerovec_derive11make_varule12UnsizedFieldEBL_, symObjAddr: 0x26F0, symBinAddr: 0x26870, symSize: 0xA0 }
  - { offset: 0x53E7E, size: 0x8, addend: 0x0, symName: __RINvNtCsieiGu2EXtoJ_4core3ptr13drop_in_placeSNtNtCscG178fYrITo_14zerovec_derive5utils9FieldInfoEBL_, symObjAddr: 0x2790, symBinAddr: 0x26910, symSize: 0xA0 }
  - { offset: 0x53EAD, size: 0x8, addend: 0x0, symName: __RINvNtCsieiGu2EXtoJ_4core3ptr13drop_in_placeSTNtCsaKzlTDPUHDb_11proc_macro25IdentNtNtCsdGrGZaRBwMb_3syn5token5CommaEECscG178fYrITo_14zerovec_derive, symObjAddr: 0x2830, symBinAddr: 0x269B0, symSize: 0xA0 }
  - { offset: 0x53EDC, size: 0x8, addend: 0x0, symName: __RINvNtCsieiGu2EXtoJ_4core3ptr13drop_in_placeTNtCsaKzlTDPUHDb_11proc_macro25IdentNtNtCsdGrGZaRBwMb_3syn5token5CommaEECscG178fYrITo_14zerovec_derive, symObjAddr: 0x28D0, symBinAddr: 0x26A50, symSize: 0x20 }
  - { offset: 0x53F0B, size: 0x8, addend: 0x0, symName: __RINvNtCsieiGu2EXtoJ_4core3ptr13drop_in_placeTNtNtNtCscKtU6MdFI5n_10proc_macro6bridge6client11TokenStreamBH_EECscG178fYrITo_14zerovec_derive, symObjAddr: 0x28F0, symBinAddr: 0x26A70, symSize: 0x60 }
  - { offset: 0x56A55, size: 0x8, addend: 0x0, symName: __RNvXsq_NtCsieiGu2EXtoJ_4core6resultINtB5_6ResultINtNtCsdGrGZaRBwMb_3syn10punctuated10PunctuatedNtCsaKzlTDPUHDb_11proc_macro25IdentNtNtBP_5token5CommaENtNtBP_5error5ErrorEINtNtNtB7_3ops9try_trait12FromResidualIBy_NtNtB7_7convert10InfallibleB2o_EE13from_residualCscG178fYrITo_14zerovec_derive, symObjAddr: 0x5400, symBinAddr: 0x29580, symSize: 0x60 }
  - { offset: 0x56ADA, size: 0x8, addend: 0x0, symName: __RNvXsq_NtCsieiGu2EXtoJ_4core6resultINtB5_6ResultNtNtCscG178fYrITo_14zerovec_derive11make_varule12UnsizedFieldNtNtCslJiobkLta79_5alloc6string6StringEINtNtNtB7_3ops9try_trait12FromResidualIBy_NtNtB7_7convert10InfallibleB1J_EE13from_residualBO_, symObjAddr: 0x5460, symBinAddr: 0x295E0, symSize: 0x60 }
  - { offset: 0x56B5F, size: 0x8, addend: 0x0, symName: __RNvXsq_NtCsieiGu2EXtoJ_4core6resultINtB5_6ResultNtNtCscG178fYrITo_14zerovec_derive5utils12ZeroVecAttrsNtNtCsdGrGZaRBwMb_3syn5error5ErrorEINtNtNtB7_3ops9try_trait12FromResidualIBy_NtNtB7_7convert10InfallibleB1C_EE13from_residualBO_, symObjAddr: 0x54C0, symBinAddr: 0x29640, symSize: 0x60 }
  - { offset: 0x56BE4, size: 0x8, addend: 0x0, symName: __RNvXsq_NtCsieiGu2EXtoJ_4core6resultINtB5_6ResultNtNtCscG178fYrITo_14zerovec_derive5utils18IdentListAttributeNtNtCsdGrGZaRBwMb_3syn5error5ErrorEINtNtNtB7_3ops9try_trait12FromResidualIBy_NtNtB7_7convert10InfallibleB1I_EE13from_residualBO_, symObjAddr: 0x5520, symBinAddr: 0x296A0, symSize: 0x60 }
  - { offset: 0x56DFE, size: 0x8, addend: 0x0, symName: __RNvXsp_NtCsieiGu2EXtoJ_4core6resultINtB5_6ResultINtNtB7_6option6OptionNtCsaKzlTDPUHDb_11proc_macro211TokenStreamENtNtCsdGrGZaRBwMb_3syn5error5ErrorENtNtNtB7_3ops9try_trait3Try6branchCscG178fYrITo_14zerovec_derive, symObjAddr: 0x4EF0, symBinAddr: 0x29070, symSize: 0xE0 }
  - { offset: 0x56E7C, size: 0x8, addend: 0x0, symName: __RNvXsp_NtCsieiGu2EXtoJ_4core6resultINtB5_6ResultINtNtCsdGrGZaRBwMb_3syn10punctuated10PunctuatedNtCsaKzlTDPUHDb_11proc_macro25IdentNtNtBP_5token5CommaENtNtBP_5error5ErrorENtNtNtB7_3ops9try_trait3Try6branchCscG178fYrITo_14zerovec_derive, symObjAddr: 0x4FD0, symBinAddr: 0x29150, symSize: 0xE0 }
  - { offset: 0x56EFA, size: 0x8, addend: 0x0, symName: __RNvXsp_NtCsieiGu2EXtoJ_4core6resultINtB5_6ResultINtNtCslJiobkLta79_5alloc3vec3VecNtCsaKzlTDPUHDb_11proc_macro25IdentENtNtCsdGrGZaRBwMb_3syn5error5ErrorENtNtNtB7_3ops9try_trait3Try6branchCscG178fYrITo_14zerovec_derive, symObjAddr: 0x50B0, symBinAddr: 0x29230, symSize: 0xC0 }
  - { offset: 0x56F78, size: 0x8, addend: 0x0, symName: __RNvXsp_NtCsieiGu2EXtoJ_4core6resultINtB5_6ResultNtNtCscG178fYrITo_14zerovec_derive11make_varule16UnsizedFieldKindNtNtCslJiobkLta79_5alloc6string6StringENtNtNtB7_3ops9try_trait3Try6branchBO_, symObjAddr: 0x5170, symBinAddr: 0x292F0, symSize: 0xD0 }
  - { offset: 0x56FF6, size: 0x8, addend: 0x0, symName: __RNvXsp_NtCsieiGu2EXtoJ_4core6resultINtB5_6ResultNtNtCscG178fYrITo_14zerovec_derive5utils18IdentListAttributeNtNtCsdGrGZaRBwMb_3syn5error5ErrorENtNtNtB7_3ops9try_trait3Try6branchBO_, symObjAddr: 0x5240, symBinAddr: 0x293C0, symSize: 0xE0 }
  - { offset: 0x57074, size: 0x8, addend: 0x0, symName: __RNvXsp_NtCsieiGu2EXtoJ_4core6resultINtB5_6ResultNtNtCsdGrGZaRBwMb_3syn6derive11DeriveInputNtNtBO_5error5ErrorENtNtNtB7_3ops9try_trait3Try6branchCscG178fYrITo_14zerovec_derive, symObjAddr: 0x5320, symBinAddr: 0x294A0, symSize: 0xE0 }
  - { offset: 0x57E50, size: 0x8, addend: 0x0, symName: __RNSNvYNCINvMs6_NtCsjK30CmJ87bX_9hashbrown3rawINtBd_8RawTableThuEE14reserve_rehashNCINvNtBf_3map11make_hasherhuNtNtNtCsHUR1vrdMJt_3std4hash6random11RandomStateE0E0INtNtNtCsieiGu2EXtoJ_4core3ops8function6FnOnceTQNtBd_13RawTableInnerjEE9call_once6vtableCscG178fYrITo_14zerovec_derive, symObjAddr: 0x2E20, symBinAddr: 0x26FA0, symSize: 0x30 }
  - { offset: 0x57E94, size: 0x8, addend: 0x0, symName: __RNSNvYNCINvMs6_NtCsjK30CmJ87bX_9hashbrown3rawINtBd_8RawTableThuEE24find_or_find_insert_slotNCINvNtBf_3map14equivalent_keyhhuE0NCINvB1w_11make_hasherhuNtNtNtCsHUR1vrdMJt_3std4hash6random11RandomStateE0E0INtNtNtCsieiGu2EXtoJ_4core3ops8function6FnOnceTjEE9call_once6vtableCscG178fYrITo_14zerovec_derive, symObjAddr: 0x2E50, symBinAddr: 0x26FD0, symSize: 0x30 }
  - { offset: 0x57ED8, size: 0x8, addend: 0x0, symName: __RNSNvYNCINvMs6_NtCsjK30CmJ87bX_9hashbrown3rawINtBd_8RawTableThuEE4findNCINvNtBf_3map14equivalent_keyhhuE0E0INtNtNtCsieiGu2EXtoJ_4core3ops8function6FnOnceTjEE9call_once6vtableCscG178fYrITo_14zerovec_derive, symObjAddr: 0x2E80, symBinAddr: 0x27000, symSize: 0x30 }
  - { offset: 0x57F1C, size: 0x8, addend: 0x0, symName: __RNvYNCINvMs6_NtCsjK30CmJ87bX_9hashbrown3rawINtBb_8RawTableThuEE14reserve_rehashNCINvNtBd_3map11make_hasherhuNtNtNtCsHUR1vrdMJt_3std4hash6random11RandomStateE0E0INtNtNtCsieiGu2EXtoJ_4core3ops8function6FnOnceTQNtBb_13RawTableInnerjEE9call_onceCscG178fYrITo_14zerovec_derive, symObjAddr: 0x5630, symBinAddr: 0x297B0, symSize: 0x50 }
  - { offset: 0x57F60, size: 0x8, addend: 0x0, symName: __RNvYNCINvMs6_NtCsjK30CmJ87bX_9hashbrown3rawINtBb_8RawTableThuEE24find_or_find_insert_slotNCINvNtBd_3map14equivalent_keyhhuE0NCINvB1u_11make_hasherhuNtNtNtCsHUR1vrdMJt_3std4hash6random11RandomStateE0E0INtNtNtCsieiGu2EXtoJ_4core3ops8function6FnOnceTjEE9call_onceCscG178fYrITo_14zerovec_derive, symObjAddr: 0x5680, symBinAddr: 0x29800, symSize: 0x50 }
  - { offset: 0x57FA4, size: 0x8, addend: 0x0, symName: __RNvYNCINvMs6_NtCsjK30CmJ87bX_9hashbrown3rawINtBb_8RawTableThuEE4findNCINvNtBd_3map14equivalent_keyhhuE0E0INtNtNtCsieiGu2EXtoJ_4core3ops8function6FnOnceTjEE9call_onceCscG178fYrITo_14zerovec_derive, symObjAddr: 0x56D0, symBinAddr: 0x29850, symSize: 0x50 }
  - { offset: 0x57FE8, size: 0x8, addend: 0x0, symName: __RNvYNCNkNvNtNtNtCscKtU6MdFI5n_10proc_macro6bridge6client5state12BRIDGE_STATE0s_0INtNtNtCsieiGu2EXtoJ_4core3ops8function6FnOnceTINtNtB1n_6option6OptionQIB22_INtNtB1n_4cell4CellPuEEEEE9call_onceCscG178fYrITo_14zerovec_derive, symObjAddr: 0x5720, symBinAddr: 0x298A0, symSize: 0x40 }
  - { offset: 0x5802C, size: 0x8, addend: 0x0, symName: __RNvYNCNkNvNvMNtNtCsHUR1vrdMJt_3std4hash6randomNtBb_11RandomState3new4KEYS0s_0INtNtNtCsieiGu2EXtoJ_4core3ops8function6FnOnceTINtNtB1k_6option6OptionQIB1Z_INtNtB1k_4cell4CellTyyEEEEEE9call_onceCscG178fYrITo_14zerovec_derive, symObjAddr: 0x5760, symBinAddr: 0x298E0, symSize: 0x40 }
  - { offset: 0x58070, size: 0x8, addend: 0x0, symName: __RNvYNcNtNtNtCscG178fYrITo_14zerovec_derive11make_varule16UnsizedFieldKind10VarZeroCow0INtNtNtCsieiGu2EXtoJ_4core3ops8function6FnOnceTNtB8_8OwnULETyEE9call_onceBa_, symObjAddr: 0x57A0, symBinAddr: 0x29920, symSize: 0x30 }
  - { offset: 0x580B4, size: 0x8, addend: 0x0, symName: __RNvYNcNtNtNtCscG178fYrITo_14zerovec_derive11make_varule16UnsizedFieldKind3Cow0INtNtNtCsieiGu2EXtoJ_4core3ops8function6FnOnceTNtB8_8OwnULETyEE9call_onceBa_, symObjAddr: 0x57D0, symBinAddr: 0x29950, symSize: 0x30 }
  - { offset: 0x580F8, size: 0x8, addend: 0x0, symName: __RNvYNcNtNtNtCscG178fYrITo_14zerovec_derive11make_varule16UnsizedFieldKind3Ref0INtNtNtCsieiGu2EXtoJ_4core3ops8function6FnOnceTNtB8_8OwnULETyEE9call_onceBa_, symObjAddr: 0x5800, symBinAddr: 0x29980, symSize: 0x30 }
  - { offset: 0x5813C, size: 0x8, addend: 0x0, symName: __RNvYNcNtNtNtCscG178fYrITo_14zerovec_derive11make_varule16UnsizedFieldKind5Boxed0INtNtNtCsieiGu2EXtoJ_4core3ops8function6FnOnceTNtB8_8OwnULETyEE9call_onceBa_, symObjAddr: 0x5830, symBinAddr: 0x299B0, symSize: 0x30 }
  - { offset: 0x58180, size: 0x8, addend: 0x0, symName: __RNvYNvNvNvMNtNtCsHUR1vrdMJt_3std4hash6randomNtB9_11RandomState3new4KEYS6___initINtNtNtCsieiGu2EXtoJ_4core3ops8function6FnOnceuE9call_onceCscG178fYrITo_14zerovec_derive, symObjAddr: 0x5900, symBinAddr: 0x29A80, symSize: 0x20 }
  - { offset: 0x581C4, size: 0x8, addend: 0x0, symName: __RNvYNvYINtNtCslJiobkLta79_5alloc5boxed3BoxNtCsaKzlTDPUHDb_11proc_macro25IdentEINtNtCsieiGu2EXtoJ_4core7convert5AsRefBE_E6as_refINtNtNtB1j_3ops8function6FnOnceTRB5_EE9call_onceCscG178fYrITo_14zerovec_derive, symObjAddr: 0x5920, symBinAddr: 0x29AA0, symSize: 0x20 }
  - { offset: 0x58208, size: 0x8, addend: 0x0, symName: __RNvYNvYNtCsaKzlTDPUHDb_11proc_macro211TokenStreamNtNtCsdGrGZaRBwMb_3syn5parse5Parse5parseINtNtNtCsieiGu2EXtoJ_4core3ops8function6FnOnceTRNtBN_11ParseBufferEE9call_onceCscG178fYrITo_14zerovec_derive, symObjAddr: 0x5940, symBinAddr: 0x29AC0, symSize: 0x30 }
  - { offset: 0x5824C, size: 0x8, addend: 0x0, symName: __RNvYNvYNtCsaKzlTDPUHDb_11proc_macro25IdentNtNtCsdGrGZaRBwMb_3syn5parse5Parse5parseINtNtNtCsieiGu2EXtoJ_4core3ops8function6FnOnceTRNtBG_11ParseBufferEE9call_onceCscG178fYrITo_14zerovec_derive, symObjAddr: 0x5970, symBinAddr: 0x29AF0, symSize: 0x30 }
  - { offset: 0x58290, size: 0x8, addend: 0x0, symName: __RNvYNvYNtNtCscG178fYrITo_14zerovec_derive5utils18IdentListAttributeNtNtCsdGrGZaRBwMb_3syn5parse5Parse5parseINtNtNtCsieiGu2EXtoJ_4core3ops8function6FnOnceTRNtB15_11ParseBufferEE9call_onceB9_, symObjAddr: 0x59A0, symBinAddr: 0x29B20, symSize: 0x30 }
  - { offset: 0x582D4, size: 0x8, addend: 0x0, symName: __RNvYNvYNtNtCsdGrGZaRBwMb_3syn3lit3LitNtNtB9_5parse5Parse5parseINtNtNtCsieiGu2EXtoJ_4core3ops8function6FnOnceTRNtBB_11ParseBufferEE9call_onceCscG178fYrITo_14zerovec_derive, symObjAddr: 0x59D0, symBinAddr: 0x29B50, symSize: 0x30 }
  - { offset: 0x58318, size: 0x8, addend: 0x0, symName: __RNvYNvYNtNtCsdGrGZaRBwMb_3syn6derive11DeriveInputNtNtB9_11parse_quote10ParseQuote5parseINtNtNtCsieiGu2EXtoJ_4core3ops8function6FnOnceTRNtNtB9_5parse11ParseBufferEE9call_onceCscG178fYrITo_14zerovec_derive, symObjAddr: 0x5A00, symBinAddr: 0x29B80, symSize: 0x30 }
  - { offset: 0x5835C, size: 0x8, addend: 0x0, symName: __RNvYNvYNtNtCsdGrGZaRBwMb_3syn6derive11DeriveInputNtNtB9_5parse5Parse5parseINtNtNtCsieiGu2EXtoJ_4core3ops8function6FnOnceTRNtBN_11ParseBufferEE9call_onceCscG178fYrITo_14zerovec_derive, symObjAddr: 0x5A30, symBinAddr: 0x29BB0, symSize: 0x30 }
  - { offset: 0x583A6, size: 0x8, addend: 0x0, symName: __RNvYNvCscG178fYrITo_14zerovec_derive10ule_deriveINtNtNtCsieiGu2EXtoJ_4core3ops8function2FnTNtCscKtU6MdFI5n_10proc_macro11TokenStreamEE4callB4_, symObjAddr: 0x5860, symBinAddr: 0x299E0, symSize: 0x20 }
  - { offset: 0x583EA, size: 0x8, addend: 0x0, symName: __RNvYNvCscG178fYrITo_14zerovec_derive11make_varuleINtNtNtCsieiGu2EXtoJ_4core3ops8function2FnTNtCscKtU6MdFI5n_10proc_macro11TokenStreamB1s_EE4callB4_, symObjAddr: 0x5880, symBinAddr: 0x29A00, symSize: 0x30 }
  - { offset: 0x5842E, size: 0x8, addend: 0x0, symName: __RNvYNvCscG178fYrITo_14zerovec_derive13varule_deriveINtNtNtCsieiGu2EXtoJ_4core3ops8function2FnTNtCscKtU6MdFI5n_10proc_macro11TokenStreamEE4callB4_, symObjAddr: 0x58B0, symBinAddr: 0x29A30, symSize: 0x20 }
  - { offset: 0x58472, size: 0x8, addend: 0x0, symName: __RNvYNvCscG178fYrITo_14zerovec_derive8make_uleINtNtNtCsieiGu2EXtoJ_4core3ops8function2FnTNtCscKtU6MdFI5n_10proc_macro11TokenStreamB1o_EE4callB4_, symObjAddr: 0x58D0, symBinAddr: 0x29A50, symSize: 0x30 }
  - { offset: 0x589BD, size: 0x8, addend: 0x0, symName: __RNvMNtCsieiGu2EXtoJ_4core5sliceSNtNtCsdGrGZaRBwMb_3syn4attr9Attribute5firstCscG178fYrITo_14zerovec_derive, symObjAddr: 0x2EB0, symBinAddr: 0x27030, symSize: 0x40 }
  - { offset: 0x58F1F, size: 0x8, addend: 0x0, symName: __RNvXs19_NtCsieiGu2EXtoJ_4core3fmtRNtNtCsdGrGZaRBwMb_3syn2ty8TypePathNtB6_5Debug3fmtCscG178fYrITo_14zerovec_derive, symObjAddr: 0x4630, symBinAddr: 0x287B0, symSize: 0x20 }
  - { offset: 0x58F65, size: 0x8, addend: 0x0, symName: __RNvXs19_NtCsieiGu2EXtoJ_4core3fmtRNtNtCsdGrGZaRBwMb_3syn4data5FieldNtB6_5Debug3fmtCscG178fYrITo_14zerovec_derive, symObjAddr: 0x4650, symBinAddr: 0x287D0, symSize: 0x20 }
  - { offset: 0x58FAB, size: 0x8, addend: 0x0, symName: __RNvXs19_NtCsieiGu2EXtoJ_4core3fmtRRNtNtCsdGrGZaRBwMb_3syn2ty4TypeNtB6_5Debug3fmtCscG178fYrITo_14zerovec_derive, symObjAddr: 0x4670, symBinAddr: 0x287F0, symSize: 0x20 }
  - { offset: 0x59002, size: 0x8, addend: 0x0, symName: __RNvMNtNtCsieiGu2EXtoJ_4core4char7methodsc8to_digitCscG178fYrITo_14zerovec_derive, symObjAddr: 0x3050, symBinAddr: 0x271D0, symSize: 0xF0 }
  - { offset: 0x5915A, size: 0x8, addend: 0x0, symName: __RNvXNtNtNtCsieiGu2EXtoJ_4core4iter6traits7collectINtNtNtB6_8adapters6filter6FilterINtNtNtB8_5slice4iter4IterNtNtCsdGrGZaRBwMb_3syn4attr9AttributeENCNvMNtCscG178fYrITo_14zerovec_derive5utilsNtB2p_8ReprInfo7compute0ENtB2_12IntoIterator9into_iterB2r_, symObjAddr: 0x4550, symBinAddr: 0x286D0, symSize: 0x20 }
  - { offset: 0x591E1, size: 0x8, addend: 0x0, symName: __RNvXs1_NtNtNtCsieiGu2EXtoJ_4core4iter8adapters6filterINtB5_6FilterINtNtNtBb_5slice4iter4IterNtNtCsdGrGZaRBwMb_3syn4attr9AttributeENCNvMNtCscG178fYrITo_14zerovec_derive5utilsNtB29_8ReprInfo7compute0ENtNtNtB9_6traits8iterator8Iterator4nextB2b_, symObjAddr: 0x46C0, symBinAddr: 0x28840, symSize: 0x20 }
  - { offset: 0x5940F, size: 0x8, addend: 0x0, symName: __RNvXs_NtNtCsieiGu2EXtoJ_4core3str6traitseNtNtB8_3cmp9PartialEq2eqCscG178fYrITo_14zerovec_derive, symObjAddr: 0x4AF0, symBinAddr: 0x28C70, symSize: 0x90 }
  - { offset: 0x5AEC7, size: 0x8, addend: 0x0, symName: __RNCNvXs1_NtNtNtCsHUR1vrdMJt_3std2io5error14repr_bitpackedNtB7_4ReprNtNtNtCsieiGu2EXtoJ_4core3ops4drop4Drop4drop0CscG178fYrITo_14zerovec_derive, symObjAddr: 0x2DF0, symBinAddr: 0x26F70, symSize: 0x30 }
  - { offset: 0x5AF7C, size: 0x8, addend: 0x0, symName: __RNvXs1_NtNtNtCsHUR1vrdMJt_3std2io5error14repr_bitpackedNtB5_4ReprNtNtNtCsieiGu2EXtoJ_4core3ops4drop4Drop4dropCscG178fYrITo_14zerovec_derive, symObjAddr: 0x4690, symBinAddr: 0x28810, symSize: 0x30 }
  - { offset: 0x5AFA5, size: 0x8, addend: 0x0, symName: __RINvNtNtNtCsHUR1vrdMJt_3std2io5error14repr_bitpacked11decode_reprINtNtCslJiobkLta79_5alloc5boxed3BoxNtB4_6CustomENCNvXs1_B2_NtB2_4ReprNtNtNtCsieiGu2EXtoJ_4core3ops4drop4Drop4drop0ECscG178fYrITo_14zerovec_derive, symObjAddr: 0x2950, symBinAddr: 0x26AD0, symSize: 0x200 }
  - { offset: 0x5B206, size: 0x8, addend: 0x0, symName: __RNvNtNtNtCsHUR1vrdMJt_3std2io5error14repr_bitpacked14kind_from_primCscG178fYrITo_14zerovec_derive, symObjAddr: 0x3BC0, symBinAddr: 0x27D40, symSize: 0x5B0 }
  - { offset: 0x5BCE6, size: 0x8, addend: 0x0, symName: __RNCNvMs3_NtNtCsHUR1vrdMJt_3std6thread5localINtB7_8LocalKeyINtNtCsieiGu2EXtoJ_4core4cell4CellPuEE7replace0CscG178fYrITo_14zerovec_derive, symObjAddr: 0x2DD0, symBinAddr: 0x26F50, symSize: 0x20 }
  - { offset: 0x5BF17, size: 0x8, addend: 0x0, symName: __RINvMNtCsdGrGZaRBwMb_3syn4attrNtB3_9Attribute10parse_argsNtCsaKzlTDPUHDb_11proc_macro211TokenStreamECscG178fYrITo_14zerovec_derive, symObjAddr: 0x0, symBinAddr: 0x241C0, symSize: 0x30 }
  - { offset: 0x5BF6D, size: 0x8, addend: 0x0, symName: __RINvMNtCsdGrGZaRBwMb_3syn4attrNtB3_9Attribute10parse_argsNtNtCscG178fYrITo_14zerovec_derive5utils18IdentListAttributeEBX_, symObjAddr: 0x30, symBinAddr: 0x241F0, symSize: 0x30 }
  - { offset: 0x5C04E, size: 0x8, addend: 0x0, symName: __RINvMNtCsdGrGZaRBwMb_3syn4attrNtB3_9Attribute15parse_args_withNvYNtCsaKzlTDPUHDb_11proc_macro211TokenStreamNtNtB5_5parse5Parse5parseECscG178fYrITo_14zerovec_derive, symObjAddr: 0x60, symBinAddr: 0x24220, symSize: 0x460 }
  - { offset: 0x5C1B4, size: 0x8, addend: 0x0, symName: __RINvMNtCsdGrGZaRBwMb_3syn4attrNtB3_9Attribute15parse_args_withNvYNtNtCscG178fYrITo_14zerovec_derive5utils18IdentListAttributeNtNtB5_5parse5Parse5parseEB15_, symObjAddr: 0x4C0, symBinAddr: 0x24680, symSize: 0x460 }
  - { offset: 0x5C31A, size: 0x8, addend: 0x0, symName: __RINvMNtCsieiGu2EXtoJ_4core6resultINtB3_6ResultNtNtCscG178fYrITo_14zerovec_derive11make_varule8OwnULETyNtNtCslJiobkLta79_5alloc6string6StringE3mapNtBK_16UnsizedFieldKindNcNtB2j_10VarZeroCow0EBM_, symObjAddr: 0x920, symBinAddr: 0x24AE0, symSize: 0xC0 }
  - { offset: 0x5C3AD, size: 0x8, addend: 0x0, symName: __RINvMNtCsieiGu2EXtoJ_4core6resultINtB3_6ResultNtNtCscG178fYrITo_14zerovec_derive11make_varule8OwnULETyNtNtCslJiobkLta79_5alloc6string6StringE3mapNtBK_16UnsizedFieldKindNcNtB2j_3Cow0EBM_, symObjAddr: 0x9E0, symBinAddr: 0x24BA0, symSize: 0xC0 }
  - { offset: 0x5C440, size: 0x8, addend: 0x0, symName: __RINvMNtCsieiGu2EXtoJ_4core6resultINtB3_6ResultNtNtCscG178fYrITo_14zerovec_derive11make_varule8OwnULETyNtNtCslJiobkLta79_5alloc6string6StringE3mapNtBK_16UnsizedFieldKindNcNtB2j_3Ref0EBM_, symObjAddr: 0xAA0, symBinAddr: 0x24C60, symSize: 0xC0 }
  - { offset: 0x5C4D3, size: 0x8, addend: 0x0, symName: __RINvMNtCsieiGu2EXtoJ_4core6resultINtB3_6ResultNtNtCscG178fYrITo_14zerovec_derive11make_varule8OwnULETyNtNtCslJiobkLta79_5alloc6string6StringE3mapNtBK_16UnsizedFieldKindNcNtB2j_5Boxed0EBM_, symObjAddr: 0xB60, symBinAddr: 0x24D20, symSize: 0xC0 }
  - { offset: 0x5C573, size: 0x8, addend: 0x0, symName: __RINvMNtCsieiGu2EXtoJ_4core6resultINtB3_6ResultyNtNtNtB5_3num5error13ParseIntErrorE7map_errNtNtCsdGrGZaRBwMb_3syn5error5ErrorNCINvMs3_NtB1u_3litNtB27_6LitInt12base10_parseyE0ECscG178fYrITo_14zerovec_derive, symObjAddr: 0xC20, symBinAddr: 0x24DE0, symSize: 0x90 }
  - { offset: 0x5C613, size: 0x8, addend: 0x0, symName: __RINvMs0_NtCsdGrGZaRBwMb_3syn4attrNtB6_8MetaList15parse_args_withNvYNtCsaKzlTDPUHDb_11proc_macro211TokenStreamNtNtB8_5parse5Parse5parseECscG178fYrITo_14zerovec_derive, symObjAddr: 0xCB0, symBinAddr: 0x24E70, symSize: 0xE0 }
  - { offset: 0x5C664, size: 0x8, addend: 0x0, symName: __RINvMs0_NtCsdGrGZaRBwMb_3syn4attrNtB6_8MetaList15parse_args_withNvYNtNtCscG178fYrITo_14zerovec_derive5utils18IdentListAttributeNtNtB8_5parse5Parse5parseEB17_, symObjAddr: 0xD90, symBinAddr: 0x24F50, symSize: 0xE0 }
  - { offset: 0x5C6F4, size: 0x8, addend: 0x0, symName: __RINvMs2_NtNtCsHUR1vrdMJt_3std6thread5localINtB6_8LocalKeyINtNtCsieiGu2EXtoJ_4core4cell4CellPuEE4withNCNvMs3_B6_BE_7replace0B1r_ECscG178fYrITo_14zerovec_derive, symObjAddr: 0xE70, symBinAddr: 0x25030, symSize: 0x50 }
  - { offset: 0x5C7AD, size: 0x8, addend: 0x0, symName: __RINvMs2_NtNtCsHUR1vrdMJt_3std6thread5localINtB6_8LocalKeyINtNtCsieiGu2EXtoJ_4core4cell4CellPuEE8try_withNCNvMs3_B6_BE_7replace0B1r_ECscG178fYrITo_14zerovec_derive, symObjAddr: 0xEC0, symBinAddr: 0x25080, symSize: 0xF0 }
  - { offset: 0x5C94D, size: 0x8, addend: 0x0, symName: __RINvMs2_NtNtCsHUR1vrdMJt_3std6thread5localINtB6_8LocalKeyINtNtCsieiGu2EXtoJ_4core4cell4CellTyyEEE4withNCNvMNtNtBa_4hash6randomNtB1H_11RandomState3new0B20_ECscG178fYrITo_14zerovec_derive, symObjAddr: 0xFB0, symBinAddr: 0x25170, symSize: 0x50 }
  - { offset: 0x5CA06, size: 0x8, addend: 0x0, symName: __RINvMs2_NtNtCsHUR1vrdMJt_3std6thread5localINtB6_8LocalKeyINtNtCsieiGu2EXtoJ_4core4cell4CellTyyEEE8try_withNCNvMNtNtBa_4hash6randomNtB1L_11RandomState3new0B24_ECscG178fYrITo_14zerovec_derive, symObjAddr: 0x1000, symBinAddr: 0x251C0, symSize: 0xF0 }
  - { offset: 0x5CBDD, size: 0x8, addend: 0x0, symName: __RINvMs3_NtNtCscKtU6MdFI5n_10proc_macro6bridge6bufferNtB6_6Buffer17extend_from_arrayKj4_ECscG178fYrITo_14zerovec_derive, symObjAddr: 0x10F0, symBinAddr: 0x252B0, symSize: 0x1E0 }
  - { offset: 0x5CD65, size: 0x8, addend: 0x0, symName: __RINvMs3_NtNtCscKtU6MdFI5n_10proc_macro6bridge6bufferNtB6_6Buffer17extend_from_arrayKj8_ECscG178fYrITo_14zerovec_derive, symObjAddr: 0x12D0, symBinAddr: 0x25490, symSize: 0x1E0 }
  - { offset: 0x5CF37, size: 0x8, addend: 0x0, symName: __RINvMs5_NtNtCsieiGu2EXtoJ_4core3fmt8buildersNtB6_9DebugList7entriesRRhINtNtNtBa_5slice4iter4IterB14_EECscG178fYrITo_14zerovec_derive, symObjAddr: 0x14B0, symBinAddr: 0x25670, symSize: 0xD0 }
  - { offset: 0x5D1FC, size: 0x8, addend: 0x0, symName: __RNvMNtCsieiGu2EXtoJ_4core6resultINtB2_6ResultNtNtCscG178fYrITo_14zerovec_derive11make_varule12UnsizedFieldNtNtCslJiobkLta79_5alloc6string6StringE10unwrap_errBL_, symObjAddr: 0x2EF0, symBinAddr: 0x27070, symSize: 0xD0 }
  - { offset: 0x5D251, size: 0x8, addend: 0x0, symName: __RNvMNtCsieiGu2EXtoJ_4core6resultINtB2_6ResultyNtNtCsdGrGZaRBwMb_3syn5error5ErrorE2okCscG178fYrITo_14zerovec_derive, symObjAddr: 0x2FC0, symBinAddr: 0x27140, symSize: 0x90 }
  - { offset: 0x5D610, size: 0x8, addend: 0x0, symName: __RNvMNtNtNtCsjK30CmJ87bX_9hashbrown7control5group4sse2NtB2_5Group44convert_special_to_empty_and_full_to_deletedCscG178fYrITo_14zerovec_derive, symObjAddr: 0x3140, symBinAddr: 0x272C0, symSize: 0xD0 }
  - { offset: 0x5D684, size: 0x8, addend: 0x0, symName: __RNvMs10_NtNtCsieiGu2EXtoJ_4core9core_arch3x86NtB6_7___m128i8as_i8x16CscG178fYrITo_14zerovec_derive, symObjAddr: 0x3210, symBinAddr: 0x27390, symSize: 0x20 }
  - { offset: 0x5D6B9, size: 0x8, addend: 0x0, symName: __RNvMs3_NtNtCscKtU6MdFI5n_10proc_macro6bridge6bufferNtB5_6Buffer17extend_from_sliceCscG178fYrITo_14zerovec_derive, symObjAddr: 0x3230, symBinAddr: 0x273B0, symSize: 0x1E0 }
  - { offset: 0x5D836, size: 0x8, addend: 0x0, symName: __RNvMs3_NtNtCscKtU6MdFI5n_10proc_macro6bridge6bufferNtB5_6Buffer4pushCscG178fYrITo_14zerovec_derive, symObjAddr: 0x3410, symBinAddr: 0x27590, symSize: 0x1A0 }
  - { offset: 0x5D9CD, size: 0x8, addend: 0x0, symName: __RNvXNtCs9OU1sGv5X54_5quote9to_tokensRNtNtCsdGrGZaRBwMb_3syn2ty8TypePathNtB2_8ToTokens9to_tokensCscG178fYrITo_14zerovec_derive, symObjAddr: 0x4400, symBinAddr: 0x28580, symSize: 0x30 }
  - { offset: 0x5DA0C, size: 0x8, addend: 0x0, symName: __RNvXNtCs9OU1sGv5X54_5quote9to_tokensRRNtNtCsdGrGZaRBwMb_3syn2ty4TypeNtB2_8ToTokens9to_tokensCscG178fYrITo_14zerovec_derive, symObjAddr: 0x4430, symBinAddr: 0x285B0, symSize: 0x30 }
  - { offset: 0x5DA4B, size: 0x8, addend: 0x0, symName: __RNvXNtCs9OU1sGv5X54_5quote9to_tokensRRNtNtCsdGrGZaRBwMb_3syn2ty8TypePathNtB2_8ToTokens9to_tokensCscG178fYrITo_14zerovec_derive, symObjAddr: 0x4460, symBinAddr: 0x285E0, symSize: 0x30 }
  - { offset: 0x5DA8A, size: 0x8, addend: 0x0, symName: __RNvXNtCs9OU1sGv5X54_5quote9to_tokensRRNtNtCsdGrGZaRBwMb_3syn4data5FieldNtB2_8ToTokens9to_tokensCscG178fYrITo_14zerovec_derive, symObjAddr: 0x4490, symBinAddr: 0x28610, symSize: 0x30 }
  - { offset: 0x5DACF, size: 0x8, addend: 0x0, symName: __RNvYRNtNtCsdGrGZaRBwMb_3syn4attr9AttributeNtNtCs9OU1sGv5X54_5quote9to_tokens8ToTokens15to_token_streamCscG178fYrITo_14zerovec_derive, symObjAddr: 0x5A60, symBinAddr: 0x29BE0, symSize: 0x90 }
  - { offset: 0x5DB19, size: 0x8, addend: 0x0, symName: __RNvYRNtNtCsdGrGZaRBwMb_3syn4attr9AttributeNtNtCs9OU1sGv5X54_5quote9to_tokens8ToTokens17into_token_streamCscG178fYrITo_14zerovec_derive, symObjAddr: 0x5AF0, symBinAddr: 0x29C70, symSize: 0x50 }
  - { offset: 0x5DB4E, size: 0x8, addend: 0x0, symName: __RNvYRNtNtCsdGrGZaRBwMb_3syn4data5FieldNtNtCs9OU1sGv5X54_5quote9to_tokens8ToTokens15to_token_streamCscG178fYrITo_14zerovec_derive, symObjAddr: 0x5B40, symBinAddr: 0x29CC0, symSize: 0x90 }
  - { offset: 0x5DB98, size: 0x8, addend: 0x0, symName: __RNvYRNtNtCsdGrGZaRBwMb_3syn4data5FieldNtNtCs9OU1sGv5X54_5quote9to_tokens8ToTokens17into_token_streamCscG178fYrITo_14zerovec_derive, symObjAddr: 0x5BD0, symBinAddr: 0x29D50, symSize: 0x50 }
  - { offset: 0x5DBCD, size: 0x8, addend: 0x0, symName: __RNvYRNtNtCsdGrGZaRBwMb_3syn4data7VariantNtNtCs9OU1sGv5X54_5quote9to_tokens8ToTokens15to_token_streamCscG178fYrITo_14zerovec_derive, symObjAddr: 0x5C20, symBinAddr: 0x29DA0, symSize: 0x90 }
  - { offset: 0x5DC17, size: 0x8, addend: 0x0, symName: __RNvYRNtNtCsdGrGZaRBwMb_3syn4data7VariantNtNtCs9OU1sGv5X54_5quote9to_tokens8ToTokens17into_token_streamCscG178fYrITo_14zerovec_derive, symObjAddr: 0x5CB0, symBinAddr: 0x29E30, symSize: 0x50 }
  - { offset: 0x5DC4C, size: 0x8, addend: 0x0, symName: __RNvYRRNtNtCsdGrGZaRBwMb_3syn4data5FieldNtNtCs9OU1sGv5X54_5quote9to_tokens8ToTokens15to_token_streamCscG178fYrITo_14zerovec_derive, symObjAddr: 0x5D00, symBinAddr: 0x29E80, symSize: 0x90 }
  - { offset: 0x5DC96, size: 0x8, addend: 0x0, symName: __RNvYRRNtNtCsdGrGZaRBwMb_3syn4data5FieldNtNtCs9OU1sGv5X54_5quote9to_tokens8ToTokens17into_token_streamCscG178fYrITo_14zerovec_derive, symObjAddr: 0x5D90, symBinAddr: 0x29F10, symSize: 0x50 }
  - { offset: 0x5DCD7, size: 0x8, addend: 0x0, symName: __RNvXs0_NtCs9OU1sGv5X54_5quote7spannedNtNtCsdGrGZaRBwMb_3syn4attr9AttributeNtB5_7Spanned6___spanCscG178fYrITo_14zerovec_derive, symObjAddr: 0x4570, symBinAddr: 0x286F0, symSize: 0x30 }
  - { offset: 0x5DD0C, size: 0x8, addend: 0x0, symName: __RNvXs0_NtCs9OU1sGv5X54_5quote7spannedNtNtCsdGrGZaRBwMb_3syn4data5FieldNtB5_7Spanned6___spanCscG178fYrITo_14zerovec_derive, symObjAddr: 0x45A0, symBinAddr: 0x28720, symSize: 0x30 }
  - { offset: 0x5DD41, size: 0x8, addend: 0x0, symName: __RNvXs0_NtCs9OU1sGv5X54_5quote7spannedNtNtCsdGrGZaRBwMb_3syn4data7VariantNtB5_7Spanned6___spanCscG178fYrITo_14zerovec_derive, symObjAddr: 0x45D0, symBinAddr: 0x28750, symSize: 0x30 }
  - { offset: 0x5DD76, size: 0x8, addend: 0x0, symName: __RNvXs0_NtCs9OU1sGv5X54_5quote7spannedRNtNtCsdGrGZaRBwMb_3syn4data5FieldNtB5_7Spanned6___spanCscG178fYrITo_14zerovec_derive, symObjAddr: 0x4600, symBinAddr: 0x28780, symSize: 0x30 }
  - { offset: 0x5EA62, size: 0x8, addend: 0x0, symName: __RINvMNtNtCsieiGu2EXtoJ_4core3fmt2rtNtB3_8Argument11new_displayNtNtNtCsdGrGZaRBwMb_3syn4attr7parsing16DisplayAttrStyleECscG178fYrITo_14zerovec_derive, symObjAddr: 0x0, symBinAddr: 0x29F60, symSize: 0x30 }
  - { offset: 0x5F386, size: 0x8, addend: 0x0, symName: __RNvXs1_NtCsaKzlTDPUHDb_11proc_macro26markerNtB5_19ProcMacroAutoTraitsNtNtCsieiGu2EXtoJ_4core5clone5Clone5cloneCscG178fYrITo_14zerovec_derive, symObjAddr: 0x4AA0, symBinAddr: 0x2E950, symSize: 0x10 }
  - { offset: 0x5FB14, size: 0x8, addend: 0x0, symName: __RNvNvMs1_NtNtCsieiGu2EXtoJ_4core3ptr8non_nullINtB7_7NonNullpE13new_unchecked18precondition_checkCscG178fYrITo_14zerovec_derive, symObjAddr: 0x38A0, symBinAddr: 0x2D750, symSize: 0x90 }
  - { offset: 0x5FBA1, size: 0x8, addend: 0x0, symName: __RINvNtCsieiGu2EXtoJ_4core3ptr10swap_chunkKj1_ECscG178fYrITo_14zerovec_derive, symObjAddr: 0x90, symBinAddr: 0x29FF0, symSize: 0x30 }
  - { offset: 0x5FBDA, size: 0x8, addend: 0x0, symName: __RINvNtCsieiGu2EXtoJ_4core3ptr10swap_chunkKj2_ECscG178fYrITo_14zerovec_derive, symObjAddr: 0xC0, symBinAddr: 0x2A020, symSize: 0x30 }
  - { offset: 0x5FC13, size: 0x8, addend: 0x0, symName: __RINvNtCsieiGu2EXtoJ_4core3ptr10swap_chunkKj4_ECscG178fYrITo_14zerovec_derive, symObjAddr: 0xF0, symBinAddr: 0x2A050, symSize: 0x30 }
  - { offset: 0x5FC4C, size: 0x8, addend: 0x0, symName: __RINvNtCsieiGu2EXtoJ_4core3ptr10swap_chunkKj8_ECscG178fYrITo_14zerovec_derive, symObjAddr: 0x120, symBinAddr: 0x2A080, symSize: 0x30 }
  - { offset: 0x5FD1B, size: 0x8, addend: 0x0, symName: __RNvNvNtCsieiGu2EXtoJ_4core3ptr19swap_nonoverlapping18precondition_checkCscG178fYrITo_14zerovec_derive, symObjAddr: 0x3DE0, symBinAddr: 0x2DC90, symSize: 0x4E0 }
  - { offset: 0x6005B, size: 0x8, addend: 0x0, symName: __RINvNtCsieiGu2EXtoJ_4core3ptr19swap_nonoverlappinghECscG178fYrITo_14zerovec_derive, symObjAddr: 0x200, symBinAddr: 0x2A0B0, symSize: 0xB0 }
  - { offset: 0x603B9, size: 0x8, addend: 0x0, symName: __RINvNvNtCsieiGu2EXtoJ_4core3ptr25swap_nonoverlapping_bytes26swap_nonoverlapping_chunksKj8_ECscG178fYrITo_14zerovec_derive, symObjAddr: 0x5D0, symBinAddr: 0x2A480, symSize: 0x110 }
  - { offset: 0x6055E, size: 0x8, addend: 0x0, symName: __RNvNvNtCsieiGu2EXtoJ_4core3ptr25swap_nonoverlapping_bytes25swap_nonoverlapping_shortCscG178fYrITo_14zerovec_derive, symObjAddr: 0x42C0, symBinAddr: 0x2E170, symSize: 0x160 }
  - { offset: 0x60AB0, size: 0x8, addend: 0x0, symName: __RNvNtCsieiGu2EXtoJ_4core3ptr25swap_nonoverlapping_bytesCscG178fYrITo_14zerovec_derive, symObjAddr: 0x37D0, symBinAddr: 0x2D680, symSize: 0xD0 }
  - { offset: 0x60C59, size: 0x8, addend: 0x0, symName: __RNvNvNtCsieiGu2EXtoJ_4core3ptr19copy_nonoverlapping18precondition_checkCscG178fYrITo_14zerovec_derive, symObjAddr: 0x3930, symBinAddr: 0x2D7E0, symSize: 0x4B0 }
  - { offset: 0x60F6A, size: 0x8, addend: 0x0, symName: __RNvNvNtCsieiGu2EXtoJ_4core3ptr4copy18precondition_checkCscG178fYrITo_14zerovec_derive, symObjAddr: 0x4420, symBinAddr: 0x2E2D0, symSize: 0x330 }
  - { offset: 0x61218, size: 0x8, addend: 0x0, symName: __RNvNvNtCsieiGu2EXtoJ_4core3ptr7replace18precondition_checkCscG178fYrITo_14zerovec_derive, symObjAddr: 0x4750, symBinAddr: 0x2E600, symSize: 0x1E0 }
  - { offset: 0x613B6, size: 0x8, addend: 0x0, symName: __RINvNtCsieiGu2EXtoJ_4core9panicking13panic_displayNtNtCsdGrGZaRBwMb_3syn5error5ErrorECscG178fYrITo_14zerovec_derive, symObjAddr: 0x2B0, symBinAddr: 0x2A160, symSize: 0xA0 }
  - { offset: 0x616DC, size: 0x8, addend: 0x0, symName: __RNvXsZ_NtNtCsieiGu2EXtoJ_4core3fmt3numjNtB7_5Debug3fmtCscG178fYrITo_14zerovec_derive, symObjAddr: 0x4CE0, symBinAddr: 0x2EB90, symSize: 0x80 }
  - { offset: 0x6476C, size: 0x8, addend: 0x0, symName: __RNvXs_NtNtNtCsieiGu2EXtoJ_4core4iter8adapters9enumerateINtB4_9EnumerateINtNtB6_4take4TakeINtNtCsdGrGZaRBwMb_3syn10punctuated4IterNtNtB1u_4data5FieldEEENtNtNtB8_6traits8iterator8Iterator4nextCscG178fYrITo_14zerovec_derive, symObjAddr: 0x4FB0, symBinAddr: 0x2EE60, symSize: 0xE0 }
  - { offset: 0x64852, size: 0x8, addend: 0x0, symName: __RNvXs_NtNtNtCsieiGu2EXtoJ_4core4iter8adapters9enumerateINtB4_9EnumerateINtNtB6_4take4TakeINtNtCsdGrGZaRBwMb_3syn10punctuated4IterNtNtB1u_4data5FieldEEENtNtNtB8_6traits8iterator8Iterator9size_hintCscG178fYrITo_14zerovec_derive, symObjAddr: 0x5090, symBinAddr: 0x2EF40, symSize: 0x30 }
  - { offset: 0x64887, size: 0x8, addend: 0x0, symName: __RNvXs_NtNtNtCsieiGu2EXtoJ_4core4iter8adapters9enumerateINtB4_9EnumerateINtNtCsdGrGZaRBwMb_3syn10punctuated4IterNtNtB1c_4data5FieldEENtNtNtB8_6traits8iterator8Iterator4nextCscG178fYrITo_14zerovec_derive, symObjAddr: 0x50C0, symBinAddr: 0x2EF70, symSize: 0xE0 }
  - { offset: 0x6496D, size: 0x8, addend: 0x0, symName: __RNvXs_NtNtNtCsieiGu2EXtoJ_4core4iter8adapters9enumerateINtB4_9EnumerateINtNtCsdGrGZaRBwMb_3syn10punctuated4IterNtNtB1c_4data5FieldEENtNtNtB8_6traits8iterator8Iterator9size_hintCscG178fYrITo_14zerovec_derive, symObjAddr: 0x51A0, symBinAddr: 0x2F050, symSize: 0x30 }
  - { offset: 0x649A2, size: 0x8, addend: 0x0, symName: __RNvXs_NtNtNtCsieiGu2EXtoJ_4core4iter8adapters9enumerateINtB4_9EnumerateINtNtCsdGrGZaRBwMb_3syn10punctuated4IterNtNtB1c_4data7VariantEENtNtNtB8_6traits8iterator8Iterator4nextCscG178fYrITo_14zerovec_derive, symObjAddr: 0x51D0, symBinAddr: 0x2F080, symSize: 0xE0 }
  - { offset: 0x64A88, size: 0x8, addend: 0x0, symName: __RNvXs_NtNtNtCsieiGu2EXtoJ_4core4iter8adapters9enumerateINtB4_9EnumerateINtNtNtBa_5slice4iter4IterNtNtCscG178fYrITo_14zerovec_derive11make_varule12UnsizedFieldEENtNtNtB8_6traits8iterator8Iterator4nextB1B_, symObjAddr: 0x52B0, symBinAddr: 0x2F160, symSize: 0xE0 }
  - { offset: 0x64B6E, size: 0x8, addend: 0x0, symName: __RNvXs_NtNtNtCsieiGu2EXtoJ_4core4iter8adapters9enumerateINtB4_9EnumerateINtNtNtBa_5slice4iter4IterNtNtCscG178fYrITo_14zerovec_derive5utils9FieldInfoEENtNtNtB8_6traits8iterator8Iterator4nextB1B_, symObjAddr: 0x5390, symBinAddr: 0x2F240, symSize: 0xE0 }
  - { offset: 0x64CDE, size: 0x8, addend: 0x0, symName: __RNvXs_NtNtNtCsieiGu2EXtoJ_4core4iter8adapters4takeINtB4_4TakeINtNtCsdGrGZaRBwMb_3syn10punctuated4IterNtNtB12_4data5FieldEENtNtNtB8_6traits8iterator8Iterator4nextCscG178fYrITo_14zerovec_derive, symObjAddr: 0x4E50, symBinAddr: 0x2ED00, symSize: 0x50 }
  - { offset: 0x64D13, size: 0x8, addend: 0x0, symName: __RNvXs_NtNtNtCsieiGu2EXtoJ_4core4iter8adapters4takeINtB4_4TakeINtNtCsdGrGZaRBwMb_3syn10punctuated4IterNtNtB12_4data5FieldEENtNtNtB8_6traits8iterator8Iterator9size_hintCscG178fYrITo_14zerovec_derive, symObjAddr: 0x4EA0, symBinAddr: 0x2ED50, symSize: 0x110 }
  - { offset: 0x64E02, size: 0x8, addend: 0x0, symName: __RINvYINtNtNtNtCsieiGu2EXtoJ_4core4iter8adapters9enumerate9EnumerateINtNtB8_4take4TakeINtNtCsdGrGZaRBwMb_3syn10punctuated4IterNtNtB1q_4data5FieldEEENtNtNtBa_6traits8iterator8Iterator3mapNtNtCscG178fYrITo_14zerovec_derive5utils9FieldInfoNCINvMs0_B2Z_B2X_9make_listB13_E0EB31_, symObjAddr: 0x6E0, symBinAddr: 0x2A590, symSize: 0x30 }
  - { offset: 0x64E6F, size: 0x8, addend: 0x0, symName: __RINvYINtNtNtNtCsieiGu2EXtoJ_4core4iter8adapters9enumerate9EnumerateINtNtCsdGrGZaRBwMb_3syn10punctuated4IterNtNtB18_4data5FieldEENtNtNtBa_6traits8iterator8Iterator3mapNtNtCscG178fYrITo_14zerovec_derive5utils9FieldInfoNCINvMs0_B2G_B2E_9make_listB13_E0EB2I_, symObjAddr: 0x710, symBinAddr: 0x2A5C0, symSize: 0x20 }
  - { offset: 0x64EDC, size: 0x8, addend: 0x0, symName: __RINvYINtNtNtNtCsieiGu2EXtoJ_4core4iter8adapters9enumerate9EnumerateINtNtNtBc_5slice4iter4IterNtNtCscG178fYrITo_14zerovec_derive11make_varule12UnsizedFieldEENtNtNtBa_6traits8iterator8Iterator3mapNtCsaKzlTDPUHDb_11proc_macro211TokenStreamNCNvMB1v_NtB1v_13UnsizedFields19maybe_multi_getters0EB1x_, symObjAddr: 0x730, symBinAddr: 0x2A5E0, symSize: 0x30 }
  - { offset: 0x64F49, size: 0x8, addend: 0x0, symName: __RNvYINtNtNtNtCsieiGu2EXtoJ_4core4iter8adapters4take4TakeINtNtCsdGrGZaRBwMb_3syn10punctuated4IterNtNtBX_4data5FieldEENtNtNtB9_6traits8iterator8Iterator9enumerateCscG178fYrITo_14zerovec_derive, symObjAddr: 0x5470, symBinAddr: 0x2F320, symSize: 0x30 }
  - { offset: 0x64FA1, size: 0x8, addend: 0x0, symName: __RNvXNtNtNtCsieiGu2EXtoJ_4core4iter6traits7collectINtNtNtB6_8adapters9enumerate9EnumerateINtNtCsdGrGZaRBwMb_3syn10punctuated4IterNtNtB1t_4data5FieldEENtB2_12IntoIterator9into_iterCscG178fYrITo_14zerovec_derive, symObjAddr: 0x4A20, symBinAddr: 0x2E8D0, symSize: 0x20 }
  - { offset: 0x64FD8, size: 0x8, addend: 0x0, symName: __RNvXNtNtNtCsieiGu2EXtoJ_4core4iter6traits7collectINtNtNtB6_8adapters9enumerate9EnumerateINtNtCsdGrGZaRBwMb_3syn10punctuated4IterNtNtB1t_4data7VariantEENtB2_12IntoIterator9into_iterCscG178fYrITo_14zerovec_derive, symObjAddr: 0x4A40, symBinAddr: 0x2E8F0, symSize: 0x20 }
  - { offset: 0x6500F, size: 0x8, addend: 0x0, symName: __RNvXNtNtNtCsieiGu2EXtoJ_4core4iter6traits7collectINtNtNtB6_8adapters9enumerate9EnumerateINtNtNtB8_5slice4iter4IterNtNtCscG178fYrITo_14zerovec_derive11make_varule12UnsizedFieldEENtB2_12IntoIterator9into_iterB1S_, symObjAddr: 0x4A60, symBinAddr: 0x2E910, symSize: 0x20 }
  - { offset: 0x65046, size: 0x8, addend: 0x0, symName: __RNvXNtNtNtCsieiGu2EXtoJ_4core4iter6traits7collectINtNtNtB6_8adapters9enumerate9EnumerateINtNtNtB8_5slice4iter4IterNtNtCscG178fYrITo_14zerovec_derive5utils9FieldInfoEENtB2_12IntoIterator9into_iterB1S_, symObjAddr: 0x4A80, symBinAddr: 0x2E930, symSize: 0x20 }
  - { offset: 0x65434, size: 0x8, addend: 0x0, symName: __RNvMNtCsieiGu2EXtoJ_4core5sliceSh15copy_from_sliceCscG178fYrITo_14zerovec_derive, symObjAddr: 0x980, symBinAddr: 0x2A830, symSize: 0xA0 }
  - { offset: 0x654E4, size: 0x8, addend: 0x0, symName: __RINvYNtNtNtCsHUR1vrdMJt_3std4hash6random11RandomStateNtNtCsieiGu2EXtoJ_4core4hash11BuildHasher8hash_oneRhECscG178fYrITo_14zerovec_derive, symObjAddr: 0x760, symBinAddr: 0x2A610, symSize: 0x80 }
  - { offset: 0x65695, size: 0x8, addend: 0x0, symName: __RNvYNtNtNtCsHUR1vrdMJt_3std4hash6random13DefaultHasherNtNtCsieiGu2EXtoJ_4core4hash6Hasher8write_u8CscG178fYrITo_14zerovec_derive, symObjAddr: 0x54A0, symBinAddr: 0x2F350, symSize: 0x30 }
  - { offset: 0x65737, size: 0x8, addend: 0x0, symName: __RNvNvNtCsieiGu2EXtoJ_4core4hint21unreachable_unchecked18precondition_checkCscG178fYrITo_14zerovec_derive, symObjAddr: 0x4930, symBinAddr: 0x2E7E0, symSize: 0x80 }
  - { offset: 0x65A29, size: 0x8, addend: 0x0, symName: __RNvXs1_NtCsieiGu2EXtoJ_4core7convertReINtB5_4IntoNtNtCslJiobkLta79_5alloc6string6StringE4intoCscG178fYrITo_14zerovec_derive, symObjAddr: 0x4AB0, symBinAddr: 0x2E960, symSize: 0x30 }
  - { offset: 0x6B93D, size: 0x8, addend: 0x0, symName: __RNvXs1_NtCslJiobkLta79_5alloc7raw_vecINtB5_6RawVecINtNtCsieiGu2EXtoJ_4core6option6OptionNtCsaKzlTDPUHDb_11proc_macro25IdentEENtNtNtBR_3ops4drop4Drop4dropCscG178fYrITo_14zerovec_derive, symObjAddr: 0x4B30, symBinAddr: 0x2E9E0, symSize: 0x30 }
  - { offset: 0x6B979, size: 0x8, addend: 0x0, symName: __RNvXs1_NtCslJiobkLta79_5alloc7raw_vecINtB5_6RawVecNtCsaKzlTDPUHDb_11proc_macro211TokenStreamENtNtNtCsieiGu2EXtoJ_4core3ops4drop4Drop4dropCscG178fYrITo_14zerovec_derive, symObjAddr: 0x4B60, symBinAddr: 0x2EA10, symSize: 0x30 }
  - { offset: 0x6B9B5, size: 0x8, addend: 0x0, symName: __RNvXs1_NtCslJiobkLta79_5alloc7raw_vecINtB5_6RawVecNtCsaKzlTDPUHDb_11proc_macro25IdentENtNtNtCsieiGu2EXtoJ_4core3ops4drop4Drop4dropCscG178fYrITo_14zerovec_derive, symObjAddr: 0x4B90, symBinAddr: 0x2EA40, symSize: 0x30 }
  - { offset: 0x6B9F1, size: 0x8, addend: 0x0, symName: __RNvXs1_NtCslJiobkLta79_5alloc7raw_vecINtB5_6RawVecNtNtCscG178fYrITo_14zerovec_derive11make_varule12UnsizedFieldENtNtNtCsieiGu2EXtoJ_4core3ops4drop4Drop4dropBQ_, symObjAddr: 0x4BC0, symBinAddr: 0x2EA70, symSize: 0x30 }
  - { offset: 0x6BA2D, size: 0x8, addend: 0x0, symName: __RNvXs1_NtCslJiobkLta79_5alloc7raw_vecINtB5_6RawVecNtNtCscG178fYrITo_14zerovec_derive5utils9FieldInfoENtNtNtCsieiGu2EXtoJ_4core3ops4drop4Drop4dropBQ_, symObjAddr: 0x4BF0, symBinAddr: 0x2EAA0, symSize: 0x30 }
  - { offset: 0x6BA69, size: 0x8, addend: 0x0, symName: __RNvXs1_NtCslJiobkLta79_5alloc7raw_vecINtB5_6RawVecRhENtNtNtCsieiGu2EXtoJ_4core3ops4drop4Drop4dropCscG178fYrITo_14zerovec_derive, symObjAddr: 0x4C20, symBinAddr: 0x2EAD0, symSize: 0x20 }
  - { offset: 0x6BAA5, size: 0x8, addend: 0x0, symName: __RNvXs1_NtCslJiobkLta79_5alloc7raw_vecINtB5_6RawVecTNtCsaKzlTDPUHDb_11proc_macro25IdentNtNtCsdGrGZaRBwMb_3syn5token5CommaEENtNtNtCsieiGu2EXtoJ_4core3ops4drop4Drop4dropCscG178fYrITo_14zerovec_derive, symObjAddr: 0x4C40, symBinAddr: 0x2EAF0, symSize: 0x30 }
  - { offset: 0x6BBC1, size: 0x8, addend: 0x0, symName: __RINvMNtNtCsieiGu2EXtoJ_4core3fmt2rtNtB3_8Argument11new_displayNtNtNtCsdGrGZaRBwMb_3syn4attr7parsing16DisplayAttrStyleECscG178fYrITo_14zerovec_derive, symObjAddr: 0x0, symBinAddr: 0x29F60, symSize: 0x30 }
  - { offset: 0x6BC55, size: 0x8, addend: 0x0, symName: __RINvMNtNtCsieiGu2EXtoJ_4core3fmt2rtNtB3_8Argument11new_displayRNtCsaKzlTDPUHDb_11proc_macro211TokenStreamECscG178fYrITo_14zerovec_derive, symObjAddr: 0x30, symBinAddr: 0x29F90, symSize: 0x30 }
  - { offset: 0x6BC9A, size: 0x8, addend: 0x0, symName: __RINvMNtNtCsieiGu2EXtoJ_4core3fmt2rtNtB3_8Argument9new_debugINtNtCslJiobkLta79_5alloc3vec3VecRhEECscG178fYrITo_14zerovec_derive, symObjAddr: 0x60, symBinAddr: 0x29FC0, symSize: 0x30 }
  - { offset: 0x6BD7D, size: 0x8, addend: 0x0, symName: __RNvXCsjK30CmJ87bX_9hashbrownhINtB2_10EquivalenthE10equivalentCscG178fYrITo_14zerovec_derive, symObjAddr: 0x49D0, symBinAddr: 0x2E880, symSize: 0x50 }
  - { offset: 0x6BDF9, size: 0x8, addend: 0x0, symName: __RNvXs1_NtCsjK30CmJ87bX_9hashbrown10scopeguardINtB5_10ScopeGuardNtNtB7_3raw13RawTableInnerNCINvMsa_B11_BZ_14prepare_resizeNtNtCslJiobkLta79_5alloc5alloc6GlobalE0ENtNtNtCsieiGu2EXtoJ_4core3ops4drop4Drop4dropCscG178fYrITo_14zerovec_derive, symObjAddr: 0x4AE0, symBinAddr: 0x2E990, symSize: 0x20 }
  - { offset: 0x6BE33, size: 0x8, addend: 0x0, symName: __RNvXs1_NtCsjK30CmJ87bX_9hashbrown10scopeguardINtB5_10ScopeGuardQNtNtB7_3raw13RawTableInnerNCNvMsa_B12_B10_15rehash_in_place0ENtNtNtCsieiGu2EXtoJ_4core3ops4drop4Drop4dropCscG178fYrITo_14zerovec_derive, symObjAddr: 0x4B00, symBinAddr: 0x2E9B0, symSize: 0x30 }
  - { offset: 0x6C04A, size: 0x8, addend: 0x0, symName: __RINvNvNtCsHUR1vrdMJt_3std9panicking12catch_unwind7do_callINtNtNtCsieiGu2EXtoJ_4core5panic11unwind_safe16AssertUnwindSafeNCINvNtNtCscKtU6MdFI5n_10proc_macro6bridge6client10run_clientNtB1Z_11TokenStreamINtNtB10_6option6OptionB2T_ENCNCINvMs6_B1Z_INtB1Z_6ClientNtB23_11TokenStreamB47_E7expand1NvCscG178fYrITo_14zerovec_derive10ule_deriveE00E0EuEB4F_, symObjAddr: 0x350, symBinAddr: 0x2A200, symSize: 0x40 }
  - { offset: 0x6C113, size: 0x8, addend: 0x0, symName: __RINvNvNtCsHUR1vrdMJt_3std9panicking12catch_unwind7do_callINtNtNtCsieiGu2EXtoJ_4core5panic11unwind_safe16AssertUnwindSafeNCINvNtNtCscKtU6MdFI5n_10proc_macro6bridge6client10run_clientNtB1Z_11TokenStreamINtNtB10_6option6OptionB2T_ENCNCINvMs6_B1Z_INtB1Z_6ClientNtB23_11TokenStreamB47_E7expand1NvCscG178fYrITo_14zerovec_derive13varule_deriveE00E0EuEB4F_, symObjAddr: 0x390, symBinAddr: 0x2A240, symSize: 0x40 }
  - { offset: 0x6C1DC, size: 0x8, addend: 0x0, symName: __RINvNvNtCsHUR1vrdMJt_3std9panicking12catch_unwind7do_callINtNtNtCsieiGu2EXtoJ_4core5panic11unwind_safe16AssertUnwindSafeNCINvNtNtCscKtU6MdFI5n_10proc_macro6bridge6client10run_clientTNtB1Z_11TokenStreamB2U_EINtNtB10_6option6OptionB2U_ENCNCINvMs7_B1Z_INtB1Z_6ClientTNtB23_11TokenStreamB4e_EB4e_E7expand2NvCscG178fYrITo_14zerovec_derive11make_varuleE00E0EuEB4R_, symObjAddr: 0x3D0, symBinAddr: 0x2A280, symSize: 0x40 }
  - { offset: 0x6C2A5, size: 0x8, addend: 0x0, symName: __RINvNvNtCsHUR1vrdMJt_3std9panicking12catch_unwind7do_callINtNtNtCsieiGu2EXtoJ_4core5panic11unwind_safe16AssertUnwindSafeNCINvNtNtCscKtU6MdFI5n_10proc_macro6bridge6client10run_clientTNtB1Z_11TokenStreamB2U_EINtNtB10_6option6OptionB2U_ENCNCINvMs7_B1Z_INtB1Z_6ClientTNtB23_11TokenStreamB4e_EB4e_E7expand2NvCscG178fYrITo_14zerovec_derive8make_uleE00E0EuEB4R_, symObjAddr: 0x410, symBinAddr: 0x2A2C0, symSize: 0x40 }
  - { offset: 0x6C36E, size: 0x8, addend: 0x0, symName: __RINvNvNtCsHUR1vrdMJt_3std9panicking12catch_unwind8do_catchINtNtNtCsieiGu2EXtoJ_4core5panic11unwind_safe16AssertUnwindSafeNCINvNtNtCscKtU6MdFI5n_10proc_macro6bridge6client10run_clientNtB20_11TokenStreamINtNtB11_6option6OptionB2U_ENCNCINvMs6_B20_INtB20_6ClientNtB24_11TokenStreamB48_E7expand1NvCscG178fYrITo_14zerovec_derive10ule_deriveE00E0EuEB4G_, symObjAddr: 0x450, symBinAddr: 0x2A300, symSize: 0x60 }
  - { offset: 0x6C403, size: 0x8, addend: 0x0, symName: __RINvNvNtCsHUR1vrdMJt_3std9panicking12catch_unwind8do_catchINtNtNtCsieiGu2EXtoJ_4core5panic11unwind_safe16AssertUnwindSafeNCINvNtNtCscKtU6MdFI5n_10proc_macro6bridge6client10run_clientNtB20_11TokenStreamINtNtB11_6option6OptionB2U_ENCNCINvMs6_B20_INtB20_6ClientNtB24_11TokenStreamB48_E7expand1NvCscG178fYrITo_14zerovec_derive13varule_deriveE00E0EuEB4G_, symObjAddr: 0x4B0, symBinAddr: 0x2A360, symSize: 0x60 }
  - { offset: 0x6C498, size: 0x8, addend: 0x0, symName: __RINvNvNtCsHUR1vrdMJt_3std9panicking12catch_unwind8do_catchINtNtNtCsieiGu2EXtoJ_4core5panic11unwind_safe16AssertUnwindSafeNCINvNtNtCscKtU6MdFI5n_10proc_macro6bridge6client10run_clientTNtB20_11TokenStreamB2V_EINtNtB11_6option6OptionB2V_ENCNCINvMs7_B20_INtB20_6ClientTNtB24_11TokenStreamB4f_EB4f_E7expand2NvCscG178fYrITo_14zerovec_derive11make_varuleE00E0EuEB4S_, symObjAddr: 0x510, symBinAddr: 0x2A3C0, symSize: 0x60 }
  - { offset: 0x6C52D, size: 0x8, addend: 0x0, symName: __RINvNvNtCsHUR1vrdMJt_3std9panicking12catch_unwind8do_catchINtNtNtCsieiGu2EXtoJ_4core5panic11unwind_safe16AssertUnwindSafeNCINvNtNtCscKtU6MdFI5n_10proc_macro6bridge6client10run_clientTNtB20_11TokenStreamB2V_EINtNtB11_6option6OptionB2V_ENCNCINvMs7_B20_INtB20_6ClientTNtB24_11TokenStreamB4f_EB4f_E7expand2NvCscG178fYrITo_14zerovec_derive8make_uleE00E0EuEB4S_, symObjAddr: 0x570, symBinAddr: 0x2A420, symSize: 0x60 }
  - { offset: 0x6C6CE, size: 0x8, addend: 0x0, symName: __RNCNkNvNvMNtNtCsHUR1vrdMJt_3std4hash6randomNtB8_11RandomState3new4KEYS0s_0CscG178fYrITo_14zerovec_derive, symObjAddr: 0x7E0, symBinAddr: 0x2A690, symSize: 0x30 }
  - { offset: 0x6C70C, size: 0x8, addend: 0x0, symName: __RNvNvNvMNtNtCsHUR1vrdMJt_3std4hash6randomNtB6_11RandomState3new4KEYS6___initCscG178fYrITo_14zerovec_derive, symObjAddr: 0x49B0, symBinAddr: 0x2E860, symSize: 0x20 }
  - { offset: 0x6C72A, size: 0x8, addend: 0x0, symName: __RNCNvMNtNtCsHUR1vrdMJt_3std4hash6randomNtB4_11RandomState3new0CscG178fYrITo_14zerovec_derive, symObjAddr: 0x810, symBinAddr: 0x2A6C0, symSize: 0x20 }
  - { offset: 0x6C7EF, size: 0x8, addend: 0x0, symName: __RNvXs2_NtNtCsHUR1vrdMJt_3std4hash6randomNtB5_13DefaultHasherNtNtCsieiGu2EXtoJ_4core4hash6Hasher5writeCscG178fYrITo_14zerovec_derive, symObjAddr: 0x4C70, symBinAddr: 0x2EB20, symSize: 0x30 }
  - { offset: 0x6C84A, size: 0x8, addend: 0x0, symName: __RNvXs2_NtNtCsHUR1vrdMJt_3std4hash6randomNtB5_13DefaultHasherNtNtCsieiGu2EXtoJ_4core4hash6Hasher6finishCscG178fYrITo_14zerovec_derive, symObjAddr: 0x4CA0, symBinAddr: 0x2EB50, symSize: 0x20 }
  - { offset: 0x6C8C9, size: 0x8, addend: 0x0, symName: __RNvXs3_NtNtCsHUR1vrdMJt_3std4hash6randomNtB5_11RandomStateNtNtCsieiGu2EXtoJ_4core7default7Default7defaultCscG178fYrITo_14zerovec_derive, symObjAddr: 0x4CC0, symBinAddr: 0x2EB70, symSize: 0x20 }
  - { offset: 0x6C901, size: 0x8, addend: 0x0, symName: __RNvXs_NtNtCsHUR1vrdMJt_3std4hash6randomNtB4_11RandomStateNtNtCsieiGu2EXtoJ_4core4hash11BuildHasher12build_hasherCscG178fYrITo_14zerovec_derive, symObjAddr: 0x4D60, symBinAddr: 0x2EC10, symSize: 0xF0 }
  - { offset: 0x6D2C7, size: 0x8, addend: 0x0, symName: __RNCNvNtCscG178fYrITo_14zerovec_derive6varule11derive_impl0B5_, symObjAddr: 0x830, symBinAddr: 0x2A6E0, symSize: 0x150 }
  - { offset: 0x6D331, size: 0x8, addend: 0x0, symName: __RNvNtCscG178fYrITo_14zerovec_derive6varule11derive_impl, symObjAddr: 0xF10, symBinAddr: 0x2ADC0, symSize: 0x28C0 }
  - { offset: 0x6D94A, size: 0x8, addend: 0x0, symName: __RNvMs0_NtCslJiobkLta79_5alloc7raw_vecINtB5_6RawVecINtNtCsieiGu2EXtoJ_4core6option6OptionNtCsaKzlTDPUHDb_11proc_macro25IdentEE8grow_oneCscG178fYrITo_14zerovec_derive, symObjAddr: 0xA20, symBinAddr: 0x2A8D0, symSize: 0x90 }
  - { offset: 0x6D9FC, size: 0x8, addend: 0x0, symName: __RNvMs0_NtCslJiobkLta79_5alloc7raw_vecINtB5_6RawVecNtCsaKzlTDPUHDb_11proc_macro211TokenStreamE8grow_oneCscG178fYrITo_14zerovec_derive, symObjAddr: 0xAB0, symBinAddr: 0x2A960, symSize: 0x90 }
  - { offset: 0x6DAAE, size: 0x8, addend: 0x0, symName: __RNvMs0_NtCslJiobkLta79_5alloc7raw_vecINtB5_6RawVecNtNtCscG178fYrITo_14zerovec_derive11make_varule12UnsizedFieldE8grow_oneBQ_, symObjAddr: 0xB40, symBinAddr: 0x2A9F0, symSize: 0x90 }
  - { offset: 0x6DB60, size: 0x8, addend: 0x0, symName: __RNvMs0_NtCslJiobkLta79_5alloc7raw_vecINtB5_6RawVecNtNtCscG178fYrITo_14zerovec_derive5utils9FieldInfoE8grow_oneBQ_, symObjAddr: 0xBD0, symBinAddr: 0x2AA80, symSize: 0x90 }
  - { offset: 0x6DC30, size: 0x8, addend: 0x0, symName: __RNvMs0_NtCslJiobkLta79_5alloc7raw_vecINtB5_6RawVecTNtCsaKzlTDPUHDb_11proc_macro25IdentNtNtCsdGrGZaRBwMb_3syn5token5CommaEE8grow_oneCscG178fYrITo_14zerovec_derive, symObjAddr: 0xC60, symBinAddr: 0x2AB10, symSize: 0x90 }
  - { offset: 0x6DCD3, size: 0x8, addend: 0x0, symName: __RNvMs1_NtNtCsieiGu2EXtoJ_4core3ptr8non_nullINtB5_7NonNullNtCsaKzlTDPUHDb_11proc_macro25IdentE20offset_from_unsignedCscG178fYrITo_14zerovec_derive, symObjAddr: 0xCF0, symBinAddr: 0x2ABA0, symSize: 0x70 }
  - { offset: 0x6DDDD, size: 0x8, addend: 0x0, symName: __RNvMs1_NtNtCsieiGu2EXtoJ_4core3ptr8non_nullINtB5_7NonNullNtNtCscG178fYrITo_14zerovec_derive5utils9FieldInfoE20offset_from_unsignedBX_, symObjAddr: 0xD60, symBinAddr: 0x2AC10, symSize: 0x70 }
  - { offset: 0x6DEE7, size: 0x8, addend: 0x0, symName: __RNvMs1_NtNtCsieiGu2EXtoJ_4core3ptr8non_nullINtB5_7NonNullTNtCsaKzlTDPUHDb_11proc_macro25IdentNtNtCsdGrGZaRBwMb_3syn5token5CommaEE20offset_from_unsignedCscG178fYrITo_14zerovec_derive, symObjAddr: 0xDD0, symBinAddr: 0x2AC80, symSize: 0x60 }
  - { offset: 0x6DFF1, size: 0x8, addend: 0x0, symName: __RNvMs1_NtNtCsieiGu2EXtoJ_4core3ptr8non_nullINtB5_7NonNullTNtNtCsdGrGZaRBwMb_3syn4data7VariantNtNtBY_5token5CommaEE20offset_from_unsignedCscG178fYrITo_14zerovec_derive, symObjAddr: 0xE30, symBinAddr: 0x2ACE0, symSize: 0x70 }
  - { offset: 0x6E0FB, size: 0x8, addend: 0x0, symName: __RNvMs1_NtNtCsieiGu2EXtoJ_4core3ptr8non_nullINtB5_7NonNullTNtNtCsdGrGZaRBwMb_3syn4path15GenericArgumentNtNtBY_5token5CommaEE20offset_from_unsignedCscG178fYrITo_14zerovec_derive, symObjAddr: 0xEA0, symBinAddr: 0x2AD50, symSize: 0x70 }
  - { offset: 0x6E6F3, size: 0x8, addend: 0x0, symName: __RINvCsdGrGZaRBwMb_3syn5parseNtCsaKzlTDPUHDb_11proc_macro25IdentECscG178fYrITo_14zerovec_derive, symObjAddr: 0x0, symBinAddr: 0x2F380, symSize: 0x30 }
  - { offset: 0x6ECEB, size: 0x8, addend: 0x0, symName: __RNCNCNvXsx_NtCsdGrGZaRBwMb_3syn10punctuatedINtB9_11PrivateIterNtCsaKzlTDPUHDb_11proc_macro25IdentNtNtBb_5token5CommaENtNtNtNtCsieiGu2EXtoJ_4core4iter6traits12double_ended19DoubleEndedIterator9next_back00CscG178fYrITo_14zerovec_derive, symObjAddr: 0x9D0, symBinAddr: 0x2FAF0, symSize: 0x10 }
  - { offset: 0x6ED36, size: 0x8, addend: 0x0, symName: __RNCNCNvXsx_NtCsdGrGZaRBwMb_3syn10punctuatedINtB9_11PrivateIterNtNtBb_4data7VariantNtNtBb_5token5CommaENtNtNtNtCsieiGu2EXtoJ_4core4iter6traits12double_ended19DoubleEndedIterator9next_back00CscG178fYrITo_14zerovec_derive, symObjAddr: 0x9E0, symBinAddr: 0x2FB00, symSize: 0x10 }
  - { offset: 0x6ED81, size: 0x8, addend: 0x0, symName: __RNCNCNvXsx_NtCsdGrGZaRBwMb_3syn10punctuatedINtB9_11PrivateIterNtNtBb_4path15GenericArgumentNtNtBb_5token5CommaENtNtNtNtCsieiGu2EXtoJ_4core4iter6traits12double_ended19DoubleEndedIterator9next_back00CscG178fYrITo_14zerovec_derive, symObjAddr: 0x9F0, symBinAddr: 0x2FB10, symSize: 0x10 }
  - { offset: 0x6EDE2, size: 0x8, addend: 0x0, symName: __RNCNvXsx_NtCsdGrGZaRBwMb_3syn10punctuatedINtB7_11PrivateIterNtCsaKzlTDPUHDb_11proc_macro25IdentNtNtB9_5token5CommaENtNtNtNtCsieiGu2EXtoJ_4core4iter6traits12double_ended19DoubleEndedIterator9next_back0CscG178fYrITo_14zerovec_derive, symObjAddr: 0xA90, symBinAddr: 0x2FBB0, symSize: 0x30 }
  - { offset: 0x6EE24, size: 0x8, addend: 0x0, symName: __RNCNvXsx_NtCsdGrGZaRBwMb_3syn10punctuatedINtB7_11PrivateIterNtNtB9_4data7VariantNtNtB9_5token5CommaENtNtNtNtCsieiGu2EXtoJ_4core4iter6traits12double_ended19DoubleEndedIterator9next_back0CscG178fYrITo_14zerovec_derive, symObjAddr: 0xAC0, symBinAddr: 0x2FBE0, symSize: 0x30 }
  - { offset: 0x6EE66, size: 0x8, addend: 0x0, symName: __RNCNvXsx_NtCsdGrGZaRBwMb_3syn10punctuatedINtB7_11PrivateIterNtNtB9_4path15GenericArgumentNtNtB9_5token5CommaENtNtNtNtCsieiGu2EXtoJ_4core4iter6traits12double_ended19DoubleEndedIterator9next_back0CscG178fYrITo_14zerovec_derive, symObjAddr: 0xAF0, symBinAddr: 0x2FC10, symSize: 0x30 }
  - { offset: 0x6EEA9, size: 0x8, addend: 0x0, symName: __RNvXsx_NtCsdGrGZaRBwMb_3syn10punctuatedINtB5_11PrivateIterNtCsaKzlTDPUHDb_11proc_macro25IdentNtNtB7_5token5CommaENtNtNtNtCsieiGu2EXtoJ_4core4iter6traits12double_ended19DoubleEndedIterator9next_backCscG178fYrITo_14zerovec_derive, symObjAddr: 0x4100, symBinAddr: 0x33220, symSize: 0x40 }
  - { offset: 0x6EEE9, size: 0x8, addend: 0x0, symName: __RNvXsx_NtCsdGrGZaRBwMb_3syn10punctuatedINtB5_11PrivateIterNtNtB7_4data7VariantNtNtB7_5token5CommaENtNtNtNtCsieiGu2EXtoJ_4core4iter6traits12double_ended19DoubleEndedIterator9next_backCscG178fYrITo_14zerovec_derive, symObjAddr: 0x4140, symBinAddr: 0x33260, symSize: 0x40 }
  - { offset: 0x6EF29, size: 0x8, addend: 0x0, symName: __RNvXsx_NtCsdGrGZaRBwMb_3syn10punctuatedINtB5_11PrivateIterNtNtB7_4path15GenericArgumentNtNtB7_5token5CommaENtNtNtNtCsieiGu2EXtoJ_4core4iter6traits12double_ended19DoubleEndedIterator9next_backCscG178fYrITo_14zerovec_derive, symObjAddr: 0x4180, symBinAddr: 0x332A0, symSize: 0x40 }
  - { offset: 0x6EF74, size: 0x8, addend: 0x0, symName: __RNCNvXsw_NtCsdGrGZaRBwMb_3syn10punctuatedINtB7_11PrivateIterNtCsaKzlTDPUHDb_11proc_macro25IdentNtNtB9_5token5CommaENtNtNtNtCsieiGu2EXtoJ_4core4iter6traits8iterator8Iterator4next0CscG178fYrITo_14zerovec_derive, symObjAddr: 0xA00, symBinAddr: 0x2FB20, symSize: 0x10 }
  - { offset: 0x6EFBF, size: 0x8, addend: 0x0, symName: __RNCNvXsw_NtCsdGrGZaRBwMb_3syn10punctuatedINtB7_11PrivateIterNtCsaKzlTDPUHDb_11proc_macro25IdentNtNtB9_5token5CommaENtNtNtNtCsieiGu2EXtoJ_4core4iter6traits8iterator8Iterator4nexts_0CscG178fYrITo_14zerovec_derive, symObjAddr: 0xA10, symBinAddr: 0x2FB30, symSize: 0x20 }
  - { offset: 0x6F001, size: 0x8, addend: 0x0, symName: __RNCNvXsw_NtCsdGrGZaRBwMb_3syn10punctuatedINtB7_11PrivateIterNtNtB9_4data7VariantNtNtB9_5token5CommaENtNtNtNtCsieiGu2EXtoJ_4core4iter6traits8iterator8Iterator4next0CscG178fYrITo_14zerovec_derive, symObjAddr: 0xA30, symBinAddr: 0x2FB50, symSize: 0x10 }
  - { offset: 0x6F04C, size: 0x8, addend: 0x0, symName: __RNCNvXsw_NtCsdGrGZaRBwMb_3syn10punctuatedINtB7_11PrivateIterNtNtB9_4data7VariantNtNtB9_5token5CommaENtNtNtNtCsieiGu2EXtoJ_4core4iter6traits8iterator8Iterator4nexts_0CscG178fYrITo_14zerovec_derive, symObjAddr: 0xA40, symBinAddr: 0x2FB60, symSize: 0x20 }
  - { offset: 0x6F08E, size: 0x8, addend: 0x0, symName: __RNCNvXsw_NtCsdGrGZaRBwMb_3syn10punctuatedINtB7_11PrivateIterNtNtB9_4path15GenericArgumentNtNtB9_5token5CommaENtNtNtNtCsieiGu2EXtoJ_4core4iter6traits8iterator8Iterator4next0CscG178fYrITo_14zerovec_derive, symObjAddr: 0xA60, symBinAddr: 0x2FB80, symSize: 0x10 }
  - { offset: 0x6F0D9, size: 0x8, addend: 0x0, symName: __RNCNvXsw_NtCsdGrGZaRBwMb_3syn10punctuatedINtB7_11PrivateIterNtNtB9_4path15GenericArgumentNtNtB9_5token5CommaENtNtNtNtCsieiGu2EXtoJ_4core4iter6traits8iterator8Iterator4nexts_0CscG178fYrITo_14zerovec_derive, symObjAddr: 0xA70, symBinAddr: 0x2FB90, symSize: 0x20 }
  - { offset: 0x6F131, size: 0x8, addend: 0x0, symName: __RNvXsw_NtCsdGrGZaRBwMb_3syn10punctuatedINtB5_11PrivateIterNtCsaKzlTDPUHDb_11proc_macro25IdentNtNtB7_5token5CommaENtNtNtNtCsieiGu2EXtoJ_4core4iter6traits8iterator8Iterator4nextCscG178fYrITo_14zerovec_derive, symObjAddr: 0x4040, symBinAddr: 0x33160, symSize: 0x40 }
  - { offset: 0x6F171, size: 0x8, addend: 0x0, symName: __RNvXsw_NtCsdGrGZaRBwMb_3syn10punctuatedINtB5_11PrivateIterNtNtB7_4data7VariantNtNtB7_5token5CommaENtNtNtNtCsieiGu2EXtoJ_4core4iter6traits8iterator8Iterator4nextCscG178fYrITo_14zerovec_derive, symObjAddr: 0x4080, symBinAddr: 0x331A0, symSize: 0x40 }
  - { offset: 0x6F1B1, size: 0x8, addend: 0x0, symName: __RNvXsw_NtCsdGrGZaRBwMb_3syn10punctuatedINtB5_11PrivateIterNtNtB7_4path15GenericArgumentNtNtB7_5token5CommaENtNtNtNtCsieiGu2EXtoJ_4core4iter6traits8iterator8Iterator4nextCscG178fYrITo_14zerovec_derive, symObjAddr: 0x40C0, symBinAddr: 0x331E0, symSize: 0x40 }
  - { offset: 0x6F251, size: 0x8, addend: 0x0, symName: __RNvXs9_NtCsdGrGZaRBwMb_3syn10punctuatedRINtB5_10PunctuatedNtNtB7_4path15GenericArgumentNtNtB7_5token5CommaENtNtNtNtCsieiGu2EXtoJ_4core4iter6traits7collect12IntoIterator9into_iterCscG178fYrITo_14zerovec_derive, symObjAddr: 0x22B0, symBinAddr: 0x313D0, symSize: 0x20 }
  - { offset: 0x6F297, size: 0x8, addend: 0x0, symName: __RNvXsA_NtCsdGrGZaRBwMb_3syn10punctuatedINtB5_11PrivateIterNtCsaKzlTDPUHDb_11proc_macro25IdentNtNtB7_5token5CommaEINtB5_9IterTraitBU_E9clone_boxCscG178fYrITo_14zerovec_derive, symObjAddr: 0x22D0, symBinAddr: 0x313F0, symSize: 0x90 }
  - { offset: 0x6F2F6, size: 0x8, addend: 0x0, symName: __RNvXsA_NtCsdGrGZaRBwMb_3syn10punctuatedINtB5_11PrivateIterNtNtB7_4data7VariantNtNtB7_5token5CommaEINtB5_9IterTraitBU_E9clone_boxCscG178fYrITo_14zerovec_derive, symObjAddr: 0x2360, symBinAddr: 0x31480, symSize: 0x90 }
  - { offset: 0x6F355, size: 0x8, addend: 0x0, symName: __RNvXsA_NtCsdGrGZaRBwMb_3syn10punctuatedINtB5_11PrivateIterNtNtB7_4path15GenericArgumentNtNtB7_5token5CommaEINtB5_9IterTraitBU_E9clone_boxCscG178fYrITo_14zerovec_derive, symObjAddr: 0x23F0, symBinAddr: 0x31510, symSize: 0x90 }
  - { offset: 0x6F3BA, size: 0x8, addend: 0x0, symName: __RNvXsC_NtCsdGrGZaRBwMb_3syn10punctuatedINtB5_7IterMutNtNtB7_4data5FieldENtNtNtNtCsieiGu2EXtoJ_4core4iter6traits8iterator8Iterator4nextCscG178fYrITo_14zerovec_derive, symObjAddr: 0x2480, symBinAddr: 0x315A0, symSize: 0x30 }
  - { offset: 0x6F3F7, size: 0x8, addend: 0x0, symName: __RNvXst_NtCsdGrGZaRBwMb_3syn10punctuatedINtB5_4IterNtCsaKzlTDPUHDb_11proc_macro25IdentENtNtNtNtCsieiGu2EXtoJ_4core4iter6traits8iterator8Iterator4nextCscG178fYrITo_14zerovec_derive, symObjAddr: 0x3E60, symBinAddr: 0x32F80, symSize: 0x30 }
  - { offset: 0x6F42E, size: 0x8, addend: 0x0, symName: __RNvXst_NtCsdGrGZaRBwMb_3syn10punctuatedINtB5_4IterNtCsaKzlTDPUHDb_11proc_macro25IdentENtNtNtNtCsieiGu2EXtoJ_4core4iter6traits8iterator8Iterator9size_hintCscG178fYrITo_14zerovec_derive, symObjAddr: 0x3E90, symBinAddr: 0x32FB0, symSize: 0x60 }
  - { offset: 0x6F465, size: 0x8, addend: 0x0, symName: __RNvXst_NtCsdGrGZaRBwMb_3syn10punctuatedINtB5_4IterNtNtB7_4data5FieldENtNtNtNtCsieiGu2EXtoJ_4core4iter6traits8iterator8Iterator9size_hintCscG178fYrITo_14zerovec_derive, symObjAddr: 0x3EF0, symBinAddr: 0x33010, symSize: 0x60 }
  - { offset: 0x6F49C, size: 0x8, addend: 0x0, symName: __RNvXst_NtCsdGrGZaRBwMb_3syn10punctuatedINtB5_4IterNtNtB7_4data7VariantENtNtNtNtCsieiGu2EXtoJ_4core4iter6traits8iterator8Iterator4nextCscG178fYrITo_14zerovec_derive, symObjAddr: 0x3F50, symBinAddr: 0x33070, symSize: 0x30 }
  - { offset: 0x6F4D3, size: 0x8, addend: 0x0, symName: __RNvXst_NtCsdGrGZaRBwMb_3syn10punctuatedINtB5_4IterNtNtB7_4path15GenericArgumentENtNtNtNtCsieiGu2EXtoJ_4core4iter6traits8iterator8Iterator4nextCscG178fYrITo_14zerovec_derive, symObjAddr: 0x3F80, symBinAddr: 0x330A0, symSize: 0x30 }
  - { offset: 0x6F510, size: 0x8, addend: 0x0, symName: __RNvXsu_NtCsdGrGZaRBwMb_3syn10punctuatedINtB5_4IterNtNtB7_4data5FieldENtNtNtNtCsieiGu2EXtoJ_4core4iter6traits12double_ended19DoubleEndedIterator9next_backCscG178fYrITo_14zerovec_derive, symObjAddr: 0x3FB0, symBinAddr: 0x330D0, symSize: 0x30 }
  - { offset: 0x6F54D, size: 0x8, addend: 0x0, symName: __RNvXsv_NtCsdGrGZaRBwMb_3syn10punctuatedINtB5_4IterNtCsaKzlTDPUHDb_11proc_macro25IdentENtNtNtNtCsieiGu2EXtoJ_4core4iter6traits10exact_size17ExactSizeIterator3lenCscG178fYrITo_14zerovec_derive, symObjAddr: 0x3FE0, symBinAddr: 0x33100, symSize: 0x30 }
  - { offset: 0x6F584, size: 0x8, addend: 0x0, symName: __RNvXsv_NtCsdGrGZaRBwMb_3syn10punctuatedINtB5_4IterNtNtB7_4data5FieldENtNtNtNtCsieiGu2EXtoJ_4core4iter6traits10exact_size17ExactSizeIterator3lenCscG178fYrITo_14zerovec_derive, symObjAddr: 0x4010, symBinAddr: 0x33130, symSize: 0x30 }
  - { offset: 0x6F5C1, size: 0x8, addend: 0x0, symName: __RNvXsy_NtCsdGrGZaRBwMb_3syn10punctuatedINtB5_11PrivateIterNtCsaKzlTDPUHDb_11proc_macro25IdentNtNtB7_5token5CommaENtNtNtNtCsieiGu2EXtoJ_4core4iter6traits10exact_size17ExactSizeIterator3lenCscG178fYrITo_14zerovec_derive, symObjAddr: 0x41C0, symBinAddr: 0x332E0, symSize: 0x80 }
  - { offset: 0x6F639, size: 0x8, addend: 0x0, symName: __RNvXsy_NtCsdGrGZaRBwMb_3syn10punctuatedINtB5_11PrivateIterNtNtB7_4data7VariantNtNtB7_5token5CommaENtNtNtNtCsieiGu2EXtoJ_4core4iter6traits10exact_size17ExactSizeIterator3lenCscG178fYrITo_14zerovec_derive, symObjAddr: 0x4240, symBinAddr: 0x33360, symSize: 0x80 }
  - { offset: 0x6F6B1, size: 0x8, addend: 0x0, symName: __RNvXsy_NtCsdGrGZaRBwMb_3syn10punctuatedINtB5_11PrivateIterNtNtB7_4path15GenericArgumentNtNtB7_5token5CommaENtNtNtNtCsieiGu2EXtoJ_4core4iter6traits10exact_size17ExactSizeIterator3lenCscG178fYrITo_14zerovec_derive, symObjAddr: 0x42C0, symBinAddr: 0x333E0, symSize: 0x80 }
  - { offset: 0x6F72F, size: 0x8, addend: 0x0, symName: __RNvXsz_NtCsdGrGZaRBwMb_3syn10punctuatedINtB5_11PrivateIterNtCsaKzlTDPUHDb_11proc_macro25IdentNtNtB7_5token5CommaENtNtCsieiGu2EXtoJ_4core5clone5Clone5cloneCscG178fYrITo_14zerovec_derive, symObjAddr: 0x4340, symBinAddr: 0x33460, symSize: 0x70 }
  - { offset: 0x6F76F, size: 0x8, addend: 0x0, symName: __RNvXsz_NtCsdGrGZaRBwMb_3syn10punctuatedINtB5_11PrivateIterNtNtB7_4data7VariantNtNtB7_5token5CommaENtNtCsieiGu2EXtoJ_4core5clone5Clone5cloneCscG178fYrITo_14zerovec_derive, symObjAddr: 0x43B0, symBinAddr: 0x334D0, symSize: 0x70 }
  - { offset: 0x6F7AF, size: 0x8, addend: 0x0, symName: __RNvXsz_NtCsdGrGZaRBwMb_3syn10punctuatedINtB5_11PrivateIterNtNtB7_4path15GenericArgumentNtNtB7_5token5CommaENtNtCsieiGu2EXtoJ_4core5clone5Clone5cloneCscG178fYrITo_14zerovec_derive, symObjAddr: 0x4420, symBinAddr: 0x33540, symSize: 0x70 }
  - { offset: 0x740FB, size: 0x8, addend: 0x0, symName: __RINvCsdGrGZaRBwMb_3syn5parseNtCsaKzlTDPUHDb_11proc_macro25IdentECscG178fYrITo_14zerovec_derive, symObjAddr: 0x0, symBinAddr: 0x2F380, symSize: 0x30 }
  - { offset: 0x74132, size: 0x8, addend: 0x0, symName: __RINvCsdGrGZaRBwMb_3syn5parseNtNtB2_6derive11DeriveInputECscG178fYrITo_14zerovec_derive, symObjAddr: 0x30, symBinAddr: 0x2F3B0, symSize: 0x30 }
  - { offset: 0x74169, size: 0x8, addend: 0x0, symName: __RINvCsdGrGZaRBwMb_3syn6parse2NtNtB2_3lit3LitECscG178fYrITo_14zerovec_derive, symObjAddr: 0x60, symBinAddr: 0x2F3E0, symSize: 0x30 }
  - { offset: 0x7428F, size: 0x8, addend: 0x0, symName: __RINvNtCsdGrGZaRBwMb_3syn5parse12parse_scopedNvYNtCsaKzlTDPUHDb_11proc_macro211TokenStreamNtB2_5Parse5parseECscG178fYrITo_14zerovec_derive, symObjAddr: 0x3B0, symBinAddr: 0x2F4D0, symSize: 0x30 }
  - { offset: 0x742E5, size: 0x8, addend: 0x0, symName: __RINvNtCsdGrGZaRBwMb_3syn5parse12parse_scopedNvYNtNtCscG178fYrITo_14zerovec_derive5utils18IdentListAttributeNtB2_5Parse5parseEBN_, symObjAddr: 0x3E0, symBinAddr: 0x2F500, symSize: 0x30 }
  - { offset: 0x74340, size: 0x8, addend: 0x0, symName: __RNvXsh_NtCsdGrGZaRBwMb_3syn5parseNvYNtCsaKzlTDPUHDb_11proc_macro211TokenStreamNtB5_5Parse5parseNtB5_6Parser14___parse_scopedCscG178fYrITo_14zerovec_derive, symObjAddr: 0x28A0, symBinAddr: 0x319C0, symSize: 0x4E0 }
  - { offset: 0x7448C, size: 0x8, addend: 0x0, symName: __RNvXsh_NtCsdGrGZaRBwMb_3syn5parseNvYNtCsaKzlTDPUHDb_11proc_macro25IdentNtB5_5Parse5parseNtB5_6Parser6parse2CscG178fYrITo_14zerovec_derive, symObjAddr: 0x2D80, symBinAddr: 0x31EA0, symSize: 0x3F0 }
  - { offset: 0x7459D, size: 0x8, addend: 0x0, symName: __RNvXsh_NtCsdGrGZaRBwMb_3syn5parseNvYNtNtB7_3lit3LitNtB5_5Parse5parseNtB5_6Parser6parse2CscG178fYrITo_14zerovec_derive, symObjAddr: 0x3170, symBinAddr: 0x32290, symSize: 0x3F0 }
  - { offset: 0x746AE, size: 0x8, addend: 0x0, symName: __RNvXsh_NtCsdGrGZaRBwMb_3syn5parseNvYNtNtB7_6derive11DeriveInputNtB5_5Parse5parseNtB5_6Parser6parse2CscG178fYrITo_14zerovec_derive, symObjAddr: 0x3560, symBinAddr: 0x32680, symSize: 0x400 }
  - { offset: 0x747BF, size: 0x8, addend: 0x0, symName: __RNvXsh_NtCsdGrGZaRBwMb_3syn5parseNvYNtNtCscG178fYrITo_14zerovec_derive5utils18IdentListAttributeNtB5_5Parse5parseNtB5_6Parser14___parse_scopedBC_, symObjAddr: 0x3960, symBinAddr: 0x32A80, symSize: 0x4E0 }
  - { offset: 0x74911, size: 0x8, addend: 0x0, symName: __RNvYNvYNtCsaKzlTDPUHDb_11proc_macro25IdentNtNtCsdGrGZaRBwMb_3syn5parse5Parse5parseNtBG_6Parser5parseCscG178fYrITo_14zerovec_derive, symObjAddr: 0x4FA0, symBinAddr: 0x340C0, symSize: 0x70 }
  - { offset: 0x74957, size: 0x8, addend: 0x0, symName: __RNvYNvYNtNtCsdGrGZaRBwMb_3syn6derive11DeriveInputNtNtB9_5parse5Parse5parseNtBN_6Parser5parseCscG178fYrITo_14zerovec_derive, symObjAddr: 0x5010, symBinAddr: 0x34130, symSize: 0x70 }
  - { offset: 0x74C9C, size: 0x8, addend: 0x0, symName: __RNvXNtCsdGrGZaRBwMb_3syn7spannedNtNtB4_8generics8GenericsNtB2_7Spanned4spanCscG178fYrITo_14zerovec_derive, symObjAddr: 0x16F0, symBinAddr: 0x30810, symSize: 0x20 }
  - { offset: 0x79AB2, size: 0x8, addend: 0x0, symName: __RINvYINtNtCsdGrGZaRBwMb_3syn10punctuated11PrivateIterNtCsaKzlTDPUHDb_11proc_macro25IdentNtNtB8_5token5CommaENtNtNtNtCsieiGu2EXtoJ_4core4iter6traits8iterator8Iterator8try_foldINtNtNtB1Q_3num7nonzero7NonZerojENCNvXs_NvB1I_10advance_byB3_NtB3q_13SpecAdvanceBy15spec_advance_by0INtNtB1Q_6option6OptionB2M_EECscG178fYrITo_14zerovec_derive, symObjAddr: 0x420, symBinAddr: 0x2F540, symSize: 0x130 }
  - { offset: 0x79B66, size: 0x8, addend: 0x0, symName: __RINvYINtNtCsdGrGZaRBwMb_3syn10punctuated11PrivateIterNtNtB8_4data7VariantNtNtB8_5token5CommaENtNtNtNtCsieiGu2EXtoJ_4core4iter6traits8iterator8Iterator8try_foldINtNtNtB1B_3num7nonzero7NonZerojENCNvXs_NvB1t_10advance_byB3_NtB3b_13SpecAdvanceBy15spec_advance_by0INtNtB1B_6option6OptionB2x_EECscG178fYrITo_14zerovec_derive, symObjAddr: 0x550, symBinAddr: 0x2F670, symSize: 0x130 }
  - { offset: 0x79C1A, size: 0x8, addend: 0x0, symName: __RINvYINtNtCsdGrGZaRBwMb_3syn10punctuated11PrivateIterNtNtB8_4path15GenericArgumentNtNtB8_5token5CommaENtNtNtNtCsieiGu2EXtoJ_4core4iter6traits8iterator8Iterator8try_foldINtNtNtB1K_3num7nonzero7NonZerojENCNvXs_NvB1C_10advance_byB3_NtB3k_13SpecAdvanceBy15spec_advance_by0INtNtB1K_6option6OptionB2G_EECscG178fYrITo_14zerovec_derive, symObjAddr: 0x680, symBinAddr: 0x2F7A0, symSize: 0x130 }
  - { offset: 0x79CCE, size: 0x8, addend: 0x0, symName: __RINvYINtNtCsdGrGZaRBwMb_3syn10punctuated4IterNtCsaKzlTDPUHDb_11proc_macro25IdentENtNtNtNtCsieiGu2EXtoJ_4core4iter6traits8iterator8Iterator6clonedBH_ECscG178fYrITo_14zerovec_derive, symObjAddr: 0x7B0, symBinAddr: 0x2F8D0, symSize: 0x20 }
  - { offset: 0x79D0E, size: 0x8, addend: 0x0, symName: __RINvYINtNtCsdGrGZaRBwMb_3syn10punctuated4IterNtNtB8_4path11PathSegmentENtNtNtNtCsieiGu2EXtoJ_4core4iter6traits8iterator8Iterator8try_foldINtNtNtB1f_3num7nonzero7NonZerojENCNvXs_NvB17_10advance_byB3_NtB2P_13SpecAdvanceBy15spec_advance_by0INtNtB1f_6option6OptionB2b_EECscG178fYrITo_14zerovec_derive, symObjAddr: 0x7D0, symBinAddr: 0x2F8F0, symSize: 0x130 }
  - { offset: 0x79DC2, size: 0x8, addend: 0x0, symName: __RINvYNtNtCsdGrGZaRBwMb_3syn8generics9LifetimesNtNtNtNtCsieiGu2EXtoJ_4core4iter6traits8iterator8Iterator4foldjNCNvYB3_BI_5count0ECscG178fYrITo_14zerovec_derive, symObjAddr: 0x900, symBinAddr: 0x2FA20, symSize: 0xD0 }
  - { offset: 0x79E60, size: 0x8, addend: 0x0, symName: __RNvXs_NvNtNtNtNtCsieiGu2EXtoJ_4core4iter6traits8iterator8Iterator10advance_byINtNtCsdGrGZaRBwMb_3syn10punctuated11PrivateIterNtCsaKzlTDPUHDb_11proc_macro25IdentNtNtB1i_5token5CommaENtB4_13SpecAdvanceBy15spec_advance_byCscG178fYrITo_14zerovec_derive, symObjAddr: 0x25D0, symBinAddr: 0x316F0, symSize: 0x90 }
  - { offset: 0x79F0E, size: 0x8, addend: 0x0, symName: __RNvXs_NvNtNtNtNtCsieiGu2EXtoJ_4core4iter6traits8iterator8Iterator10advance_byINtNtCsdGrGZaRBwMb_3syn10punctuated11PrivateIterNtNtB1i_4data7VariantNtNtB1i_5token5CommaENtB4_13SpecAdvanceBy15spec_advance_byCscG178fYrITo_14zerovec_derive, symObjAddr: 0x2660, symBinAddr: 0x31780, symSize: 0x90 }
  - { offset: 0x79FBC, size: 0x8, addend: 0x0, symName: __RNvXs_NvNtNtNtNtCsieiGu2EXtoJ_4core4iter6traits8iterator8Iterator10advance_byINtNtCsdGrGZaRBwMb_3syn10punctuated11PrivateIterNtNtB1i_4path15GenericArgumentNtNtB1i_5token5CommaENtB4_13SpecAdvanceBy15spec_advance_byCscG178fYrITo_14zerovec_derive, symObjAddr: 0x26F0, symBinAddr: 0x31810, symSize: 0x90 }
  - { offset: 0x7A06A, size: 0x8, addend: 0x0, symName: __RNvXs_NvNtNtNtNtCsieiGu2EXtoJ_4core4iter6traits8iterator8Iterator10advance_byINtNtCsdGrGZaRBwMb_3syn10punctuated4IterNtNtB1i_4path11PathSegmentENtB4_13SpecAdvanceBy15spec_advance_byCscG178fYrITo_14zerovec_derive, symObjAddr: 0x2780, symBinAddr: 0x318A0, symSize: 0x90 }
  - { offset: 0x7A13C, size: 0x8, addend: 0x0, symName: __RNvYINtNtCsdGrGZaRBwMb_3syn10punctuated11PrivateIterNtCsaKzlTDPUHDb_11proc_macro25IdentNtNtB7_5token5CommaENtNtNtNtCsieiGu2EXtoJ_4core4iter6traits8iterator8Iterator10advance_byCscG178fYrITo_14zerovec_derive, symObjAddr: 0x46D0, symBinAddr: 0x337F0, symSize: 0x20 }
  - { offset: 0x7A182, size: 0x8, addend: 0x0, symName: __RNvYINtNtCsdGrGZaRBwMb_3syn10punctuated11PrivateIterNtCsaKzlTDPUHDb_11proc_macro25IdentNtNtB7_5token5CommaENtNtNtNtCsieiGu2EXtoJ_4core4iter6traits8iterator8Iterator3nthCscG178fYrITo_14zerovec_derive, symObjAddr: 0x46F0, symBinAddr: 0x33810, symSize: 0x80 }
  - { offset: 0x7A252, size: 0x8, addend: 0x0, symName: __RNvYINtNtCsdGrGZaRBwMb_3syn10punctuated11PrivateIterNtCsaKzlTDPUHDb_11proc_macro25IdentNtNtB7_5token5CommaENtNtNtNtCsieiGu2EXtoJ_4core4iter6traits8iterator8Iterator9size_hintCscG178fYrITo_14zerovec_derive, symObjAddr: 0x4770, symBinAddr: 0x33890, symSize: 0x30 }
  - { offset: 0x7A287, size: 0x8, addend: 0x0, symName: __RNvYINtNtCsdGrGZaRBwMb_3syn10punctuated11PrivateIterNtNtB7_4data7VariantNtNtB7_5token5CommaENtNtNtNtCsieiGu2EXtoJ_4core4iter6traits8iterator8Iterator10advance_byCscG178fYrITo_14zerovec_derive, symObjAddr: 0x49D0, symBinAddr: 0x33AF0, symSize: 0x20 }
  - { offset: 0x7A2CD, size: 0x8, addend: 0x0, symName: __RNvYINtNtCsdGrGZaRBwMb_3syn10punctuated11PrivateIterNtNtB7_4data7VariantNtNtB7_5token5CommaENtNtNtNtCsieiGu2EXtoJ_4core4iter6traits8iterator8Iterator3nthCscG178fYrITo_14zerovec_derive, symObjAddr: 0x49F0, symBinAddr: 0x33B10, symSize: 0x80 }
  - { offset: 0x7A39D, size: 0x8, addend: 0x0, symName: __RNvYINtNtCsdGrGZaRBwMb_3syn10punctuated11PrivateIterNtNtB7_4data7VariantNtNtB7_5token5CommaENtNtNtNtCsieiGu2EXtoJ_4core4iter6traits8iterator8Iterator9size_hintCscG178fYrITo_14zerovec_derive, symObjAddr: 0x4A70, symBinAddr: 0x33B90, symSize: 0x30 }
  - { offset: 0x7A3D2, size: 0x8, addend: 0x0, symName: __RNvYINtNtCsdGrGZaRBwMb_3syn10punctuated11PrivateIterNtNtB7_4path15GenericArgumentNtNtB7_5token5CommaENtNtNtNtCsieiGu2EXtoJ_4core4iter6traits8iterator8Iterator10advance_byCscG178fYrITo_14zerovec_derive, symObjAddr: 0x4CD0, symBinAddr: 0x33DF0, symSize: 0x20 }
  - { offset: 0x7A418, size: 0x8, addend: 0x0, symName: __RNvYINtNtCsdGrGZaRBwMb_3syn10punctuated11PrivateIterNtNtB7_4path15GenericArgumentNtNtB7_5token5CommaENtNtNtNtCsieiGu2EXtoJ_4core4iter6traits8iterator8Iterator3nthCscG178fYrITo_14zerovec_derive, symObjAddr: 0x4CF0, symBinAddr: 0x33E10, symSize: 0x80 }
  - { offset: 0x7A4E8, size: 0x8, addend: 0x0, symName: __RNvYINtNtCsdGrGZaRBwMb_3syn10punctuated11PrivateIterNtNtB7_4path15GenericArgumentNtNtB7_5token5CommaENtNtNtNtCsieiGu2EXtoJ_4core4iter6traits8iterator8Iterator9size_hintCscG178fYrITo_14zerovec_derive, symObjAddr: 0x4D70, symBinAddr: 0x33E90, symSize: 0x30 }
  - { offset: 0x7A51D, size: 0x8, addend: 0x0, symName: __RNvYINtNtCsdGrGZaRBwMb_3syn10punctuated4IterNtNtB7_4data5FieldENtNtNtNtCsieiGu2EXtoJ_4core4iter6traits8iterator8Iterator4takeCscG178fYrITo_14zerovec_derive, symObjAddr: 0x4DA0, symBinAddr: 0x33EC0, symSize: 0x20 }
  - { offset: 0x7A578, size: 0x8, addend: 0x0, symName: __RNvYINtNtCsdGrGZaRBwMb_3syn10punctuated4IterNtNtB7_4data5FieldENtNtNtNtCsieiGu2EXtoJ_4core4iter6traits8iterator8Iterator9enumerateCscG178fYrITo_14zerovec_derive, symObjAddr: 0x4DC0, symBinAddr: 0x33EE0, symSize: 0x20 }
  - { offset: 0x7A5C4, size: 0x8, addend: 0x0, symName: __RNvYINtNtCsdGrGZaRBwMb_3syn10punctuated4IterNtNtB7_4data7VariantENtNtNtNtCsieiGu2EXtoJ_4core4iter6traits8iterator8Iterator9enumerateCscG178fYrITo_14zerovec_derive, symObjAddr: 0x4DE0, symBinAddr: 0x33F00, symSize: 0x20 }
  - { offset: 0x7A610, size: 0x8, addend: 0x0, symName: __RNvYINtNtCsdGrGZaRBwMb_3syn10punctuated4IterNtNtB7_4path11PathSegmentENtNtNtNtCsieiGu2EXtoJ_4core4iter6traits8iterator8Iterator10advance_byCscG178fYrITo_14zerovec_derive, symObjAddr: 0x4E00, symBinAddr: 0x33F20, symSize: 0x20 }
  - { offset: 0x7A656, size: 0x8, addend: 0x0, symName: __RNvYINtNtCsdGrGZaRBwMb_3syn10punctuated4IterNtNtB7_4path11PathSegmentENtNtNtNtCsieiGu2EXtoJ_4core4iter6traits8iterator8Iterator3nthCscG178fYrITo_14zerovec_derive, symObjAddr: 0x4E20, symBinAddr: 0x33F40, symSize: 0x80 }
  - { offset: 0x7A726, size: 0x8, addend: 0x0, symName: __RNvYNtNtCsdGrGZaRBwMb_3syn8generics9LifetimesNtNtNtNtCsieiGu2EXtoJ_4core4iter6traits8iterator8Iterator5countCscG178fYrITo_14zerovec_derive, symObjAddr: 0x4F80, symBinAddr: 0x340A0, symSize: 0x20 }
  - { offset: 0x7A774, size: 0x8, addend: 0x0, symName: __RNvXNtNtNtCsieiGu2EXtoJ_4core4iter6traits7collectINtNtCsdGrGZaRBwMb_3syn10punctuated4IterNtCsaKzlTDPUHDb_11proc_macro25IdentENtB2_12IntoIterator9into_iterCscG178fYrITo_14zerovec_derive, symObjAddr: 0x1720, symBinAddr: 0x30840, symSize: 0x20 }
  - { offset: 0x7A7AB, size: 0x8, addend: 0x0, symName: __RNvXNtNtNtCsieiGu2EXtoJ_4core4iter6traits7collectINtNtCsdGrGZaRBwMb_3syn10punctuated7IterMutNtNtBQ_4data5FieldENtB2_12IntoIterator9into_iterCscG178fYrITo_14zerovec_derive, symObjAddr: 0x1740, symBinAddr: 0x30860, symSize: 0x20 }
  - { offset: 0x7A7E2, size: 0x8, addend: 0x0, symName: __RNvXNtNtNtCsieiGu2EXtoJ_4core4iter6traits7collectINtNtNtB6_8adapters6cloned6ClonedINtNtCsdGrGZaRBwMb_3syn10punctuated4IterNtCsaKzlTDPUHDb_11proc_macro25IdentEENtB2_12IntoIterator9into_iterCscG178fYrITo_14zerovec_derive, symObjAddr: 0x1760, symBinAddr: 0x30880, symSize: 0x20 }
  - { offset: 0x7A850, size: 0x8, addend: 0x0, symName: __RNvYINtNtCsdGrGZaRBwMb_3syn10punctuated11PrivateIterNtCsaKzlTDPUHDb_11proc_macro25IdentNtNtB7_5token5CommaENtNtNtNtCsieiGu2EXtoJ_4core4iter6traits10exact_size17ExactSizeIterator8is_emptyCscG178fYrITo_14zerovec_derive, symObjAddr: 0x44A0, symBinAddr: 0x335C0, symSize: 0x20 }
  - { offset: 0x7A885, size: 0x8, addend: 0x0, symName: __RNvYINtNtCsdGrGZaRBwMb_3syn10punctuated11PrivateIterNtNtB7_4data7VariantNtNtB7_5token5CommaENtNtNtNtCsieiGu2EXtoJ_4core4iter6traits10exact_size17ExactSizeIterator8is_emptyCscG178fYrITo_14zerovec_derive, symObjAddr: 0x47A0, symBinAddr: 0x338C0, symSize: 0x20 }
  - { offset: 0x7A8BA, size: 0x8, addend: 0x0, symName: __RNvYINtNtCsdGrGZaRBwMb_3syn10punctuated11PrivateIterNtNtB7_4path15GenericArgumentNtNtB7_5token5CommaENtNtNtNtCsieiGu2EXtoJ_4core4iter6traits10exact_size17ExactSizeIterator8is_emptyCscG178fYrITo_14zerovec_derive, symObjAddr: 0x4AA0, symBinAddr: 0x33BC0, symSize: 0x20 }
  - { offset: 0x7A8EF, size: 0x8, addend: 0x0, symName: __RNvYINtNtNtCslJiobkLta79_5alloc3vec9into_iter8IntoIterNtCsaKzlTDPUHDb_11proc_macro25IdentENtNtNtNtCsieiGu2EXtoJ_4core4iter6traits10exact_size17ExactSizeIterator3lenCscG178fYrITo_14zerovec_derive, symObjAddr: 0x4EA0, symBinAddr: 0x33FC0, symSize: 0xE0 }
  - { offset: 0x7A9FB, size: 0x8, addend: 0x0, symName: __RNvYINtNtCsdGrGZaRBwMb_3syn10punctuated11PrivateIterNtCsaKzlTDPUHDb_11proc_macro25IdentNtNtB7_5token5CommaENtNtNtNtCsieiGu2EXtoJ_4core4iter6traits12double_ended19DoubleEndedIterator15advance_back_byCscG178fYrITo_14zerovec_derive, symObjAddr: 0x44C0, symBinAddr: 0x335E0, symSize: 0x1A0 }
  - { offset: 0x7AB7A, size: 0x8, addend: 0x0, symName: __RNvYINtNtCsdGrGZaRBwMb_3syn10punctuated11PrivateIterNtCsaKzlTDPUHDb_11proc_macro25IdentNtNtB7_5token5CommaENtNtNtNtCsieiGu2EXtoJ_4core4iter6traits12double_ended19DoubleEndedIterator8nth_backCscG178fYrITo_14zerovec_derive, symObjAddr: 0x4660, symBinAddr: 0x33780, symSize: 0x70 }
  - { offset: 0x7ABF8, size: 0x8, addend: 0x0, symName: __RNvYINtNtCsdGrGZaRBwMb_3syn10punctuated11PrivateIterNtNtB7_4data7VariantNtNtB7_5token5CommaENtNtNtNtCsieiGu2EXtoJ_4core4iter6traits12double_ended19DoubleEndedIterator15advance_back_byCscG178fYrITo_14zerovec_derive, symObjAddr: 0x47C0, symBinAddr: 0x338E0, symSize: 0x1A0 }
  - { offset: 0x7AD77, size: 0x8, addend: 0x0, symName: __RNvYINtNtCsdGrGZaRBwMb_3syn10punctuated11PrivateIterNtNtB7_4data7VariantNtNtB7_5token5CommaENtNtNtNtCsieiGu2EXtoJ_4core4iter6traits12double_ended19DoubleEndedIterator8nth_backCscG178fYrITo_14zerovec_derive, symObjAddr: 0x4960, symBinAddr: 0x33A80, symSize: 0x70 }
  - { offset: 0x7ADF5, size: 0x8, addend: 0x0, symName: __RNvYINtNtCsdGrGZaRBwMb_3syn10punctuated11PrivateIterNtNtB7_4path15GenericArgumentNtNtB7_5token5CommaENtNtNtNtCsieiGu2EXtoJ_4core4iter6traits12double_ended19DoubleEndedIterator15advance_back_byCscG178fYrITo_14zerovec_derive, symObjAddr: 0x4AC0, symBinAddr: 0x33BE0, symSize: 0x1A0 }
  - { offset: 0x7AF74, size: 0x8, addend: 0x0, symName: __RNvYINtNtCsdGrGZaRBwMb_3syn10punctuated11PrivateIterNtNtB7_4path15GenericArgumentNtNtB7_5token5CommaENtNtNtNtCsieiGu2EXtoJ_4core4iter6traits12double_ended19DoubleEndedIterator8nth_backCscG178fYrITo_14zerovec_derive, symObjAddr: 0x4C60, symBinAddr: 0x33D80, symSize: 0x70 }
  - { offset: 0x7B063, size: 0x8, addend: 0x0, symName: __RNvXs_NtNtNtCsieiGu2EXtoJ_4core4iter8adapters6clonedINtB4_6ClonedINtNtCsdGrGZaRBwMb_3syn10punctuated4IterNtCsaKzlTDPUHDb_11proc_macro25IdentEENtNtNtB8_6traits8iterator8Iterator4nextCscG178fYrITo_14zerovec_derive, symObjAddr: 0x2510, symBinAddr: 0x31630, symSize: 0x90 }
  - { offset: 0x7B0D8, size: 0x8, addend: 0x0, symName: __RNvXs_NtNtNtCsieiGu2EXtoJ_4core4iter8adapters6clonedINtB4_6ClonedINtNtCsdGrGZaRBwMb_3syn10punctuated4IterNtCsaKzlTDPUHDb_11proc_macro25IdentEENtNtNtB8_6traits8iterator8Iterator9size_hintCscG178fYrITo_14zerovec_derive, symObjAddr: 0x25A0, symBinAddr: 0x316C0, symSize: 0x30 }
  - { offset: 0x7B3D2, size: 0x8, addend: 0x0, symName: __RNvXNtCsieiGu2EXtoJ_4core6borrowhINtB2_6BorrowhE6borrowCscG178fYrITo_14zerovec_derive, symObjAddr: 0x1710, symBinAddr: 0x30830, symSize: 0x10 }
  - { offset: 0x7BE7B, size: 0x8, addend: 0x0, symName: __RNvXNvXsd_NtNtCslJiobkLta79_5alloc3vec9into_iterINtB8_8IntoIterppENtNtNtCsieiGu2EXtoJ_4core3ops4drop4Drop4dropINtB2_9DropGuardNtCsaKzlTDPUHDb_11proc_macro25IdentNtNtBc_5alloc6GlobalEB12_4dropCscG178fYrITo_14zerovec_derive, symObjAddr: 0x1780, symBinAddr: 0x308A0, symSize: 0x70 }
  - { offset: 0x7BFB9, size: 0x8, addend: 0x0, symName: __RNvXsd_NtNtCslJiobkLta79_5alloc3vec9into_iterINtB5_8IntoIterNtCsaKzlTDPUHDb_11proc_macro25IdentENtNtNtCsieiGu2EXtoJ_4core3ops4drop4Drop4dropCscG178fYrITo_14zerovec_derive, symObjAddr: 0x2810, symBinAddr: 0x31930, symSize: 0x90 }
  - { offset: 0x7C05A, size: 0x8, addend: 0x0, symName: __RNvXs3_NtNtCslJiobkLta79_5alloc3vec9into_iterINtB5_8IntoIterNtCsaKzlTDPUHDb_11proc_macro25IdentENtNtNtNtCsieiGu2EXtoJ_4core4iter6traits8iterator8Iterator4nextCscG178fYrITo_14zerovec_derive, symObjAddr: 0x1820, symBinAddr: 0x30940, symSize: 0xF0 }
  - { offset: 0x7C1B8, size: 0x8, addend: 0x0, symName: __RNvXs3_NtNtCslJiobkLta79_5alloc3vec9into_iterINtB5_8IntoIterNtCsaKzlTDPUHDb_11proc_macro25IdentENtNtNtNtCsieiGu2EXtoJ_4core4iter6traits8iterator8Iterator9size_hintCscG178fYrITo_14zerovec_derive, symObjAddr: 0x1910, symBinAddr: 0x30A30, symSize: 0x60 }
  - { offset: 0x7CA23, size: 0x8, addend: 0x0, symName: __RNvXsF_NtCslJiobkLta79_5alloc6stringNtB5_6StringINtNtCsieiGu2EXtoJ_4core7convert4FromReE4fromCscG178fYrITo_14zerovec_derive, symObjAddr: 0x24C0, symBinAddr: 0x315E0, symSize: 0x50 }
  - { offset: 0x7CB10, size: 0x8, addend: 0x0, symName: __RNvXss_NtCslJiobkLta79_5alloc6stringNtB5_6StringNtNtNtCsieiGu2EXtoJ_4core3ops5deref5Deref5derefCscG178fYrITo_14zerovec_derive, symObjAddr: 0x3E40, symBinAddr: 0x32F60, symSize: 0x20 }
  - { offset: 0x7CBEC, size: 0x8, addend: 0x0, symName: __RNvXs6_NtCslJiobkLta79_5alloc5boxedINtB5_3BoxDNtNtCsieiGu2EXtoJ_4core5error5ErrorNtNtBM_6marker4SyncNtB1j_4SendEL_ENtNtNtBM_3ops4drop4Drop4dropCscG178fYrITo_14zerovec_derive, symObjAddr: 0x19D0, symBinAddr: 0x30AF0, symSize: 0xC0 }
  - { offset: 0x7CD29, size: 0x8, addend: 0x0, symName: __RNvXs6_NtCslJiobkLta79_5alloc5boxedINtB5_3BoxINtNtCsdGrGZaRBwMb_3syn5drops6NoDropDINtNtBM_10punctuated12IterMutTraitNtNtBM_4data5FieldEp4ItemQB1Q_EL_EENtNtNtCsieiGu2EXtoJ_4core3ops4drop4Drop4dropCscG178fYrITo_14zerovec_derive, symObjAddr: 0x1A90, symBinAddr: 0x30BB0, symSize: 0x120 }
  - { offset: 0x7CE66, size: 0x8, addend: 0x0, symName: __RNvXs6_NtCslJiobkLta79_5alloc5boxedINtB5_3BoxINtNtCsdGrGZaRBwMb_3syn5drops6NoDropDINtNtBM_10punctuated9IterTraitNtCsaKzlTDPUHDb_11proc_macro25IdentEp4ItemRB1M_EL_EENtNtNtCsieiGu2EXtoJ_4core3ops4drop4Drop4dropCscG178fYrITo_14zerovec_derive, symObjAddr: 0x1BB0, symBinAddr: 0x30CD0, symSize: 0x120 }
  - { offset: 0x7CFA3, size: 0x8, addend: 0x0, symName: __RNvXs6_NtCslJiobkLta79_5alloc5boxedINtB5_3BoxINtNtCsdGrGZaRBwMb_3syn5drops6NoDropDINtNtBM_10punctuated9IterTraitNtNtBM_4data5FieldEp4ItemRB1M_EL_EENtNtNtCsieiGu2EXtoJ_4core3ops4drop4Drop4dropCscG178fYrITo_14zerovec_derive, symObjAddr: 0x1CD0, symBinAddr: 0x30DF0, symSize: 0x120 }
  - { offset: 0x7D0E0, size: 0x8, addend: 0x0, symName: __RNvXs6_NtCslJiobkLta79_5alloc5boxedINtB5_3BoxINtNtCsdGrGZaRBwMb_3syn5drops6NoDropDINtNtBM_10punctuated9IterTraitNtNtBM_4data7VariantEp4ItemRB1M_EL_EENtNtNtCsieiGu2EXtoJ_4core3ops4drop4Drop4dropCscG178fYrITo_14zerovec_derive, symObjAddr: 0x1DF0, symBinAddr: 0x30F10, symSize: 0x120 }
  - { offset: 0x7D21D, size: 0x8, addend: 0x0, symName: __RNvXs6_NtCslJiobkLta79_5alloc5boxedINtB5_3BoxINtNtCsdGrGZaRBwMb_3syn5drops6NoDropDINtNtBM_10punctuated9IterTraitNtNtBM_4path15GenericArgumentEp4ItemRB1M_EL_EENtNtNtCsieiGu2EXtoJ_4core3ops4drop4Drop4dropCscG178fYrITo_14zerovec_derive, symObjAddr: 0x1F10, symBinAddr: 0x31030, symSize: 0x120 }
  - { offset: 0x7D35A, size: 0x8, addend: 0x0, symName: __RNvXs6_NtCslJiobkLta79_5alloc5boxedINtB5_3BoxINtNtCsdGrGZaRBwMb_3syn5drops6NoDropDINtNtBM_10punctuated9IterTraitNtNtBM_8generics12GenericParamEp4ItemRB1M_EL_EENtNtNtCsieiGu2EXtoJ_4core3ops4drop4Drop4dropCscG178fYrITo_14zerovec_derive, symObjAddr: 0x2030, symBinAddr: 0x31150, symSize: 0x120 }
  - { offset: 0x7D497, size: 0x8, addend: 0x0, symName: __RNvXs6_NtCslJiobkLta79_5alloc5boxedINtB5_3BoxNtCsaKzlTDPUHDb_11proc_macro25IdentENtNtNtCsieiGu2EXtoJ_4core3ops4drop4Drop4dropCscG178fYrITo_14zerovec_derive, symObjAddr: 0x2150, symBinAddr: 0x31270, symSize: 0xB0 }
  - { offset: 0x7D5D2, size: 0x8, addend: 0x0, symName: __RNvXs6_NtCslJiobkLta79_5alloc5boxedINtB5_3BoxNtNtNtCsHUR1vrdMJt_3std2io5error6CustomENtNtNtCsieiGu2EXtoJ_4core3ops4drop4Drop4dropCscG178fYrITo_14zerovec_derive, symObjAddr: 0x2200, symBinAddr: 0x31320, symSize: 0xB0 }
  - { offset: 0x7D713, size: 0x8, addend: 0x0, symName: __RNvXsC_NtCslJiobkLta79_5alloc5boxedINtB5_3BoxNtCsaKzlTDPUHDb_11proc_macro25IdentEINtNtCsieiGu2EXtoJ_4core7convert5AsRefBH_E6as_refCscG178fYrITo_14zerovec_derive, symObjAddr: 0x24B0, symBinAddr: 0x315D0, symSize: 0x10 }
  - { offset: 0x7E028, size: 0x8, addend: 0x0, symName: __RINvXNtNtNtNtCsHUR1vrdMJt_3std3sys12thread_local6native4lazyzNtB3_14DestroyedState13register_dtorINtNtCsieiGu2EXtoJ_4core4cell4CellTyyEEECscG178fYrITo_14zerovec_derive, symObjAddr: 0x410, symBinAddr: 0x2F530, symSize: 0x10 }
  - { offset: 0x7E133, size: 0x8, addend: 0x0, symName: __RINvMs0_NtNtNtNtCsHUR1vrdMJt_3std3sys12thread_local6native4lazyINtB6_7StorageINtNtCsieiGu2EXtoJ_4core4cell4CellTyyEEzE11get_or_initNvNvNvMNtNtBe_4hash6randomNtB2c_11RandomState3new4KEYS6___initECscG178fYrITo_14zerovec_derive, symObjAddr: 0x90, symBinAddr: 0x2F410, symSize: 0x90 }
  - { offset: 0x7E35C, size: 0x8, addend: 0x0, symName: __RINvMs0_NtNtNtNtCsHUR1vrdMJt_3std3sys12thread_local6native4lazyINtB6_7StorageINtNtCsieiGu2EXtoJ_4core4cell4CellTyyEEzE16get_or_init_slowNvNvNvMNtNtBe_4hash6randomNtB2h_11RandomState3new4KEYS6___initECscG178fYrITo_14zerovec_derive, symObjAddr: 0x120, symBinAddr: 0x1D2B20, symSize: 0x260 }
  - { offset: 0x7E6A2, size: 0x8, addend: 0x0, symName: __RINvMs9_NtCsdGrGZaRBwMb_3syn5parseNtB6_11ParseBuffer16parse_terminatedNtCsaKzlTDPUHDb_11proc_macro25IdentINvNtB8_5token5CommaNtNtB8_9lookahead11TokenMarkerEECscG178fYrITo_14zerovec_derive, symObjAddr: 0x380, symBinAddr: 0x2F4A0, symSize: 0x30 }
  - { offset: 0x7E72D, size: 0x8, addend: 0x0, symName: __RNvMNtCsdGrGZaRBwMb_3syn10punctuatedINtB2_10PunctuatedNtCsaKzlTDPUHDb_11proc_macro25IdentNtNtB4_5token5CommaE10push_punctCscG178fYrITo_14zerovec_derive, symObjAddr: 0xB20, symBinAddr: 0x2FC40, symSize: 0x210 }
  - { offset: 0x7E7AB, size: 0x8, addend: 0x0, symName: __RNvMNtCsdGrGZaRBwMb_3syn10punctuatedINtB2_10PunctuatedNtCsaKzlTDPUHDb_11proc_macro25IdentNtNtB4_5token5CommaE10push_valueCscG178fYrITo_14zerovec_derive, symObjAddr: 0xD30, symBinAddr: 0x2FE50, symSize: 0x1B0 }
  - { offset: 0x7E819, size: 0x8, addend: 0x0, symName: __RNvMNtCsdGrGZaRBwMb_3syn10punctuatedINtB2_10PunctuatedNtCsaKzlTDPUHDb_11proc_macro25IdentNtNtB4_5token5CommaE17empty_or_trailingCscG178fYrITo_14zerovec_derive, symObjAddr: 0xEE0, symBinAddr: 0x30000, symSize: 0x30 }
  - { offset: 0x7E84D, size: 0x8, addend: 0x0, symName: __RNvMNtCsdGrGZaRBwMb_3syn10punctuatedINtB2_10PunctuatedNtCsaKzlTDPUHDb_11proc_macro25IdentNtNtB4_5token5CommaE21parse_terminated_withCscG178fYrITo_14zerovec_derive, symObjAddr: 0xF10, symBinAddr: 0x30030, symSize: 0x3A0 }
  - { offset: 0x7E952, size: 0x8, addend: 0x0, symName: __RNvMNtCsdGrGZaRBwMb_3syn10punctuatedINtB2_10PunctuatedNtCsaKzlTDPUHDb_11proc_macro25IdentNtNtB4_5token5CommaE3newCscG178fYrITo_14zerovec_derive, symObjAddr: 0x12B0, symBinAddr: 0x303D0, symSize: 0x50 }
  - { offset: 0x7E9CD, size: 0x8, addend: 0x0, symName: __RNvMNtCsdGrGZaRBwMb_3syn10punctuatedINtB2_10PunctuatedNtCsaKzlTDPUHDb_11proc_macro25IdentNtNtB4_5token5CommaE4iterCscG178fYrITo_14zerovec_derive, symObjAddr: 0x1300, symBinAddr: 0x30420, symSize: 0xC0 }
  - { offset: 0x7EA67, size: 0x8, addend: 0x0, symName: __RNvMNtCsdGrGZaRBwMb_3syn10punctuatedINtB2_10PunctuatedNtNtB4_4data7VariantNtNtB4_5token5CommaE4iterCscG178fYrITo_14zerovec_derive, symObjAddr: 0x13C0, symBinAddr: 0x304E0, symSize: 0xC0 }
  - { offset: 0x7EAB9, size: 0x8, addend: 0x0, symName: __RNvMNtCsdGrGZaRBwMb_3syn10punctuatedINtB2_10PunctuatedNtNtB4_4data7VariantNtNtB4_5token5CommaE8is_emptyCscG178fYrITo_14zerovec_derive, symObjAddr: 0x1480, symBinAddr: 0x305A0, symSize: 0x50 }
  - { offset: 0x7EB35, size: 0x8, addend: 0x0, symName: __RNvMNtCsdGrGZaRBwMb_3syn10punctuatedINtB2_10PunctuatedNtNtB4_4path15GenericArgumentNtNtB4_5token5CommaE4iterCscG178fYrITo_14zerovec_derive, symObjAddr: 0x14D0, symBinAddr: 0x305F0, symSize: 0xC0 }
  - { offset: 0x7EC99, size: 0x8, addend: 0x0, symName: __RNvMNtCslJiobkLta79_5alloc6stringNtB2_6String6as_strCscG178fYrITo_14zerovec_derive, symObjAddr: 0x1590, symBinAddr: 0x306B0, symSize: 0x60 }
  - { offset: 0x7EDA2, size: 0x8, addend: 0x0, symName: __RNvMNtNtNtCsieiGu2EXtoJ_4core4iter8adapters7step_byINtB2_6StepByINtNtNtB8_3ops5range5RangejEE3newCscG178fYrITo_14zerovec_derive, symObjAddr: 0x15F0, symBinAddr: 0x30710, symSize: 0xD0 }
  - { offset: 0x7EE07, size: 0x8, addend: 0x0, symName: __RNvXNtCs9OU1sGv5X54_5quote9to_tokensRNtNtCsdGrGZaRBwMb_3syn8generics8GenericsNtB2_8ToTokens9to_tokensCscG178fYrITo_14zerovec_derive, symObjAddr: 0x16C0, symBinAddr: 0x307E0, symSize: 0x30 }
  - { offset: 0x7EE4C, size: 0x8, addend: 0x0, symName: __RNvYRNtNtCsdGrGZaRBwMb_3syn8generics8GenericsNtNtCs9OU1sGv5X54_5quote9to_tokens8ToTokens15to_token_streamCscG178fYrITo_14zerovec_derive, symObjAddr: 0x5080, symBinAddr: 0x341A0, symSize: 0x90 }
  - { offset: 0x7EE96, size: 0x8, addend: 0x0, symName: __RNvYRNtNtCsdGrGZaRBwMb_3syn8generics8GenericsNtNtCs9OU1sGv5X54_5quote9to_tokens8ToTokens17into_token_streamCscG178fYrITo_14zerovec_derive, symObjAddr: 0x5110, symBinAddr: 0x34230, symSize: 0x50 }
  - { offset: 0x7EED7, size: 0x8, addend: 0x0, symName: __RNvXs0_NtCs9OU1sGv5X54_5quote7spannedNtNtCsdGrGZaRBwMb_3syn8generics8GenericsNtB5_7Spanned6___spanCscG178fYrITo_14zerovec_derive, symObjAddr: 0x17F0, symBinAddr: 0x30910, symSize: 0x30 }
  - { offset: 0x7EF18, size: 0x8, addend: 0x0, symName: __RNvXs5_NtCs9OU1sGv5X54_5quote9___privateINtB5_9RepInterpNtCsaKzlTDPUHDb_11proc_macro211TokenStreamENtNtB7_9to_tokens8ToTokens9to_tokensCscG178fYrITo_14zerovec_derive, symObjAddr: 0x1970, symBinAddr: 0x30A90, symSize: 0x30 }
  - { offset: 0x7EF57, size: 0x8, addend: 0x0, symName: __RNvXs5_NtCs9OU1sGv5X54_5quote9___privateINtB5_9RepInterpRNtCsaKzlTDPUHDb_11proc_macro211TokenStreamENtNtB7_9to_tokens8ToTokens9to_tokensCscG178fYrITo_14zerovec_derive, symObjAddr: 0x19A0, symBinAddr: 0x30AC0, symSize: 0x30 }
  - { offset: 0x7EF9C, size: 0x8, addend: 0x0, symName: __RNvYINtNtCs9OU1sGv5X54_5quote9___private11HasIteratorKb1_EINtB5_16CheckHasIteratorKBQ_E5checkCscG178fYrITo_14zerovec_derive, symObjAddr: 0x4490, symBinAddr: 0x335B0, symSize: 0x10 }
  - { offset: 0x80020, size: 0x8, addend: 0x0, symName: __RINvMNtCsieiGu2EXtoJ_4core6optionINtB3_6OptionNtCsaKzlTDPUHDb_11proc_macro211TokenStreamE14unwrap_or_elseNCNvMNtCscG178fYrITo_14zerovec_derive11make_varuleNtB1K_13UnsizedFields3new0EB1M_, symObjAddr: 0x0, symBinAddr: 0x34280, symSize: 0x90 }
  - { offset: 0x802E0, size: 0x8, addend: 0x0, symName: __RNCINvNtNtCscKtU6MdFI5n_10proc_macro6bridge6client10run_clientNtB4_11TokenStreamINtNtCsieiGu2EXtoJ_4core6option6OptionBY_ENCNCINvMs6_B4_INtB4_6ClientNtB8_11TokenStreamB2n_E7expand1NvCscG178fYrITo_14zerovec_derive10ule_deriveE00E0B2U_, symObjAddr: 0x1830, symBinAddr: 0x35AB0, symSize: 0x420 }
  - { offset: 0x80501, size: 0x8, addend: 0x0, symName: __RNCINvNtNtCscKtU6MdFI5n_10proc_macro6bridge6client10run_clientNtB4_11TokenStreamINtNtCsieiGu2EXtoJ_4core6option6OptionBY_ENCNCINvMs6_B4_INtB4_6ClientNtB8_11TokenStreamB2n_E7expand1NvCscG178fYrITo_14zerovec_derive13varule_deriveE00E0B2U_, symObjAddr: 0x1C50, symBinAddr: 0x35ED0, symSize: 0x420 }
  - { offset: 0x80722, size: 0x8, addend: 0x0, symName: __RNCINvNtNtCscKtU6MdFI5n_10proc_macro6bridge6client10run_clientTNtB4_11TokenStreamBZ_EINtNtCsieiGu2EXtoJ_4core6option6OptionBZ_ENCNCINvMs7_B4_INtB4_6ClientTNtB8_11TokenStreamB2t_EB2t_E7expand2NvCscG178fYrITo_14zerovec_derive11make_varuleE00E0B35_, symObjAddr: 0x2070, symBinAddr: 0x362F0, symSize: 0x450 }
  - { offset: 0x80943, size: 0x8, addend: 0x0, symName: __RNCINvNtNtCscKtU6MdFI5n_10proc_macro6bridge6client10run_clientTNtB4_11TokenStreamBZ_EINtNtCsieiGu2EXtoJ_4core6option6OptionBZ_ENCNCINvMs7_B4_INtB4_6ClientTNtB8_11TokenStreamB2t_EB2t_E7expand2NvCscG178fYrITo_14zerovec_derive8make_uleE00E0B35_, symObjAddr: 0x24C0, symBinAddr: 0x36740, symSize: 0x450 }
  - { offset: 0x80B69, size: 0x8, addend: 0x0, symName: __RNCNCINvNtNtCscKtU6MdFI5n_10proc_macro6bridge6client10run_clientNtB6_11TokenStreamINtNtCsieiGu2EXtoJ_4core6option6OptionB10_ENCNCINvMs6_B6_INtB6_6ClientNtBa_11TokenStreamB2q_E7expand1NvCscG178fYrITo_14zerovec_derive10ule_deriveE00E00B2X_, symObjAddr: 0x2A30, symBinAddr: 0x36CB0, symSize: 0x20 }
  - { offset: 0x80BC5, size: 0x8, addend: 0x0, symName: __RNCNCINvNtNtCscKtU6MdFI5n_10proc_macro6bridge6client10run_clientNtB6_11TokenStreamINtNtCsieiGu2EXtoJ_4core6option6OptionB10_ENCNCINvMs6_B6_INtB6_6ClientNtBa_11TokenStreamB2q_E7expand1NvCscG178fYrITo_14zerovec_derive13varule_deriveE00E00B2X_, symObjAddr: 0x2A50, symBinAddr: 0x36CD0, symSize: 0x20 }
  - { offset: 0x80C21, size: 0x8, addend: 0x0, symName: __RNCNCINvNtNtCscKtU6MdFI5n_10proc_macro6bridge6client10run_clientTNtB6_11TokenStreamB11_EINtNtCsieiGu2EXtoJ_4core6option6OptionB11_ENCNCINvMs7_B6_INtB6_6ClientTNtBa_11TokenStreamB2x_EB2x_E7expand2NvCscG178fYrITo_14zerovec_derive11make_varuleE00E00B39_, symObjAddr: 0x2A70, symBinAddr: 0x36CF0, symSize: 0x20 }
  - { offset: 0x80C7D, size: 0x8, addend: 0x0, symName: __RNCNCINvNtNtCscKtU6MdFI5n_10proc_macro6bridge6client10run_clientTNtB6_11TokenStreamB11_EINtNtCsieiGu2EXtoJ_4core6option6OptionB11_ENCNCINvMs7_B6_INtB6_6ClientTNtBa_11TokenStreamB2x_EB2x_E7expand2NvCscG178fYrITo_14zerovec_derive8make_uleE00E00B39_, symObjAddr: 0x2A90, symBinAddr: 0x36D10, symSize: 0x20 }
  - { offset: 0x80D88, size: 0x8, addend: 0x0, symName: __RNCNCINvMs6_NtNtCscKtU6MdFI5n_10proc_macro6bridge6clientINtBa_6ClientNtBe_11TokenStreamB15_E7expand1NvCscG178fYrITo_14zerovec_derive10ule_deriveE00B1C_, symObjAddr: 0x2990, symBinAddr: 0x36C10, symSize: 0x20 }
  - { offset: 0x80DD0, size: 0x8, addend: 0x0, symName: __RNCNCINvMs6_NtNtCscKtU6MdFI5n_10proc_macro6bridge6clientINtBa_6ClientNtBe_11TokenStreamB15_E7expand1NvCscG178fYrITo_14zerovec_derive13varule_deriveE00B1C_, symObjAddr: 0x29B0, symBinAddr: 0x36C30, symSize: 0x20 }
  - { offset: 0x80E19, size: 0x8, addend: 0x0, symName: __RNCINvMs6_NtNtCscKtU6MdFI5n_10proc_macro6bridge6clientINtB8_6ClientNtBc_11TokenStreamB13_E7expand1NvCscG178fYrITo_14zerovec_derive10ule_deriveE0B1A_, symObjAddr: 0x1720, symBinAddr: 0x359A0, symSize: 0x30 }
  - { offset: 0x80E62, size: 0x8, addend: 0x0, symName: __RNCINvMs6_NtNtCscKtU6MdFI5n_10proc_macro6bridge6clientINtB8_6ClientNtBc_11TokenStreamB13_E7expand1NvCscG178fYrITo_14zerovec_derive13varule_deriveE0B1A_, symObjAddr: 0x1750, symBinAddr: 0x359D0, symSize: 0x30 }
  - { offset: 0x80EAD, size: 0x8, addend: 0x0, symName: __RINvNtNtCscKtU6MdFI5n_10proc_macro6bridge6client10run_clientNtB2_11TokenStreamINtNtCsieiGu2EXtoJ_4core6option6OptionBW_ENCNCINvMs6_B2_INtB2_6ClientNtB6_11TokenStreamB2l_E7expand1NvCscG178fYrITo_14zerovec_derive10ule_deriveE00EB2S_, symObjAddr: 0x7F0, symBinAddr: 0x34A70, symSize: 0x2E0 }
  - { offset: 0x81097, size: 0x8, addend: 0x0, symName: __RINvNtNtCscKtU6MdFI5n_10proc_macro6bridge6client10run_clientNtB2_11TokenStreamINtNtCsieiGu2EXtoJ_4core6option6OptionBW_ENCNCINvMs6_B2_INtB2_6ClientNtB6_11TokenStreamB2l_E7expand1NvCscG178fYrITo_14zerovec_derive13varule_deriveE00EB2S_, symObjAddr: 0xAD0, symBinAddr: 0x34D50, symSize: 0x2E0 }
  - { offset: 0x812B6, size: 0x8, addend: 0x0, symName: __RNCNCINvMs7_NtNtCscKtU6MdFI5n_10proc_macro6bridge6clientINtBa_6ClientTNtBe_11TokenStreamB16_EB16_E7expand2NvCscG178fYrITo_14zerovec_derive11make_varuleE00B1I_, symObjAddr: 0x29D0, symBinAddr: 0x36C50, symSize: 0x30 }
  - { offset: 0x81328, size: 0x8, addend: 0x0, symName: __RNCNCINvMs7_NtNtCscKtU6MdFI5n_10proc_macro6bridge6clientINtBa_6ClientTNtBe_11TokenStreamB16_EB16_E7expand2NvCscG178fYrITo_14zerovec_derive8make_uleE00B1I_, symObjAddr: 0x2A00, symBinAddr: 0x36C80, symSize: 0x30 }
  - { offset: 0x8139B, size: 0x8, addend: 0x0, symName: __RNCINvMs7_NtNtCscKtU6MdFI5n_10proc_macro6bridge6clientINtB8_6ClientTNtBc_11TokenStreamB14_EB14_E7expand2NvCscG178fYrITo_14zerovec_derive11make_varuleE0B1G_, symObjAddr: 0x1780, symBinAddr: 0x35A00, symSize: 0x30 }
  - { offset: 0x813E4, size: 0x8, addend: 0x0, symName: __RNCINvMs7_NtNtCscKtU6MdFI5n_10proc_macro6bridge6clientINtB8_6ClientTNtBc_11TokenStreamB14_EB14_E7expand2NvCscG178fYrITo_14zerovec_derive8make_uleE0B1G_, symObjAddr: 0x17B0, symBinAddr: 0x35A30, symSize: 0x30 }
  - { offset: 0x8142F, size: 0x8, addend: 0x0, symName: __RINvNtNtCscKtU6MdFI5n_10proc_macro6bridge6client10run_clientTNtB2_11TokenStreamBX_EINtNtCsieiGu2EXtoJ_4core6option6OptionBX_ENCNCINvMs7_B2_INtB2_6ClientTNtB6_11TokenStreamB2r_EB2r_E7expand2NvCscG178fYrITo_14zerovec_derive11make_varuleE00EB33_, symObjAddr: 0xDB0, symBinAddr: 0x35030, symSize: 0x2E0 }
  - { offset: 0x81619, size: 0x8, addend: 0x0, symName: __RINvNtNtCscKtU6MdFI5n_10proc_macro6bridge6client10run_clientTNtB2_11TokenStreamBX_EINtNtCsieiGu2EXtoJ_4core6option6OptionBX_ENCNCINvMs7_B2_INtB2_6ClientTNtB6_11TokenStreamB2r_EB2r_E7expand2NvCscG178fYrITo_14zerovec_derive8make_uleE00EB33_, symObjAddr: 0x1090, symBinAddr: 0x35310, symSize: 0x2E0 }
  - { offset: 0x81835, size: 0x8, addend: 0x0, symName: __RINvNtNtNtCscKtU6MdFI5n_10proc_macro6bridge6client5state3setINtNtCsieiGu2EXtoJ_4core6option6OptionNtB4_11TokenStreamENCNCINvB4_10run_clientB1y_BW_NCNCINvMs6_B4_INtB4_6ClientNtB8_11TokenStreamB2L_E7expand1NvCscG178fYrITo_14zerovec_derive10ule_deriveE00E00EB3i_, symObjAddr: 0x1370, symBinAddr: 0x355F0, symSize: 0xC0 }
  - { offset: 0x8190B, size: 0x8, addend: 0x0, symName: __RINvNtNtNtCscKtU6MdFI5n_10proc_macro6bridge6client5state3setINtNtCsieiGu2EXtoJ_4core6option6OptionNtB4_11TokenStreamENCNCINvB4_10run_clientB1y_BW_NCNCINvMs6_B4_INtB4_6ClientNtB8_11TokenStreamB2L_E7expand1NvCscG178fYrITo_14zerovec_derive13varule_deriveE00E00EB3i_, symObjAddr: 0x1430, symBinAddr: 0x356B0, symSize: 0xC0 }
  - { offset: 0x819E1, size: 0x8, addend: 0x0, symName: __RINvNtNtNtCscKtU6MdFI5n_10proc_macro6bridge6client5state3setINtNtCsieiGu2EXtoJ_4core6option6OptionNtB4_11TokenStreamENCNCINvB4_10run_clientTB1y_B1y_EBW_NCNCINvMs7_B4_INtB4_6ClientTNtB8_11TokenStreamB2S_EB2S_E7expand2NvCscG178fYrITo_14zerovec_derive11make_varuleE00E00EB3u_, symObjAddr: 0x14F0, symBinAddr: 0x35770, symSize: 0xD0 }
  - { offset: 0x81AB8, size: 0x8, addend: 0x0, symName: __RINvNtNtNtCscKtU6MdFI5n_10proc_macro6bridge6client5state3setINtNtCsieiGu2EXtoJ_4core6option6OptionNtB4_11TokenStreamENCNCINvB4_10run_clientTB1y_B1y_EBW_NCNCINvMs7_B4_INtB4_6ClientTNtB8_11TokenStreamB2S_EB2S_E7expand2NvCscG178fYrITo_14zerovec_derive8make_uleE00E00EB3u_, symObjAddr: 0x15C0, symBinAddr: 0x35840, symSize: 0xD0 }
  - { offset: 0x81B99, size: 0x8, addend: 0x0, symName: __RNCNkNvNtNtNtCscKtU6MdFI5n_10proc_macro6bridge6client5state12BRIDGE_STATE0s_0CscG178fYrITo_14zerovec_derive, symObjAddr: 0x2AB0, symBinAddr: 0x36D30, symSize: 0x20 }
  - { offset: 0x81BF5, size: 0x8, addend: 0x0, symName: __RNvXsf_NtNtCscKtU6MdFI5n_10proc_macro6bridge6clientNtB5_11TokenStreamINtNtB7_3rpc6EncodeuE6encodeCscG178fYrITo_14zerovec_derive, symObjAddr: 0x3FE0, symBinAddr: 0x38260, symSize: 0x40 }
  - { offset: 0x81D06, size: 0x8, addend: 0x0, symName: __RNvXsi_NtNtCscKtU6MdFI5n_10proc_macro6bridge6clientNtB5_11TokenStreamINtNtB7_3rpc9DecodeMutuE6decodeCscG178fYrITo_14zerovec_derive, symObjAddr: 0x4180, symBinAddr: 0x38400, symSize: 0x20 }
  - { offset: 0x81D4F, size: 0x8, addend: 0x0, symName: __RNvXsk_NtNtCscKtU6MdFI5n_10proc_macro6bridge6clientNtB5_4SpanINtNtB7_3rpc9DecodeMutuE6decodeCscG178fYrITo_14zerovec_derive, symObjAddr: 0x41A0, symBinAddr: 0x38420, symSize: 0x20 }
  - { offset: 0x8225C, size: 0x8, addend: 0x0, symName: __RNvXs9_NtNtCscKtU6MdFI5n_10proc_macro6bridge3rpcTNtNtB7_6client11TokenStreamBL_EINtB5_9DecodeMutuE6decodeCscG178fYrITo_14zerovec_derive, symObjAddr: 0x3B40, symBinAddr: 0x37DC0, symSize: 0x70 }
  - { offset: 0x823BD, size: 0x8, addend: 0x0, symName: __RNvXsR_NtCscKtU6MdFI5n_10proc_macro6bridgeINtNtCsieiGu2EXtoJ_4core6option6OptionNtNtB5_6client11TokenStreamEINtNtB5_3rpc6EncodeuE6encodeCscG178fYrITo_14zerovec_derive, symObjAddr: 0x3E40, symBinAddr: 0x380C0, symSize: 0xB0 }
  - { offset: 0x82463, size: 0x8, addend: 0x0, symName: __RNvXsR_NtCscKtU6MdFI5n_10proc_macro6bridgeINtNtCsieiGu2EXtoJ_4core6option6OptionReEINtNtB5_3rpc6EncodeuE6encodeCscG178fYrITo_14zerovec_derive, symObjAddr: 0x3EF0, symBinAddr: 0x38170, symSize: 0xC0 }
  - { offset: 0x82B79, size: 0x8, addend: 0x0, symName: __RNvXs12_CsaKzlTDPUHDb_11proc_macro2NtB6_5IdentNtNtCsieiGu2EXtoJ_4core5clone5Clone5cloneCscG178fYrITo_14zerovec_derive, symObjAddr: 0x3840, symBinAddr: 0x37AC0, symSize: 0x80 }
  - { offset: 0x82BAD, size: 0x8, addend: 0x0, symName: __RNvXsK_CsaKzlTDPUHDb_11proc_macro2NtB5_11TokenStreamNtNtCsieiGu2EXtoJ_4core5clone5Clone5cloneCscG178fYrITo_14zerovec_derive, symObjAddr: 0x3C90, symBinAddr: 0x37F10, symSize: 0x90 }
  - { offset: 0x85C04, size: 0x8, addend: 0x0, symName: __RNvXs5_NtCsieiGu2EXtoJ_4core6optionINtB5_6OptionNtCsaKzlTDPUHDb_11proc_macro211TokenStreamENtNtB7_7default7Default7defaultCscG178fYrITo_14zerovec_derive, symObjAddr: 0x3A50, symBinAddr: 0x37CD0, symSize: 0x20 }
  - { offset: 0x85C32, size: 0x8, addend: 0x0, symName: __RNvXs6_NtCsieiGu2EXtoJ_4core6optionINtB5_6OptionRNtCsaKzlTDPUHDb_11proc_macro25IdentENtNtNtNtB7_4iter6traits7collect12IntoIterator9into_iterCscG178fYrITo_14zerovec_derive, symObjAddr: 0x3B30, symBinAddr: 0x37DB0, symSize: 0x10 }
  - { offset: 0x85DF3, size: 0x8, addend: 0x0, symName: __RNvXsP_NtCsieiGu2EXtoJ_4core6optionINtB5_8IntoIterRNtCsaKzlTDPUHDb_11proc_macro25IdentENtNtB7_5clone5Clone5cloneCscG178fYrITo_14zerovec_derive, symObjAddr: 0x3D20, symBinAddr: 0x37FA0, symSize: 0x60 }
  - { offset: 0x85E9E, size: 0x8, addend: 0x0, symName: __RNvXsP_NtCsieiGu2EXtoJ_4core6optionINtB5_8IntoIterRNtNtCsdGrGZaRBwMb_3syn4data7VariantENtNtB7_5clone5Clone5cloneCscG178fYrITo_14zerovec_derive, symObjAddr: 0x3D80, symBinAddr: 0x38000, symSize: 0x60 }
  - { offset: 0x85F49, size: 0x8, addend: 0x0, symName: __RNvXsP_NtCsieiGu2EXtoJ_4core6optionINtB5_8IntoIterRNtNtCsdGrGZaRBwMb_3syn4path15GenericArgumentENtNtB7_5clone5Clone5cloneCscG178fYrITo_14zerovec_derive, symObjAddr: 0x3DE0, symBinAddr: 0x38060, symSize: 0x60 }
  - { offset: 0x860CE, size: 0x8, addend: 0x0, symName: __RNvXsw_NtCsieiGu2EXtoJ_4core6optionINtB5_8IntoIterRNtCsaKzlTDPUHDb_11proc_macro25IdentENtNtNtNtB7_4iter6traits8iterator8Iterator4nextCscG178fYrITo_14zerovec_derive, symObjAddr: 0x4280, symBinAddr: 0x38500, symSize: 0x20 }
  - { offset: 0x86146, size: 0x8, addend: 0x0, symName: __RNvXsw_NtCsieiGu2EXtoJ_4core6optionINtB5_8IntoIterRNtCsaKzlTDPUHDb_11proc_macro25IdentENtNtNtNtB7_4iter6traits8iterator8Iterator9size_hintCscG178fYrITo_14zerovec_derive, symObjAddr: 0x42A0, symBinAddr: 0x38520, symSize: 0x30 }
  - { offset: 0x861BE, size: 0x8, addend: 0x0, symName: __RNvXsw_NtCsieiGu2EXtoJ_4core6optionINtB5_8IntoIterRNtNtCsdGrGZaRBwMb_3syn4data7VariantENtNtNtNtB7_4iter6traits8iterator8Iterator9size_hintCscG178fYrITo_14zerovec_derive, symObjAddr: 0x42D0, symBinAddr: 0x38550, symSize: 0x30 }
  - { offset: 0x86236, size: 0x8, addend: 0x0, symName: __RNvXsw_NtCsieiGu2EXtoJ_4core6optionINtB5_8IntoIterRNtNtCsdGrGZaRBwMb_3syn4path15GenericArgumentENtNtNtNtB7_4iter6traits8iterator8Iterator9size_hintCscG178fYrITo_14zerovec_derive, symObjAddr: 0x4300, symBinAddr: 0x38580, symSize: 0x30 }
  - { offset: 0x86B68, size: 0x8, addend: 0x0, symName: __RNvXsn_NtNtCsieiGu2EXtoJ_4core5panic11unwind_safeINtB5_16AssertUnwindSafeNCINvNtNtCscKtU6MdFI5n_10proc_macro6bridge6client10run_clientNtB1e_11TokenStreamINtNtB9_6option6OptionB28_ENCNCINvMs6_B1e_INtB1e_6ClientNtB1i_11TokenStreamB3l_E7expand1NvCscG178fYrITo_14zerovec_derive10ule_deriveE00E0EINtNtNtB9_3ops8function6FnOnceuE9call_onceB3T_, symObjAddr: 0x41C0, symBinAddr: 0x38440, symSize: 0x30 }
  - { offset: 0x86BC0, size: 0x8, addend: 0x0, symName: __RNvXsn_NtNtCsieiGu2EXtoJ_4core5panic11unwind_safeINtB5_16AssertUnwindSafeNCINvNtNtCscKtU6MdFI5n_10proc_macro6bridge6client10run_clientNtB1e_11TokenStreamINtNtB9_6option6OptionB28_ENCNCINvMs6_B1e_INtB1e_6ClientNtB1i_11TokenStreamB3l_E7expand1NvCscG178fYrITo_14zerovec_derive13varule_deriveE00E0EINtNtNtB9_3ops8function6FnOnceuE9call_onceB3T_, symObjAddr: 0x41F0, symBinAddr: 0x38470, symSize: 0x30 }
  - { offset: 0x86C18, size: 0x8, addend: 0x0, symName: __RNvXsn_NtNtCsieiGu2EXtoJ_4core5panic11unwind_safeINtB5_16AssertUnwindSafeNCINvNtNtCscKtU6MdFI5n_10proc_macro6bridge6client10run_clientTNtB1e_11TokenStreamB29_EINtNtB9_6option6OptionB29_ENCNCINvMs7_B1e_INtB1e_6ClientTNtB1i_11TokenStreamB3s_EB3s_E7expand2NvCscG178fYrITo_14zerovec_derive11make_varuleE00E0EINtNtNtB9_3ops8function6FnOnceuE9call_onceB45_, symObjAddr: 0x4220, symBinAddr: 0x384A0, symSize: 0x30 }
  - { offset: 0x86C70, size: 0x8, addend: 0x0, symName: __RNvXsn_NtNtCsieiGu2EXtoJ_4core5panic11unwind_safeINtB5_16AssertUnwindSafeNCINvNtNtCscKtU6MdFI5n_10proc_macro6bridge6client10run_clientTNtB1e_11TokenStreamB29_EINtNtB9_6option6OptionB29_ENCNCINvMs7_B1e_INtB1e_6ClientTNtB1i_11TokenStreamB3s_EB3s_E7expand2NvCscG178fYrITo_14zerovec_derive8make_uleE00E0EINtNtNtB9_3ops8function6FnOnceuE9call_onceB45_, symObjAddr: 0x4250, symBinAddr: 0x384D0, symSize: 0x30 }
  - { offset: 0x86E21, size: 0x8, addend: 0x0, symName: __RNvMNtCsieiGu2EXtoJ_4core5sliceSNtCsaKzlTDPUHDb_11proc_macro211TokenStream4iterCscG178fYrITo_14zerovec_derive, symObjAddr: 0x2C70, symBinAddr: 0x36EF0, symSize: 0x20 }
  - { offset: 0x86E58, size: 0x8, addend: 0x0, symName: __RNvMNtCsieiGu2EXtoJ_4core5sliceSNtCsaKzlTDPUHDb_11proc_macro25Ident5firstCscG178fYrITo_14zerovec_derive, symObjAddr: 0x2C90, symBinAddr: 0x36F10, symSize: 0x40 }
  - { offset: 0x86EA2, size: 0x8, addend: 0x0, symName: __RNvMNtCsieiGu2EXtoJ_4core5sliceSTNtCsaKzlTDPUHDb_11proc_macro25IdentNtNtCsdGrGZaRBwMb_3syn5token5CommaE4iterCscG178fYrITo_14zerovec_derive, symObjAddr: 0x2CD0, symBinAddr: 0x36F50, symSize: 0x20 }
  - { offset: 0x86EE9, size: 0x8, addend: 0x0, symName: __RNvNvXs0_NtNtCsieiGu2EXtoJ_4core5slice5indexjINtB7_10SliceIndexSpE13get_unchecked18precondition_checkCscG178fYrITo_14zerovec_derive, symObjAddr: 0x33C0, symBinAddr: 0x37640, symSize: 0xA0 }
  - { offset: 0x86F52, size: 0x8, addend: 0x0, symName: __RNvXs0_NtNtCsieiGu2EXtoJ_4core5slice5indexjINtB5_10SliceIndexSINtNtB9_6option6OptionNtCsaKzlTDPUHDb_11proc_macro25IdentEE5indexCscG178fYrITo_14zerovec_derive, symObjAddr: 0x3700, symBinAddr: 0x37980, symSize: 0x50 }
  - { offset: 0x86F98, size: 0x8, addend: 0x0, symName: __RNvXs0_NtNtCsieiGu2EXtoJ_4core5slice5indexjINtB5_10SliceIndexSNtCsaKzlTDPUHDb_11proc_macro25IdentE5indexCscG178fYrITo_14zerovec_derive, symObjAddr: 0x3750, symBinAddr: 0x379D0, symSize: 0x50 }
  - { offset: 0x86FDE, size: 0x8, addend: 0x0, symName: __RNvXs0_NtNtCsieiGu2EXtoJ_4core5slice5indexjINtB5_10SliceIndexSNtNtCscG178fYrITo_14zerovec_derive11make_varule12UnsizedFieldE5indexB12_, symObjAddr: 0x37A0, symBinAddr: 0x37A20, symSize: 0x50 }
  - { offset: 0x87024, size: 0x8, addend: 0x0, symName: __RNvXs0_NtNtCsieiGu2EXtoJ_4core5slice5indexjINtB5_10SliceIndexSNtNtCsdGrGZaRBwMb_3syn4attr9AttributeE5indexCscG178fYrITo_14zerovec_derive, symObjAddr: 0x37F0, symBinAddr: 0x37A70, symSize: 0x50 }
  - { offset: 0x87A84, size: 0x8, addend: 0x0, symName: __RNCINvNvNtNtNtNtCsieiGu2EXtoJ_4core4iter6traits8iterator8Iterator8for_each4callNtCsaKzlTDPUHDb_11proc_macro211TokenStreamNCINvMsi_NtCslJiobkLta79_5alloc3vecINtB24_3VecB1f_E14extend_trustedINtNtNtBc_8adapters3map3MapINtNtNtBe_5slice4iter4IterNtNtCscG178fYrITo_14zerovec_derive5utils9FieldInfoENCNvNtB3V_11make_varule21make_zf_and_from_impl0EE0E0B3V_, symObjAddr: 0x2910, symBinAddr: 0x36B90, symSize: 0x40 }
  - { offset: 0x87ADD, size: 0x8, addend: 0x0, symName: __RNCINvNvNtNtNtNtCsieiGu2EXtoJ_4core4iter6traits8iterator8Iterator8for_each4callNtCsaKzlTDPUHDb_11proc_macro211TokenStreamNCINvMsi_NtCslJiobkLta79_5alloc3vecINtB24_3VecB1f_E14extend_trustedINtNtNtBc_8adapters3map3MapINtNtNtBe_5slice4iter4IterNtNtCscG178fYrITo_14zerovec_derive5utils9FieldInfoENCNvNtB3V_3ule15make_ule_fields0EE0E0B3V_, symObjAddr: 0x2950, symBinAddr: 0x36BD0, symSize: 0x40 }
  - { offset: 0x87B47, size: 0x8, addend: 0x0, symName: __RNCNvXs_NvNtNtNtNtCsieiGu2EXtoJ_4core4iter6traits8iterator8Iterator10advance_byINtNtCsdGrGZaRBwMb_3syn10punctuated11PrivateIterNtCsaKzlTDPUHDb_11proc_macro25IdentNtNtB1k_5token5CommaENtB6_13SpecAdvanceBy15spec_advance_by0CscG178fYrITo_14zerovec_derive, symObjAddr: 0x2AD0, symBinAddr: 0x36D50, symSize: 0x20 }
  - { offset: 0x87B94, size: 0x8, addend: 0x0, symName: __RNCNvXs_NvNtNtNtNtCsieiGu2EXtoJ_4core4iter6traits8iterator8Iterator10advance_byINtNtCsdGrGZaRBwMb_3syn10punctuated11PrivateIterNtNtB1k_4data7VariantNtNtB1k_5token5CommaENtB6_13SpecAdvanceBy15spec_advance_by0CscG178fYrITo_14zerovec_derive, symObjAddr: 0x2AF0, symBinAddr: 0x36D70, symSize: 0x20 }
  - { offset: 0x87BE1, size: 0x8, addend: 0x0, symName: __RNCNvXs_NvNtNtNtNtCsieiGu2EXtoJ_4core4iter6traits8iterator8Iterator10advance_byINtNtCsdGrGZaRBwMb_3syn10punctuated11PrivateIterNtNtB1k_4path15GenericArgumentNtNtB1k_5token5CommaENtB6_13SpecAdvanceBy15spec_advance_by0CscG178fYrITo_14zerovec_derive, symObjAddr: 0x2B10, symBinAddr: 0x36D90, symSize: 0x20 }
  - { offset: 0x87C2E, size: 0x8, addend: 0x0, symName: __RNCNvXs_NvNtNtNtNtCsieiGu2EXtoJ_4core4iter6traits8iterator8Iterator10advance_byINtNtCsdGrGZaRBwMb_3syn10punctuated4IterNtNtB1k_4path11PathSegmentENtB6_13SpecAdvanceBy15spec_advance_by0CscG178fYrITo_14zerovec_derive, symObjAddr: 0x2B30, symBinAddr: 0x36DB0, symSize: 0x20 }
  - { offset: 0x87C9F, size: 0x8, addend: 0x0, symName: __RNCNvYNtNtCsdGrGZaRBwMb_3syn8generics9LifetimesNtNtNtNtCsieiGu2EXtoJ_4core4iter6traits8iterator8Iterator5count0CscG178fYrITo_14zerovec_derive, symObjAddr: 0x2B50, symBinAddr: 0x36DD0, symSize: 0x60 }
  - { offset: 0x87CFC, size: 0x8, addend: 0x0, symName: __RNvXNtNtNtCsieiGu2EXtoJ_4core4iter6traits7collectINtNtNtB8_3ops5range5RangehENtB2_12IntoIterator9into_iterCscG178fYrITo_14zerovec_derive, symObjAddr: 0x35C0, symBinAddr: 0x37840, symSize: 0x20 }
  - { offset: 0x87D3F, size: 0x8, addend: 0x0, symName: __RNvYINtNtCsieiGu2EXtoJ_4core6option8IntoIterRNtCsaKzlTDPUHDb_11proc_macro25IdentENtNtNtNtB7_4iter6traits10exact_size17ExactSizeIterator3lenCscG178fYrITo_14zerovec_derive, symObjAddr: 0x4330, symBinAddr: 0x385B0, symSize: 0xE0 }
  - { offset: 0x87E3F, size: 0x8, addend: 0x0, symName: __RNvYINtNtCsieiGu2EXtoJ_4core6option8IntoIterRNtNtCsdGrGZaRBwMb_3syn4data7VariantENtNtNtNtB7_4iter6traits10exact_size17ExactSizeIterator3lenCscG178fYrITo_14zerovec_derive, symObjAddr: 0x4410, symBinAddr: 0x38690, symSize: 0xE0 }
  - { offset: 0x87F3F, size: 0x8, addend: 0x0, symName: __RNvYINtNtCsieiGu2EXtoJ_4core6option8IntoIterRNtNtCsdGrGZaRBwMb_3syn4path15GenericArgumentENtNtNtNtB7_4iter6traits10exact_size17ExactSizeIterator3lenCscG178fYrITo_14zerovec_derive, symObjAddr: 0x44F0, symBinAddr: 0x38770, symSize: 0xE0 }
  - { offset: 0x8804C, size: 0x8, addend: 0x0, symName: __RNvXs3_NtNtCsieiGu2EXtoJ_4core4iter5rangeINtNtNtB9_3ops5range5RangehENtB5_17RangeIteratorImpl9spec_nextCscG178fYrITo_14zerovec_derive, symObjAddr: 0x39C0, symBinAddr: 0x37C40, symSize: 0x70 }
  - { offset: 0x880CD, size: 0x8, addend: 0x0, symName: __RNvXs4_NtNtCsieiGu2EXtoJ_4core4iter5rangeINtNtNtB9_3ops5range5RangehENtNtNtB7_6traits8iterator8Iterator4nextCscG178fYrITo_14zerovec_derive, symObjAddr: 0x3A30, symBinAddr: 0x37CB0, symSize: 0x20 }
  - { offset: 0x8817B, size: 0x8, addend: 0x0, symName: __RNvXsh_NtNtNtCsieiGu2EXtoJ_4core4iter8adapters7step_byINtNtNtBb_3ops5range5RangejEINtB5_14SpecRangeSetupBQ_E5setupCscG178fYrITo_14zerovec_derive, symObjAddr: 0x4020, symBinAddr: 0x382A0, symSize: 0x160 }
  - { offset: 0x88486, size: 0x8, addend: 0x0, symName: __RNvXs1b_NtCsieiGu2EXtoJ_4core3fmtRNtCsaKzlTDPUHDb_11proc_macro211TokenStreamNtB6_7Display3fmtCscG178fYrITo_14zerovec_derive, symObjAddr: 0x38C0, symBinAddr: 0x37B40, symSize: 0x20 }
  - { offset: 0x884DD, size: 0x8, addend: 0x0, symName: __RNvXs23_NtNtCsieiGu2EXtoJ_4core7convert3numhINtB8_7TryFromyE8try_fromCscG178fYrITo_14zerovec_derive, symObjAddr: 0x38E0, symBinAddr: 0x37B60, symSize: 0x40 }
  - { offset: 0x89735, size: 0x8, addend: 0x0, symName: __RINvMNtCsieiGu2EXtoJ_4core6optionINtB3_6OptionNtCsaKzlTDPUHDb_11proc_macro211TokenStreamE14unwrap_or_elseNCNvMNtCscG178fYrITo_14zerovec_derive11make_varuleNtB1K_13UnsizedFields3new0EB1M_, symObjAddr: 0x0, symBinAddr: 0x34280, symSize: 0x90 }
  - { offset: 0x897D7, size: 0x8, addend: 0x0, symName: __RINvMNtCsieiGu2EXtoJ_4core6optionINtB3_6OptionRINtNtCslJiobkLta79_5alloc5boxed3BoxNtCsaKzlTDPUHDb_11proc_macro25IdentEE3mapRB1i_NvYBJ_INtNtB5_7convert5AsRefB1i_E6as_refECscG178fYrITo_14zerovec_derive, symObjAddr: 0x90, symBinAddr: 0x34310, symSize: 0x50 }
  - { offset: 0x8C9CD, size: 0x8, addend: 0x0, symName: __RNCINvMs3_NtCsdGrGZaRBwMb_3syn3litNtB8_6LitInt12base10_parseyE0CscG178fYrITo_14zerovec_derive, symObjAddr: 0x1690, symBinAddr: 0x35910, symSize: 0x90 }
  - { offset: 0x8E7C2, size: 0x8, addend: 0x0, symName: __RNvXs0_NtCsdGrGZaRBwMb_3syn5dropsINtB5_6NoDropDINtNtB7_10punctuated12IterMutTraitNtNtB7_4data5FieldEp4ItemQB1h_EL_ENtNtNtCsieiGu2EXtoJ_4core3ops5deref8DerefMut9deref_mutCscG178fYrITo_14zerovec_derive, symObjAddr: 0x3640, symBinAddr: 0x378C0, symSize: 0x30 }
  - { offset: 0x8E7F7, size: 0x8, addend: 0x0, symName: __RNvXs0_NtCsdGrGZaRBwMb_3syn5dropsINtB5_6NoDropDINtNtB7_10punctuated9IterTraitNtCsaKzlTDPUHDb_11proc_macro25IdentEp4ItemRB1d_EL_ENtNtNtCsieiGu2EXtoJ_4core3ops5deref8DerefMut9deref_mutCscG178fYrITo_14zerovec_derive, symObjAddr: 0x3670, symBinAddr: 0x378F0, symSize: 0x30 }
  - { offset: 0x8E82C, size: 0x8, addend: 0x0, symName: __RNvXs0_NtCsdGrGZaRBwMb_3syn5dropsINtB5_6NoDropDINtNtB7_10punctuated9IterTraitNtNtB7_4data7VariantEp4ItemRB1d_EL_ENtNtNtCsieiGu2EXtoJ_4core3ops5deref8DerefMut9deref_mutCscG178fYrITo_14zerovec_derive, symObjAddr: 0x36A0, symBinAddr: 0x37920, symSize: 0x30 }
  - { offset: 0x8E861, size: 0x8, addend: 0x0, symName: __RNvXs0_NtCsdGrGZaRBwMb_3syn5dropsINtB5_6NoDropDINtNtB7_10punctuated9IterTraitNtNtB7_4path15GenericArgumentEp4ItemRB1d_EL_ENtNtNtCsieiGu2EXtoJ_4core3ops5deref8DerefMut9deref_mutCscG178fYrITo_14zerovec_derive, symObjAddr: 0x36D0, symBinAddr: 0x37950, symSize: 0x30 }
  - { offset: 0x8E89C, size: 0x8, addend: 0x0, symName: __RNvXs_NtCsdGrGZaRBwMb_3syn5dropsINtB4_6NoDropDINtNtB6_10punctuated9IterTraitNtCsaKzlTDPUHDb_11proc_macro25IdentEp4ItemRB1c_EL_ENtNtNtCsieiGu2EXtoJ_4core3ops5deref5Deref5derefCscG178fYrITo_14zerovec_derive, symObjAddr: 0x3FB0, symBinAddr: 0x38230, symSize: 0x30 }
  - { offset: 0x8E991, size: 0x8, addend: 0x0, symName: __RNvXNtCsdGrGZaRBwMb_3syn11parse_quoteNtNtB4_6derive11DeriveInputNtB2_10ParseQuote5parseCscG178fYrITo_14zerovec_derive, symObjAddr: 0x3550, symBinAddr: 0x377D0, symSize: 0x30 }
  - { offset: 0x8E9D2, size: 0x8, addend: 0x0, symName: __RNvXNtCsdGrGZaRBwMb_3syn7spannedNtCsaKzlTDPUHDb_11proc_macro211TokenStreamNtB2_7Spanned4spanCscG178fYrITo_14zerovec_derive, symObjAddr: 0x3580, symBinAddr: 0x37800, symSize: 0x20 }
  - { offset: 0x8EA07, size: 0x8, addend: 0x0, symName: __RNvXNtCsdGrGZaRBwMb_3syn7spannedNtNtB4_6derive11DeriveInputNtB2_7Spanned4spanCscG178fYrITo_14zerovec_derive, symObjAddr: 0x35A0, symBinAddr: 0x37820, symSize: 0x20 }
  - { offset: 0x8ED5C, size: 0x8, addend: 0x0, symName: __RINvMNtCsieiGu2EXtoJ_4core6optionINtB3_6OptionRNtCsaKzlTDPUHDb_11proc_macro25IdentE7or_elseNCNvXsw_NtCsdGrGZaRBwMb_3syn10punctuatedINtB1z_11PrivateIterBJ_NtNtB1B_5token5CommaENtNtNtNtB5_4iter6traits8iterator8Iterator4nexts_0ECscG178fYrITo_14zerovec_derive, symObjAddr: 0xE0, symBinAddr: 0x34360, symSize: 0x90 }
  - { offset: 0x8EE17, size: 0x8, addend: 0x0, symName: __RINvMNtCsieiGu2EXtoJ_4core6optionINtB3_6OptionRNtCsaKzlTDPUHDb_11proc_macro25IdentE7or_elseNCNvXsx_NtCsdGrGZaRBwMb_3syn10punctuatedINtB1z_11PrivateIterBJ_NtNtB1B_5token5CommaENtNtNtNtB5_4iter6traits12double_ended19DoubleEndedIterator9next_back0ECscG178fYrITo_14zerovec_derive, symObjAddr: 0x170, symBinAddr: 0x343F0, symSize: 0x90 }
  - { offset: 0x8F348, size: 0x8, addend: 0x0, symName: __RINvMNtCsieiGu2EXtoJ_4core6optionINtB3_6OptionRNtNtCsdGrGZaRBwMb_3syn4data7VariantE7or_elseNCNvXsw_NtBN_10punctuatedINtB1z_11PrivateIterBJ_NtNtBN_5token5CommaENtNtNtNtB5_4iter6traits8iterator8Iterator4nexts_0ECscG178fYrITo_14zerovec_derive, symObjAddr: 0x200, symBinAddr: 0x34480, symSize: 0x90 }
  - { offset: 0x8F3D1, size: 0x8, addend: 0x0, symName: __RINvMNtCsieiGu2EXtoJ_4core6optionINtB3_6OptionRNtNtCsdGrGZaRBwMb_3syn4data7VariantE7or_elseNCNvXsx_NtBN_10punctuatedINtB1z_11PrivateIterBJ_NtNtBN_5token5CommaENtNtNtNtB5_4iter6traits12double_ended19DoubleEndedIterator9next_back0ECscG178fYrITo_14zerovec_derive, symObjAddr: 0x290, symBinAddr: 0x34510, symSize: 0x90 }
  - { offset: 0x8F44D, size: 0x8, addend: 0x0, symName: __RINvMNtCsieiGu2EXtoJ_4core6optionINtB3_6OptionRNtNtCsdGrGZaRBwMb_3syn4path15GenericArgumentE7or_elseNCNvXsw_NtBN_10punctuatedINtB1I_11PrivateIterBJ_NtNtBN_5token5CommaENtNtNtNtB5_4iter6traits8iterator8Iterator4nexts_0ECscG178fYrITo_14zerovec_derive, symObjAddr: 0x320, symBinAddr: 0x345A0, symSize: 0x90 }
  - { offset: 0x8F4D6, size: 0x8, addend: 0x0, symName: __RINvMNtCsieiGu2EXtoJ_4core6optionINtB3_6OptionRNtNtCsdGrGZaRBwMb_3syn4path15GenericArgumentE7or_elseNCNvXsx_NtBN_10punctuatedINtB1I_11PrivateIterBJ_NtNtBN_5token5CommaENtNtNtNtB5_4iter6traits12double_ended19DoubleEndedIterator9next_back0ECscG178fYrITo_14zerovec_derive, symObjAddr: 0x3B0, symBinAddr: 0x34630, symSize: 0x90 }
  - { offset: 0x8F552, size: 0x8, addend: 0x0, symName: __RINvMNtCsieiGu2EXtoJ_4core6optionINtB3_6OptionRNtNtCsdGrGZaRBwMb_3syn8generics13LifetimeParamE3mapRNtNtBN_8lifetime8LifetimeNCNvNtCscG178fYrITo_14zerovec_derive11make_varule16make_varule_impl0EB24_, symObjAddr: 0x440, symBinAddr: 0x346C0, symSize: 0x50 }
  - { offset: 0x8F5CA, size: 0x8, addend: 0x0, symName: __RINvMNtCsieiGu2EXtoJ_4core6optionINtB3_6OptionRRNtNtCsdGrGZaRBwMb_3syn8lifetime8LifetimeE3mapNtCsaKzlTDPUHDb_11proc_macro211TokenStreamNCNvNtCscG178fYrITo_14zerovec_derive11make_varule16make_varule_impls_0EB2f_, symObjAddr: 0x490, symBinAddr: 0x34710, symSize: 0x80 }
  - { offset: 0x8F635, size: 0x8, addend: 0x0, symName: __RINvMNtCsieiGu2EXtoJ_4core6optionINtB3_6OptionRTNtCsaKzlTDPUHDb_11proc_macro25IdentNtNtCsdGrGZaRBwMb_3syn5token5CommaEE3mapRBK_NCNCNvXsx_NtB1n_10punctuatedINtB2b_11PrivateIterBK_B1j_ENtNtNtNtB5_4iter6traits12double_ended19DoubleEndedIterator9next_back00ECscG178fYrITo_14zerovec_derive, symObjAddr: 0x510, symBinAddr: 0x34790, symSize: 0x50 }
  - { offset: 0x8F6A0, size: 0x8, addend: 0x0, symName: __RINvMNtCsieiGu2EXtoJ_4core6optionINtB3_6OptionRTNtCsaKzlTDPUHDb_11proc_macro25IdentNtNtCsdGrGZaRBwMb_3syn5token5CommaEE3mapRBK_NCNvXsw_NtB1n_10punctuatedINtB29_11PrivateIterBK_B1j_ENtNtNtNtB5_4iter6traits8iterator8Iterator4next0ECscG178fYrITo_14zerovec_derive, symObjAddr: 0x560, symBinAddr: 0x347E0, symSize: 0x50 }
  - { offset: 0x8F70B, size: 0x8, addend: 0x0, symName: __RINvMNtCsieiGu2EXtoJ_4core6optionINtB3_6OptionRTNtNtCsdGrGZaRBwMb_3syn4data7VariantNtNtBO_5token5CommaEE3mapRBK_NCNCNvXsx_NtBO_10punctuatedINtB1W_11PrivateIterBK_B1j_ENtNtNtNtB5_4iter6traits12double_ended19DoubleEndedIterator9next_back00ECscG178fYrITo_14zerovec_derive, symObjAddr: 0x5B0, symBinAddr: 0x34830, symSize: 0x50 }
  - { offset: 0x8F776, size: 0x8, addend: 0x0, symName: __RINvMNtCsieiGu2EXtoJ_4core6optionINtB3_6OptionRTNtNtCsdGrGZaRBwMb_3syn4data7VariantNtNtBO_5token5CommaEE3mapRBK_NCNvXsw_NtBO_10punctuatedINtB1U_11PrivateIterBK_B1j_ENtNtNtNtB5_4iter6traits8iterator8Iterator4next0ECscG178fYrITo_14zerovec_derive, symObjAddr: 0x600, symBinAddr: 0x34880, symSize: 0x50 }
  - { offset: 0x8F7E1, size: 0x8, addend: 0x0, symName: __RINvMNtCsieiGu2EXtoJ_4core6optionINtB3_6OptionRTNtNtCsdGrGZaRBwMb_3syn4path15GenericArgumentNtNtBO_5token5CommaEE3mapRBK_NCNCNvXsx_NtBO_10punctuatedINtB25_11PrivateIterBK_B1s_ENtNtNtNtB5_4iter6traits12double_ended19DoubleEndedIterator9next_back00ECscG178fYrITo_14zerovec_derive, symObjAddr: 0x650, symBinAddr: 0x348D0, symSize: 0x50 }
  - { offset: 0x8F84C, size: 0x8, addend: 0x0, symName: __RINvMNtCsieiGu2EXtoJ_4core6optionINtB3_6OptionRTNtNtCsdGrGZaRBwMb_3syn4path15GenericArgumentNtNtBO_5token5CommaEE3mapRBK_NCNvXsw_NtBO_10punctuatedINtB23_11PrivateIterBK_B1s_ENtNtNtNtB5_4iter6traits8iterator8Iterator4next0ECscG178fYrITo_14zerovec_derive, symObjAddr: 0x6A0, symBinAddr: 0x34920, symSize: 0x50 }
  - { offset: 0x8FB17, size: 0x8, addend: 0x0, symName: __RNCINvNtCsjK30CmJ87bX_9hashbrown3map11make_hasherhuNtNtNtCsHUR1vrdMJt_3std4hash6random11RandomStateE0CscG178fYrITo_14zerovec_derive, symObjAddr: 0x17E0, symBinAddr: 0x35A60, symSize: 0x30 }
  - { offset: 0x8FB99, size: 0x8, addend: 0x0, symName: __RNCINvNtCsjK30CmJ87bX_9hashbrown3map14equivalent_keyhhuE0CscG178fYrITo_14zerovec_derive, symObjAddr: 0x1810, symBinAddr: 0x35A90, symSize: 0x20 }
  - { offset: 0x8FC62, size: 0x8, addend: 0x0, symName: __RNvXs5_NtCsjK30CmJ87bX_9hashbrown3mapINtB5_7HashMaphuNtNtNtCsHUR1vrdMJt_3std4hash6random11RandomStateENtNtCsieiGu2EXtoJ_4core7default7Default7defaultCscG178fYrITo_14zerovec_derive, symObjAddr: 0x3A70, symBinAddr: 0x37CF0, symSize: 0xC0 }
  - { offset: 0x8FCE6, size: 0x8, addend: 0x0, symName: __RNvXsG_NtCsjK30CmJ87bX_9hashbrown3mapINtB5_4IterhuENtNtNtNtCsieiGu2EXtoJ_4core4iter6traits8iterator8Iterator4nextCscG178fYrITo_14zerovec_derive, symObjAddr: 0x3BB0, symBinAddr: 0x37E30, symSize: 0xE0 }
  - { offset: 0x904A7, size: 0x8, addend: 0x0, symName: __RINvMs1_NtCsjK30CmJ87bX_9hashbrown3mapINtB6_7HashMaphuNtNtNtCsHUR1vrdMJt_3std4hash6random11RandomStateE12remove_entryhECscG178fYrITo_14zerovec_derive, symObjAddr: 0x6F0, symBinAddr: 0x34970, symSize: 0x40 }
  - { offset: 0x9054A, size: 0x8, addend: 0x0, symName: __RINvMs1_NtCsjK30CmJ87bX_9hashbrown3mapINtB6_7HashMaphuNtNtNtCsHUR1vrdMJt_3std4hash6random11RandomStateE6removehECscG178fYrITo_14zerovec_derive, symObjAddr: 0x730, symBinAddr: 0x349B0, symSize: 0x60 }
  - { offset: 0x905D4, size: 0x8, addend: 0x0, symName: __RINvMs3_NtCsdGrGZaRBwMb_3syn3litNtB6_6LitInt12base10_parseyECscG178fYrITo_14zerovec_derive, symObjAddr: 0x790, symBinAddr: 0x34A10, symSize: 0x60 }
  - { offset: 0x90DB7, size: 0x8, addend: 0x0, symName: __RNvMNtCsdGrGZaRBwMb_3syn5dropsINtB2_6NoDropINtNtB4_10punctuated11PrivateIterNtCsaKzlTDPUHDb_11proc_macro25IdentNtNtB4_5token5CommaEE3newCscG178fYrITo_14zerovec_derive, symObjAddr: 0x2BB0, symBinAddr: 0x36E30, symSize: 0x40 }
  - { offset: 0x90E1A, size: 0x8, addend: 0x0, symName: __RNvMNtCsdGrGZaRBwMb_3syn5dropsINtB2_6NoDropINtNtB4_10punctuated11PrivateIterNtNtB4_4data7VariantNtNtB4_5token5CommaEE3newCscG178fYrITo_14zerovec_derive, symObjAddr: 0x2BF0, symBinAddr: 0x36E70, symSize: 0x40 }
  - { offset: 0x90E7D, size: 0x8, addend: 0x0, symName: __RNvMNtCsdGrGZaRBwMb_3syn5dropsINtB2_6NoDropINtNtB4_10punctuated11PrivateIterNtNtB4_4path15GenericArgumentNtNtB4_5token5CommaEE3newCscG178fYrITo_14zerovec_derive, symObjAddr: 0x2C30, symBinAddr: 0x36EB0, symSize: 0x40 }
  - { offset: 0x90ED2, size: 0x8, addend: 0x0, symName: __RNvMNtCsieiGu2EXtoJ_4core6optionINtB2_6OptionINtNtCslJiobkLta79_5alloc5boxed3BoxNtCsaKzlTDPUHDb_11proc_macro25IdentEE4takeCscG178fYrITo_14zerovec_derive, symObjAddr: 0x2CF0, symBinAddr: 0x36F70, symSize: 0x20 }
  - { offset: 0x90F29, size: 0x8, addend: 0x0, symName: __RNvMNtCsieiGu2EXtoJ_4core6optionINtB2_6OptionINtNtCslJiobkLta79_5alloc5boxed3BoxNtCsaKzlTDPUHDb_11proc_macro25IdentEE6as_refCscG178fYrITo_14zerovec_derive, symObjAddr: 0x2D10, symBinAddr: 0x36F90, symSize: 0x50 }
  - { offset: 0x90F8F, size: 0x8, addend: 0x0, symName: __RNvMNtCsieiGu2EXtoJ_4core6optionINtB2_6OptionINtNtCslJiobkLta79_5alloc5boxed3BoxNtCsaKzlTDPUHDb_11proc_macro25IdentEE7is_noneCscG178fYrITo_14zerovec_derive, symObjAddr: 0x2D60, symBinAddr: 0x36FE0, symSize: 0x30 }
  - { offset: 0x90FD9, size: 0x8, addend: 0x0, symName: __RNvMNtCsieiGu2EXtoJ_4core6optionINtB2_6OptionINtNtCslJiobkLta79_5alloc5boxed3BoxNtCsaKzlTDPUHDb_11proc_macro25IdentEE7is_someCscG178fYrITo_14zerovec_derive, symObjAddr: 0x2D90, symBinAddr: 0x37010, symSize: 0x30 }
  - { offset: 0x91012, size: 0x8, addend: 0x0, symName: __RNvMNtCsieiGu2EXtoJ_4core6optionINtB2_6OptionNtCsaKzlTDPUHDb_11proc_macro211TokenStreamE7is_someCscG178fYrITo_14zerovec_derive, symObjAddr: 0x2DC0, symBinAddr: 0x37040, symSize: 0x30 }
  - { offset: 0x91067, size: 0x8, addend: 0x0, symName: __RNvMNtCsieiGu2EXtoJ_4core6optionINtB2_6OptionNtCsaKzlTDPUHDb_11proc_macro25IdentE7is_noneCscG178fYrITo_14zerovec_derive, symObjAddr: 0x2DF0, symBinAddr: 0x37070, symSize: 0x30 }
  - { offset: 0x910B1, size: 0x8, addend: 0x0, symName: __RNvMNtCsieiGu2EXtoJ_4core6optionINtB2_6OptionNtCsaKzlTDPUHDb_11proc_macro25IdentE7is_someCscG178fYrITo_14zerovec_derive, symObjAddr: 0x2E20, symBinAddr: 0x370A0, symSize: 0x30 }
  - { offset: 0x91113, size: 0x8, addend: 0x0, symName: __RNvMNtCsieiGu2EXtoJ_4core6optionINtB2_6OptionRNtNtCsdGrGZaRBwMb_3syn2ty4TypeE7is_noneCscG178fYrITo_14zerovec_derive, symObjAddr: 0x2E50, symBinAddr: 0x370D0, symSize: 0x30 }
  - { offset: 0x9116A, size: 0x8, addend: 0x0, symName: __RNvMNtCsieiGu2EXtoJ_4core6optionINtB2_6OptionRNtNtCsdGrGZaRBwMb_3syn4data5FieldE6expectCscG178fYrITo_14zerovec_derive, symObjAddr: 0x2E80, symBinAddr: 0x37100, symSize: 0x60 }
  - { offset: 0x911CE, size: 0x8, addend: 0x0, symName: __RNvMNtCsieiGu2EXtoJ_4core6optionINtB2_6OptionRNtNtCsdGrGZaRBwMb_3syn4data5FieldE7is_noneCscG178fYrITo_14zerovec_derive, symObjAddr: 0x2EE0, symBinAddr: 0x37160, symSize: 0x30 }
  - { offset: 0x91232, size: 0x8, addend: 0x0, symName: __RNvMNtCsieiGu2EXtoJ_4core6optionINtB2_6OptionRNtNtCsdGrGZaRBwMb_3syn8generics10ConstParamE7is_someCscG178fYrITo_14zerovec_derive, symObjAddr: 0x2F10, symBinAddr: 0x37190, symSize: 0x30 }
  - { offset: 0x9126B, size: 0x8, addend: 0x0, symName: __RNvMNtCsieiGu2EXtoJ_4core6optionINtB2_6OptionRNtNtCsdGrGZaRBwMb_3syn8generics13LifetimeParamE7is_someCscG178fYrITo_14zerovec_derive, symObjAddr: 0x2F40, symBinAddr: 0x371C0, symSize: 0x30 }
  - { offset: 0x912B1, size: 0x8, addend: 0x0, symName: __RNvMNtCsieiGu2EXtoJ_4core6optionINtB2_6OptionRNtNtCsdGrGZaRBwMb_3syn8generics9TypeParamE7is_someCscG178fYrITo_14zerovec_derive, symObjAddr: 0x2F70, symBinAddr: 0x371F0, symSize: 0x30 }
  - { offset: 0x912EA, size: 0x8, addend: 0x0, symName: __RNvMNtCsieiGu2EXtoJ_4core6optionINtB2_6OptionRNtNtCsdGrGZaRBwMb_3syn8lifetime8LifetimeE6as_refCscG178fYrITo_14zerovec_derive, symObjAddr: 0x2FA0, symBinAddr: 0x37220, symSize: 0x50 }
  - { offset: 0x91350, size: 0x8, addend: 0x0, symName: __RNvMNtCsieiGu2EXtoJ_4core6optionINtB2_6OptionRNtNtCsdGrGZaRBwMb_3syn8lifetime8LifetimeE7is_noneCscG178fYrITo_14zerovec_derive, symObjAddr: 0x2FF0, symBinAddr: 0x37270, symSize: 0x30 }
  - { offset: 0x9139A, size: 0x8, addend: 0x0, symName: __RNvMNtCsieiGu2EXtoJ_4core6optionINtB2_6OptionRNtNtCsdGrGZaRBwMb_3syn8lifetime8LifetimeE7is_someCscG178fYrITo_14zerovec_derive, symObjAddr: 0x3020, symBinAddr: 0x372A0, symSize: 0x30 }
  - { offset: 0x913C6, size: 0x8, addend: 0x0, symName: __RNvMNtCsieiGu2EXtoJ_4core6optionINtB2_6OptionhE9unwrap_orCscG178fYrITo_14zerovec_derive, symObjAddr: 0x3050, symBinAddr: 0x372D0, symSize: 0x50 }
  - { offset: 0x9141F, size: 0x8, addend: 0x0, symName: __RNvMs0_NtCsieiGu2EXtoJ_4core6optionINtB5_6OptionRNtCsaKzlTDPUHDb_11proc_macro25IdentE6clonedCscG178fYrITo_14zerovec_derive, symObjAddr: 0x30A0, symBinAddr: 0x37320, symSize: 0x70 }
  - { offset: 0x915CA, size: 0x8, addend: 0x0, symName: __RNvMs0_NtCsjK30CmJ87bX_9hashbrown3mapINtB5_7HashMaphuNtNtNtCsHUR1vrdMJt_3std4hash6random11RandomStateE4iterCscG178fYrITo_14zerovec_derive, symObjAddr: 0x3110, symBinAddr: 0x37390, symSize: 0x100 }
  - { offset: 0x91804, size: 0x8, addend: 0x0, symName: __RNvMs1_NtCsjK30CmJ87bX_9hashbrown3mapINtB5_7HashMaphuNtNtNtCsHUR1vrdMJt_3std4hash6random11RandomStateE6insertCscG178fYrITo_14zerovec_derive, symObjAddr: 0x3210, symBinAddr: 0x37490, symSize: 0x1B0 }
  - { offset: 0x91A89, size: 0x8, addend: 0x0, symName: __RNvXNtCs9OU1sGv5X54_5quote9to_tokensRINtNtCsieiGu2EXtoJ_4core6option6OptionNtCsaKzlTDPUHDb_11proc_macro211TokenStreamENtB2_8ToTokens9to_tokensCscG178fYrITo_14zerovec_derive, symObjAddr: 0x3460, symBinAddr: 0x376E0, symSize: 0x30 }
  - { offset: 0x91AC8, size: 0x8, addend: 0x0, symName: __RNvXNtCs9OU1sGv5X54_5quote9to_tokensRNtCsaKzlTDPUHDb_11proc_macro211TokenStreamNtB2_8ToTokens9to_tokensCscG178fYrITo_14zerovec_derive, symObjAddr: 0x3490, symBinAddr: 0x37710, symSize: 0x30 }
  - { offset: 0x91B07, size: 0x8, addend: 0x0, symName: __RNvXNtCs9OU1sGv5X54_5quote9to_tokensRNtCsaKzlTDPUHDb_11proc_macro25IdentNtB2_8ToTokens9to_tokensCscG178fYrITo_14zerovec_derive, symObjAddr: 0x34C0, symBinAddr: 0x37740, symSize: 0x30 }
  - { offset: 0x91B46, size: 0x8, addend: 0x0, symName: __RNvXNtCs9OU1sGv5X54_5quote9to_tokensRNtNtCsdGrGZaRBwMb_3syn11restriction10VisibilityNtB2_8ToTokens9to_tokensCscG178fYrITo_14zerovec_derive, symObjAddr: 0x34F0, symBinAddr: 0x37770, symSize: 0x30 }
  - { offset: 0x91B85, size: 0x8, addend: 0x0, symName: __RNvXNtCs9OU1sGv5X54_5quote9to_tokensRNtNtCsdGrGZaRBwMb_3syn6derive11DeriveInputNtB2_8ToTokens9to_tokensCscG178fYrITo_14zerovec_derive, symObjAddr: 0x3520, symBinAddr: 0x377A0, symSize: 0x30 }
  - { offset: 0x91BCA, size: 0x8, addend: 0x0, symName: __RNvXs3_NtCs9OU1sGv5X54_5quote9to_tokensINtNtCsieiGu2EXtoJ_4core6option6OptionNtCsaKzlTDPUHDb_11proc_macro211TokenStreamENtB5_8ToTokens9to_tokensCscG178fYrITo_14zerovec_derive, symObjAddr: 0x3950, symBinAddr: 0x37BD0, symSize: 0x70 }
  - { offset: 0x91C2C, size: 0x8, addend: 0x0, symName: __RNvYNtCsaKzlTDPUHDb_11proc_macro25IdentNtNtCs9OU1sGv5X54_5quote9to_tokens8ToTokens15to_token_streamCscG178fYrITo_14zerovec_derive, symObjAddr: 0x45D0, symBinAddr: 0x38850, symSize: 0x90 }
  - { offset: 0x91C76, size: 0x8, addend: 0x0, symName: __RNvYNtCsaKzlTDPUHDb_11proc_macro25IdentNtNtCs9OU1sGv5X54_5quote9to_tokens8ToTokens17into_token_streamCscG178fYrITo_14zerovec_derive, symObjAddr: 0x4660, symBinAddr: 0x388E0, symSize: 0x60 }
  - { offset: 0x91CAC, size: 0x8, addend: 0x0, symName: __RNvYNtNtCsdGrGZaRBwMb_3syn11restriction10VisibilityNtNtCs9OU1sGv5X54_5quote9to_tokens8ToTokens15to_token_streamCscG178fYrITo_14zerovec_derive, symObjAddr: 0x46C0, symBinAddr: 0x38940, symSize: 0x90 }
  - { offset: 0x91CF6, size: 0x8, addend: 0x0, symName: __RNvYRNtCsaKzlTDPUHDb_11proc_macro211TokenStreamNtNtCs9OU1sGv5X54_5quote9to_tokens8ToTokens15to_token_streamCscG178fYrITo_14zerovec_derive, symObjAddr: 0x4750, symBinAddr: 0x389D0, symSize: 0x90 }
  - { offset: 0x91D40, size: 0x8, addend: 0x0, symName: __RNvYRNtCsaKzlTDPUHDb_11proc_macro211TokenStreamNtNtCs9OU1sGv5X54_5quote9to_tokens8ToTokens17into_token_streamCscG178fYrITo_14zerovec_derive, symObjAddr: 0x47E0, symBinAddr: 0x38A60, symSize: 0x50 }
  - { offset: 0x91D75, size: 0x8, addend: 0x0, symName: __RNvYRNtNtCsdGrGZaRBwMb_3syn6derive11DeriveInputNtNtCs9OU1sGv5X54_5quote9to_tokens8ToTokens15to_token_streamCscG178fYrITo_14zerovec_derive, symObjAddr: 0x4830, symBinAddr: 0x38AB0, symSize: 0x90 }
  - { offset: 0x91DBF, size: 0x8, addend: 0x0, symName: __RNvYRNtNtCsdGrGZaRBwMb_3syn6derive11DeriveInputNtNtCs9OU1sGv5X54_5quote9to_tokens8ToTokens17into_token_streamCscG178fYrITo_14zerovec_derive, symObjAddr: 0x48C0, symBinAddr: 0x38B40, symSize: 0x50 }
  - { offset: 0x91E00, size: 0x8, addend: 0x0, symName: __RNvXs0_NtCs9OU1sGv5X54_5quote7spannedNtCsaKzlTDPUHDb_11proc_macro211TokenStreamNtB5_7Spanned6___spanCscG178fYrITo_14zerovec_derive, symObjAddr: 0x35E0, symBinAddr: 0x37860, symSize: 0x30 }
  - { offset: 0x91E35, size: 0x8, addend: 0x0, symName: __RNvXs0_NtCs9OU1sGv5X54_5quote7spannedNtNtCsdGrGZaRBwMb_3syn6derive11DeriveInputNtB5_7Spanned6___spanCscG178fYrITo_14zerovec_derive, symObjAddr: 0x3610, symBinAddr: 0x37890, symSize: 0x30 }
  - { offset: 0x91E7B, size: 0x8, addend: 0x0, symName: __RNvXs2_NtNtCs9OU1sGv5X54_5quote9___private3extSNtCsaKzlTDPUHDb_11proc_macro211TokenStreamNtB5_16RepAsIteratorExt15quote_into_iterCscG178fYrITo_14zerovec_derive, symObjAddr: 0x3920, symBinAddr: 0x37BA0, symSize: 0x30 }
  - { offset: 0x925AA, size: 0x8, addend: 0x0, symName: __RNvNtCscG178fYrITo_14zerovec_derive8make_ule12get_expr_int, symObjAddr: 0x0, symBinAddr: 0x38BD0, symSize: 0x190 }
  - { offset: 0x92EFC, size: 0x8, addend: 0x0, symName: __RNvNtCscG178fYrITo_14zerovec_derive8make_ule12get_expr_int, symObjAddr: 0x0, symBinAddr: 0x38BD0, symSize: 0x190 }
  - { offset: 0x92F54, size: 0x8, addend: 0x0, symName: __RNvNtCscG178fYrITo_14zerovec_derive8make_ule13make_ule_impl, symObjAddr: 0x190, symBinAddr: 0x38D60, symSize: 0x13D0 }
  - { offset: 0x93137, size: 0x8, addend: 0x0, symName: __RNvNtCscG178fYrITo_14zerovec_derive8make_ule18make_ule_enum_impl, symObjAddr: 0x1560, symBinAddr: 0x3A130, symSize: 0x2C60 }
  - { offset: 0x9374B, size: 0x8, addend: 0x0, symName: __RNvNtCscG178fYrITo_14zerovec_derive8make_ule20make_ule_struct_impl, symObjAddr: 0x41C0, symBinAddr: 0x3CD90, symSize: 0x3350 }
  - { offset: 0x9C7A8, size: 0x8, addend: 0x0, symName: __RINvXNvMNtCslJiobkLta79_5alloc5sliceSp9to_vec_inNtNtCsdGrGZaRBwMb_3syn4item11ForeignItemNtB3_10ConvertVec6to_vecNtNtB8_5alloc6GlobalEBO_, symObjAddr: 0x0, symBinAddr: 0x40150, symSize: 0x490 }
  - { offset: 0x9DF9C, size: 0x8, addend: 0x0, symName: __RINvXNvMNtCslJiobkLta79_5alloc5sliceSp9to_vec_inNtNtCsdGrGZaRBwMb_3syn4item11ForeignItemNtB3_10ConvertVec6to_vecNtNtB8_5alloc6GlobalEBO_, symObjAddr: 0x0, symBinAddr: 0x40150, symSize: 0x490 }
  - { offset: 0x9E4F0, size: 0x8, addend: 0x0, symName: __RINvXNvMNtCslJiobkLta79_5alloc5sliceSp9to_vec_inNtNtCsdGrGZaRBwMb_3syn4item4ItemNtB3_10ConvertVec6to_vecNtNtB8_5alloc6GlobalEBO_, symObjAddr: 0x490, symBinAddr: 0x405E0, symSize: 0x490 }
  - { offset: 0x9EA44, size: 0x8, addend: 0x0, symName: __RINvXNvMNtCslJiobkLta79_5alloc5sliceSp9to_vec_inNtNtCsdGrGZaRBwMb_3syn4item8ImplItemNtB3_10ConvertVec6to_vecNtNtB8_5alloc6GlobalEBO_, symObjAddr: 0x920, symBinAddr: 0x40A70, symSize: 0x490 }
  - { offset: 0x9EF98, size: 0x8, addend: 0x0, symName: __RINvXNvMNtCslJiobkLta79_5alloc5sliceSp9to_vec_inNtNtCsdGrGZaRBwMb_3syn4item9TraitItemNtB3_10ConvertVec6to_vecNtNtB8_5alloc6GlobalEBO_, symObjAddr: 0xDB0, symBinAddr: 0x40F00, symSize: 0x490 }
  - { offset: 0x9F4EC, size: 0x8, addend: 0x0, symName: __RINvXNvMNtCslJiobkLta79_5alloc5sliceSp9to_vec_inTNtNtCsdGrGZaRBwMb_3syn4item5FnArgNtNtBP_5token5CommaENtB3_10ConvertVec6to_vecNtNtB8_5alloc6GlobalEBP_, symObjAddr: 0x1240, symBinAddr: 0x41390, symSize: 0x490 }
  - { offset: 0x9FA40, size: 0x8, addend: 0x0, symName: __RINvXNvMNtCslJiobkLta79_5alloc5sliceSp9to_vec_inTNtNtCsdGrGZaRBwMb_3syn4item7UseTreeNtNtBP_5token5CommaENtB3_10ConvertVec6to_vecNtNtB8_5alloc6GlobalEBP_, symObjAddr: 0x16D0, symBinAddr: 0x41820, symSize: 0x490 }
  - { offset: 0xA4570, size: 0x8, addend: 0x0, symName: __RNcNtNtNtCsdGrGZaRBwMb_3syn4item11ForeignItem5Macro0B7_, symObjAddr: 0x1B60, symBinAddr: 0x41CB0, symSize: 0x40 }
  - { offset: 0xA45A7, size: 0x8, addend: 0x0, symName: __RNcNtNtNtCsdGrGZaRBwMb_3syn4item16StaticMutability3Mut0B7_, symObjAddr: 0x1BA0, symBinAddr: 0x41CF0, symSize: 0x10 }
  - { offset: 0xA45DD, size: 0x8, addend: 0x0, symName: __RNcNtNtNtCsdGrGZaRBwMb_3syn4item4Item10ForeignMod0B7_, symObjAddr: 0x1BB0, symBinAddr: 0x41D00, symSize: 0x40 }
  - { offset: 0xA460C, size: 0x8, addend: 0x0, symName: __RNcNtNtNtCsdGrGZaRBwMb_3syn4item4Item10TraitAlias0B7_, symObjAddr: 0x1BF0, symBinAddr: 0x41D40, symSize: 0x40 }
  - { offset: 0xA463B, size: 0x8, addend: 0x0, symName: __RNcNtNtNtCsdGrGZaRBwMb_3syn4item4Item11ExternCrate0B7_, symObjAddr: 0x1C30, symBinAddr: 0x41D80, symSize: 0x40 }
  - { offset: 0xA466A, size: 0x8, addend: 0x0, symName: __RNcNtNtNtCsdGrGZaRBwMb_3syn4item4Item2Fn0B7_, symObjAddr: 0x1C70, symBinAddr: 0x41DC0, symSize: 0x30 }
  - { offset: 0xA4699, size: 0x8, addend: 0x0, symName: __RNcNtNtNtCsdGrGZaRBwMb_3syn4item4Item3Mod0B7_, symObjAddr: 0x1CA0, symBinAddr: 0x41DF0, symSize: 0x40 }
  - { offset: 0xA46C8, size: 0x8, addend: 0x0, symName: __RNcNtNtNtCsdGrGZaRBwMb_3syn4item4Item4Enum0B7_, symObjAddr: 0x1CE0, symBinAddr: 0x41E30, symSize: 0x40 }
  - { offset: 0xA46F7, size: 0x8, addend: 0x0, symName: __RNcNtNtNtCsdGrGZaRBwMb_3syn4item4Item5Macro0B7_, symObjAddr: 0x1D20, symBinAddr: 0x41E70, symSize: 0x40 }
  - { offset: 0xA4726, size: 0x8, addend: 0x0, symName: __RNcNtNtNtCsdGrGZaRBwMb_3syn4item4Item5Trait0B7_, symObjAddr: 0x1D60, symBinAddr: 0x41EB0, symSize: 0x40 }
  - { offset: 0xA4755, size: 0x8, addend: 0x0, symName: __RNcNtNtNtCsdGrGZaRBwMb_3syn4item4Item5Union0B7_, symObjAddr: 0x1DA0, symBinAddr: 0x41EF0, symSize: 0x40 }
  - { offset: 0xA4784, size: 0x8, addend: 0x0, symName: __RNcNtNtNtCsdGrGZaRBwMb_3syn4item4Item6Struct0B7_, symObjAddr: 0x1DE0, symBinAddr: 0x41F30, symSize: 0x40 }
  - { offset: 0xA47B9, size: 0x8, addend: 0x0, symName: __RNcNtNtNtCsdGrGZaRBwMb_3syn4item8ImplItem5Macro0B7_, symObjAddr: 0x1E20, symBinAddr: 0x41F70, symSize: 0x40 }
  - { offset: 0xA47F0, size: 0x8, addend: 0x0, symName: __RNcNtNtNtCsdGrGZaRBwMb_3syn4item9TraitItem2Fn0B7_, symObjAddr: 0x1E60, symBinAddr: 0x41FB0, symSize: 0x40 }
  - { offset: 0xA4821, size: 0x8, addend: 0x0, symName: __RNcNtNtNtCsdGrGZaRBwMb_3syn4item9TraitItem5Macro0B7_, symObjAddr: 0x1EA0, symBinAddr: 0x41FF0, symSize: 0x40 }
  - { offset: 0xA4858, size: 0x8, addend: 0x0, symName: __RNvXNtNtCsdGrGZaRBwMb_3syn4item7parsingNtB4_4ItemNtNtB6_5parse5Parse5parse, symObjAddr: 0x45C0, symBinAddr: 0x445E0, symSize: 0x220 }
  - { offset: 0xA4900, size: 0x8, addend: 0x0, symName: __RNvXs0_NtNtCsdGrGZaRBwMb_3syn4item7parsingNtB7_9ItemMacroNtNtB9_5parse5Parse5parse, symObjAddr: 0x4970, symBinAddr: 0x44990, symSize: 0x900 }
  - { offset: 0xA4ACE, size: 0x8, addend: 0x0, symName: __RNvXs1_NtNtCsdGrGZaRBwMb_3syn4item7parsingNtB7_15ItemExternCrateNtNtB9_5parse5Parse5parse, symObjAddr: 0x61D0, symBinAddr: 0x460D0, symSize: 0xC80 }
  - { offset: 0xA4CD8, size: 0x8, addend: 0x0, symName: __RNvXs3_NtNtCsdGrGZaRBwMb_3syn4item7parsingNtB7_7UseTreeNtNtB9_5parse5Parse5parse, symObjAddr: 0xF1E0, symBinAddr: 0x4C200, symSize: 0x50 }
  - { offset: 0xA4D2A, size: 0x8, addend: 0x0, symName: __RNvXs6_NtNtCsdGrGZaRBwMb_3syn4item7parsingNtB7_9SignatureNtNtB9_5parse5Parse5parse, symObjAddr: 0x127D0, symBinAddr: 0x4CF50, symSize: 0x60 }
  - { offset: 0xA4D7C, size: 0x8, addend: 0x0, symName: __RNvXsa_NtNtCsdGrGZaRBwMb_3syn4item7parsingNtB7_7ItemModNtNtB9_5parse5Parse5parse, symObjAddr: 0x14920, symBinAddr: 0x4D6B0, symSize: 0x10F0 }
  - { offset: 0xA4FDF, size: 0x8, addend: 0x0, symName: __RNvXsb_NtNtCsdGrGZaRBwMb_3syn4item7parsingNtB7_14ItemForeignModNtNtB9_5parse5Parse5parse, symObjAddr: 0x15B30, symBinAddr: 0x4E880, symSize: 0x7D0 }
  - { offset: 0xA5191, size: 0x8, addend: 0x0, symName: __RNvXsc_NtNtCsdGrGZaRBwMb_3syn4item7parsingNtB7_11ForeignItemNtNtB9_5parse5Parse5parse, symObjAddr: 0x164A0, symBinAddr: 0x4F1B0, symSize: 0x22C0 }
  - { offset: 0xA580B, size: 0x8, addend: 0x0, symName: __RNvXsg_NtNtCsdGrGZaRBwMb_3syn4item7parsingNtB7_16ForeignItemMacroNtNtB9_5parse5Parse5parse, symObjAddr: 0x1A410, symBinAddr: 0x51670, symSize: 0x410 }
  - { offset: 0xA591F, size: 0x8, addend: 0x0, symName: __RNvXsi_NtNtCsdGrGZaRBwMb_3syn4item7parsingNtB7_10ItemStructNtNtB9_5parse5Parse5parse, symObjAddr: 0x1B5E0, symBinAddr: 0x51AE0, symSize: 0x960 }
  - { offset: 0xA5B1C, size: 0x8, addend: 0x0, symName: __RNvXsj_NtNtCsdGrGZaRBwMb_3syn4item7parsingNtB7_8ItemEnumNtNtB9_5parse5Parse5parse, symObjAddr: 0x1C090, symBinAddr: 0x52550, symSize: 0x940 }
  - { offset: 0xA5D19, size: 0x8, addend: 0x0, symName: __RNvXsk_NtNtCsdGrGZaRBwMb_3syn4item7parsingNtB7_9ItemUnionNtNtB9_5parse5Parse5parse, symObjAddr: 0x1CD40, symBinAddr: 0x53200, symSize: 0x940 }
  - { offset: 0xA5F05, size: 0x8, addend: 0x0, symName: __RNvXsl_NtNtCsdGrGZaRBwMb_3syn4item7parsingNtB7_9ItemTraitNtNtB9_5parse5Parse5parse, symObjAddr: 0x1D820, symBinAddr: 0x53CA0, symSize: 0x860 }
  - { offset: 0xA610C, size: 0x8, addend: 0x0, symName: __RNvXsn_NtNtCsdGrGZaRBwMb_3syn4item7parsingNtB7_9TraitItemNtNtB9_5parse5Parse5parse, symObjAddr: 0x1E5A0, symBinAddr: 0x54670, symSize: 0x19C0 }
  - { offset: 0xA658C, size: 0x8, addend: 0x0, symName: __RNvXsp_NtNtCsdGrGZaRBwMb_3syn4item7parsingNtB7_11TraitItemFnNtNtB9_5parse5Parse5parse, symObjAddr: 0x20C80, symBinAddr: 0x561D0, symSize: 0xAF0 }
  - { offset: 0xA6798, size: 0x8, addend: 0x0, symName: __RNvXsr_NtNtCsdGrGZaRBwMb_3syn4item7parsingNtB7_14TraitItemMacroNtNtB9_5parse5Parse5parse, symObjAddr: 0x225F0, symBinAddr: 0x570C0, symSize: 0x410 }
  - { offset: 0xA68AC, size: 0x8, addend: 0x0, symName: __RNvXst_NtNtCsdGrGZaRBwMb_3syn4item7parsingNtB7_8ImplItemNtNtB9_5parse5Parse5parse, symObjAddr: 0x22C60, symBinAddr: 0x57650, symSize: 0x1CB0 }
  - { offset: 0xA6DB3, size: 0x8, addend: 0x0, symName: __RNvXsx_NtNtCsdGrGZaRBwMb_3syn4item7parsingNtB7_13ImplItemMacroNtNtB9_5parse5Parse5parse, symObjAddr: 0x26A90, symBinAddr: 0x59A50, symSize: 0x410 }
  - { offset: 0xA6EC7, size: 0x8, addend: 0x0, symName: __RNvXsz_NtNtCsdGrGZaRBwMb_3syn4item7parsingNtB7_16StaticMutabilityNtNtB9_5parse5Parse5parse, symObjAddr: 0x26F70, symBinAddr: 0x59EB0, symSize: 0xD0 }
  - { offset: 0xA6F3D, size: 0x8, addend: 0x0, symName: __RNvXNtNtCsdGrGZaRBwMb_3syn4item8printingNtB4_15ItemExternCrateNtNtCs9OU1sGv5X54_5quote9to_tokens8ToTokens9to_tokens, symObjAddr: 0x47E0, symBinAddr: 0x44800, symSize: 0x100 }
  - { offset: 0xA6FAA, size: 0x8, addend: 0x0, symName: __RNvXs0_NtNtCsdGrGZaRBwMb_3syn4item8printingNtB7_10ItemStaticNtNtCs9OU1sGv5X54_5quote9to_tokens8ToTokens9to_tokens, symObjAddr: 0x5270, symBinAddr: 0x45290, symSize: 0xE0 }
  - { offset: 0xA6FE9, size: 0x8, addend: 0x0, symName: __RNvXs1_NtNtCsdGrGZaRBwMb_3syn4item8printingNtB7_9ItemConstNtNtCs9OU1sGv5X54_5quote9to_tokens8ToTokens9to_tokens, symObjAddr: 0x6E50, symBinAddr: 0x46D50, symSize: 0xF0 }
  - { offset: 0xA7028, size: 0x8, addend: 0x0, symName: __RNvXs2_NtNtCsdGrGZaRBwMb_3syn4item8printingNtB7_6ItemFnNtNtCs9OU1sGv5X54_5quote9to_tokens8ToTokens9to_tokens, symObjAddr: 0xC060, symBinAddr: 0x4AB10, symSize: 0xD0 }
  - { offset: 0xA7067, size: 0x8, addend: 0x0, symName: __RNvXs3_NtNtCsdGrGZaRBwMb_3syn4item8printingNtB7_7ItemModNtNtCs9OU1sGv5X54_5quote9to_tokens8ToTokens9to_tokens, symObjAddr: 0xF230, symBinAddr: 0x4C250, symSize: 0x110 }
  - { offset: 0xA70D4, size: 0x8, addend: 0x0, symName: __RNvXs4_NtNtCsdGrGZaRBwMb_3syn4item8printingNtB7_14ItemForeignModNtNtCs9OU1sGv5X54_5quote9to_tokens8ToTokens9to_tokens, symObjAddr: 0x10B10, symBinAddr: 0x4C770, symSize: 0x80 }
  - { offset: 0xA7113, size: 0x8, addend: 0x0, symName: __RNvXs5_NtNtCsdGrGZaRBwMb_3syn4item8printingNtB7_8ItemTypeNtNtCs9OU1sGv5X54_5quote9to_tokens8ToTokens9to_tokens, symObjAddr: 0x12300, symBinAddr: 0x4CE70, symSize: 0xE0 }
  - { offset: 0xA7152, size: 0x8, addend: 0x0, symName: __RNvXs6_NtNtCsdGrGZaRBwMb_3syn4item8printingNtB7_8ItemEnumNtNtCs9OU1sGv5X54_5quote9to_tokens8ToTokens9to_tokens, symObjAddr: 0x12830, symBinAddr: 0x4CFB0, symSize: 0xC0 }
  - { offset: 0xA7191, size: 0x8, addend: 0x0, symName: __RNvXs7_NtNtCsdGrGZaRBwMb_3syn4item8printingNtB7_10ItemStructNtNtCs9OU1sGv5X54_5quote9to_tokens8ToTokens9to_tokens, symObjAddr: 0x12DC0, symBinAddr: 0x4D070, symSize: 0x180 }
  - { offset: 0xA720C, size: 0x8, addend: 0x0, symName: __RNvXs8_NtNtCsdGrGZaRBwMb_3syn4item8printingNtB7_9ItemUnionNtNtCs9OU1sGv5X54_5quote9to_tokens8ToTokens9to_tokens, symObjAddr: 0x139D0, symBinAddr: 0x4D1F0, symSize: 0xC0 }
  - { offset: 0xA724B, size: 0x8, addend: 0x0, symName: __RNvXs9_NtNtCsdGrGZaRBwMb_3syn4item8printingNtB7_9ItemTraitNtNtCs9OU1sGv5X54_5quote9to_tokens8ToTokens9to_tokens, symObjAddr: 0x13CD0, symBinAddr: 0x4D2B0, symSize: 0x130 }
  - { offset: 0xA728A, size: 0x8, addend: 0x0, symName: __RNvXs_NtNtCsdGrGZaRBwMb_3syn4item8printingNtB6_7ItemUseNtNtCs9OU1sGv5X54_5quote9to_tokens8ToTokens9to_tokens, symObjAddr: 0x14840, symBinAddr: 0x4D610, symSize: 0xA0 }
  - { offset: 0xA72C9, size: 0x8, addend: 0x0, symName: __RNvXsa_NtNtCsdGrGZaRBwMb_3syn4item8printingNtB7_14ItemTraitAliasNtNtCs9OU1sGv5X54_5quote9to_tokens8ToTokens9to_tokens, symObjAddr: 0x15A10, symBinAddr: 0x4E7A0, symSize: 0xE0 }
  - { offset: 0xA7308, size: 0x8, addend: 0x0, symName: __RNvXsb_NtNtCsdGrGZaRBwMb_3syn4item8printingNtB7_8ItemImplNtNtCs9OU1sGv5X54_5quote9to_tokens8ToTokens9to_tokens, symObjAddr: 0x16300, symBinAddr: 0x4F050, symSize: 0x160 }
  - { offset: 0xA7385, size: 0x8, addend: 0x0, symName: __RNvXsc_NtNtCsdGrGZaRBwMb_3syn4item8printingNtB7_9ItemMacroNtNtCs9OU1sGv5X54_5quote9to_tokens8ToTokens9to_tokens, symObjAddr: 0x18760, symBinAddr: 0x51470, symSize: 0x130 }
  - { offset: 0xA7416, size: 0x8, addend: 0x0, symName: __RNvXsd_NtNtCsdGrGZaRBwMb_3syn4item8printingNtB7_7UsePathNtNtCs9OU1sGv5X54_5quote9to_tokens8ToTokens9to_tokens, symObjAddr: 0x18E20, symBinAddr: 0x515A0, symSize: 0x50 }
  - { offset: 0xA7455, size: 0x8, addend: 0x0, symName: __RNvXse_NtNtCsdGrGZaRBwMb_3syn4item8printingNtB7_7UseNameNtNtCs9OU1sGv5X54_5quote9to_tokens8ToTokens9to_tokens, symObjAddr: 0x19960, symBinAddr: 0x515F0, symSize: 0x30 }
  - { offset: 0xA7494, size: 0x8, addend: 0x0, symName: __RNvXsf_NtNtCsdGrGZaRBwMb_3syn4item8printingNtB7_9UseRenameNtNtCs9OU1sGv5X54_5quote9to_tokens8ToTokens9to_tokens, symObjAddr: 0x1A380, symBinAddr: 0x51620, symSize: 0x50 }
  - { offset: 0xA74D3, size: 0x8, addend: 0x0, symName: __RNvXsg_NtNtCsdGrGZaRBwMb_3syn4item8printingNtB7_7UseGlobNtNtCs9OU1sGv5X54_5quote9to_tokens8ToTokens9to_tokens, symObjAddr: 0x1A820, symBinAddr: 0x51A80, symSize: 0x30 }
  - { offset: 0xA7512, size: 0x8, addend: 0x0, symName: __RNvXsh_NtNtCsdGrGZaRBwMb_3syn4item8printingNtB7_8UseGroupNtNtCs9OU1sGv5X54_5quote9to_tokens8ToTokens9to_tokens, symObjAddr: 0x1B570, symBinAddr: 0x51AB0, symSize: 0x30 }
  - { offset: 0xA7551, size: 0x8, addend: 0x0, symName: __RNvXsi_NtNtCsdGrGZaRBwMb_3syn4item8printingNtB7_14TraitItemConstNtNtCs9OU1sGv5X54_5quote9to_tokens8ToTokens9to_tokens, symObjAddr: 0x1BF40, symBinAddr: 0x52440, symSize: 0x110 }
  - { offset: 0xA75BE, size: 0x8, addend: 0x0, symName: __RNvXsj_NtNtCsdGrGZaRBwMb_3syn4item8printingNtB7_11TraitItemFnNtNtCs9OU1sGv5X54_5quote9to_tokens8ToTokens9to_tokens, symObjAddr: 0x1C9D0, symBinAddr: 0x52E90, symSize: 0xD0 }
  - { offset: 0xA761B, size: 0x8, addend: 0x0, symName: __RNvXsk_NtNtCsdGrGZaRBwMb_3syn4item8printingNtB7_13TraitItemTypeNtNtCs9OU1sGv5X54_5quote9to_tokens8ToTokens9to_tokens, symObjAddr: 0x1D680, symBinAddr: 0x53B40, symSize: 0x160 }
  - { offset: 0xA7688, size: 0x8, addend: 0x0, symName: __RNvXsl_NtNtCsdGrGZaRBwMb_3syn4item8printingNtB7_14TraitItemMacroNtNtCs9OU1sGv5X54_5quote9to_tokens8ToTokens9to_tokens, symObjAddr: 0x1E080, symBinAddr: 0x54500, symSize: 0x70 }
  - { offset: 0xA76C7, size: 0x8, addend: 0x0, symName: __RNvXsm_NtNtCsdGrGZaRBwMb_3syn4item8printingNtB7_13ImplItemConstNtNtCs9OU1sGv5X54_5quote9to_tokens8ToTokens9to_tokens, symObjAddr: 0x1E460, symBinAddr: 0x54570, symSize: 0x100 }
  - { offset: 0xA7706, size: 0x8, addend: 0x0, symName: __RNvXsn_NtNtCsdGrGZaRBwMb_3syn4item8printingNtB7_10ImplItemFnNtNtCs9OU1sGv5X54_5quote9to_tokens8ToTokens9to_tokens, symObjAddr: 0x1FF60, symBinAddr: 0x56030, symSize: 0xA0 }
  - { offset: 0xA7745, size: 0x8, addend: 0x0, symName: __RNvXso_NtNtCsdGrGZaRBwMb_3syn4item8printingNtB7_12ImplItemTypeNtNtCs9OU1sGv5X54_5quote9to_tokens8ToTokens9to_tokens, symObjAddr: 0x20B40, symBinAddr: 0x560D0, symSize: 0x100 }
  - { offset: 0xA7784, size: 0x8, addend: 0x0, symName: __RNvXsp_NtNtCsdGrGZaRBwMb_3syn4item8printingNtB7_13ImplItemMacroNtNtCs9OU1sGv5X54_5quote9to_tokens8ToTokens9to_tokens, symObjAddr: 0x21770, symBinAddr: 0x56CC0, symSize: 0x70 }
  - { offset: 0xA77C3, size: 0x8, addend: 0x0, symName: __RNvXsq_NtNtCsdGrGZaRBwMb_3syn4item8printingNtB7_13ForeignItemFnNtNtCs9OU1sGv5X54_5quote9to_tokens8ToTokens9to_tokens, symObjAddr: 0x22540, symBinAddr: 0x57040, symSize: 0x80 }
  - { offset: 0xA7802, size: 0x8, addend: 0x0, symName: __RNvXsr_NtNtCsdGrGZaRBwMb_3syn4item8printingNtB7_17ForeignItemStaticNtNtCs9OU1sGv5X54_5quote9to_tokens8ToTokens9to_tokens, symObjAddr: 0x22A00, symBinAddr: 0x574D0, symSize: 0xC0 }
  - { offset: 0xA7841, size: 0x8, addend: 0x0, symName: __RNvXss_NtNtCsdGrGZaRBwMb_3syn4item8printingNtB7_15ForeignItemTypeNtNtCs9OU1sGv5X54_5quote9to_tokens8ToTokens9to_tokens, symObjAddr: 0x22B60, symBinAddr: 0x57590, symSize: 0xC0 }
  - { offset: 0xA7880, size: 0x8, addend: 0x0, symName: __RNvXst_NtNtCsdGrGZaRBwMb_3syn4item8printingNtB7_16ForeignItemMacroNtNtCs9OU1sGv5X54_5quote9to_tokens8ToTokens9to_tokens, symObjAddr: 0x24910, symBinAddr: 0x59300, symSize: 0x70 }
  - { offset: 0xA78BF, size: 0x8, addend: 0x0, symName: __RNvXsu_NtNtCsdGrGZaRBwMb_3syn4item8printingNtB7_9SignatureNtNtCs9OU1sGv5X54_5quote9to_tokens8ToTokens9to_tokens, symObjAddr: 0x25730, symBinAddr: 0x59370, symSize: 0xE0 }
  - { offset: 0xA78FE, size: 0x8, addend: 0x0, symName: __RNvXsv_NtNtCsdGrGZaRBwMb_3syn4item8printingNtB7_8ReceiverNtNtCs9OU1sGv5X54_5quote9to_tokens8ToTokens9to_tokens, symObjAddr: 0x25950, symBinAddr: 0x59530, symSize: 0x450 }
  - { offset: 0xA79F4, size: 0x8, addend: 0x0, symName: __RNvXsw_NtNtCsdGrGZaRBwMb_3syn4item8printingNtB7_8VariadicNtNtCs9OU1sGv5X54_5quote9to_tokens8ToTokens9to_tokens, symObjAddr: 0x26980, symBinAddr: 0x59980, symSize: 0xD0 }
  - { offset: 0xA7A61, size: 0x8, addend: 0x0, symName: __RNvXsx_NtNtCsdGrGZaRBwMb_3syn4item8printingNtB7_16StaticMutabilityNtNtCs9OU1sGv5X54_5quote9to_tokens8ToTokens9to_tokens, symObjAddr: 0x26EA0, symBinAddr: 0x59E60, symSize: 0x50 }
  - { offset: 0xA7ABF, size: 0x8, addend: 0x0, symName: __RNvXsA_NtCsdGrGZaRBwMb_3syn4itemNtB5_9TraitItemNtNtCs9OU1sGv5X54_5quote9to_tokens8ToTokens9to_tokens, symObjAddr: 0x13E00, symBinAddr: 0x4D3E0, symSize: 0xE0 }
  - { offset: 0xA7B8C, size: 0x8, addend: 0x0, symName: __RNvXsF_NtCsdGrGZaRBwMb_3syn4itemNtB5_8ImplItemNtNtCs9OU1sGv5X54_5quote9to_tokens8ToTokens9to_tokens, symObjAddr: 0x13FD0, symBinAddr: 0x4D4C0, symSize: 0xE0 }
  - { offset: 0xA7C59, size: 0x8, addend: 0x0, symName: __RNvXsI_NtCsdGrGZaRBwMb_3syn4itemNtB5_5FnArgNtNtCs9OU1sGv5X54_5quote9to_tokens8ToTokens9to_tokens, symObjAddr: 0x14130, symBinAddr: 0x4D5A0, symSize: 0x70 }
  - { offset: 0xA7CCF, size: 0x8, addend: 0x0, symName: __RNvXsk_NtCsdGrGZaRBwMb_3syn4itemNtB5_4ItemNtNtCs9OU1sGv5X54_5quote9to_tokens8ToTokens9to_tokens, symObjAddr: 0x1CAA0, symBinAddr: 0x52F60, symSize: 0x2A0 }
  - { offset: 0xA7EE5, size: 0x8, addend: 0x0, symName: __RNvXsq_NtCsdGrGZaRBwMb_3syn4itemNtB5_7UseTreeNtNtCs9OU1sGv5X54_5quote9to_tokens8ToTokens9to_tokens, symObjAddr: 0x217E0, symBinAddr: 0x56D30, symSize: 0xD0 }
  - { offset: 0xA7FB2, size: 0x8, addend: 0x0, symName: __RNvXsv_NtCsdGrGZaRBwMb_3syn4itemNtB5_11ForeignItemNtNtCs9OU1sGv5X54_5quote9to_tokens8ToTokens9to_tokens, symObjAddr: 0x25810, symBinAddr: 0x59450, symSize: 0xE0 }
  - { offset: 0xA8BB9, size: 0x8, addend: 0x0, symName: __RNvXs16_NtNtCsdGrGZaRBwMb_3syn3gen5cloneNtNtBa_4item5FnArgNtNtCsieiGu2EXtoJ_4core5clone5Clone5clone, symObjAddr: 0x5350, symBinAddr: 0x45370, symSize: 0xE0 }
  - { offset: 0xA8C21, size: 0x8, addend: 0x0, symName: __RNvXs17_NtNtCsdGrGZaRBwMb_3syn3gen5cloneNtNtBa_4item11ForeignItemNtNtCsieiGu2EXtoJ_4core5clone5Clone5clone, symObjAddr: 0x5430, symBinAddr: 0x45450, symSize: 0x200 }
  - { offset: 0xA8CE3, size: 0x8, addend: 0x0, symName: __RNvXs18_NtNtCsdGrGZaRBwMb_3syn3gen5cloneNtNtBa_4item13ForeignItemFnNtNtCsieiGu2EXtoJ_4core5clone5Clone5clone, symObjAddr: 0x5630, symBinAddr: 0x45650, symSize: 0x1A0 }
  - { offset: 0xA8D17, size: 0x8, addend: 0x0, symName: __RNvXs19_NtNtCsdGrGZaRBwMb_3syn3gen5cloneNtNtBa_4item16ForeignItemMacroNtNtCsieiGu2EXtoJ_4core5clone5Clone5clone, symObjAddr: 0x5890, symBinAddr: 0x45890, symSize: 0x130 }
  - { offset: 0xA8D4B, size: 0x8, addend: 0x0, symName: __RNvXs1A_NtNtCsdGrGZaRBwMb_3syn3gen5cloneNtNtBa_4item9ItemUnionNtNtCsieiGu2EXtoJ_4core5clone5Clone5clone, symObjAddr: 0x59C0, symBinAddr: 0x459C0, symSize: 0x220 }
  - { offset: 0xA8D7F, size: 0x8, addend: 0x0, symName: __RNvXs1B_NtNtCsdGrGZaRBwMb_3syn3gen5cloneNtNtBa_4item7ItemUseNtNtCsieiGu2EXtoJ_4core5clone5Clone5clone, symObjAddr: 0x5BE0, symBinAddr: 0x45BE0, symSize: 0x1D0 }
  - { offset: 0xA8DB3, size: 0x8, addend: 0x0, symName: __RNvXs1a_NtNtCsdGrGZaRBwMb_3syn3gen5cloneNtNtBa_4item17ForeignItemStaticNtNtCsieiGu2EXtoJ_4core5clone5Clone5clone, symObjAddr: 0x6F40, symBinAddr: 0x46E40, symSize: 0x250 }
  - { offset: 0xA8DE7, size: 0x8, addend: 0x0, symName: __RNvXs1b_NtNtCsdGrGZaRBwMb_3syn3gen5cloneNtNtBa_4item15ForeignItemTypeNtNtCsieiGu2EXtoJ_4core5clone5Clone5clone, symObjAddr: 0x7190, symBinAddr: 0x47090, symSize: 0x210 }
  - { offset: 0xA8E1B, size: 0x8, addend: 0x0, symName: __RNvXs1f_NtNtCsdGrGZaRBwMb_3syn3gen5cloneNtNtBa_4item8ImplItemNtNtCsieiGu2EXtoJ_4core5clone5Clone5clone, symObjAddr: 0x73A0, symBinAddr: 0x472A0, symSize: 0x200 }
  - { offset: 0xA8EDD, size: 0x8, addend: 0x0, symName: __RNvXs1g_NtNtCsdGrGZaRBwMb_3syn3gen5cloneNtNtBa_4item13ImplItemConstNtNtCsieiGu2EXtoJ_4core5clone5Clone5clone, symObjAddr: 0x75A0, symBinAddr: 0x474A0, symSize: 0x3A0 }
  - { offset: 0xA8F11, size: 0x8, addend: 0x0, symName: __RNvXs1h_NtNtCsdGrGZaRBwMb_3syn3gen5cloneNtNtBa_4item10ImplItemFnNtNtCsieiGu2EXtoJ_4core5clone5Clone5clone, symObjAddr: 0x7940, symBinAddr: 0x47840, symSize: 0x1F0 }
  - { offset: 0xA8F45, size: 0x8, addend: 0x0, symName: __RNvXs1i_NtNtCsdGrGZaRBwMb_3syn3gen5cloneNtNtBa_4item13ImplItemMacroNtNtCsieiGu2EXtoJ_4core5clone5Clone5clone, symObjAddr: 0x7B30, symBinAddr: 0x47A30, symSize: 0x130 }
  - { offset: 0xA8F79, size: 0x8, addend: 0x0, symName: __RNvXs1j_NtNtCsdGrGZaRBwMb_3syn3gen5cloneNtNtBa_4item12ImplItemTypeNtNtCsieiGu2EXtoJ_4core5clone5Clone5clone, symObjAddr: 0x7C60, symBinAddr: 0x47B60, symSize: 0x310 }
  - { offset: 0xA8FAD, size: 0x8, addend: 0x0, symName: __RNvXs1m_NtNtCsdGrGZaRBwMb_3syn3gen5cloneNtNtBa_4item4ItemNtNtCsieiGu2EXtoJ_4core5clone5Clone5clone, symObjAddr: 0x7F80, symBinAddr: 0x47E70, symSize: 0x5C0 }
  - { offset: 0xA91C2, size: 0x8, addend: 0x0, symName: __RNvXs1n_NtNtCsdGrGZaRBwMb_3syn3gen5cloneNtNtBa_4item9ItemConstNtNtCsieiGu2EXtoJ_4core5clone5Clone5clone, symObjAddr: 0x8540, symBinAddr: 0x48430, symSize: 0x320 }
  - { offset: 0xA91F6, size: 0x8, addend: 0x0, symName: __RNvXs1o_NtNtCsdGrGZaRBwMb_3syn3gen5cloneNtNtBa_4item8ItemEnumNtNtCsieiGu2EXtoJ_4core5clone5Clone5clone, symObjAddr: 0x8860, symBinAddr: 0x48750, symSize: 0x260 }
  - { offset: 0xA922A, size: 0x8, addend: 0x0, symName: __RNvXs1p_NtNtCsdGrGZaRBwMb_3syn3gen5cloneNtNtBa_4item15ItemExternCrateNtNtCsieiGu2EXtoJ_4core5clone5Clone5clone, symObjAddr: 0x8AC0, symBinAddr: 0x489B0, symSize: 0x200 }
  - { offset: 0xA925E, size: 0x8, addend: 0x0, symName: __RNvXs1q_NtNtCsdGrGZaRBwMb_3syn3gen5cloneNtNtBa_4item6ItemFnNtNtCsieiGu2EXtoJ_4core5clone5Clone5clone, symObjAddr: 0x8CC0, symBinAddr: 0x48BB0, symSize: 0x1A0 }
  - { offset: 0xA9292, size: 0x8, addend: 0x0, symName: __RNvXs1r_NtNtCsdGrGZaRBwMb_3syn3gen5cloneNtNtBa_4item14ItemForeignModNtNtCsieiGu2EXtoJ_4core5clone5Clone5clone, symObjAddr: 0x8E60, symBinAddr: 0x48D50, symSize: 0x170 }
  - { offset: 0xA92C6, size: 0x8, addend: 0x0, symName: __RNvXs1s_NtNtCsdGrGZaRBwMb_3syn3gen5cloneNtNtBa_4item8ItemImplNtNtCsieiGu2EXtoJ_4core5clone5Clone5clone, symObjAddr: 0x8FD0, symBinAddr: 0x48EC0, symSize: 0x2D0 }
  - { offset: 0xA92FA, size: 0x8, addend: 0x0, symName: __RNvXs1t_NtNtCsdGrGZaRBwMb_3syn3gen5cloneNtNtBa_4item9ItemMacroNtNtCsieiGu2EXtoJ_4core5clone5Clone5clone, symObjAddr: 0x92A0, symBinAddr: 0x49190, symSize: 0x190 }
  - { offset: 0xA932E, size: 0x8, addend: 0x0, symName: __RNvXs1u_NtNtCsdGrGZaRBwMb_3syn3gen5cloneNtNtBa_4item7ItemModNtNtCsieiGu2EXtoJ_4core5clone5Clone5clone, symObjAddr: 0x9430, symBinAddr: 0x49320, symSize: 0x240 }
  - { offset: 0xA9362, size: 0x8, addend: 0x0, symName: __RNvXs1v_NtNtCsdGrGZaRBwMb_3syn3gen5cloneNtNtBa_4item10ItemStaticNtNtCsieiGu2EXtoJ_4core5clone5Clone5clone, symObjAddr: 0x9670, symBinAddr: 0x49560, symSize: 0x2D0 }
  - { offset: 0xA9396, size: 0x8, addend: 0x0, symName: __RNvXs1w_NtNtCsdGrGZaRBwMb_3syn3gen5cloneNtNtBa_4item10ItemStructNtNtCsieiGu2EXtoJ_4core5clone5Clone5clone, symObjAddr: 0x9940, symBinAddr: 0x49830, symSize: 0x270 }
  - { offset: 0xA93CA, size: 0x8, addend: 0x0, symName: __RNvXs1x_NtNtCsdGrGZaRBwMb_3syn3gen5cloneNtNtBa_4item9ItemTraitNtNtCsieiGu2EXtoJ_4core5clone5Clone5clone, symObjAddr: 0x9BB0, symBinAddr: 0x49AA0, symSize: 0x3B0 }
  - { offset: 0xA93FE, size: 0x8, addend: 0x0, symName: __RNvXs1y_NtNtCsdGrGZaRBwMb_3syn3gen5cloneNtNtBa_4item14ItemTraitAliasNtNtCsieiGu2EXtoJ_4core5clone5Clone5clone, symObjAddr: 0x9F60, symBinAddr: 0x49E50, symSize: 0x2B0 }
  - { offset: 0xA9432, size: 0x8, addend: 0x0, symName: __RNvXs1z_NtNtCsdGrGZaRBwMb_3syn3gen5cloneNtNtBa_4item8ItemTypeNtNtCsieiGu2EXtoJ_4core5clone5Clone5clone, symObjAddr: 0xA210, symBinAddr: 0x4A100, symSize: 0x2A0 }
  - { offset: 0xA9466, size: 0x8, addend: 0x0, symName: __RNvXs2I_NtNtCsdGrGZaRBwMb_3syn3gen5cloneNtNtBa_4item7UseGlobNtNtCsieiGu2EXtoJ_4core5clone5Clone5clone, symObjAddr: 0xB290, symBinAddr: 0x4A580, symSize: 0x40 }
  - { offset: 0xA949A, size: 0x8, addend: 0x0, symName: __RNvXs2J_NtNtCsdGrGZaRBwMb_3syn3gen5cloneNtNtBa_4item8UseGroupNtNtCsieiGu2EXtoJ_4core5clone5Clone5clone, symObjAddr: 0xB3B0, symBinAddr: 0x4A5C0, symSize: 0x80 }
  - { offset: 0xA94CE, size: 0x8, addend: 0x0, symName: __RNvXs2K_NtNtCsdGrGZaRBwMb_3syn3gen5cloneNtNtBa_4item7UseNameNtNtCsieiGu2EXtoJ_4core5clone5Clone5clone, symObjAddr: 0xB430, symBinAddr: 0x4A640, symSize: 0x50 }
  - { offset: 0xA9502, size: 0x8, addend: 0x0, symName: __RNvXs2L_NtNtCsdGrGZaRBwMb_3syn3gen5cloneNtNtBa_4item7UsePathNtNtCsieiGu2EXtoJ_4core5clone5Clone5clone, symObjAddr: 0xB530, symBinAddr: 0x4A690, symSize: 0xC0 }
  - { offset: 0xA9536, size: 0x8, addend: 0x0, symName: __RNvXs2M_NtNtCsdGrGZaRBwMb_3syn3gen5cloneNtNtBa_4item9UseRenameNtNtCsieiGu2EXtoJ_4core5clone5Clone5clone, symObjAddr: 0xB5F0, symBinAddr: 0x4A750, symSize: 0xC0 }
  - { offset: 0xA956A, size: 0x8, addend: 0x0, symName: __RNvXs2N_NtNtCsdGrGZaRBwMb_3syn3gen5cloneNtNtBa_4item7UseTreeNtNtCsieiGu2EXtoJ_4core5clone5Clone5clone, symObjAddr: 0xB770, symBinAddr: 0x4A810, symSize: 0x1F0 }
  - { offset: 0xA962C, size: 0x8, addend: 0x0, symName: __RNvXs2O_NtNtCsdGrGZaRBwMb_3syn3gen5cloneNtNtBa_4item8VariadicNtNtCsieiGu2EXtoJ_4core5clone5Clone5clone, symObjAddr: 0xB960, symBinAddr: 0x4AA00, symSize: 0x110 }
  - { offset: 0xA9660, size: 0x8, addend: 0x0, symName: __RNvXs2b_NtNtCsdGrGZaRBwMb_3syn3gen5cloneNtNtBa_4item8ReceiverNtNtCsieiGu2EXtoJ_4core5clone5Clone5clone, symObjAddr: 0xC830, symBinAddr: 0x4ABE0, symSize: 0x180 }
  - { offset: 0xA9694, size: 0x8, addend: 0x0, symName: __RNvXs2d_NtNtCsdGrGZaRBwMb_3syn3gen5cloneNtNtBa_4item9SignatureNtNtCsieiGu2EXtoJ_4core5clone5Clone5clone, symObjAddr: 0xD180, symBinAddr: 0x4B260, symSize: 0x340 }
  - { offset: 0xA96C8, size: 0x8, addend: 0x0, symName: __RNvXs2e_NtNtCsdGrGZaRBwMb_3syn3gen5cloneNtNtBa_4item16StaticMutabilityNtNtCsieiGu2EXtoJ_4core5clone5Clone5clone, symObjAddr: 0xD4C0, symBinAddr: 0x4B5A0, symSize: 0x60 }
  - { offset: 0xA971A, size: 0x8, addend: 0x0, symName: __RNvXs2k_NtNtCsdGrGZaRBwMb_3syn3gen5cloneNtNtBa_4item9TraitItemNtNtCsieiGu2EXtoJ_4core5clone5Clone5clone, symObjAddr: 0xD7D0, symBinAddr: 0x4B600, symSize: 0x200 }
  - { offset: 0xA97DC, size: 0x8, addend: 0x0, symName: __RNvXs2l_NtNtCsdGrGZaRBwMb_3syn3gen5cloneNtNtBa_4item14TraitItemConstNtNtCsieiGu2EXtoJ_4core5clone5Clone5clone, symObjAddr: 0xDAC0, symBinAddr: 0x4B800, symSize: 0x2A0 }
  - { offset: 0xA9810, size: 0x8, addend: 0x0, symName: __RNvXs2m_NtNtCsdGrGZaRBwMb_3syn3gen5cloneNtNtBa_4item11TraitItemFnNtNtCsieiGu2EXtoJ_4core5clone5Clone5clone, symObjAddr: 0xDD60, symBinAddr: 0x4BAA0, symSize: 0x190 }
  - { offset: 0xA9844, size: 0x8, addend: 0x0, symName: __RNvXs2n_NtNtCsdGrGZaRBwMb_3syn3gen5cloneNtNtBa_4item14TraitItemMacroNtNtCsieiGu2EXtoJ_4core5clone5Clone5clone, symObjAddr: 0xDF30, symBinAddr: 0x4BC30, symSize: 0x130 }
  - { offset: 0xA9878, size: 0x8, addend: 0x0, symName: __RNvXs2o_NtNtCsdGrGZaRBwMb_3syn3gen5cloneNtNtBa_4item13TraitItemTypeNtNtCsieiGu2EXtoJ_4core5clone5Clone5clone, symObjAddr: 0xE060, symBinAddr: 0x4BD60, symSize: 0x2C0 }
  - { offset: 0xA98B2, size: 0x8, addend: 0x0, symName: __RNvXs1N_NtNtCsdGrGZaRBwMb_3syn3gen5debugNtNtBa_4item5FnArgNtNtCsieiGu2EXtoJ_4core3fmt5Debug3fmt, symObjAddr: 0x5DB0, symBinAddr: 0x45DB0, symSize: 0x140 }
  - { offset: 0xA9984, size: 0x8, addend: 0x0, symName: __RNvXs1O_NtNtCsdGrGZaRBwMb_3syn3gen5debugNtNtBa_4item11ForeignItemNtNtCsieiGu2EXtoJ_4core3fmt5Debug3fmt, symObjAddr: 0x5EF0, symBinAddr: 0x45EF0, symSize: 0x1E0 }
  - { offset: 0xA9A92, size: 0x8, addend: 0x0, symName: __RNvXs20_NtNtCsdGrGZaRBwMb_3syn3gen5debugNtNtBa_4item8ImplItemNtNtCsieiGu2EXtoJ_4core3fmt5Debug3fmt, symObjAddr: 0xA4B0, symBinAddr: 0x4A3A0, symSize: 0x1E0 }
  - { offset: 0xA9BA0, size: 0x8, addend: 0x0, symName: __RNvXs2b_NtNtCsdGrGZaRBwMb_3syn3gen5debugNtNtBa_4item4ItemNtNtCsieiGu2EXtoJ_4core3fmt5Debug3fmt, symObjAddr: 0xC9B0, symBinAddr: 0x4AD60, symSize: 0x500 }
  - { offset: 0xA9E03, size: 0x8, addend: 0x0, symName: __RNvXs3E_NtNtCsdGrGZaRBwMb_3syn3gen5debugNtNtBa_4item9TraitItemNtNtCsieiGu2EXtoJ_4core3fmt5Debug3fmt, symObjAddr: 0xEF00, symBinAddr: 0x4C020, symSize: 0x1E0 }
  - { offset: 0xA9F11, size: 0x8, addend: 0x0, symName: __RNvXs3v_NtNtCsdGrGZaRBwMb_3syn3gen5debugNtNtBa_4item8ReceiverNtNtCsieiGu2EXtoJ_4core3fmt5Debug3fmt, symObjAddr: 0xF340, symBinAddr: 0x4C360, symSize: 0x120 }
  - { offset: 0xA9F72, size: 0x8, addend: 0x0, symName: __RNvXs3x_NtNtCsdGrGZaRBwMb_3syn3gen5debugNtNtBa_4item9SignatureNtNtCsieiGu2EXtoJ_4core3fmt5Debug3fmt, symObjAddr: 0xF460, symBinAddr: 0x4C480, symSize: 0x1F0 }
  - { offset: 0xA9FD3, size: 0x8, addend: 0x0, symName: __RNvXs3y_NtNtCsdGrGZaRBwMb_3syn3gen5debugNtNtBa_4item16StaticMutabilityNtNtCsieiGu2EXtoJ_4core3fmt5Debug3fmt, symObjAddr: 0xF650, symBinAddr: 0x4C670, symSize: 0x100 }
  - { offset: 0xAA070, size: 0x8, addend: 0x0, symName: __RNvXs4j_NtNtCsdGrGZaRBwMb_3syn3gen5debugNtNtBa_4item7UseGlobNtNtCsieiGu2EXtoJ_4core3fmt5Debug3fmt, symObjAddr: 0x10B90, symBinAddr: 0x4C7F0, symSize: 0x70 }
  - { offset: 0xAA0D1, size: 0x8, addend: 0x0, symName: __RNvXs4k_NtNtCsdGrGZaRBwMb_3syn3gen5debugNtNtBa_4item8UseGroupNtNtCsieiGu2EXtoJ_4core3fmt5Debug3fmt, symObjAddr: 0x10C00, symBinAddr: 0x4C860, symSize: 0x90 }
  - { offset: 0xAA132, size: 0x8, addend: 0x0, symName: __RNvXs4l_NtNtCsdGrGZaRBwMb_3syn3gen5debugNtNtBa_4item7UseNameNtNtCsieiGu2EXtoJ_4core3fmt5Debug3fmt, symObjAddr: 0x10C90, symBinAddr: 0x4C8F0, symSize: 0x70 }
  - { offset: 0xAA193, size: 0x8, addend: 0x0, symName: __RNvXs4m_NtNtCsdGrGZaRBwMb_3syn3gen5debugNtNtBa_4item7UsePathNtNtCsieiGu2EXtoJ_4core3fmt5Debug3fmt, symObjAddr: 0x10DD0, symBinAddr: 0x4C960, symSize: 0xB0 }
  - { offset: 0xAA1F4, size: 0x8, addend: 0x0, symName: __RNvXs4n_NtNtCsdGrGZaRBwMb_3syn3gen5debugNtNtBa_4item9UseRenameNtNtCsieiGu2EXtoJ_4core3fmt5Debug3fmt, symObjAddr: 0x10E80, symBinAddr: 0x4CA10, symSize: 0xB0 }
  - { offset: 0xAA255, size: 0x8, addend: 0x0, symName: __RNvXs4o_NtNtCsdGrGZaRBwMb_3syn3gen5debugNtNtBa_4item7UseTreeNtNtCsieiGu2EXtoJ_4core3fmt5Debug3fmt, symObjAddr: 0x10F30, symBinAddr: 0x4CAC0, symSize: 0x2E0 }
  - { offset: 0xAA3DF, size: 0x8, addend: 0x0, symName: __RNvXs4p_NtNtCsdGrGZaRBwMb_3syn3gen5debugNtNtBa_4item8VariadicNtNtCsieiGu2EXtoJ_4core3fmt5Debug3fmt, symObjAddr: 0x11210, symBinAddr: 0x4CDA0, symSize: 0xD0 }
  - { offset: 0xAE6C1, size: 0x8, addend: 0x0, symName: __RNvMNtCsieiGu2EXtoJ_4core5sliceSTNtNtCsdGrGZaRBwMb_3syn4item5FnArgNtNtBz_5token5CommaE4iterBz_, symObjAddr: 0x2180, symBinAddr: 0x422D0, symSize: 0x20 }
  - { offset: 0xAE6F8, size: 0x8, addend: 0x0, symName: __RNvMNtCsieiGu2EXtoJ_4core5sliceSTNtNtCsdGrGZaRBwMb_3syn4item7UseTreeNtNtBz_5token5CommaE4iterBz_, symObjAddr: 0x21A0, symBinAddr: 0x422F0, symSize: 0x20 }
  - { offset: 0xAFA10, size: 0x8, addend: 0x0, symName: __RNvXs19_NtCsieiGu2EXtoJ_4core3fmtRNtNtCsdGrGZaRBwMb_3syn4item11ForeignItemNtB6_5Debug3fmtBA_, symObjAddr: 0x57D0, symBinAddr: 0x457F0, symSize: 0x20 }
  - { offset: 0xAFA56, size: 0x8, addend: 0x0, symName: __RNvXs19_NtCsieiGu2EXtoJ_4core3fmtRNtNtCsdGrGZaRBwMb_3syn4item4ItemNtB6_5Debug3fmtBA_, symObjAddr: 0x5810, symBinAddr: 0x45810, symSize: 0x20 }
  - { offset: 0xAFA9C, size: 0x8, addend: 0x0, symName: __RNvXs19_NtCsieiGu2EXtoJ_4core3fmtRNtNtCsdGrGZaRBwMb_3syn4item8ImplItemNtB6_5Debug3fmtBA_, symObjAddr: 0x5830, symBinAddr: 0x45830, symSize: 0x20 }
  - { offset: 0xAFAE2, size: 0x8, addend: 0x0, symName: __RNvXs19_NtCsieiGu2EXtoJ_4core3fmtRNtNtCsdGrGZaRBwMb_3syn4item8VariadicNtB6_5Debug3fmtBA_, symObjAddr: 0x5850, symBinAddr: 0x45850, symSize: 0x20 }
  - { offset: 0xAFB28, size: 0x8, addend: 0x0, symName: __RNvXs19_NtCsieiGu2EXtoJ_4core3fmtRNtNtCsdGrGZaRBwMb_3syn4item9TraitItemNtB6_5Debug3fmtBA_, symObjAddr: 0x5870, symBinAddr: 0x45870, symSize: 0x20 }
  - { offset: 0xAFB74, size: 0x8, addend: 0x0, symName: __RNvXsq_NtCsieiGu2EXtoJ_4core3fmtSNtNtCsdGrGZaRBwMb_3syn4item11ForeignItemNtB5_5Debug3fmtBz_, symObjAddr: 0x218B0, symBinAddr: 0x56E00, symSize: 0x90 }
  - { offset: 0xAFCC1, size: 0x8, addend: 0x0, symName: __RNvXsq_NtCsieiGu2EXtoJ_4core3fmtSNtNtCsdGrGZaRBwMb_3syn4item4ItemNtB5_5Debug3fmtBz_, symObjAddr: 0x21940, symBinAddr: 0x56E90, symSize: 0x90 }
  - { offset: 0xAFE0E, size: 0x8, addend: 0x0, symName: __RNvXsq_NtCsieiGu2EXtoJ_4core3fmtSNtNtCsdGrGZaRBwMb_3syn4item8ImplItemNtB5_5Debug3fmtBz_, symObjAddr: 0x219D0, symBinAddr: 0x56F20, symSize: 0x90 }
  - { offset: 0xAFF5B, size: 0x8, addend: 0x0, symName: __RNvXsq_NtCsieiGu2EXtoJ_4core3fmtSNtNtCsdGrGZaRBwMb_3syn4item9TraitItemNtB5_5Debug3fmtBz_, symObjAddr: 0x21A60, symBinAddr: 0x56FB0, symSize: 0x90 }
  - { offset: 0xB0125, size: 0x8, addend: 0x0, symName: __RNvXNtNtCsieiGu2EXtoJ_4core5clone6uninitNtNtCsdGrGZaRBwMb_3syn4item5FnArgNtB2_8CopySpec9clone_oneBG_, symObjAddr: 0x48E0, symBinAddr: 0x44900, symSize: 0x50 }
  - { offset: 0xB018A, size: 0x8, addend: 0x0, symName: __RNvXNtNtCsieiGu2EXtoJ_4core5clone6uninitNtNtCsdGrGZaRBwMb_3syn4item7UseTreeNtB2_8CopySpec9clone_oneBG_, symObjAddr: 0x4930, symBinAddr: 0x44950, symSize: 0x40 }
  - { offset: 0xB1F0E, size: 0x8, addend: 0x0, symName: __RNvMNtCsdGrGZaRBwMb_3syn4itemNtB2_4Item13replace_attrs, symObjAddr: 0x1EE0, symBinAddr: 0x42030, symSize: 0x2A0 }
  - { offset: 0xB1FC0, size: 0x8, addend: 0x0, symName: __RNvMs1Q_NtNtCsdGrGZaRBwMb_3syn3gen5debugNtNtBa_4item13ForeignItemFn5debug, symObjAddr: 0x21C0, symBinAddr: 0x42310, symSize: 0xE0 }
  - { offset: 0xB202C, size: 0x8, addend: 0x0, symName: __RNvMs1S_NtNtCsdGrGZaRBwMb_3syn3gen5debugNtNtBa_4item16ForeignItemMacro5debug, symObjAddr: 0x22A0, symBinAddr: 0x423F0, symSize: 0xB0 }
  - { offset: 0xB2098, size: 0x8, addend: 0x0, symName: __RNvMs1U_NtNtCsdGrGZaRBwMb_3syn3gen5debugNtNtBa_4item17ForeignItemStatic5debug, symObjAddr: 0x2350, symBinAddr: 0x424A0, symSize: 0x160 }
  - { offset: 0xB2104, size: 0x8, addend: 0x0, symName: __RNvMs1W_NtNtCsdGrGZaRBwMb_3syn3gen5debugNtNtBa_4item15ForeignItemType5debug, symObjAddr: 0x24B0, symBinAddr: 0x42600, symSize: 0x120 }
  - { offset: 0xB2170, size: 0x8, addend: 0x0, symName: __RNvMs22_NtNtCsdGrGZaRBwMb_3syn3gen5debugNtNtBa_4item13ImplItemConst5debug, symObjAddr: 0x25D0, symBinAddr: 0x42720, symSize: 0x1F0 }
  - { offset: 0xB21DC, size: 0x8, addend: 0x0, symName: __RNvMs24_NtNtCsdGrGZaRBwMb_3syn3gen5debugNtNtBa_4item10ImplItemFn5debug, symObjAddr: 0x27C0, symBinAddr: 0x42910, symSize: 0x100 }
  - { offset: 0xB2248, size: 0x8, addend: 0x0, symName: __RNvMs26_NtNtCsdGrGZaRBwMb_3syn3gen5debugNtNtBa_4item13ImplItemMacro5debug, symObjAddr: 0x28C0, symBinAddr: 0x42A10, symSize: 0xB0 }
  - { offset: 0xB22B4, size: 0x8, addend: 0x0, symName: __RNvMs28_NtNtCsdGrGZaRBwMb_3syn3gen5debugNtNtBa_4item12ImplItemType5debug, symObjAddr: 0x2970, symBinAddr: 0x42AC0, symSize: 0x1A0 }
  - { offset: 0xB2320, size: 0x8, addend: 0x0, symName: __RNvMs2B_NtNtCsdGrGZaRBwMb_3syn3gen5debugNtNtBa_4item8ItemType5debug, symObjAddr: 0x2B10, symBinAddr: 0x42C60, symSize: 0x170 }
  - { offset: 0xB238C, size: 0x8, addend: 0x0, symName: __RNvMs2D_NtNtCsdGrGZaRBwMb_3syn3gen5debugNtNtBa_4item9ItemUnion5debug, symObjAddr: 0x2C80, symBinAddr: 0x42DD0, symSize: 0x120 }
  - { offset: 0xB23F8, size: 0x8, addend: 0x0, symName: __RNvMs2F_NtNtCsdGrGZaRBwMb_3syn3gen5debugNtNtBa_4item7ItemUse5debug, symObjAddr: 0x2DA0, symBinAddr: 0x42EF0, symSize: 0x120 }
  - { offset: 0xB2464, size: 0x8, addend: 0x0, symName: __RNvMs2d_NtNtCsdGrGZaRBwMb_3syn3gen5debugNtNtBa_4item9ItemConst5debug, symObjAddr: 0x2EC0, symBinAddr: 0x43010, symSize: 0x1C0 }
  - { offset: 0xB24D0, size: 0x8, addend: 0x0, symName: __RNvMs2f_NtNtCsdGrGZaRBwMb_3syn3gen5debugNtNtBa_4item8ItemEnum5debug, symObjAddr: 0x3080, symBinAddr: 0x431D0, symSize: 0x150 }
  - { offset: 0xB253C, size: 0x8, addend: 0x0, symName: __RNvMs2h_NtNtCsdGrGZaRBwMb_3syn3gen5debugNtNtBa_4item15ItemExternCrate5debug, symObjAddr: 0x31D0, symBinAddr: 0x43320, symSize: 0x140 }
  - { offset: 0xB25A8, size: 0x8, addend: 0x0, symName: __RNvMs2j_NtNtCsdGrGZaRBwMb_3syn3gen5debugNtNtBa_4item6ItemFn5debug, symObjAddr: 0x3310, symBinAddr: 0x43460, symSize: 0xE0 }
  - { offset: 0xB2614, size: 0x8, addend: 0x0, symName: __RNvMs2l_NtNtCsdGrGZaRBwMb_3syn3gen5debugNtNtBa_4item14ItemForeignMod5debug, symObjAddr: 0x33F0, symBinAddr: 0x43540, symSize: 0xF0 }
  - { offset: 0xB2680, size: 0x8, addend: 0x0, symName: __RNvMs2n_NtNtCsdGrGZaRBwMb_3syn3gen5debugNtNtBa_4item8ItemImpl5debug, symObjAddr: 0x34E0, symBinAddr: 0x43630, symSize: 0x190 }
  - { offset: 0xB26EC, size: 0x8, addend: 0x0, symName: __RNvMs2p_NtNtCsdGrGZaRBwMb_3syn3gen5debugNtNtBa_4item9ItemMacro5debug, symObjAddr: 0x3670, symBinAddr: 0x437C0, symSize: 0xD0 }
  - { offset: 0xB2758, size: 0x8, addend: 0x0, symName: __RNvMs2r_NtNtCsdGrGZaRBwMb_3syn3gen5debugNtNtBa_4item7ItemMod5debug, symObjAddr: 0x3740, symBinAddr: 0x43890, symSize: 0x140 }
  - { offset: 0xB27C4, size: 0x8, addend: 0x0, symName: __RNvMs2t_NtNtCsdGrGZaRBwMb_3syn3gen5debugNtNtBa_4item10ItemStatic5debug, symObjAddr: 0x3880, symBinAddr: 0x439D0, symSize: 0x1B0 }
  - { offset: 0xB2830, size: 0x8, addend: 0x0, symName: __RNvMs2v_NtNtCsdGrGZaRBwMb_3syn3gen5debugNtNtBa_4item10ItemStruct5debug, symObjAddr: 0x3A30, symBinAddr: 0x43B80, symSize: 0x150 }
  - { offset: 0xB289C, size: 0x8, addend: 0x0, symName: __RNvMs2x_NtNtCsdGrGZaRBwMb_3syn3gen5debugNtNtBa_4item9ItemTrait5debug, symObjAddr: 0x3B80, symBinAddr: 0x43CD0, symSize: 0x210 }
  - { offset: 0xB2908, size: 0x8, addend: 0x0, symName: __RNvMs2z_NtNtCsdGrGZaRBwMb_3syn3gen5debugNtNtBa_4item14ItemTraitAlias5debug, symObjAddr: 0x3D90, symBinAddr: 0x43EE0, symSize: 0x170 }
  - { offset: 0xB2974, size: 0x8, addend: 0x0, symName: __RNvMs3G_NtNtCsdGrGZaRBwMb_3syn3gen5debugNtNtBa_4item14TraitItemConst5debug, symObjAddr: 0x3F00, symBinAddr: 0x44050, symSize: 0x170 }
  - { offset: 0xB29E0, size: 0x8, addend: 0x0, symName: __RNvMs3I_NtNtCsdGrGZaRBwMb_3syn3gen5debugNtNtBa_4item11TraitItemFn5debug, symObjAddr: 0x4070, symBinAddr: 0x441C0, symSize: 0xE0 }
  - { offset: 0xB2A4C, size: 0x8, addend: 0x0, symName: __RNvMs3K_NtNtCsdGrGZaRBwMb_3syn3gen5debugNtNtBa_4item14TraitItemMacro5debug, symObjAddr: 0x4150, symBinAddr: 0x442A0, symSize: 0xB0 }
  - { offset: 0xB2AB8, size: 0x8, addend: 0x0, symName: __RNvMs3M_NtNtCsdGrGZaRBwMb_3syn3gen5debugNtNtBa_4item13TraitItemType5debug, symObjAddr: 0x4200, symBinAddr: 0x44350, symSize: 0x170 }
  - { offset: 0xB2B4D, size: 0x8, addend: 0x0, symName: __RNvXNtCs9OU1sGv5X54_5quote9to_tokensRNtNtCsdGrGZaRBwMb_3syn4item11ForeignItemNtB2_8ToTokens9to_tokensBD_, symObjAddr: 0x44A0, symBinAddr: 0x444C0, symSize: 0x30 }
  - { offset: 0xB2B8C, size: 0x8, addend: 0x0, symName: __RNvXNtCs9OU1sGv5X54_5quote9to_tokensRNtNtCsdGrGZaRBwMb_3syn4item4ItemNtB2_8ToTokens9to_tokensBD_, symObjAddr: 0x44D0, symBinAddr: 0x444F0, symSize: 0x30 }
  - { offset: 0xB2BCB, size: 0x8, addend: 0x0, symName: __RNvXNtCs9OU1sGv5X54_5quote9to_tokensRNtNtCsdGrGZaRBwMb_3syn4item5FnArgNtB2_8ToTokens9to_tokensBD_, symObjAddr: 0x4500, symBinAddr: 0x44520, symSize: 0x30 }
  - { offset: 0xB2C0A, size: 0x8, addend: 0x0, symName: __RNvXNtCs9OU1sGv5X54_5quote9to_tokensRNtNtCsdGrGZaRBwMb_3syn4item7UseTreeNtB2_8ToTokens9to_tokensBD_, symObjAddr: 0x4530, symBinAddr: 0x44550, symSize: 0x30 }
  - { offset: 0xB2C49, size: 0x8, addend: 0x0, symName: __RNvXNtCs9OU1sGv5X54_5quote9to_tokensRNtNtCsdGrGZaRBwMb_3syn4item8ImplItemNtB2_8ToTokens9to_tokensBD_, symObjAddr: 0x4560, symBinAddr: 0x44580, symSize: 0x30 }
  - { offset: 0xB2C88, size: 0x8, addend: 0x0, symName: __RNvXNtCs9OU1sGv5X54_5quote9to_tokensRNtNtCsdGrGZaRBwMb_3syn4item9TraitItemNtB2_8ToTokens9to_tokensBD_, symObjAddr: 0x4590, symBinAddr: 0x445B0, symSize: 0x30 }
  - { offset: 0xB32FE, size: 0x8, addend: 0x0, symName: __RINvMs_NtCslJiobkLta79_5alloc3vecINtB5_3VecReE10retain_mutNCNvMNtCsdGrGZaRBwMb_3syn9lookaheadNtBZ_10Lookahead15error0EB11_, symObjAddr: 0x0, symBinAddr: 0x59F80, symSize: 0x160 }
  - { offset: 0xBD12F, size: 0x8, addend: 0x0, symName: __RNvXs19_NtCsieiGu2EXtoJ_4core3fmtRINtNtCslJiobkLta79_5alloc3vec3VecNtNtCsdGrGZaRBwMb_3syn4item4ItemENtB6_5Debug3fmtB17_, symObjAddr: 0x7560, symBinAddr: 0x5F970, symSize: 0x20 }
  - { offset: 0xBD2BA, size: 0x8, addend: 0x0, symName: __RNvXs1_NtCsieiGu2EXtoJ_4core7convertINtNtCslJiobkLta79_5alloc3vec3VechEINtB5_4IntoBy_E4intoCsdGrGZaRBwMb_3syn, symObjAddr: 0x7580, symBinAddr: 0x5F990, symSize: 0x20 }
  - { offset: 0xBD551, size: 0x8, addend: 0x0, symName: __RINvNvMs_NtCslJiobkLta79_5alloc3vecINtB7_3VecppE10retain_mut12process_loopNCNvMNtCsdGrGZaRBwMb_3syn9lookaheadNtB1f_10Lookahead15error0ReNtNtB9_5alloc6GlobalKb0_EB1h_, symObjAddr: 0x160, symBinAddr: 0x5A0E0, symSize: 0xB0 }
  - { offset: 0xBD6A5, size: 0x8, addend: 0x0, symName: __RINvNvMs_NtCslJiobkLta79_5alloc3vecINtB7_3VecppE10retain_mut12process_loopNCNvMNtCsdGrGZaRBwMb_3syn9lookaheadNtB1f_10Lookahead15error0ReNtNtB9_5alloc6GlobalKb1_EB1h_, symObjAddr: 0x210, symBinAddr: 0x5A190, symSize: 0x130 }
  - { offset: 0xBD89B, size: 0x8, addend: 0x0, symName: __RNvXNvMs_NtCslJiobkLta79_5alloc3vecINtB7_3VecppE10retain_mutINtB2_15BackshiftOnDropReNtNtB9_5alloc6GlobalENtNtNtCsieiGu2EXtoJ_4core3ops4drop4Drop4dropCsdGrGZaRBwMb_3syn, symObjAddr: 0x6EE0, symBinAddr: 0x5F550, symSize: 0x190 }
  - { offset: 0xBDAE1, size: 0x8, addend: 0x0, symName: __RNvNvMs_NtCslJiobkLta79_5alloc3vecINtB6_3VecppE17from_raw_parts_in18precondition_checkCsdGrGZaRBwMb_3syn, symObjAddr: 0x5950, symBinAddr: 0x5F410, symSize: 0xA0 }
  - { offset: 0xBDB4F, size: 0x8, addend: 0x0, symName: __RNvNvMs_NtCslJiobkLta79_5alloc3vecINtB6_3VecppE7set_len18precondition_checkCsdGrGZaRBwMb_3syn, symObjAddr: 0x59F0, symBinAddr: 0x5F4B0, symSize: 0xA0 }
  - { offset: 0xBDF56, size: 0x8, addend: 0x0, symName: __RINvXsh_NtCslJiobkLta79_5alloc3vecINtB6_3VecNtNtCsdGrGZaRBwMb_3syn4attr9AttributeEINtNtNtNtCsieiGu2EXtoJ_4core4iter6traits7collect6ExtendBG_E6extendBw_EBK_, symObjAddr: 0x340, symBinAddr: 0x5A2C0, symSize: 0x40 }
  - { offset: 0xC1286, size: 0x8, addend: 0x0, symName: __RNvXs6_NtCslJiobkLta79_5alloc3vecINtB5_3VecNtNtCsdGrGZaRBwMb_3syn4attr9AttributeENtNtNtCsieiGu2EXtoJ_4core3ops5deref5Deref5derefBJ_, symObjAddr: 0x7600, symBinAddr: 0x5F9B0, symSize: 0x20 }
  - { offset: 0xC12C6, size: 0x8, addend: 0x0, symName: __RNvXs6_NtCslJiobkLta79_5alloc3vecINtB5_3VecNtNtCsdGrGZaRBwMb_3syn4expr3ArmENtNtNtCsieiGu2EXtoJ_4core3ops5deref5Deref5derefBJ_, symObjAddr: 0x7620, symBinAddr: 0x5F9D0, symSize: 0x20 }
  - { offset: 0xC1306, size: 0x8, addend: 0x0, symName: __RNvXs6_NtCslJiobkLta79_5alloc3vecINtB5_3VecReENtNtNtCsieiGu2EXtoJ_4core3ops5deref5Deref5derefCsdGrGZaRBwMb_3syn, symObjAddr: 0x7660, symBinAddr: 0x5F9F0, symSize: 0x20 }
  - { offset: 0xC1346, size: 0x8, addend: 0x0, symName: __RNvXs6_NtCslJiobkLta79_5alloc3vecINtB5_3VecTNtNtCsdGrGZaRBwMb_3syn2ty4TypeNtNtBK_5token5CommaEENtNtNtCsieiGu2EXtoJ_4core3ops5deref5Deref5derefBK_, symObjAddr: 0x7680, symBinAddr: 0x5FA10, symSize: 0x20 }
  - { offset: 0xC1386, size: 0x8, addend: 0x0, symName: __RNvXs6_NtCslJiobkLta79_5alloc3vecINtB5_3VecTNtNtCsdGrGZaRBwMb_3syn2ty9BareFnArgNtNtBK_5token5CommaEENtNtNtCsieiGu2EXtoJ_4core3ops5deref5Deref5derefBK_, symObjAddr: 0x76A0, symBinAddr: 0x5FA30, symSize: 0x20 }
  - { offset: 0xC13C6, size: 0x8, addend: 0x0, symName: __RNvXs6_NtCslJiobkLta79_5alloc3vecINtB5_3VecTNtNtCsdGrGZaRBwMb_3syn3pat3PatNtNtBK_5token2OrEENtNtNtCsieiGu2EXtoJ_4core3ops5deref5Deref5derefBK_, symObjAddr: 0x76C0, symBinAddr: 0x5FA50, symSize: 0x20 }
  - { offset: 0xC1406, size: 0x8, addend: 0x0, symName: __RNvXs6_NtCslJiobkLta79_5alloc3vecINtB5_3VecTNtNtCsdGrGZaRBwMb_3syn3pat3PatNtNtBK_5token5CommaEENtNtNtCsieiGu2EXtoJ_4core3ops5deref5Deref5derefBK_, symObjAddr: 0x76E0, symBinAddr: 0x5FA70, symSize: 0x20 }
  - { offset: 0xC1446, size: 0x8, addend: 0x0, symName: __RNvXs6_NtCslJiobkLta79_5alloc3vecINtB5_3VecTNtNtCsdGrGZaRBwMb_3syn3pat8FieldPatNtNtBK_5token5CommaEENtNtNtCsieiGu2EXtoJ_4core3ops5deref5Deref5derefBK_, symObjAddr: 0x7700, symBinAddr: 0x5FA90, symSize: 0x20 }
  - { offset: 0xC1486, size: 0x8, addend: 0x0, symName: __RNvXs6_NtCslJiobkLta79_5alloc3vecINtB5_3VecTNtNtCsdGrGZaRBwMb_3syn4data5FieldNtNtBK_5token5CommaEENtNtNtCsieiGu2EXtoJ_4core3ops5deref5Deref5derefBK_, symObjAddr: 0x7720, symBinAddr: 0x5FAB0, symSize: 0x20 }
  - { offset: 0xC14C6, size: 0x8, addend: 0x0, symName: __RNvXs6_NtCslJiobkLta79_5alloc3vecINtB5_3VecTNtNtCsdGrGZaRBwMb_3syn4data7VariantNtNtBK_5token5CommaEENtNtNtCsieiGu2EXtoJ_4core3ops5deref5Deref5derefBK_, symObjAddr: 0x7740, symBinAddr: 0x5FAD0, symSize: 0x20 }
  - { offset: 0xC1506, size: 0x8, addend: 0x0, symName: __RNvXs6_NtCslJiobkLta79_5alloc3vecINtB5_3VecTNtNtCsdGrGZaRBwMb_3syn4expr10FieldValueNtNtBK_5token5CommaEENtNtNtCsieiGu2EXtoJ_4core3ops5deref5Deref5derefBK_, symObjAddr: 0x7760, symBinAddr: 0x5FAF0, symSize: 0x20 }
  - { offset: 0xC1546, size: 0x8, addend: 0x0, symName: __RNvXs6_NtCslJiobkLta79_5alloc3vecINtB5_3VecTNtNtCsdGrGZaRBwMb_3syn4expr4ExprNtNtBK_5token5CommaEENtNtNtCsieiGu2EXtoJ_4core3ops5deref5Deref5derefBK_, symObjAddr: 0x7780, symBinAddr: 0x5FB10, symSize: 0x20 }
  - { offset: 0xC1586, size: 0x8, addend: 0x0, symName: __RNvXs6_NtCslJiobkLta79_5alloc3vecINtB5_3VecTNtNtCsdGrGZaRBwMb_3syn4item5FnArgNtNtBK_5token5CommaEENtNtNtCsieiGu2EXtoJ_4core3ops5deref5Deref5derefBK_, symObjAddr: 0x77A0, symBinAddr: 0x5FB30, symSize: 0x20 }
  - { offset: 0xC15C6, size: 0x8, addend: 0x0, symName: __RNvXs6_NtCslJiobkLta79_5alloc3vecINtB5_3VecTNtNtCsdGrGZaRBwMb_3syn4item7UseTreeNtNtBK_5token5CommaEENtNtNtCsieiGu2EXtoJ_4core3ops5deref5Deref5derefBK_, symObjAddr: 0x77C0, symBinAddr: 0x5FB50, symSize: 0x20 }
  - { offset: 0xC1606, size: 0x8, addend: 0x0, symName: __RNvXs6_NtCslJiobkLta79_5alloc3vecINtB5_3VecTNtNtCsdGrGZaRBwMb_3syn4path11PathSegmentNtNtBK_5token7PathSepEENtNtNtCsieiGu2EXtoJ_4core3ops5deref5Deref5derefBK_, symObjAddr: 0x77E0, symBinAddr: 0x5FB70, symSize: 0x20 }
  - { offset: 0xC1646, size: 0x8, addend: 0x0, symName: __RNvXs6_NtCslJiobkLta79_5alloc3vecINtB5_3VecTNtNtCsdGrGZaRBwMb_3syn4path15GenericArgumentNtNtBK_5token5CommaEENtNtNtCsieiGu2EXtoJ_4core3ops5deref5Deref5derefBK_, symObjAddr: 0x7800, symBinAddr: 0x5FB90, symSize: 0x20 }
  - { offset: 0xC1686, size: 0x8, addend: 0x0, symName: __RNvXs6_NtCslJiobkLta79_5alloc3vecINtB5_3VecTNtNtCsdGrGZaRBwMb_3syn8generics12GenericParamNtNtBK_5token5CommaEENtNtNtCsieiGu2EXtoJ_4core3ops5deref5Deref5derefBK_, symObjAddr: 0x7820, symBinAddr: 0x5FBB0, symSize: 0x20 }
  - { offset: 0xC16C6, size: 0x8, addend: 0x0, symName: __RNvXs6_NtCslJiobkLta79_5alloc3vecINtB5_3VecTNtNtCsdGrGZaRBwMb_3syn8generics13CapturedParamNtNtBK_5token5CommaEENtNtNtCsieiGu2EXtoJ_4core3ops5deref5Deref5derefBK_, symObjAddr: 0x7840, symBinAddr: 0x5FBD0, symSize: 0x20 }
  - { offset: 0xC1706, size: 0x8, addend: 0x0, symName: __RNvXs6_NtCslJiobkLta79_5alloc3vecINtB5_3VecTNtNtCsdGrGZaRBwMb_3syn8generics14TypeParamBoundNtNtBK_5token4PlusEENtNtNtCsieiGu2EXtoJ_4core3ops5deref5Deref5derefBK_, symObjAddr: 0x7860, symBinAddr: 0x5FBF0, symSize: 0x20 }
  - { offset: 0xC1746, size: 0x8, addend: 0x0, symName: __RNvXs6_NtCslJiobkLta79_5alloc3vecINtB5_3VecTNtNtCsdGrGZaRBwMb_3syn8generics14WherePredicateNtNtBK_5token5CommaEENtNtNtCsieiGu2EXtoJ_4core3ops5deref5Deref5derefBK_, symObjAddr: 0x7880, symBinAddr: 0x5FC10, symSize: 0x20 }
  - { offset: 0xC1786, size: 0x8, addend: 0x0, symName: __RNvXs6_NtCslJiobkLta79_5alloc3vecINtB5_3VecTNtNtCsdGrGZaRBwMb_3syn8lifetime8LifetimeNtNtBK_5token4PlusEENtNtNtCsieiGu2EXtoJ_4core3ops5deref5Deref5derefBK_, symObjAddr: 0x78A0, symBinAddr: 0x5FC30, symSize: 0x20 }
  - { offset: 0xC17C6, size: 0x8, addend: 0x0, symName: __RNvXs6_NtCslJiobkLta79_5alloc3vecINtB5_3VechENtNtNtCsieiGu2EXtoJ_4core3ops5deref5Deref5derefCsdGrGZaRBwMb_3syn, symObjAddr: 0x78C0, symBinAddr: 0x5FC50, symSize: 0x20 }
  - { offset: 0xC243C, size: 0x8, addend: 0x0, symName: __RNvXsb_NtCslJiobkLta79_5alloc3vecINtB5_3VecNtNtCsdGrGZaRBwMb_3syn5error12ErrorMessageEINtNtNtCsieiGu2EXtoJ_4core3ops5index5IndexjE5indexBJ_, symObjAddr: 0x8800, symBinAddr: 0x60AE0, symSize: 0x80 }
  - { offset: 0xC25BE, size: 0x8, addend: 0x0, symName: __RNvXsb_NtCslJiobkLta79_5alloc3vecINtB5_3VecReEINtNtNtCsieiGu2EXtoJ_4core3ops5index5IndexjE5indexCsdGrGZaRBwMb_3syn, symObjAddr: 0x8880, symBinAddr: 0x60B60, symSize: 0x80 }
  - { offset: 0xC2740, size: 0x8, addend: 0x0, symName: __RNvXsb_NtCslJiobkLta79_5alloc3vecINtB5_3VecTNtNtCsdGrGZaRBwMb_3syn3pat3PatNtNtBK_5token5CommaEEINtNtNtCsieiGu2EXtoJ_4core3ops5index5IndexjE5indexBK_, symObjAddr: 0x8900, symBinAddr: 0x60BE0, symSize: 0x80 }
  - { offset: 0xC28C2, size: 0x8, addend: 0x0, symName: __RNvXsb_NtCslJiobkLta79_5alloc3vecINtB5_3VecTNtNtCsdGrGZaRBwMb_3syn4path11PathSegmentNtNtBK_5token7PathSepEEINtNtNtCsieiGu2EXtoJ_4core3ops5index5IndexjE5indexBK_, symObjAddr: 0x8980, symBinAddr: 0x60C60, symSize: 0x80 }
  - { offset: 0xC2A44, size: 0x8, addend: 0x0, symName: __RNvXsb_NtCslJiobkLta79_5alloc3vecINtB5_3VechEINtNtNtCsieiGu2EXtoJ_4core3ops5index5IndexINtNtBM_5range9RangeFromjEE5indexCsdGrGZaRBwMb_3syn, symObjAddr: 0x8A00, symBinAddr: 0x60CE0, symSize: 0x70 }
  - { offset: 0xC2BC6, size: 0x8, addend: 0x0, symName: __RNvXsb_NtCslJiobkLta79_5alloc3vecINtB5_3VechEINtNtNtCsieiGu2EXtoJ_4core3ops5index5IndexjE5indexCsdGrGZaRBwMb_3syn, symObjAddr: 0x8A70, symBinAddr: 0x60D50, symSize: 0x70 }
  - { offset: 0xC2F08, size: 0x8, addend: 0x0, symName: __RNvXs0_NtNtCslJiobkLta79_5alloc3vec11spec_extendINtB7_3VecNtNtCsdGrGZaRBwMb_3syn4attr9AttributeEINtB5_10SpecExtendBU_INtNtB7_9into_iter8IntoIterBU_EE11spec_extendBY_, symObjAddr: 0x7440, symBinAddr: 0x5F8E0, symSize: 0x90 }
  - { offset: 0xC2F75, size: 0x8, addend: 0x0, symName: __RNvXs7_NtCslJiobkLta79_5alloc3vecINtB5_3VecTNtNtCsdGrGZaRBwMb_3syn4data5FieldNtNtBK_5token5CommaEENtNtNtCsieiGu2EXtoJ_4core3ops5deref8DerefMut9deref_mutBK_, symObjAddr: 0x78E0, symBinAddr: 0x5FC70, symSize: 0x20 }
  - { offset: 0xC2FB5, size: 0x8, addend: 0x0, symName: __RNvXs7_NtCslJiobkLta79_5alloc3vecINtB5_3VecTNtNtCsdGrGZaRBwMb_3syn4path11PathSegmentNtNtBK_5token7PathSepEENtNtNtCsieiGu2EXtoJ_4core3ops5deref8DerefMut9deref_mutBK_, symObjAddr: 0x7900, symBinAddr: 0x5FC90, symSize: 0x20 }
  - { offset: 0xC308B, size: 0x8, addend: 0x0, symName: __RNvXs9_NtCslJiobkLta79_5alloc3vecINtB5_3VecNtNtCsdGrGZaRBwMb_3syn4attr9AttributeENtNtCsieiGu2EXtoJ_4core5clone5Clone5cloneBJ_, symObjAddr: 0x7940, symBinAddr: 0x5FCB0, symSize: 0x90 }
  - { offset: 0xC325C, size: 0x8, addend: 0x0, symName: __RNvXs9_NtCslJiobkLta79_5alloc3vecINtB5_3VecNtNtCsdGrGZaRBwMb_3syn4expr3ArmENtNtCsieiGu2EXtoJ_4core5clone5Clone5cloneBJ_, symObjAddr: 0x79D0, symBinAddr: 0x5FD40, symSize: 0x90 }
  - { offset: 0xC342D, size: 0x8, addend: 0x0, symName: __RNvXs9_NtCslJiobkLta79_5alloc3vecINtB5_3VecNtNtCsdGrGZaRBwMb_3syn4item11ForeignItemENtNtCsieiGu2EXtoJ_4core5clone5Clone5cloneBJ_, symObjAddr: 0x7A60, symBinAddr: 0x5FDD0, symSize: 0x90 }
  - { offset: 0xC35FE, size: 0x8, addend: 0x0, symName: __RNvXs9_NtCslJiobkLta79_5alloc3vecINtB5_3VecNtNtCsdGrGZaRBwMb_3syn4item4ItemENtNtCsieiGu2EXtoJ_4core5clone5Clone5cloneBJ_, symObjAddr: 0x7AF0, symBinAddr: 0x5FE60, symSize: 0x90 }
  - { offset: 0xC37CF, size: 0x8, addend: 0x0, symName: __RNvXs9_NtCslJiobkLta79_5alloc3vecINtB5_3VecNtNtCsdGrGZaRBwMb_3syn4item8ImplItemENtNtCsieiGu2EXtoJ_4core5clone5Clone5cloneBJ_, symObjAddr: 0x7B80, symBinAddr: 0x5FEF0, symSize: 0x90 }
  - { offset: 0xC39A0, size: 0x8, addend: 0x0, symName: __RNvXs9_NtCslJiobkLta79_5alloc3vecINtB5_3VecNtNtCsdGrGZaRBwMb_3syn4item9TraitItemENtNtCsieiGu2EXtoJ_4core5clone5Clone5cloneBJ_, symObjAddr: 0x7C10, symBinAddr: 0x5FF80, symSize: 0x90 }
  - { offset: 0xC3B71, size: 0x8, addend: 0x0, symName: __RNvXs9_NtCslJiobkLta79_5alloc3vecINtB5_3VecNtNtCsdGrGZaRBwMb_3syn4stmt4StmtENtNtCsieiGu2EXtoJ_4core5clone5Clone5cloneBJ_, symObjAddr: 0x7CA0, symBinAddr: 0x60010, symSize: 0x90 }
  - { offset: 0xC3D42, size: 0x8, addend: 0x0, symName: __RNvXs9_NtCslJiobkLta79_5alloc3vecINtB5_3VecTNtNtCsdGrGZaRBwMb_3syn2ty4TypeNtNtBK_5token5CommaEENtNtCsieiGu2EXtoJ_4core5clone5Clone5cloneBK_, symObjAddr: 0x7DC0, symBinAddr: 0x600A0, symSize: 0x90 }
  - { offset: 0xC3F13, size: 0x8, addend: 0x0, symName: __RNvXs9_NtCslJiobkLta79_5alloc3vecINtB5_3VecTNtNtCsdGrGZaRBwMb_3syn2ty9BareFnArgNtNtBK_5token5CommaEENtNtCsieiGu2EXtoJ_4core5clone5Clone5cloneBK_, symObjAddr: 0x7E50, symBinAddr: 0x60130, symSize: 0x90 }
  - { offset: 0xC40E4, size: 0x8, addend: 0x0, symName: __RNvXs9_NtCslJiobkLta79_5alloc3vecINtB5_3VecTNtNtCsdGrGZaRBwMb_3syn3pat3PatNtNtBK_5token2OrEENtNtCsieiGu2EXtoJ_4core5clone5Clone5cloneBK_, symObjAddr: 0x7EE0, symBinAddr: 0x601C0, symSize: 0x90 }
  - { offset: 0xC42B5, size: 0x8, addend: 0x0, symName: __RNvXs9_NtCslJiobkLta79_5alloc3vecINtB5_3VecTNtNtCsdGrGZaRBwMb_3syn3pat3PatNtNtBK_5token5CommaEENtNtCsieiGu2EXtoJ_4core5clone5Clone5cloneBK_, symObjAddr: 0x7F70, symBinAddr: 0x60250, symSize: 0x90 }
  - { offset: 0xC4486, size: 0x8, addend: 0x0, symName: __RNvXs9_NtCslJiobkLta79_5alloc3vecINtB5_3VecTNtNtCsdGrGZaRBwMb_3syn3pat8FieldPatNtNtBK_5token5CommaEENtNtCsieiGu2EXtoJ_4core5clone5Clone5cloneBK_, symObjAddr: 0x8000, symBinAddr: 0x602E0, symSize: 0x90 }
  - { offset: 0xC4657, size: 0x8, addend: 0x0, symName: __RNvXs9_NtCslJiobkLta79_5alloc3vecINtB5_3VecTNtNtCsdGrGZaRBwMb_3syn4data5FieldNtNtBK_5token5CommaEENtNtCsieiGu2EXtoJ_4core5clone5Clone5cloneBK_, symObjAddr: 0x8090, symBinAddr: 0x60370, symSize: 0x90 }
  - { offset: 0xC4828, size: 0x8, addend: 0x0, symName: __RNvXs9_NtCslJiobkLta79_5alloc3vecINtB5_3VecTNtNtCsdGrGZaRBwMb_3syn4data7VariantNtNtBK_5token5CommaEENtNtCsieiGu2EXtoJ_4core5clone5Clone5cloneBK_, symObjAddr: 0x8120, symBinAddr: 0x60400, symSize: 0x90 }
  - { offset: 0xC49F9, size: 0x8, addend: 0x0, symName: __RNvXs9_NtCslJiobkLta79_5alloc3vecINtB5_3VecTNtNtCsdGrGZaRBwMb_3syn4expr10FieldValueNtNtBK_5token5CommaEENtNtCsieiGu2EXtoJ_4core5clone5Clone5cloneBK_, symObjAddr: 0x81B0, symBinAddr: 0x60490, symSize: 0x90 }
  - { offset: 0xC4BCA, size: 0x8, addend: 0x0, symName: __RNvXs9_NtCslJiobkLta79_5alloc3vecINtB5_3VecTNtNtCsdGrGZaRBwMb_3syn4expr4ExprNtNtBK_5token5CommaEENtNtCsieiGu2EXtoJ_4core5clone5Clone5cloneBK_, symObjAddr: 0x8240, symBinAddr: 0x60520, symSize: 0x90 }
  - { offset: 0xC4D9B, size: 0x8, addend: 0x0, symName: __RNvXs9_NtCslJiobkLta79_5alloc3vecINtB5_3VecTNtNtCsdGrGZaRBwMb_3syn4item5FnArgNtNtBK_5token5CommaEENtNtCsieiGu2EXtoJ_4core5clone5Clone5cloneBK_, symObjAddr: 0x82D0, symBinAddr: 0x605B0, symSize: 0x90 }
  - { offset: 0xC4F6C, size: 0x8, addend: 0x0, symName: __RNvXs9_NtCslJiobkLta79_5alloc3vecINtB5_3VecTNtNtCsdGrGZaRBwMb_3syn4item7UseTreeNtNtBK_5token5CommaEENtNtCsieiGu2EXtoJ_4core5clone5Clone5cloneBK_, symObjAddr: 0x8360, symBinAddr: 0x60640, symSize: 0x90 }
  - { offset: 0xC513D, size: 0x8, addend: 0x0, symName: __RNvXs9_NtCslJiobkLta79_5alloc3vecINtB5_3VecTNtNtCsdGrGZaRBwMb_3syn4path11PathSegmentNtNtBK_5token7PathSepEENtNtCsieiGu2EXtoJ_4core5clone5Clone5cloneBK_, symObjAddr: 0x83F0, symBinAddr: 0x606D0, symSize: 0x90 }
  - { offset: 0xC530E, size: 0x8, addend: 0x0, symName: __RNvXs9_NtCslJiobkLta79_5alloc3vecINtB5_3VecTNtNtCsdGrGZaRBwMb_3syn4path15GenericArgumentNtNtBK_5token5CommaEENtNtCsieiGu2EXtoJ_4core5clone5Clone5cloneBK_, symObjAddr: 0x8480, symBinAddr: 0x60760, symSize: 0x90 }
  - { offset: 0xC54DF, size: 0x8, addend: 0x0, symName: __RNvXs9_NtCslJiobkLta79_5alloc3vecINtB5_3VecTNtNtCsdGrGZaRBwMb_3syn8generics12GenericParamNtNtBK_5token5CommaEENtNtCsieiGu2EXtoJ_4core5clone5Clone5cloneBK_, symObjAddr: 0x8510, symBinAddr: 0x607F0, symSize: 0x90 }
  - { offset: 0xC56B0, size: 0x8, addend: 0x0, symName: __RNvXs9_NtCslJiobkLta79_5alloc3vecINtB5_3VecTNtNtCsdGrGZaRBwMb_3syn8generics13CapturedParamNtNtBK_5token5CommaEENtNtCsieiGu2EXtoJ_4core5clone5Clone5cloneBK_, symObjAddr: 0x85A0, symBinAddr: 0x60880, symSize: 0x90 }
  - { offset: 0xC5881, size: 0x8, addend: 0x0, symName: __RNvXs9_NtCslJiobkLta79_5alloc3vecINtB5_3VecTNtNtCsdGrGZaRBwMb_3syn8generics14TypeParamBoundNtNtBK_5token4PlusEENtNtCsieiGu2EXtoJ_4core5clone5Clone5cloneBK_, symObjAddr: 0x8630, symBinAddr: 0x60910, symSize: 0x90 }
  - { offset: 0xC5A52, size: 0x8, addend: 0x0, symName: __RNvXs9_NtCslJiobkLta79_5alloc3vecINtB5_3VecTNtNtCsdGrGZaRBwMb_3syn8generics14WherePredicateNtNtBK_5token5CommaEENtNtCsieiGu2EXtoJ_4core5clone5Clone5cloneBK_, symObjAddr: 0x86C0, symBinAddr: 0x609A0, symSize: 0x90 }
  - { offset: 0xC5C23, size: 0x8, addend: 0x0, symName: __RNvXs9_NtCslJiobkLta79_5alloc3vecINtB5_3VecTNtNtCsdGrGZaRBwMb_3syn8lifetime8LifetimeNtNtBK_5token4PlusEENtNtCsieiGu2EXtoJ_4core5clone5Clone5cloneBK_, symObjAddr: 0x8750, symBinAddr: 0x60A30, symSize: 0x90 }
  - { offset: 0xC5DFA, size: 0x8, addend: 0x0, symName: __RNvXsc_NtCslJiobkLta79_5alloc3vecINtB5_3VecNtNtCsdGrGZaRBwMb_3syn6buffer5EntryEINtNtNtCsieiGu2EXtoJ_4core3ops5index8IndexMutjE9index_mutBJ_, symObjAddr: 0x8AE0, symBinAddr: 0x60DC0, symSize: 0x80 }
  - { offset: 0xC5F4E, size: 0x8, addend: 0x0, symName: __RNvXsc_NtCslJiobkLta79_5alloc3vecINtB5_3VechEINtNtNtCsieiGu2EXtoJ_4core3ops5index8IndexMutjE9index_mutCsdGrGZaRBwMb_3syn, symObjAddr: 0x8B60, symBinAddr: 0x60E40, symSize: 0x70 }
  - { offset: 0xC60A8, size: 0x8, addend: 0x0, symName: __RNvXse_NtCslJiobkLta79_5alloc3vecINtB5_3VecNtNtCsdGrGZaRBwMb_3syn4attr9AttributeENtNtNtNtCsieiGu2EXtoJ_4core4iter6traits7collect12IntoIterator9into_iterBJ_, symObjAddr: 0x8BD0, symBinAddr: 0x60EB0, symSize: 0x140 }
  - { offset: 0xC6338, size: 0x8, addend: 0x0, symName: __RNvXse_NtCslJiobkLta79_5alloc3vecINtB5_3VecNtNtCsdGrGZaRBwMb_3syn8generics14TypeParamBoundENtNtNtNtCsieiGu2EXtoJ_4core4iter6traits7collect12IntoIterator9into_iterBJ_, symObjAddr: 0x8F90, symBinAddr: 0x60FF0, symSize: 0x140 }
  - { offset: 0xC65C8, size: 0x8, addend: 0x0, symName: __RNvXse_NtCslJiobkLta79_5alloc3vecINtB5_3VecTNtNtCsdGrGZaRBwMb_3syn4path11PathSegmentNtNtBK_5token7PathSepEENtNtNtNtCsieiGu2EXtoJ_4core4iter6traits7collect12IntoIterator9into_iterBK_, symObjAddr: 0x9350, symBinAddr: 0x61130, symSize: 0x140 }
  - { offset: 0xC6858, size: 0x8, addend: 0x0, symName: __RNvXse_NtCslJiobkLta79_5alloc3vecINtB5_3VecTNtNtCsdGrGZaRBwMb_3syn8generics14TypeParamBoundNtNtBK_5token4PlusEENtNtNtNtCsieiGu2EXtoJ_4core4iter6traits7collect12IntoIterator9into_iterBK_, symObjAddr: 0x9490, symBinAddr: 0x61270, symSize: 0x140 }
  - { offset: 0xC6AEE, size: 0x8, addend: 0x0, symName: __RNvXsf_NtCslJiobkLta79_5alloc3vecRINtB5_3VecNtNtCsdGrGZaRBwMb_3syn4attr9AttributeENtNtNtNtCsieiGu2EXtoJ_4core4iter6traits7collect12IntoIterator9into_iterBK_, symObjAddr: 0x95D0, symBinAddr: 0x613B0, symSize: 0x80 }
  - { offset: 0xC6D1B, size: 0x8, addend: 0x0, symName: __RNvXsf_NtCslJiobkLta79_5alloc3vecRINtB5_3VecNtNtCsdGrGZaRBwMb_3syn4item11ForeignItemENtNtNtNtCsieiGu2EXtoJ_4core4iter6traits7collect12IntoIterator9into_iterBK_, symObjAddr: 0x9650, symBinAddr: 0x61430, symSize: 0x80 }
  - { offset: 0xC6F48, size: 0x8, addend: 0x0, symName: __RNvXsf_NtCslJiobkLta79_5alloc3vecRINtB5_3VecNtNtCsdGrGZaRBwMb_3syn4item4ItemENtNtNtNtCsieiGu2EXtoJ_4core4iter6traits7collect12IntoIterator9into_iterBK_, symObjAddr: 0x96D0, symBinAddr: 0x614B0, symSize: 0x80 }
  - { offset: 0xC7175, size: 0x8, addend: 0x0, symName: __RNvXsf_NtCslJiobkLta79_5alloc3vecRINtB5_3VecNtNtCsdGrGZaRBwMb_3syn4item8ImplItemENtNtNtNtCsieiGu2EXtoJ_4core4iter6traits7collect12IntoIterator9into_iterBK_, symObjAddr: 0x9750, symBinAddr: 0x61530, symSize: 0x80 }
  - { offset: 0xC73A2, size: 0x8, addend: 0x0, symName: __RNvXsf_NtCslJiobkLta79_5alloc3vecRINtB5_3VecNtNtCsdGrGZaRBwMb_3syn4item9TraitItemENtNtNtNtCsieiGu2EXtoJ_4core4iter6traits7collect12IntoIterator9into_iterBK_, symObjAddr: 0x97D0, symBinAddr: 0x615B0, symSize: 0x80 }
  - { offset: 0xC75CF, size: 0x8, addend: 0x0, symName: __RNvXsf_NtCslJiobkLta79_5alloc3vecRINtB5_3VecNtNtCsdGrGZaRBwMb_3syn4stmt4StmtENtNtNtNtCsieiGu2EXtoJ_4core4iter6traits7collect12IntoIterator9into_iterBK_, symObjAddr: 0x9850, symBinAddr: 0x61630, symSize: 0x80 }
  - { offset: 0xC77FC, size: 0x8, addend: 0x0, symName: __RNvXsf_NtCslJiobkLta79_5alloc3vecRINtB5_3VecNtNtCsdGrGZaRBwMb_3syn5error12ErrorMessageENtNtNtNtCsieiGu2EXtoJ_4core4iter6traits7collect12IntoIterator9into_iterBK_, symObjAddr: 0x98D0, symBinAddr: 0x616B0, symSize: 0x80 }
  - { offset: 0xC7A29, size: 0x8, addend: 0x0, symName: __RNvXsf_NtCslJiobkLta79_5alloc3vecRINtB5_3VecTNtNtCsdGrGZaRBwMb_3syn2ty4TypeNtNtBL_5token5CommaEENtNtNtNtCsieiGu2EXtoJ_4core4iter6traits7collect12IntoIterator9into_iterBL_, symObjAddr: 0x9950, symBinAddr: 0x61730, symSize: 0x80 }
  - { offset: 0xC7C56, size: 0x8, addend: 0x0, symName: __RNvXsf_NtCslJiobkLta79_5alloc3vecRINtB5_3VecTNtNtCsdGrGZaRBwMb_3syn2ty9BareFnArgNtNtBL_5token5CommaEENtNtNtNtCsieiGu2EXtoJ_4core4iter6traits7collect12IntoIterator9into_iterBL_, symObjAddr: 0x99D0, symBinAddr: 0x617B0, symSize: 0x80 }
  - { offset: 0xC7E83, size: 0x8, addend: 0x0, symName: __RNvXsf_NtCslJiobkLta79_5alloc3vecRINtB5_3VecTNtNtCsdGrGZaRBwMb_3syn3pat3PatNtNtBL_5token2OrEENtNtNtNtCsieiGu2EXtoJ_4core4iter6traits7collect12IntoIterator9into_iterBL_, symObjAddr: 0x9A50, symBinAddr: 0x61830, symSize: 0x80 }
  - { offset: 0xC80B0, size: 0x8, addend: 0x0, symName: __RNvXsf_NtCslJiobkLta79_5alloc3vecRINtB5_3VecTNtNtCsdGrGZaRBwMb_3syn3pat3PatNtNtBL_5token5CommaEENtNtNtNtCsieiGu2EXtoJ_4core4iter6traits7collect12IntoIterator9into_iterBL_, symObjAddr: 0x9AD0, symBinAddr: 0x618B0, symSize: 0x80 }
  - { offset: 0xC82DD, size: 0x8, addend: 0x0, symName: __RNvXsf_NtCslJiobkLta79_5alloc3vecRINtB5_3VecTNtNtCsdGrGZaRBwMb_3syn3pat8FieldPatNtNtBL_5token5CommaEENtNtNtNtCsieiGu2EXtoJ_4core4iter6traits7collect12IntoIterator9into_iterBL_, symObjAddr: 0x9B50, symBinAddr: 0x61930, symSize: 0x80 }
  - { offset: 0xC850A, size: 0x8, addend: 0x0, symName: __RNvXsf_NtCslJiobkLta79_5alloc3vecRINtB5_3VecTNtNtCsdGrGZaRBwMb_3syn4data5FieldNtNtBL_5token5CommaEENtNtNtNtCsieiGu2EXtoJ_4core4iter6traits7collect12IntoIterator9into_iterBL_, symObjAddr: 0x9BD0, symBinAddr: 0x619B0, symSize: 0x80 }
  - { offset: 0xC8737, size: 0x8, addend: 0x0, symName: __RNvXsf_NtCslJiobkLta79_5alloc3vecRINtB5_3VecTNtNtCsdGrGZaRBwMb_3syn4data7VariantNtNtBL_5token5CommaEENtNtNtNtCsieiGu2EXtoJ_4core4iter6traits7collect12IntoIterator9into_iterBL_, symObjAddr: 0x9C50, symBinAddr: 0x61A30, symSize: 0x80 }
  - { offset: 0xC8964, size: 0x8, addend: 0x0, symName: __RNvXsf_NtCslJiobkLta79_5alloc3vecRINtB5_3VecTNtNtCsdGrGZaRBwMb_3syn4expr10FieldValueNtNtBL_5token5CommaEENtNtNtNtCsieiGu2EXtoJ_4core4iter6traits7collect12IntoIterator9into_iterBL_, symObjAddr: 0x9CD0, symBinAddr: 0x61AB0, symSize: 0x80 }
  - { offset: 0xC8B91, size: 0x8, addend: 0x0, symName: __RNvXsf_NtCslJiobkLta79_5alloc3vecRINtB5_3VecTNtNtCsdGrGZaRBwMb_3syn4expr4ExprNtNtBL_5token5CommaEENtNtNtNtCsieiGu2EXtoJ_4core4iter6traits7collect12IntoIterator9into_iterBL_, symObjAddr: 0x9D50, symBinAddr: 0x61B30, symSize: 0x80 }
  - { offset: 0xC8DBE, size: 0x8, addend: 0x0, symName: __RNvXsf_NtCslJiobkLta79_5alloc3vecRINtB5_3VecTNtNtCsdGrGZaRBwMb_3syn4item5FnArgNtNtBL_5token5CommaEENtNtNtNtCsieiGu2EXtoJ_4core4iter6traits7collect12IntoIterator9into_iterBL_, symObjAddr: 0x9DD0, symBinAddr: 0x61BB0, symSize: 0x80 }
  - { offset: 0xC8FEB, size: 0x8, addend: 0x0, symName: __RNvXsf_NtCslJiobkLta79_5alloc3vecRINtB5_3VecTNtNtCsdGrGZaRBwMb_3syn4item7UseTreeNtNtBL_5token5CommaEENtNtNtNtCsieiGu2EXtoJ_4core4iter6traits7collect12IntoIterator9into_iterBL_, symObjAddr: 0x9E50, symBinAddr: 0x61C30, symSize: 0x80 }
  - { offset: 0xC9218, size: 0x8, addend: 0x0, symName: __RNvXsf_NtCslJiobkLta79_5alloc3vecRINtB5_3VecTNtNtCsdGrGZaRBwMb_3syn4path11PathSegmentNtNtBL_5token7PathSepEENtNtNtNtCsieiGu2EXtoJ_4core4iter6traits7collect12IntoIterator9into_iterBL_, symObjAddr: 0x9ED0, symBinAddr: 0x61CB0, symSize: 0x80 }
  - { offset: 0xC9445, size: 0x8, addend: 0x0, symName: __RNvXsf_NtCslJiobkLta79_5alloc3vecRINtB5_3VecTNtNtCsdGrGZaRBwMb_3syn4path15GenericArgumentNtNtBL_5token5CommaEENtNtNtNtCsieiGu2EXtoJ_4core4iter6traits7collect12IntoIterator9into_iterBL_, symObjAddr: 0x9F50, symBinAddr: 0x61D30, symSize: 0x80 }
  - { offset: 0xC9672, size: 0x8, addend: 0x0, symName: __RNvXsf_NtCslJiobkLta79_5alloc3vecRINtB5_3VecTNtNtCsdGrGZaRBwMb_3syn8generics12GenericParamNtNtBL_5token5CommaEENtNtNtNtCsieiGu2EXtoJ_4core4iter6traits7collect12IntoIterator9into_iterBL_, symObjAddr: 0x9FD0, symBinAddr: 0x61DB0, symSize: 0x80 }
  - { offset: 0xC989F, size: 0x8, addend: 0x0, symName: __RNvXsf_NtCslJiobkLta79_5alloc3vecRINtB5_3VecTNtNtCsdGrGZaRBwMb_3syn8generics13CapturedParamNtNtBL_5token5CommaEENtNtNtNtCsieiGu2EXtoJ_4core4iter6traits7collect12IntoIterator9into_iterBL_, symObjAddr: 0xA050, symBinAddr: 0x61E30, symSize: 0x80 }
  - { offset: 0xC9ACC, size: 0x8, addend: 0x0, symName: __RNvXsf_NtCslJiobkLta79_5alloc3vecRINtB5_3VecTNtNtCsdGrGZaRBwMb_3syn8generics14TypeParamBoundNtNtBL_5token4PlusEENtNtNtNtCsieiGu2EXtoJ_4core4iter6traits7collect12IntoIterator9into_iterBL_, symObjAddr: 0xA0D0, symBinAddr: 0x61EB0, symSize: 0x80 }
  - { offset: 0xC9CF9, size: 0x8, addend: 0x0, symName: __RNvXsf_NtCslJiobkLta79_5alloc3vecRINtB5_3VecTNtNtCsdGrGZaRBwMb_3syn8generics14WherePredicateNtNtBL_5token5CommaEENtNtNtNtCsieiGu2EXtoJ_4core4iter6traits7collect12IntoIterator9into_iterBL_, symObjAddr: 0xA150, symBinAddr: 0x61F30, symSize: 0x80 }
  - { offset: 0xC9F26, size: 0x8, addend: 0x0, symName: __RNvXsf_NtCslJiobkLta79_5alloc3vecRINtB5_3VecTNtNtCsdGrGZaRBwMb_3syn8lifetime8LifetimeNtNtBL_5token4PlusEENtNtNtNtCsieiGu2EXtoJ_4core4iter6traits7collect12IntoIterator9into_iterBL_, symObjAddr: 0xA1D0, symBinAddr: 0x61FB0, symSize: 0x80 }
  - { offset: 0xCA159, size: 0x8, addend: 0x0, symName: __RNvXsg_NtCslJiobkLta79_5alloc3vecQINtB5_3VechENtNtNtNtCsieiGu2EXtoJ_4core4iter6traits7collect12IntoIterator9into_iterCsdGrGZaRBwMb_3syn, symObjAddr: 0xA250, symBinAddr: 0x62030, symSize: 0x80 }
  - { offset: 0xCA380, size: 0x8, addend: 0x0, symName: __RNvXsn_NtCslJiobkLta79_5alloc3vecINtB5_3VecNtNtCsdGrGZaRBwMb_3syn4attr9AttributeENtNtNtCsieiGu2EXtoJ_4core3ops4drop4Drop4dropBJ_, symObjAddr: 0xA2D0, symBinAddr: 0x620B0, symSize: 0x30 }
  - { offset: 0xCA430, size: 0x8, addend: 0x0, symName: __RNvXsn_NtCslJiobkLta79_5alloc3vecINtB5_3VecNtNtCsdGrGZaRBwMb_3syn4expr3ArmENtNtNtCsieiGu2EXtoJ_4core3ops4drop4Drop4dropBJ_, symObjAddr: 0xA330, symBinAddr: 0x620E0, symSize: 0x30 }
  - { offset: 0xCA4E0, size: 0x8, addend: 0x0, symName: __RNvXsn_NtCslJiobkLta79_5alloc3vecINtB5_3VecNtNtCsdGrGZaRBwMb_3syn4expr6ExprIfENtNtNtCsieiGu2EXtoJ_4core3ops4drop4Drop4dropBJ_, symObjAddr: 0xA360, symBinAddr: 0x62110, symSize: 0x30 }
  - { offset: 0xCA590, size: 0x8, addend: 0x0, symName: __RNvXsn_NtCslJiobkLta79_5alloc3vecINtB5_3VecNtNtCsdGrGZaRBwMb_3syn4item11ForeignItemENtNtNtCsieiGu2EXtoJ_4core3ops4drop4Drop4dropBJ_, symObjAddr: 0xA390, symBinAddr: 0x62140, symSize: 0x30 }
  - { offset: 0xCA640, size: 0x8, addend: 0x0, symName: __RNvXsn_NtCslJiobkLta79_5alloc3vecINtB5_3VecNtNtCsdGrGZaRBwMb_3syn4item4ItemENtNtNtCsieiGu2EXtoJ_4core3ops4drop4Drop4dropBJ_, symObjAddr: 0xA3C0, symBinAddr: 0x62170, symSize: 0x30 }
  - { offset: 0xCA6F0, size: 0x8, addend: 0x0, symName: __RNvXsn_NtCslJiobkLta79_5alloc3vecINtB5_3VecNtNtCsdGrGZaRBwMb_3syn4item8ImplItemENtNtNtCsieiGu2EXtoJ_4core3ops4drop4Drop4dropBJ_, symObjAddr: 0xA3F0, symBinAddr: 0x621A0, symSize: 0x30 }
  - { offset: 0xCA7A0, size: 0x8, addend: 0x0, symName: __RNvXsn_NtCslJiobkLta79_5alloc3vecINtB5_3VecNtNtCsdGrGZaRBwMb_3syn4item9TraitItemENtNtNtCsieiGu2EXtoJ_4core3ops4drop4Drop4dropBJ_, symObjAddr: 0xA420, symBinAddr: 0x621D0, symSize: 0x30 }
  - { offset: 0xCA850, size: 0x8, addend: 0x0, symName: __RNvXsn_NtCslJiobkLta79_5alloc3vecINtB5_3VecNtNtCsdGrGZaRBwMb_3syn4stmt4StmtENtNtNtCsieiGu2EXtoJ_4core3ops4drop4Drop4dropBJ_, symObjAddr: 0xA450, symBinAddr: 0x62200, symSize: 0x30 }
  - { offset: 0xCA900, size: 0x8, addend: 0x0, symName: __RNvXsn_NtCslJiobkLta79_5alloc3vecINtB5_3VecNtNtCsdGrGZaRBwMb_3syn5error12ErrorMessageENtNtNtCsieiGu2EXtoJ_4core3ops4drop4Drop4dropBJ_, symObjAddr: 0xA480, symBinAddr: 0x62230, symSize: 0x30 }
  - { offset: 0xCA9B0, size: 0x8, addend: 0x0, symName: __RNvXsn_NtCslJiobkLta79_5alloc3vecINtB5_3VecNtNtCsdGrGZaRBwMb_3syn6buffer5EntryENtNtNtCsieiGu2EXtoJ_4core3ops4drop4Drop4dropBJ_, symObjAddr: 0xA4B0, symBinAddr: 0x62260, symSize: 0x30 }
  - { offset: 0xCAA60, size: 0x8, addend: 0x0, symName: __RNvXsn_NtCslJiobkLta79_5alloc3vecINtB5_3VecNtNtCsdGrGZaRBwMb_3syn8generics14TypeParamBoundENtNtNtCsieiGu2EXtoJ_4core3ops4drop4Drop4dropBJ_, symObjAddr: 0xA4E0, symBinAddr: 0x62290, symSize: 0x30 }
  - { offset: 0xCAB10, size: 0x8, addend: 0x0, symName: __RNvXsn_NtCslJiobkLta79_5alloc3vecINtB5_3VecReENtNtNtCsieiGu2EXtoJ_4core3ops4drop4Drop4dropCsdGrGZaRBwMb_3syn, symObjAddr: 0xA510, symBinAddr: 0x622C0, symSize: 0x20 }
  - { offset: 0xCABC0, size: 0x8, addend: 0x0, symName: __RNvXsn_NtCslJiobkLta79_5alloc3vecINtB5_3VecTNtNtCsdGrGZaRBwMb_3syn2ty4TypeNtNtBK_5token5CommaEENtNtNtCsieiGu2EXtoJ_4core3ops4drop4Drop4dropBK_, symObjAddr: 0xA530, symBinAddr: 0x622E0, symSize: 0x30 }
  - { offset: 0xCAC70, size: 0x8, addend: 0x0, symName: __RNvXsn_NtCslJiobkLta79_5alloc3vecINtB5_3VecTNtNtCsdGrGZaRBwMb_3syn2ty9BareFnArgNtNtBK_5token5CommaEENtNtNtCsieiGu2EXtoJ_4core3ops4drop4Drop4dropBK_, symObjAddr: 0xA560, symBinAddr: 0x62310, symSize: 0x30 }
  - { offset: 0xCAD20, size: 0x8, addend: 0x0, symName: __RNvXsn_NtCslJiobkLta79_5alloc3vecINtB5_3VecTNtNtCsdGrGZaRBwMb_3syn3pat3PatNtNtBK_5token2OrEENtNtNtCsieiGu2EXtoJ_4core3ops4drop4Drop4dropBK_, symObjAddr: 0xA590, symBinAddr: 0x62340, symSize: 0x30 }
  - { offset: 0xCADD0, size: 0x8, addend: 0x0, symName: __RNvXsn_NtCslJiobkLta79_5alloc3vecINtB5_3VecTNtNtCsdGrGZaRBwMb_3syn3pat3PatNtNtBK_5token5CommaEENtNtNtCsieiGu2EXtoJ_4core3ops4drop4Drop4dropBK_, symObjAddr: 0xA5C0, symBinAddr: 0x62370, symSize: 0x30 }
  - { offset: 0xCAE80, size: 0x8, addend: 0x0, symName: __RNvXsn_NtCslJiobkLta79_5alloc3vecINtB5_3VecTNtNtCsdGrGZaRBwMb_3syn3pat8FieldPatNtNtBK_5token5CommaEENtNtNtCsieiGu2EXtoJ_4core3ops4drop4Drop4dropBK_, symObjAddr: 0xA5F0, symBinAddr: 0x623A0, symSize: 0x30 }
  - { offset: 0xCAF30, size: 0x8, addend: 0x0, symName: __RNvXsn_NtCslJiobkLta79_5alloc3vecINtB5_3VecTNtNtCsdGrGZaRBwMb_3syn4data5FieldNtNtBK_5token5CommaEENtNtNtCsieiGu2EXtoJ_4core3ops4drop4Drop4dropBK_, symObjAddr: 0xA620, symBinAddr: 0x623D0, symSize: 0x30 }
  - { offset: 0xCAFE0, size: 0x8, addend: 0x0, symName: __RNvXsn_NtCslJiobkLta79_5alloc3vecINtB5_3VecTNtNtCsdGrGZaRBwMb_3syn4data7VariantNtNtBK_5token5CommaEENtNtNtCsieiGu2EXtoJ_4core3ops4drop4Drop4dropBK_, symObjAddr: 0xA680, symBinAddr: 0x62400, symSize: 0x30 }
  - { offset: 0xCB090, size: 0x8, addend: 0x0, symName: __RNvXsn_NtCslJiobkLta79_5alloc3vecINtB5_3VecTNtNtCsdGrGZaRBwMb_3syn4expr10FieldValueNtNtBK_5token5CommaEENtNtNtCsieiGu2EXtoJ_4core3ops4drop4Drop4dropBK_, symObjAddr: 0xA6B0, symBinAddr: 0x62430, symSize: 0x30 }
  - { offset: 0xCB140, size: 0x8, addend: 0x0, symName: __RNvXsn_NtCslJiobkLta79_5alloc3vecINtB5_3VecTNtNtCsdGrGZaRBwMb_3syn4expr4ExprNtNtBK_5token5CommaEENtNtNtCsieiGu2EXtoJ_4core3ops4drop4Drop4dropBK_, symObjAddr: 0xA6E0, symBinAddr: 0x62460, symSize: 0x30 }
  - { offset: 0xCB1F0, size: 0x8, addend: 0x0, symName: __RNvXsn_NtCslJiobkLta79_5alloc3vecINtB5_3VecTNtNtCsdGrGZaRBwMb_3syn4item5FnArgNtNtBK_5token5CommaEENtNtNtCsieiGu2EXtoJ_4core3ops4drop4Drop4dropBK_, symObjAddr: 0xA710, symBinAddr: 0x62490, symSize: 0x30 }
  - { offset: 0xCB2A0, size: 0x8, addend: 0x0, symName: __RNvXsn_NtCslJiobkLta79_5alloc3vecINtB5_3VecTNtNtCsdGrGZaRBwMb_3syn4item7UseTreeNtNtBK_5token5CommaEENtNtNtCsieiGu2EXtoJ_4core3ops4drop4Drop4dropBK_, symObjAddr: 0xA740, symBinAddr: 0x624C0, symSize: 0x30 }
  - { offset: 0xCB350, size: 0x8, addend: 0x0, symName: __RNvXsn_NtCslJiobkLta79_5alloc3vecINtB5_3VecTNtNtCsdGrGZaRBwMb_3syn4path11PathSegmentNtNtBK_5token7PathSepEENtNtNtCsieiGu2EXtoJ_4core3ops4drop4Drop4dropBK_, symObjAddr: 0xA770, symBinAddr: 0x624F0, symSize: 0x30 }
  - { offset: 0xCB400, size: 0x8, addend: 0x0, symName: __RNvXsn_NtCslJiobkLta79_5alloc3vecINtB5_3VecTNtNtCsdGrGZaRBwMb_3syn4path15GenericArgumentNtNtBK_5token5CommaEENtNtNtCsieiGu2EXtoJ_4core3ops4drop4Drop4dropBK_, symObjAddr: 0xA7A0, symBinAddr: 0x62520, symSize: 0x30 }
  - { offset: 0xCB4B0, size: 0x8, addend: 0x0, symName: __RNvXsn_NtCslJiobkLta79_5alloc3vecINtB5_3VecTNtNtCsdGrGZaRBwMb_3syn8generics12GenericParamNtNtBK_5token5CommaEENtNtNtCsieiGu2EXtoJ_4core3ops4drop4Drop4dropBK_, symObjAddr: 0xA7D0, symBinAddr: 0x62550, symSize: 0x30 }
  - { offset: 0xCB560, size: 0x8, addend: 0x0, symName: __RNvXsn_NtCslJiobkLta79_5alloc3vecINtB5_3VecTNtNtCsdGrGZaRBwMb_3syn8generics13CapturedParamNtNtBK_5token5CommaEENtNtNtCsieiGu2EXtoJ_4core3ops4drop4Drop4dropBK_, symObjAddr: 0xA800, symBinAddr: 0x62580, symSize: 0x30 }
  - { offset: 0xCB610, size: 0x8, addend: 0x0, symName: __RNvXsn_NtCslJiobkLta79_5alloc3vecINtB5_3VecTNtNtCsdGrGZaRBwMb_3syn8generics14TypeParamBoundNtNtBK_5token4PlusEENtNtNtCsieiGu2EXtoJ_4core3ops4drop4Drop4dropBK_, symObjAddr: 0xA830, symBinAddr: 0x625B0, symSize: 0x30 }
  - { offset: 0xCB6C0, size: 0x8, addend: 0x0, symName: __RNvXsn_NtCslJiobkLta79_5alloc3vecINtB5_3VecTNtNtCsdGrGZaRBwMb_3syn8generics14WherePredicateNtNtBK_5token5CommaEENtNtNtCsieiGu2EXtoJ_4core3ops4drop4Drop4dropBK_, symObjAddr: 0xA860, symBinAddr: 0x625E0, symSize: 0x30 }
  - { offset: 0xCB770, size: 0x8, addend: 0x0, symName: __RNvXsn_NtCslJiobkLta79_5alloc3vecINtB5_3VecTNtNtCsdGrGZaRBwMb_3syn8lifetime8LifetimeNtNtBK_5token4PlusEENtNtNtCsieiGu2EXtoJ_4core3ops4drop4Drop4dropBK_, symObjAddr: 0xA890, symBinAddr: 0x62610, symSize: 0x30 }
  - { offset: 0xCB826, size: 0x8, addend: 0x0, symName: __RNvXsp_NtCslJiobkLta79_5alloc3vecINtB5_3VecNtNtCsdGrGZaRBwMb_3syn4attr9AttributeENtNtCsieiGu2EXtoJ_4core3fmt5Debug3fmtBJ_, symObjAddr: 0xA8C0, symBinAddr: 0x62640, symSize: 0x70 }
  - { offset: 0xCB936, size: 0x8, addend: 0x0, symName: __RNvXsp_NtCslJiobkLta79_5alloc3vecINtB5_3VecNtNtCsdGrGZaRBwMb_3syn4expr3ArmENtNtCsieiGu2EXtoJ_4core3fmt5Debug3fmtBJ_, symObjAddr: 0xA930, symBinAddr: 0x626B0, symSize: 0x70 }
  - { offset: 0xCBA46, size: 0x8, addend: 0x0, symName: __RNvXsp_NtCslJiobkLta79_5alloc3vecINtB5_3VecNtNtCsdGrGZaRBwMb_3syn4item11ForeignItemENtNtCsieiGu2EXtoJ_4core3fmt5Debug3fmtBJ_, symObjAddr: 0xA9A0, symBinAddr: 0x62720, symSize: 0x70 }
  - { offset: 0xCBB56, size: 0x8, addend: 0x0, symName: __RNvXsp_NtCslJiobkLta79_5alloc3vecINtB5_3VecNtNtCsdGrGZaRBwMb_3syn4item4ItemENtNtCsieiGu2EXtoJ_4core3fmt5Debug3fmtBJ_, symObjAddr: 0xAA10, symBinAddr: 0x62790, symSize: 0x70 }
  - { offset: 0xCBC66, size: 0x8, addend: 0x0, symName: __RNvXsp_NtCslJiobkLta79_5alloc3vecINtB5_3VecNtNtCsdGrGZaRBwMb_3syn4item8ImplItemENtNtCsieiGu2EXtoJ_4core3fmt5Debug3fmtBJ_, symObjAddr: 0xAA80, symBinAddr: 0x62800, symSize: 0x70 }
  - { offset: 0xCBD76, size: 0x8, addend: 0x0, symName: __RNvXsp_NtCslJiobkLta79_5alloc3vecINtB5_3VecNtNtCsdGrGZaRBwMb_3syn4item9TraitItemENtNtCsieiGu2EXtoJ_4core3fmt5Debug3fmtBJ_, symObjAddr: 0xAAF0, symBinAddr: 0x62870, symSize: 0x70 }
  - { offset: 0xCBE86, size: 0x8, addend: 0x0, symName: __RNvXsp_NtCslJiobkLta79_5alloc3vecINtB5_3VecNtNtCsdGrGZaRBwMb_3syn4stmt4StmtENtNtCsieiGu2EXtoJ_4core3fmt5Debug3fmtBJ_, symObjAddr: 0xAB60, symBinAddr: 0x628E0, symSize: 0x70 }
  - { offset: 0xCBF96, size: 0x8, addend: 0x0, symName: __RNvXsp_NtCslJiobkLta79_5alloc3vecINtB5_3VecNtNtCsdGrGZaRBwMb_3syn5error12ErrorMessageENtNtCsieiGu2EXtoJ_4core3fmt5Debug3fmtBJ_, symObjAddr: 0xABD0, symBinAddr: 0x62950, symSize: 0x70 }
  - { offset: 0xCC0A6, size: 0x8, addend: 0x0, symName: __RNvXsp_NtCslJiobkLta79_5alloc3vecINtB5_3VechENtNtCsieiGu2EXtoJ_4core3fmt5Debug3fmtCsdGrGZaRBwMb_3syn, symObjAddr: 0xAC40, symBinAddr: 0x629C0, symSize: 0x70 }
  - { offset: 0xCE539, size: 0x8, addend: 0x0, symName: __RNvXsR_NtCslJiobkLta79_5alloc6stringINtNtB7_3vec3VechEINtNtCsieiGu2EXtoJ_4core7convert4FromNtB5_6StringE4fromCsdGrGZaRBwMb_3syn, symObjAddr: 0x87E0, symBinAddr: 0x60AC0, symSize: 0x20 }
  - { offset: 0xCE77B, size: 0x8, addend: 0x0, symName: __RNvXNvMs_NtNtCslJiobkLta79_5alloc3ffi5c_strNtB7_7CString3newINtNtBb_3vec3VechENtB2_11SpecNewImpl13spec_new_implCsdGrGZaRBwMb_3syn, symObjAddr: 0x7070, symBinAddr: 0x5F6E0, symSize: 0x200 }
  - { offset: 0xD3E71, size: 0x8, addend: 0x0, symName: __RINvMs_NtCslJiobkLta79_5alloc3vecINtB5_3VecReE10retain_mutNCNvMNtCsdGrGZaRBwMb_3syn9lookaheadNtBZ_10Lookahead15error0EB11_, symObjAddr: 0x0, symBinAddr: 0x59F80, symSize: 0x160 }
  - { offset: 0xD45D0, size: 0x8, addend: 0x0, symName: __RNvMNtCslJiobkLta79_5alloc3vecINtB2_3VecNtNtCsdGrGZaRBwMb_3syn4attr9AttributeE3newBG_, symObjAddr: 0x3C0, symBinAddr: 0x5A300, symSize: 0x30 }
  - { offset: 0xD4618, size: 0x8, addend: 0x0, symName: __RNvMNtCslJiobkLta79_5alloc3vecINtB2_3VecNtNtCsdGrGZaRBwMb_3syn4expr3ArmE3newBG_, symObjAddr: 0x450, symBinAddr: 0x5A330, symSize: 0x30 }
  - { offset: 0xD4635, size: 0x8, addend: 0x0, symName: __RNvMNtCslJiobkLta79_5alloc3vecINtB2_3VecNtNtCsdGrGZaRBwMb_3syn4expr6ExprIfE3newBG_, symObjAddr: 0x480, symBinAddr: 0x5A360, symSize: 0x30 }
  - { offset: 0xD4652, size: 0x8, addend: 0x0, symName: __RNvMNtCslJiobkLta79_5alloc3vecINtB2_3VecNtNtCsdGrGZaRBwMb_3syn4item11ForeignItemE3newBG_, symObjAddr: 0x4B0, symBinAddr: 0x5A390, symSize: 0x30 }
  - { offset: 0xD466F, size: 0x8, addend: 0x0, symName: __RNvMNtCslJiobkLta79_5alloc3vecINtB2_3VecNtNtCsdGrGZaRBwMb_3syn4item4ItemE3newBG_, symObjAddr: 0x4E0, symBinAddr: 0x5A3C0, symSize: 0x30 }
  - { offset: 0xD468C, size: 0x8, addend: 0x0, symName: __RNvMNtCslJiobkLta79_5alloc3vecINtB2_3VecNtNtCsdGrGZaRBwMb_3syn4item8ImplItemE3newBG_, symObjAddr: 0x510, symBinAddr: 0x5A3F0, symSize: 0x30 }
  - { offset: 0xD46A9, size: 0x8, addend: 0x0, symName: __RNvMNtCslJiobkLta79_5alloc3vecINtB2_3VecNtNtCsdGrGZaRBwMb_3syn4item9TraitItemE3newBG_, symObjAddr: 0x540, symBinAddr: 0x5A420, symSize: 0x30 }
  - { offset: 0xD46C6, size: 0x8, addend: 0x0, symName: __RNvMNtCslJiobkLta79_5alloc3vecINtB2_3VecNtNtCsdGrGZaRBwMb_3syn4stmt4StmtE3newBG_, symObjAddr: 0x570, symBinAddr: 0x5A450, symSize: 0x30 }
  - { offset: 0xD46E3, size: 0x8, addend: 0x0, symName: __RNvMNtCslJiobkLta79_5alloc3vecINtB2_3VecNtNtCsdGrGZaRBwMb_3syn6buffer5EntryE3newBG_, symObjAddr: 0x5A0, symBinAddr: 0x5A480, symSize: 0x30 }
  - { offset: 0xD4762, size: 0x8, addend: 0x0, symName: __RNvMNtCslJiobkLta79_5alloc3vecINtB2_3VecNtNtCsdGrGZaRBwMb_3syn8generics14TypeParamBoundE13with_capacityBG_, symObjAddr: 0x5D0, symBinAddr: 0x5A4B0, symSize: 0x60 }
  - { offset: 0xD47DA, size: 0x8, addend: 0x0, symName: __RNvMNtCslJiobkLta79_5alloc3vecINtB2_3VecReE3newCsdGrGZaRBwMb_3syn, symObjAddr: 0x630, symBinAddr: 0x5A510, symSize: 0x30 }
  - { offset: 0xD47F7, size: 0x8, addend: 0x0, symName: __RNvMNtCslJiobkLta79_5alloc3vecINtB2_3VecTNtNtCsdGrGZaRBwMb_3syn2ty4TypeNtNtBH_5token5CommaEE3newBH_, symObjAddr: 0x660, symBinAddr: 0x5A540, symSize: 0x30 }
  - { offset: 0xD4814, size: 0x8, addend: 0x0, symName: __RNvMNtCslJiobkLta79_5alloc3vecINtB2_3VecTNtNtCsdGrGZaRBwMb_3syn2ty9BareFnArgNtNtBH_5token5CommaEE3newBH_, symObjAddr: 0x690, symBinAddr: 0x5A570, symSize: 0x30 }
  - { offset: 0xD4831, size: 0x8, addend: 0x0, symName: __RNvMNtCslJiobkLta79_5alloc3vecINtB2_3VecTNtNtCsdGrGZaRBwMb_3syn3pat3PatNtNtBH_5token2OrEE3newBH_, symObjAddr: 0x6C0, symBinAddr: 0x5A5A0, symSize: 0x30 }
  - { offset: 0xD484E, size: 0x8, addend: 0x0, symName: __RNvMNtCslJiobkLta79_5alloc3vecINtB2_3VecTNtNtCsdGrGZaRBwMb_3syn3pat3PatNtNtBH_5token5CommaEE3newBH_, symObjAddr: 0x6F0, symBinAddr: 0x5A5D0, symSize: 0x30 }
  - { offset: 0xD486B, size: 0x8, addend: 0x0, symName: __RNvMNtCslJiobkLta79_5alloc3vecINtB2_3VecTNtNtCsdGrGZaRBwMb_3syn3pat8FieldPatNtNtBH_5token5CommaEE3newBH_, symObjAddr: 0x720, symBinAddr: 0x5A600, symSize: 0x30 }
  - { offset: 0xD4888, size: 0x8, addend: 0x0, symName: __RNvMNtCslJiobkLta79_5alloc3vecINtB2_3VecTNtNtCsdGrGZaRBwMb_3syn4data5FieldNtNtBH_5token5CommaEE3newBH_, symObjAddr: 0x750, symBinAddr: 0x5A630, symSize: 0x30 }
  - { offset: 0xD48C5, size: 0x8, addend: 0x0, symName: __RNvMNtCslJiobkLta79_5alloc3vecINtB2_3VecTNtNtCsdGrGZaRBwMb_3syn4data7VariantNtNtBH_5token5CommaEE3newBH_, symObjAddr: 0x7B0, symBinAddr: 0x5A660, symSize: 0x30 }
  - { offset: 0xD48E2, size: 0x8, addend: 0x0, symName: __RNvMNtCslJiobkLta79_5alloc3vecINtB2_3VecTNtNtCsdGrGZaRBwMb_3syn4expr10FieldValueNtNtBH_5token5CommaEE3newBH_, symObjAddr: 0x7E0, symBinAddr: 0x5A690, symSize: 0x30 }
  - { offset: 0xD48FF, size: 0x8, addend: 0x0, symName: __RNvMNtCslJiobkLta79_5alloc3vecINtB2_3VecTNtNtCsdGrGZaRBwMb_3syn4expr4ExprNtNtBH_5token5CommaEE3newBH_, symObjAddr: 0x810, symBinAddr: 0x5A6C0, symSize: 0x30 }
  - { offset: 0xD491C, size: 0x8, addend: 0x0, symName: __RNvMNtCslJiobkLta79_5alloc3vecINtB2_3VecTNtNtCsdGrGZaRBwMb_3syn4item5FnArgNtNtBH_5token5CommaEE3newBH_, symObjAddr: 0x840, symBinAddr: 0x5A6F0, symSize: 0x30 }
  - { offset: 0xD4939, size: 0x8, addend: 0x0, symName: __RNvMNtCslJiobkLta79_5alloc3vecINtB2_3VecTNtNtCsdGrGZaRBwMb_3syn4item7UseTreeNtNtBH_5token5CommaEE3newBH_, symObjAddr: 0x870, symBinAddr: 0x5A720, symSize: 0x30 }
  - { offset: 0xD4956, size: 0x8, addend: 0x0, symName: __RNvMNtCslJiobkLta79_5alloc3vecINtB2_3VecTNtNtCsdGrGZaRBwMb_3syn4path11PathSegmentNtNtBH_5token7PathSepEE3newBH_, symObjAddr: 0x8A0, symBinAddr: 0x5A750, symSize: 0x30 }
  - { offset: 0xD4973, size: 0x8, addend: 0x0, symName: __RNvMNtCslJiobkLta79_5alloc3vecINtB2_3VecTNtNtCsdGrGZaRBwMb_3syn4path15GenericArgumentNtNtBH_5token5CommaEE3newBH_, symObjAddr: 0x8D0, symBinAddr: 0x5A780, symSize: 0x30 }
  - { offset: 0xD4990, size: 0x8, addend: 0x0, symName: __RNvMNtCslJiobkLta79_5alloc3vecINtB2_3VecTNtNtCsdGrGZaRBwMb_3syn8generics12GenericParamNtNtBH_5token5CommaEE3newBH_, symObjAddr: 0x900, symBinAddr: 0x5A7B0, symSize: 0x30 }
  - { offset: 0xD49AD, size: 0x8, addend: 0x0, symName: __RNvMNtCslJiobkLta79_5alloc3vecINtB2_3VecTNtNtCsdGrGZaRBwMb_3syn8generics13CapturedParamNtNtBH_5token5CommaEE3newBH_, symObjAddr: 0x930, symBinAddr: 0x5A7E0, symSize: 0x30 }
  - { offset: 0xD49CA, size: 0x8, addend: 0x0, symName: __RNvMNtCslJiobkLta79_5alloc3vecINtB2_3VecTNtNtCsdGrGZaRBwMb_3syn8generics14TypeParamBoundNtNtBH_5token4PlusEE3newBH_, symObjAddr: 0x960, symBinAddr: 0x5A810, symSize: 0x30 }
  - { offset: 0xD49E7, size: 0x8, addend: 0x0, symName: __RNvMNtCslJiobkLta79_5alloc3vecINtB2_3VecTNtNtCsdGrGZaRBwMb_3syn8generics14WherePredicateNtNtBH_5token5CommaEE3newBH_, symObjAddr: 0x990, symBinAddr: 0x5A840, symSize: 0x30 }
  - { offset: 0xD4A04, size: 0x8, addend: 0x0, symName: __RNvMNtCslJiobkLta79_5alloc3vecINtB2_3VecTNtNtCsdGrGZaRBwMb_3syn8lifetime8LifetimeNtNtBH_5token4PlusEE3newBH_, symObjAddr: 0x9C0, symBinAddr: 0x5A870, symSize: 0x30 }
  - { offset: 0xD4A21, size: 0x8, addend: 0x0, symName: __RNvMNtCslJiobkLta79_5alloc3vecINtB2_3VechE3newCsdGrGZaRBwMb_3syn, symObjAddr: 0x9F0, symBinAddr: 0x5A8A0, symSize: 0x30 }
  - { offset: 0xD4B44, size: 0x8, addend: 0x0, symName: __RNvMs0_NtCslJiobkLta79_5alloc3vecINtB5_3VechE17extend_from_sliceCsdGrGZaRBwMb_3syn, symObjAddr: 0xA20, symBinAddr: 0x5A8D0, symSize: 0x70 }
  - { offset: 0xD4DBB, size: 0x8, addend: 0x0, symName: __RNvMs0_NtCslJiobkLta79_5alloc3vecINtB5_3VechE6resizeCsdGrGZaRBwMb_3syn, symObjAddr: 0xA90, symBinAddr: 0x5A940, symSize: 0xE0 }
  - { offset: 0xD5082, size: 0x8, addend: 0x0, symName: __RNvMs2_NtCslJiobkLta79_5alloc3vecINtB5_3VechE11extend_withCsdGrGZaRBwMb_3syn, symObjAddr: 0xB70, symBinAddr: 0x5AA20, symSize: 0x280 }
  - { offset: 0xD5473, size: 0x8, addend: 0x0, symName: __RNvMs_NtCslJiobkLta79_5alloc3vecINtB4_3VecNtNtCsdGrGZaRBwMb_3syn4attr9AttributeE15append_elementsBI_, symObjAddr: 0xDF0, symBinAddr: 0x5ACA0, symSize: 0xC0 }
  - { offset: 0xD5615, size: 0x8, addend: 0x0, symName: __RNvMs_NtCslJiobkLta79_5alloc3vecINtB4_3VecNtNtCsdGrGZaRBwMb_3syn4attr9AttributeE4pushBI_, symObjAddr: 0xEB0, symBinAddr: 0x5AD60, symSize: 0x20 }
  - { offset: 0xD57C3, size: 0x8, addend: 0x0, symName: __RNvMs_NtCslJiobkLta79_5alloc3vecINtB4_3VecNtNtCsdGrGZaRBwMb_3syn4attr9AttributeE6appendBI_, symObjAddr: 0xED0, symBinAddr: 0x5AD80, symSize: 0xC0 }
  - { offset: 0xD5A8E, size: 0x8, addend: 0x0, symName: __RNvMs_NtCslJiobkLta79_5alloc3vecINtB4_3VecNtNtCsdGrGZaRBwMb_3syn4attr9AttributeE7reserveBI_, symObjAddr: 0xF90, symBinAddr: 0x5AE40, symSize: 0xB0 }
  - { offset: 0xD5C7F, size: 0x8, addend: 0x0, symName: __RNvMs_NtCslJiobkLta79_5alloc3vecINtB4_3VecNtNtCsdGrGZaRBwMb_3syn4attr9AttributeE7set_lenBI_, symObjAddr: 0x1040, symBinAddr: 0x5AEF0, symSize: 0x70 }
  - { offset: 0xD5DC8, size: 0x8, addend: 0x0, symName: __RNvMs_NtCslJiobkLta79_5alloc3vecINtB4_3VecNtNtCsdGrGZaRBwMb_3syn4attr9AttributeE8as_sliceBI_, symObjAddr: 0x10B0, symBinAddr: 0x5AF60, symSize: 0x50 }
  - { offset: 0xD5EA7, size: 0x8, addend: 0x0, symName: __RNvMs_NtCslJiobkLta79_5alloc3vecINtB4_3VecNtNtCsdGrGZaRBwMb_3syn4attr9AttributeE8is_emptyBI_, symObjAddr: 0x1100, symBinAddr: 0x5AFB0, symSize: 0x20 }
  - { offset: 0xD5FE6, size: 0x8, addend: 0x0, symName: __RNvMs_NtCslJiobkLta79_5alloc3vecINtB4_3VecNtNtCsdGrGZaRBwMb_3syn4attr9AttributeE8push_mutBI_, symObjAddr: 0x1120, symBinAddr: 0x5AFD0, symSize: 0x130 }
  - { offset: 0xD61C2, size: 0x8, addend: 0x0, symName: __RNvMs_NtCslJiobkLta79_5alloc3vecINtB4_3VecNtNtCsdGrGZaRBwMb_3syn4expr3ArmE3lenBI_, symObjAddr: 0x13B0, symBinAddr: 0x5B100, symSize: 0x10 }
  - { offset: 0xD6204, size: 0x8, addend: 0x0, symName: __RNvMs_NtCslJiobkLta79_5alloc3vecINtB4_3VecNtNtCsdGrGZaRBwMb_3syn4expr3ArmE4pushBI_, symObjAddr: 0x13C0, symBinAddr: 0x5B110, symSize: 0x20 }
  - { offset: 0xD62DA, size: 0x8, addend: 0x0, symName: __RNvMs_NtCslJiobkLta79_5alloc3vecINtB4_3VecNtNtCsdGrGZaRBwMb_3syn4expr3ArmE7set_lenBI_, symObjAddr: 0x13E0, symBinAddr: 0x5B130, symSize: 0x70 }
  - { offset: 0xD6464, size: 0x8, addend: 0x0, symName: __RNvMs_NtCslJiobkLta79_5alloc3vecINtB4_3VecNtNtCsdGrGZaRBwMb_3syn4expr3ArmE8as_sliceBI_, symObjAddr: 0x1450, symBinAddr: 0x5B1A0, symSize: 0x50 }
  - { offset: 0xD660A, size: 0x8, addend: 0x0, symName: __RNvMs_NtCslJiobkLta79_5alloc3vecINtB4_3VecNtNtCsdGrGZaRBwMb_3syn4expr3ArmE8push_mutBI_, symObjAddr: 0x14A0, symBinAddr: 0x5B1F0, symSize: 0x140 }
  - { offset: 0xD6919, size: 0x8, addend: 0x0, symName: __RNvMs_NtCslJiobkLta79_5alloc3vecINtB4_3VecNtNtCsdGrGZaRBwMb_3syn4expr6ExprIfE3popBI_, symObjAddr: 0x15E0, symBinAddr: 0x5B330, symSize: 0x120 }
  - { offset: 0xD6AAE, size: 0x8, addend: 0x0, symName: __RNvMs_NtCslJiobkLta79_5alloc3vecINtB4_3VecNtNtCsdGrGZaRBwMb_3syn4expr6ExprIfE4pushBI_, symObjAddr: 0x1700, symBinAddr: 0x5B450, symSize: 0x20 }
  - { offset: 0xD6BDF, size: 0x8, addend: 0x0, symName: __RNvMs_NtCslJiobkLta79_5alloc3vecINtB4_3VecNtNtCsdGrGZaRBwMb_3syn4expr6ExprIfE8push_mutBI_, symObjAddr: 0x1720, symBinAddr: 0x5B470, symSize: 0x130 }
  - { offset: 0xD6DA1, size: 0x8, addend: 0x0, symName: __RNvMs_NtCslJiobkLta79_5alloc3vecINtB4_3VecNtNtCsdGrGZaRBwMb_3syn4item11ForeignItemE4pushBI_, symObjAddr: 0x1850, symBinAddr: 0x5B5A0, symSize: 0x20 }
  - { offset: 0xD6E84, size: 0x8, addend: 0x0, symName: __RNvMs_NtCslJiobkLta79_5alloc3vecINtB4_3VecNtNtCsdGrGZaRBwMb_3syn4item11ForeignItemE7set_lenBI_, symObjAddr: 0x1870, symBinAddr: 0x5B5C0, symSize: 0x70 }
  - { offset: 0xD7063, size: 0x8, addend: 0x0, symName: __RNvMs_NtCslJiobkLta79_5alloc3vecINtB4_3VecNtNtCsdGrGZaRBwMb_3syn4item11ForeignItemE8push_mutBI_, symObjAddr: 0x18E0, symBinAddr: 0x5B630, symSize: 0x140 }
  - { offset: 0xD7225, size: 0x8, addend: 0x0, symName: __RNvMs_NtCslJiobkLta79_5alloc3vecINtB4_3VecNtNtCsdGrGZaRBwMb_3syn4item4ItemE4pushBI_, symObjAddr: 0x1A20, symBinAddr: 0x5B770, symSize: 0x20 }
  - { offset: 0xD7308, size: 0x8, addend: 0x0, symName: __RNvMs_NtCslJiobkLta79_5alloc3vecINtB4_3VecNtNtCsdGrGZaRBwMb_3syn4item4ItemE7set_lenBI_, symObjAddr: 0x1A40, symBinAddr: 0x5B790, symSize: 0x70 }
  - { offset: 0xD74E7, size: 0x8, addend: 0x0, symName: __RNvMs_NtCslJiobkLta79_5alloc3vecINtB4_3VecNtNtCsdGrGZaRBwMb_3syn4item4ItemE8push_mutBI_, symObjAddr: 0x1AB0, symBinAddr: 0x5B800, symSize: 0x140 }
  - { offset: 0xD76A9, size: 0x8, addend: 0x0, symName: __RNvMs_NtCslJiobkLta79_5alloc3vecINtB4_3VecNtNtCsdGrGZaRBwMb_3syn4item8ImplItemE4pushBI_, symObjAddr: 0x1BF0, symBinAddr: 0x5B940, symSize: 0x20 }
  - { offset: 0xD778C, size: 0x8, addend: 0x0, symName: __RNvMs_NtCslJiobkLta79_5alloc3vecINtB4_3VecNtNtCsdGrGZaRBwMb_3syn4item8ImplItemE7set_lenBI_, symObjAddr: 0x1C10, symBinAddr: 0x5B960, symSize: 0x70 }
  - { offset: 0xD796B, size: 0x8, addend: 0x0, symName: __RNvMs_NtCslJiobkLta79_5alloc3vecINtB4_3VecNtNtCsdGrGZaRBwMb_3syn4item8ImplItemE8push_mutBI_, symObjAddr: 0x1C80, symBinAddr: 0x5B9D0, symSize: 0x140 }
  - { offset: 0xD7B2D, size: 0x8, addend: 0x0, symName: __RNvMs_NtCslJiobkLta79_5alloc3vecINtB4_3VecNtNtCsdGrGZaRBwMb_3syn4item9TraitItemE4pushBI_, symObjAddr: 0x1DC0, symBinAddr: 0x5BB10, symSize: 0x20 }
  - { offset: 0xD7C10, size: 0x8, addend: 0x0, symName: __RNvMs_NtCslJiobkLta79_5alloc3vecINtB4_3VecNtNtCsdGrGZaRBwMb_3syn4item9TraitItemE7set_lenBI_, symObjAddr: 0x1DE0, symBinAddr: 0x5BB30, symSize: 0x70 }
  - { offset: 0xD7DEF, size: 0x8, addend: 0x0, symName: __RNvMs_NtCslJiobkLta79_5alloc3vecINtB4_3VecNtNtCsdGrGZaRBwMb_3syn4item9TraitItemE8push_mutBI_, symObjAddr: 0x1E50, symBinAddr: 0x5BBA0, symSize: 0x140 }
  - { offset: 0xD7FB1, size: 0x8, addend: 0x0, symName: __RNvMs_NtCslJiobkLta79_5alloc3vecINtB4_3VecNtNtCsdGrGZaRBwMb_3syn4stmt4StmtE4pushBI_, symObjAddr: 0x1F90, symBinAddr: 0x5BCE0, symSize: 0x20 }
  - { offset: 0xD8094, size: 0x8, addend: 0x0, symName: __RNvMs_NtCslJiobkLta79_5alloc3vecINtB4_3VecNtNtCsdGrGZaRBwMb_3syn4stmt4StmtE7set_lenBI_, symObjAddr: 0x1FB0, symBinAddr: 0x5BD00, symSize: 0x70 }
  - { offset: 0xD8273, size: 0x8, addend: 0x0, symName: __RNvMs_NtCslJiobkLta79_5alloc3vecINtB4_3VecNtNtCsdGrGZaRBwMb_3syn4stmt4StmtE8push_mutBI_, symObjAddr: 0x2020, symBinAddr: 0x5BD70, symSize: 0x140 }
  - { offset: 0xD8585, size: 0x8, addend: 0x0, symName: __RNvMs_NtCslJiobkLta79_5alloc3vecINtB4_3VecNtNtCsdGrGZaRBwMb_3syn5error12ErrorMessageE17from_raw_parts_inBI_, symObjAddr: 0x2220, symBinAddr: 0x5BEB0, symSize: 0xA0 }
  - { offset: 0xD870C, size: 0x8, addend: 0x0, symName: __RNvMs_NtCslJiobkLta79_5alloc3vecINtB4_3VecNtNtCsdGrGZaRBwMb_3syn5error12ErrorMessageE3lenBI_, symObjAddr: 0x22C0, symBinAddr: 0x5BF50, symSize: 0x10 }
  - { offset: 0xD8899, size: 0x8, addend: 0x0, symName: __RNvMs_NtCslJiobkLta79_5alloc3vecINtB4_3VecNtNtCsdGrGZaRBwMb_3syn6buffer5EntryE13shrink_to_fitBI_, symObjAddr: 0x2440, symBinAddr: 0x5BF60, symSize: 0xE0 }
  - { offset: 0xD8B13, size: 0x8, addend: 0x0, symName: __RNvMs_NtCslJiobkLta79_5alloc3vecINtB4_3VecNtNtCsdGrGZaRBwMb_3syn6buffer5EntryE16into_boxed_sliceBI_, symObjAddr: 0x2520, symBinAddr: 0x5C040, symSize: 0x160 }
  - { offset: 0xD8CE3, size: 0x8, addend: 0x0, symName: __RNvMs_NtCslJiobkLta79_5alloc3vecINtB4_3VecNtNtCsdGrGZaRBwMb_3syn6buffer5EntryE3lenBI_, symObjAddr: 0x2680, symBinAddr: 0x5C1A0, symSize: 0x10 }
  - { offset: 0xD8D18, size: 0x8, addend: 0x0, symName: __RNvMs_NtCslJiobkLta79_5alloc3vecINtB4_3VecNtNtCsdGrGZaRBwMb_3syn6buffer5EntryE4pushBI_, symObjAddr: 0x2690, symBinAddr: 0x5C1B0, symSize: 0x20 }
  - { offset: 0xD8E56, size: 0x8, addend: 0x0, symName: __RNvMs_NtCslJiobkLta79_5alloc3vecINtB4_3VecNtNtCsdGrGZaRBwMb_3syn6buffer5EntryE8push_mutBI_, symObjAddr: 0x26B0, symBinAddr: 0x5C1D0, symSize: 0x120 }
  - { offset: 0xD9018, size: 0x8, addend: 0x0, symName: __RNvMs_NtCslJiobkLta79_5alloc3vecINtB4_3VecNtNtCsdGrGZaRBwMb_3syn8generics14TypeParamBoundE4pushBI_, symObjAddr: 0x27D0, symBinAddr: 0x5C2F0, symSize: 0x20 }
  - { offset: 0xD9170, size: 0x8, addend: 0x0, symName: __RNvMs_NtCslJiobkLta79_5alloc3vecINtB4_3VecNtNtCsdGrGZaRBwMb_3syn8generics14TypeParamBoundE8push_mutBI_, symObjAddr: 0x27F0, symBinAddr: 0x5C310, symSize: 0x130 }
  - { offset: 0xD9325, size: 0x8, addend: 0x0, symName: __RNvMs_NtCslJiobkLta79_5alloc3vecINtB4_3VecReE3lenCsdGrGZaRBwMb_3syn, symObjAddr: 0x2920, symBinAddr: 0x5C440, symSize: 0x10 }
  - { offset: 0xD935A, size: 0x8, addend: 0x0, symName: __RNvMs_NtCslJiobkLta79_5alloc3vecINtB4_3VecReE4pushCsdGrGZaRBwMb_3syn, symObjAddr: 0x2930, symBinAddr: 0x5C450, symSize: 0x20 }
  - { offset: 0xD9435, size: 0x8, addend: 0x0, symName: __RNvMs_NtCslJiobkLta79_5alloc3vecINtB4_3VecReE8as_sliceCsdGrGZaRBwMb_3syn, symObjAddr: 0x2950, symBinAddr: 0x5C470, symSize: 0x50 }
  - { offset: 0xD95CE, size: 0x8, addend: 0x0, symName: __RNvMs_NtCslJiobkLta79_5alloc3vecINtB4_3VecReE8push_mutCsdGrGZaRBwMb_3syn, symObjAddr: 0x29A0, symBinAddr: 0x5C4C0, symSize: 0xF0 }
  - { offset: 0xD9791, size: 0x8, addend: 0x0, symName: __RNvMs_NtCslJiobkLta79_5alloc3vecINtB4_3VecTNtNtCsdGrGZaRBwMb_3syn2ty4TypeNtNtBJ_5token5CommaEE3lenBJ_, symObjAddr: 0x2A90, symBinAddr: 0x5C5B0, symSize: 0x10 }
  - { offset: 0xD97D3, size: 0x8, addend: 0x0, symName: __RNvMs_NtCslJiobkLta79_5alloc3vecINtB4_3VecTNtNtCsdGrGZaRBwMb_3syn2ty4TypeNtNtBJ_5token5CommaEE4pushBJ_, symObjAddr: 0x2AA0, symBinAddr: 0x5C5C0, symSize: 0x20 }
  - { offset: 0xD98A9, size: 0x8, addend: 0x0, symName: __RNvMs_NtCslJiobkLta79_5alloc3vecINtB4_3VecTNtNtCsdGrGZaRBwMb_3syn2ty4TypeNtNtBJ_5token5CommaEE7set_lenBJ_, symObjAddr: 0x2AC0, symBinAddr: 0x5C5E0, symSize: 0x70 }
  - { offset: 0xD9A33, size: 0x8, addend: 0x0, symName: __RNvMs_NtCslJiobkLta79_5alloc3vecINtB4_3VecTNtNtCsdGrGZaRBwMb_3syn2ty4TypeNtNtBJ_5token5CommaEE8as_sliceBJ_, symObjAddr: 0x2B30, symBinAddr: 0x5C650, symSize: 0x50 }
  - { offset: 0xD9BD9, size: 0x8, addend: 0x0, symName: __RNvMs_NtCslJiobkLta79_5alloc3vecINtB4_3VecTNtNtCsdGrGZaRBwMb_3syn2ty4TypeNtNtBJ_5token5CommaEE8push_mutBJ_, symObjAddr: 0x2B80, symBinAddr: 0x5C6A0, symSize: 0x140 }
  - { offset: 0xD9D9B, size: 0x8, addend: 0x0, symName: __RNvMs_NtCslJiobkLta79_5alloc3vecINtB4_3VecTNtNtCsdGrGZaRBwMb_3syn2ty9BareFnArgNtNtBJ_5token5CommaEE3lenBJ_, symObjAddr: 0x2CC0, symBinAddr: 0x5C7E0, symSize: 0x10 }
  - { offset: 0xD9DDD, size: 0x8, addend: 0x0, symName: __RNvMs_NtCslJiobkLta79_5alloc3vecINtB4_3VecTNtNtCsdGrGZaRBwMb_3syn2ty9BareFnArgNtNtBJ_5token5CommaEE4pushBJ_, symObjAddr: 0x2CD0, symBinAddr: 0x5C7F0, symSize: 0x20 }
  - { offset: 0xD9EB3, size: 0x8, addend: 0x0, symName: __RNvMs_NtCslJiobkLta79_5alloc3vecINtB4_3VecTNtNtCsdGrGZaRBwMb_3syn2ty9BareFnArgNtNtBJ_5token5CommaEE7set_lenBJ_, symObjAddr: 0x2CF0, symBinAddr: 0x5C810, symSize: 0x70 }
  - { offset: 0xDA03D, size: 0x8, addend: 0x0, symName: __RNvMs_NtCslJiobkLta79_5alloc3vecINtB4_3VecTNtNtCsdGrGZaRBwMb_3syn2ty9BareFnArgNtNtBJ_5token5CommaEE8as_sliceBJ_, symObjAddr: 0x2D60, symBinAddr: 0x5C880, symSize: 0x50 }
  - { offset: 0xDA1E3, size: 0x8, addend: 0x0, symName: __RNvMs_NtCslJiobkLta79_5alloc3vecINtB4_3VecTNtNtCsdGrGZaRBwMb_3syn2ty9BareFnArgNtNtBJ_5token5CommaEE8push_mutBJ_, symObjAddr: 0x2DB0, symBinAddr: 0x5C8D0, symSize: 0x140 }
  - { offset: 0xDA3A5, size: 0x8, addend: 0x0, symName: __RNvMs_NtCslJiobkLta79_5alloc3vecINtB4_3VecTNtNtCsdGrGZaRBwMb_3syn3pat3PatNtNtBJ_5token2OrEE4pushBJ_, symObjAddr: 0x2EF0, symBinAddr: 0x5CA10, symSize: 0x20 }
  - { offset: 0xDA488, size: 0x8, addend: 0x0, symName: __RNvMs_NtCslJiobkLta79_5alloc3vecINtB4_3VecTNtNtCsdGrGZaRBwMb_3syn3pat3PatNtNtBJ_5token2OrEE7set_lenBJ_, symObjAddr: 0x2F10, symBinAddr: 0x5CA30, symSize: 0x70 }
  - { offset: 0xDA612, size: 0x8, addend: 0x0, symName: __RNvMs_NtCslJiobkLta79_5alloc3vecINtB4_3VecTNtNtCsdGrGZaRBwMb_3syn3pat3PatNtNtBJ_5token2OrEE8as_sliceBJ_, symObjAddr: 0x2F80, symBinAddr: 0x5CAA0, symSize: 0x50 }
  - { offset: 0xDA7B8, size: 0x8, addend: 0x0, symName: __RNvMs_NtCslJiobkLta79_5alloc3vecINtB4_3VecTNtNtCsdGrGZaRBwMb_3syn3pat3PatNtNtBJ_5token2OrEE8push_mutBJ_, symObjAddr: 0x2FD0, symBinAddr: 0x5CAF0, symSize: 0x140 }
  - { offset: 0xDA97A, size: 0x8, addend: 0x0, symName: __RNvMs_NtCslJiobkLta79_5alloc3vecINtB4_3VecTNtNtCsdGrGZaRBwMb_3syn3pat3PatNtNtBJ_5token5CommaEE3lenBJ_, symObjAddr: 0x3110, symBinAddr: 0x5CC30, symSize: 0x10 }
  - { offset: 0xDA9BC, size: 0x8, addend: 0x0, symName: __RNvMs_NtCslJiobkLta79_5alloc3vecINtB4_3VecTNtNtCsdGrGZaRBwMb_3syn3pat3PatNtNtBJ_5token5CommaEE4pushBJ_, symObjAddr: 0x3120, symBinAddr: 0x5CC40, symSize: 0x20 }
  - { offset: 0xDAA92, size: 0x8, addend: 0x0, symName: __RNvMs_NtCslJiobkLta79_5alloc3vecINtB4_3VecTNtNtCsdGrGZaRBwMb_3syn3pat3PatNtNtBJ_5token5CommaEE7set_lenBJ_, symObjAddr: 0x3140, symBinAddr: 0x5CC60, symSize: 0x70 }
  - { offset: 0xDAC1C, size: 0x8, addend: 0x0, symName: __RNvMs_NtCslJiobkLta79_5alloc3vecINtB4_3VecTNtNtCsdGrGZaRBwMb_3syn3pat3PatNtNtBJ_5token5CommaEE8as_sliceBJ_, symObjAddr: 0x31B0, symBinAddr: 0x5CCD0, symSize: 0x50 }
  - { offset: 0xDADC2, size: 0x8, addend: 0x0, symName: __RNvMs_NtCslJiobkLta79_5alloc3vecINtB4_3VecTNtNtCsdGrGZaRBwMb_3syn3pat3PatNtNtBJ_5token5CommaEE8push_mutBJ_, symObjAddr: 0x3200, symBinAddr: 0x5CD20, symSize: 0x140 }
  - { offset: 0xDAF84, size: 0x8, addend: 0x0, symName: __RNvMs_NtCslJiobkLta79_5alloc3vecINtB4_3VecTNtNtCsdGrGZaRBwMb_3syn3pat8FieldPatNtNtBJ_5token5CommaEE4pushBJ_, symObjAddr: 0x3340, symBinAddr: 0x5CE60, symSize: 0x20 }
  - { offset: 0xDB067, size: 0x8, addend: 0x0, symName: __RNvMs_NtCslJiobkLta79_5alloc3vecINtB4_3VecTNtNtCsdGrGZaRBwMb_3syn3pat8FieldPatNtNtBJ_5token5CommaEE7set_lenBJ_, symObjAddr: 0x3360, symBinAddr: 0x5CE80, symSize: 0x70 }
  - { offset: 0xDB1F1, size: 0x8, addend: 0x0, symName: __RNvMs_NtCslJiobkLta79_5alloc3vecINtB4_3VecTNtNtCsdGrGZaRBwMb_3syn3pat8FieldPatNtNtBJ_5token5CommaEE8as_sliceBJ_, symObjAddr: 0x33D0, symBinAddr: 0x5CEF0, symSize: 0x50 }
  - { offset: 0xDB397, size: 0x8, addend: 0x0, symName: __RNvMs_NtCslJiobkLta79_5alloc3vecINtB4_3VecTNtNtCsdGrGZaRBwMb_3syn3pat8FieldPatNtNtBJ_5token5CommaEE8push_mutBJ_, symObjAddr: 0x3420, symBinAddr: 0x5CF40, symSize: 0x130 }
  - { offset: 0xDB627, size: 0x8, addend: 0x0, symName: __RNvMs_NtCslJiobkLta79_5alloc3vecINtB4_3VecTNtNtCsdGrGZaRBwMb_3syn4data5FieldNtNtBJ_5token5CommaEE12as_mut_sliceBJ_, symObjAddr: 0x3550, symBinAddr: 0x5D070, symSize: 0x50 }
  - { offset: 0xDB703, size: 0x8, addend: 0x0, symName: __RNvMs_NtCslJiobkLta79_5alloc3vecINtB4_3VecTNtNtCsdGrGZaRBwMb_3syn4data5FieldNtNtBJ_5token5CommaEE3lenBJ_, symObjAddr: 0x35A0, symBinAddr: 0x5D0C0, symSize: 0x10 }
  - { offset: 0xDB738, size: 0x8, addend: 0x0, symName: __RNvMs_NtCslJiobkLta79_5alloc3vecINtB4_3VecTNtNtCsdGrGZaRBwMb_3syn4data5FieldNtNtBJ_5token5CommaEE4pushBJ_, symObjAddr: 0x35B0, symBinAddr: 0x5D0D0, symSize: 0x20 }
  - { offset: 0xDB801, size: 0x8, addend: 0x0, symName: __RNvMs_NtCslJiobkLta79_5alloc3vecINtB4_3VecTNtNtCsdGrGZaRBwMb_3syn4data5FieldNtNtBJ_5token5CommaEE7set_lenBJ_, symObjAddr: 0x35D0, symBinAddr: 0x5D0F0, symSize: 0x70 }
  - { offset: 0xDB968, size: 0x8, addend: 0x0, symName: __RNvMs_NtCslJiobkLta79_5alloc3vecINtB4_3VecTNtNtCsdGrGZaRBwMb_3syn4data5FieldNtNtBJ_5token5CommaEE8as_sliceBJ_, symObjAddr: 0x3640, symBinAddr: 0x5D160, symSize: 0x50 }
  - { offset: 0xDBB0E, size: 0x8, addend: 0x0, symName: __RNvMs_NtCslJiobkLta79_5alloc3vecINtB4_3VecTNtNtCsdGrGZaRBwMb_3syn4data5FieldNtNtBJ_5token5CommaEE8push_mutBJ_, symObjAddr: 0x3690, symBinAddr: 0x5D1B0, symSize: 0x140 }
  - { offset: 0xDBCD0, size: 0x8, addend: 0x0, symName: __RNvMs_NtCslJiobkLta79_5alloc3vecINtB4_3VecTNtNtCsdGrGZaRBwMb_3syn4data7VariantNtNtBJ_5token5CommaEE4pushBJ_, symObjAddr: 0x37E0, symBinAddr: 0x5D2F0, symSize: 0x20 }
  - { offset: 0xDBDB3, size: 0x8, addend: 0x0, symName: __RNvMs_NtCslJiobkLta79_5alloc3vecINtB4_3VecTNtNtCsdGrGZaRBwMb_3syn4data7VariantNtNtBJ_5token5CommaEE7set_lenBJ_, symObjAddr: 0x3800, symBinAddr: 0x5D310, symSize: 0x70 }
  - { offset: 0xDBF3D, size: 0x8, addend: 0x0, symName: __RNvMs_NtCslJiobkLta79_5alloc3vecINtB4_3VecTNtNtCsdGrGZaRBwMb_3syn4data7VariantNtNtBJ_5token5CommaEE8as_sliceBJ_, symObjAddr: 0x3870, symBinAddr: 0x5D380, symSize: 0x50 }
  - { offset: 0xDC0E3, size: 0x8, addend: 0x0, symName: __RNvMs_NtCslJiobkLta79_5alloc3vecINtB4_3VecTNtNtCsdGrGZaRBwMb_3syn4data7VariantNtNtBJ_5token5CommaEE8push_mutBJ_, symObjAddr: 0x38C0, symBinAddr: 0x5D3D0, symSize: 0x140 }
  - { offset: 0xDC2A5, size: 0x8, addend: 0x0, symName: __RNvMs_NtCslJiobkLta79_5alloc3vecINtB4_3VecTNtNtCsdGrGZaRBwMb_3syn4expr10FieldValueNtNtBJ_5token5CommaEE4pushBJ_, symObjAddr: 0x3A00, symBinAddr: 0x5D510, symSize: 0x20 }
  - { offset: 0xDC388, size: 0x8, addend: 0x0, symName: __RNvMs_NtCslJiobkLta79_5alloc3vecINtB4_3VecTNtNtCsdGrGZaRBwMb_3syn4expr10FieldValueNtNtBJ_5token5CommaEE7set_lenBJ_, symObjAddr: 0x3A20, symBinAddr: 0x5D530, symSize: 0x70 }
  - { offset: 0xDC512, size: 0x8, addend: 0x0, symName: __RNvMs_NtCslJiobkLta79_5alloc3vecINtB4_3VecTNtNtCsdGrGZaRBwMb_3syn4expr10FieldValueNtNtBJ_5token5CommaEE8as_sliceBJ_, symObjAddr: 0x3A90, symBinAddr: 0x5D5A0, symSize: 0x50 }
  - { offset: 0xDC6B8, size: 0x8, addend: 0x0, symName: __RNvMs_NtCslJiobkLta79_5alloc3vecINtB4_3VecTNtNtCsdGrGZaRBwMb_3syn4expr10FieldValueNtNtBJ_5token5CommaEE8push_mutBJ_, symObjAddr: 0x3AE0, symBinAddr: 0x5D5F0, symSize: 0x140 }
  - { offset: 0xDC87A, size: 0x8, addend: 0x0, symName: __RNvMs_NtCslJiobkLta79_5alloc3vecINtB4_3VecTNtNtCsdGrGZaRBwMb_3syn4expr4ExprNtNtBJ_5token5CommaEE3lenBJ_, symObjAddr: 0x3C20, symBinAddr: 0x5D730, symSize: 0x10 }
  - { offset: 0xDC8BC, size: 0x8, addend: 0x0, symName: __RNvMs_NtCslJiobkLta79_5alloc3vecINtB4_3VecTNtNtCsdGrGZaRBwMb_3syn4expr4ExprNtNtBJ_5token5CommaEE4pushBJ_, symObjAddr: 0x3C30, symBinAddr: 0x5D740, symSize: 0x20 }
  - { offset: 0xDC992, size: 0x8, addend: 0x0, symName: __RNvMs_NtCslJiobkLta79_5alloc3vecINtB4_3VecTNtNtCsdGrGZaRBwMb_3syn4expr4ExprNtNtBJ_5token5CommaEE7set_lenBJ_, symObjAddr: 0x3C50, symBinAddr: 0x5D760, symSize: 0x70 }
  - { offset: 0xDCB1C, size: 0x8, addend: 0x0, symName: __RNvMs_NtCslJiobkLta79_5alloc3vecINtB4_3VecTNtNtCsdGrGZaRBwMb_3syn4expr4ExprNtNtBJ_5token5CommaEE8as_sliceBJ_, symObjAddr: 0x3CC0, symBinAddr: 0x5D7D0, symSize: 0x50 }
  - { offset: 0xDCCC2, size: 0x8, addend: 0x0, symName: __RNvMs_NtCslJiobkLta79_5alloc3vecINtB4_3VecTNtNtCsdGrGZaRBwMb_3syn4expr4ExprNtNtBJ_5token5CommaEE8push_mutBJ_, symObjAddr: 0x3D10, symBinAddr: 0x5D820, symSize: 0x140 }
  - { offset: 0xDCE84, size: 0x8, addend: 0x0, symName: __RNvMs_NtCslJiobkLta79_5alloc3vecINtB4_3VecTNtNtCsdGrGZaRBwMb_3syn4item5FnArgNtNtBJ_5token5CommaEE3lenBJ_, symObjAddr: 0x3E50, symBinAddr: 0x5D960, symSize: 0x10 }
  - { offset: 0xDCEC6, size: 0x8, addend: 0x0, symName: __RNvMs_NtCslJiobkLta79_5alloc3vecINtB4_3VecTNtNtCsdGrGZaRBwMb_3syn4item5FnArgNtNtBJ_5token5CommaEE4pushBJ_, symObjAddr: 0x3E60, symBinAddr: 0x5D970, symSize: 0x20 }
  - { offset: 0xDCF9C, size: 0x8, addend: 0x0, symName: __RNvMs_NtCslJiobkLta79_5alloc3vecINtB4_3VecTNtNtCsdGrGZaRBwMb_3syn4item5FnArgNtNtBJ_5token5CommaEE7set_lenBJ_, symObjAddr: 0x3E80, symBinAddr: 0x5D990, symSize: 0x70 }
  - { offset: 0xDD126, size: 0x8, addend: 0x0, symName: __RNvMs_NtCslJiobkLta79_5alloc3vecINtB4_3VecTNtNtCsdGrGZaRBwMb_3syn4item5FnArgNtNtBJ_5token5CommaEE8as_sliceBJ_, symObjAddr: 0x3EF0, symBinAddr: 0x5DA00, symSize: 0x50 }
  - { offset: 0xDD2CC, size: 0x8, addend: 0x0, symName: __RNvMs_NtCslJiobkLta79_5alloc3vecINtB4_3VecTNtNtCsdGrGZaRBwMb_3syn4item5FnArgNtNtBJ_5token5CommaEE8push_mutBJ_, symObjAddr: 0x3F40, symBinAddr: 0x5DA50, symSize: 0x130 }
  - { offset: 0xDD48E, size: 0x8, addend: 0x0, symName: __RNvMs_NtCslJiobkLta79_5alloc3vecINtB4_3VecTNtNtCsdGrGZaRBwMb_3syn4item7UseTreeNtNtBJ_5token5CommaEE4pushBJ_, symObjAddr: 0x4070, symBinAddr: 0x5DB80, symSize: 0x20 }
  - { offset: 0xDD571, size: 0x8, addend: 0x0, symName: __RNvMs_NtCslJiobkLta79_5alloc3vecINtB4_3VecTNtNtCsdGrGZaRBwMb_3syn4item7UseTreeNtNtBJ_5token5CommaEE7set_lenBJ_, symObjAddr: 0x4090, symBinAddr: 0x5DBA0, symSize: 0x70 }
  - { offset: 0xDD6FB, size: 0x8, addend: 0x0, symName: __RNvMs_NtCslJiobkLta79_5alloc3vecINtB4_3VecTNtNtCsdGrGZaRBwMb_3syn4item7UseTreeNtNtBJ_5token5CommaEE8as_sliceBJ_, symObjAddr: 0x4100, symBinAddr: 0x5DC10, symSize: 0x50 }
  - { offset: 0xDD8A1, size: 0x8, addend: 0x0, symName: __RNvMs_NtCslJiobkLta79_5alloc3vecINtB4_3VecTNtNtCsdGrGZaRBwMb_3syn4item7UseTreeNtNtBJ_5token5CommaEE8push_mutBJ_, symObjAddr: 0x4150, symBinAddr: 0x5DC60, symSize: 0x130 }
  - { offset: 0xDDB31, size: 0x8, addend: 0x0, symName: __RNvMs_NtCslJiobkLta79_5alloc3vecINtB4_3VecTNtNtCsdGrGZaRBwMb_3syn4path11PathSegmentNtNtBJ_5token7PathSepEE12as_mut_sliceBJ_, symObjAddr: 0x4280, symBinAddr: 0x5DD90, symSize: 0x50 }
  - { offset: 0xDDC0D, size: 0x8, addend: 0x0, symName: __RNvMs_NtCslJiobkLta79_5alloc3vecINtB4_3VecTNtNtCsdGrGZaRBwMb_3syn4path11PathSegmentNtNtBJ_5token7PathSepEE3lenBJ_, symObjAddr: 0x42D0, symBinAddr: 0x5DDE0, symSize: 0x10 }
  - { offset: 0xDDD5B, size: 0x8, addend: 0x0, symName: __RNvMs_NtCslJiobkLta79_5alloc3vecINtB4_3VecTNtNtCsdGrGZaRBwMb_3syn4path11PathSegmentNtNtBJ_5token7PathSepEE3popBJ_, symObjAddr: 0x42E0, symBinAddr: 0x5DDF0, symSize: 0x120 }
  - { offset: 0xDDEF0, size: 0x8, addend: 0x0, symName: __RNvMs_NtCslJiobkLta79_5alloc3vecINtB4_3VecTNtNtCsdGrGZaRBwMb_3syn4path11PathSegmentNtNtBJ_5token7PathSepEE4pushBJ_, symObjAddr: 0x4400, symBinAddr: 0x5DF10, symSize: 0x20 }
  - { offset: 0xDDFB9, size: 0x8, addend: 0x0, symName: __RNvMs_NtCslJiobkLta79_5alloc3vecINtB4_3VecTNtNtCsdGrGZaRBwMb_3syn4path11PathSegmentNtNtBJ_5token7PathSepEE7set_lenBJ_, symObjAddr: 0x4420, symBinAddr: 0x5DF30, symSize: 0x70 }
  - { offset: 0xDE120, size: 0x8, addend: 0x0, symName: __RNvMs_NtCslJiobkLta79_5alloc3vecINtB4_3VecTNtNtCsdGrGZaRBwMb_3syn4path11PathSegmentNtNtBJ_5token7PathSepEE8as_sliceBJ_, symObjAddr: 0x4490, symBinAddr: 0x5DFA0, symSize: 0x50 }
  - { offset: 0xDE2C6, size: 0x8, addend: 0x0, symName: __RNvMs_NtCslJiobkLta79_5alloc3vecINtB4_3VecTNtNtCsdGrGZaRBwMb_3syn4path11PathSegmentNtNtBJ_5token7PathSepEE8push_mutBJ_, symObjAddr: 0x44E0, symBinAddr: 0x5DFF0, symSize: 0x130 }
  - { offset: 0xDE488, size: 0x8, addend: 0x0, symName: __RNvMs_NtCslJiobkLta79_5alloc3vecINtB4_3VecTNtNtCsdGrGZaRBwMb_3syn4path15GenericArgumentNtNtBJ_5token5CommaEE3lenBJ_, symObjAddr: 0x4610, symBinAddr: 0x5E120, symSize: 0x10 }
  - { offset: 0xDE4CA, size: 0x8, addend: 0x0, symName: __RNvMs_NtCslJiobkLta79_5alloc3vecINtB4_3VecTNtNtCsdGrGZaRBwMb_3syn4path15GenericArgumentNtNtBJ_5token5CommaEE4pushBJ_, symObjAddr: 0x4620, symBinAddr: 0x5E130, symSize: 0x20 }
  - { offset: 0xDE5A0, size: 0x8, addend: 0x0, symName: __RNvMs_NtCslJiobkLta79_5alloc3vecINtB4_3VecTNtNtCsdGrGZaRBwMb_3syn4path15GenericArgumentNtNtBJ_5token5CommaEE7set_lenBJ_, symObjAddr: 0x4640, symBinAddr: 0x5E150, symSize: 0x70 }
  - { offset: 0xDE72A, size: 0x8, addend: 0x0, symName: __RNvMs_NtCslJiobkLta79_5alloc3vecINtB4_3VecTNtNtCsdGrGZaRBwMb_3syn4path15GenericArgumentNtNtBJ_5token5CommaEE8as_sliceBJ_, symObjAddr: 0x46B0, symBinAddr: 0x5E1C0, symSize: 0x50 }
  - { offset: 0xDE8D0, size: 0x8, addend: 0x0, symName: __RNvMs_NtCslJiobkLta79_5alloc3vecINtB4_3VecTNtNtCsdGrGZaRBwMb_3syn4path15GenericArgumentNtNtBJ_5token5CommaEE8push_mutBJ_, symObjAddr: 0x4700, symBinAddr: 0x5E210, symSize: 0x140 }
  - { offset: 0xDEAED, size: 0x8, addend: 0x0, symName: __RNvMs_NtCslJiobkLta79_5alloc3vecINtB4_3VecTNtNtCsdGrGZaRBwMb_3syn8generics12GenericParamNtNtBJ_5token5CommaEE3lenBJ_, symObjAddr: 0x4890, symBinAddr: 0x5E350, symSize: 0x10 }
  - { offset: 0xDEB22, size: 0x8, addend: 0x0, symName: __RNvMs_NtCslJiobkLta79_5alloc3vecINtB4_3VecTNtNtCsdGrGZaRBwMb_3syn8generics12GenericParamNtNtBJ_5token5CommaEE4pushBJ_, symObjAddr: 0x48A0, symBinAddr: 0x5E360, symSize: 0x20 }
  - { offset: 0xDEBEB, size: 0x8, addend: 0x0, symName: __RNvMs_NtCslJiobkLta79_5alloc3vecINtB4_3VecTNtNtCsdGrGZaRBwMb_3syn8generics12GenericParamNtNtBJ_5token5CommaEE7set_lenBJ_, symObjAddr: 0x48C0, symBinAddr: 0x5E380, symSize: 0x70 }
  - { offset: 0xDED52, size: 0x8, addend: 0x0, symName: __RNvMs_NtCslJiobkLta79_5alloc3vecINtB4_3VecTNtNtCsdGrGZaRBwMb_3syn8generics12GenericParamNtNtBJ_5token5CommaEE8as_sliceBJ_, symObjAddr: 0x4930, symBinAddr: 0x5E3F0, symSize: 0x50 }
  - { offset: 0xDEEF8, size: 0x8, addend: 0x0, symName: __RNvMs_NtCslJiobkLta79_5alloc3vecINtB4_3VecTNtNtCsdGrGZaRBwMb_3syn8generics12GenericParamNtNtBJ_5token5CommaEE8push_mutBJ_, symObjAddr: 0x4980, symBinAddr: 0x5E440, symSize: 0x140 }
  - { offset: 0xDF0BA, size: 0x8, addend: 0x0, symName: __RNvMs_NtCslJiobkLta79_5alloc3vecINtB4_3VecTNtNtCsdGrGZaRBwMb_3syn8generics13CapturedParamNtNtBJ_5token5CommaEE4pushBJ_, symObjAddr: 0x4AC0, symBinAddr: 0x5E580, symSize: 0x20 }
  - { offset: 0xDF19D, size: 0x8, addend: 0x0, symName: __RNvMs_NtCslJiobkLta79_5alloc3vecINtB4_3VecTNtNtCsdGrGZaRBwMb_3syn8generics13CapturedParamNtNtBJ_5token5CommaEE7set_lenBJ_, symObjAddr: 0x4AE0, symBinAddr: 0x5E5A0, symSize: 0x70 }
  - { offset: 0xDF327, size: 0x8, addend: 0x0, symName: __RNvMs_NtCslJiobkLta79_5alloc3vecINtB4_3VecTNtNtCsdGrGZaRBwMb_3syn8generics13CapturedParamNtNtBJ_5token5CommaEE8as_sliceBJ_, symObjAddr: 0x4B50, symBinAddr: 0x5E610, symSize: 0x50 }
  - { offset: 0xDF4CD, size: 0x8, addend: 0x0, symName: __RNvMs_NtCslJiobkLta79_5alloc3vecINtB4_3VecTNtNtCsdGrGZaRBwMb_3syn8generics13CapturedParamNtNtBJ_5token5CommaEE8push_mutBJ_, symObjAddr: 0x4BA0, symBinAddr: 0x5E660, symSize: 0x130 }
  - { offset: 0xDF68F, size: 0x8, addend: 0x0, symName: __RNvMs_NtCslJiobkLta79_5alloc3vecINtB4_3VecTNtNtCsdGrGZaRBwMb_3syn8generics14TypeParamBoundNtNtBJ_5token4PlusEE3lenBJ_, symObjAddr: 0x4CD0, symBinAddr: 0x5E790, symSize: 0x10 }
  - { offset: 0xDF6D1, size: 0x8, addend: 0x0, symName: __RNvMs_NtCslJiobkLta79_5alloc3vecINtB4_3VecTNtNtCsdGrGZaRBwMb_3syn8generics14TypeParamBoundNtNtBJ_5token4PlusEE4pushBJ_, symObjAddr: 0x4CE0, symBinAddr: 0x5E7A0, symSize: 0x20 }
  - { offset: 0xDF7A7, size: 0x8, addend: 0x0, symName: __RNvMs_NtCslJiobkLta79_5alloc3vecINtB4_3VecTNtNtCsdGrGZaRBwMb_3syn8generics14TypeParamBoundNtNtBJ_5token4PlusEE7set_lenBJ_, symObjAddr: 0x4D00, symBinAddr: 0x5E7C0, symSize: 0x70 }
  - { offset: 0xDF931, size: 0x8, addend: 0x0, symName: __RNvMs_NtCslJiobkLta79_5alloc3vecINtB4_3VecTNtNtCsdGrGZaRBwMb_3syn8generics14TypeParamBoundNtNtBJ_5token4PlusEE8as_sliceBJ_, symObjAddr: 0x4D70, symBinAddr: 0x5E830, symSize: 0x50 }
  - { offset: 0xDFAD7, size: 0x8, addend: 0x0, symName: __RNvMs_NtCslJiobkLta79_5alloc3vecINtB4_3VecTNtNtCsdGrGZaRBwMb_3syn8generics14TypeParamBoundNtNtBJ_5token4PlusEE8push_mutBJ_, symObjAddr: 0x4DC0, symBinAddr: 0x5E880, symSize: 0x130 }
  - { offset: 0xDFC99, size: 0x8, addend: 0x0, symName: __RNvMs_NtCslJiobkLta79_5alloc3vecINtB4_3VecTNtNtCsdGrGZaRBwMb_3syn8generics14WherePredicateNtNtBJ_5token5CommaEE3lenBJ_, symObjAddr: 0x4EF0, symBinAddr: 0x5E9B0, symSize: 0x10 }
  - { offset: 0xDFCDB, size: 0x8, addend: 0x0, symName: __RNvMs_NtCslJiobkLta79_5alloc3vecINtB4_3VecTNtNtCsdGrGZaRBwMb_3syn8generics14WherePredicateNtNtBJ_5token5CommaEE4pushBJ_, symObjAddr: 0x4F00, symBinAddr: 0x5E9C0, symSize: 0x20 }
  - { offset: 0xDFDB1, size: 0x8, addend: 0x0, symName: __RNvMs_NtCslJiobkLta79_5alloc3vecINtB4_3VecTNtNtCsdGrGZaRBwMb_3syn8generics14WherePredicateNtNtBJ_5token5CommaEE7set_lenBJ_, symObjAddr: 0x4F20, symBinAddr: 0x5E9E0, symSize: 0x70 }
  - { offset: 0xDFF3B, size: 0x8, addend: 0x0, symName: __RNvMs_NtCslJiobkLta79_5alloc3vecINtB4_3VecTNtNtCsdGrGZaRBwMb_3syn8generics14WherePredicateNtNtBJ_5token5CommaEE8as_sliceBJ_, symObjAddr: 0x4F90, symBinAddr: 0x5EA50, symSize: 0x50 }
  - { offset: 0xE00E1, size: 0x8, addend: 0x0, symName: __RNvMs_NtCslJiobkLta79_5alloc3vecINtB4_3VecTNtNtCsdGrGZaRBwMb_3syn8generics14WherePredicateNtNtBJ_5token5CommaEE8push_mutBJ_, symObjAddr: 0x4FE0, symBinAddr: 0x5EAA0, symSize: 0x140 }
  - { offset: 0xE02A3, size: 0x8, addend: 0x0, symName: __RNvMs_NtCslJiobkLta79_5alloc3vecINtB4_3VecTNtNtCsdGrGZaRBwMb_3syn8lifetime8LifetimeNtNtBJ_5token4PlusEE3lenBJ_, symObjAddr: 0x5120, symBinAddr: 0x5EBE0, symSize: 0x10 }
  - { offset: 0xE02E5, size: 0x8, addend: 0x0, symName: __RNvMs_NtCslJiobkLta79_5alloc3vecINtB4_3VecTNtNtCsdGrGZaRBwMb_3syn8lifetime8LifetimeNtNtBJ_5token4PlusEE4pushBJ_, symObjAddr: 0x5130, symBinAddr: 0x5EBF0, symSize: 0x20 }
  - { offset: 0xE03BB, size: 0x8, addend: 0x0, symName: __RNvMs_NtCslJiobkLta79_5alloc3vecINtB4_3VecTNtNtCsdGrGZaRBwMb_3syn8lifetime8LifetimeNtNtBJ_5token4PlusEE7set_lenBJ_, symObjAddr: 0x5150, symBinAddr: 0x5EC10, symSize: 0x70 }
  - { offset: 0xE0545, size: 0x8, addend: 0x0, symName: __RNvMs_NtCslJiobkLta79_5alloc3vecINtB4_3VecTNtNtCsdGrGZaRBwMb_3syn8lifetime8LifetimeNtNtBJ_5token4PlusEE8as_sliceBJ_, symObjAddr: 0x51C0, symBinAddr: 0x5EC80, symSize: 0x50 }
  - { offset: 0xE06EB, size: 0x8, addend: 0x0, symName: __RNvMs_NtCslJiobkLta79_5alloc3vecINtB4_3VecTNtNtCsdGrGZaRBwMb_3syn8lifetime8LifetimeNtNtBJ_5token4PlusEE8push_mutBJ_, symObjAddr: 0x5210, symBinAddr: 0x5ECD0, symSize: 0x130 }
  - { offset: 0xE09A6, size: 0x8, addend: 0x0, symName: __RNvMs_NtCslJiobkLta79_5alloc3vecINtB4_3VechE13shrink_to_fitCsdGrGZaRBwMb_3syn, symObjAddr: 0x5340, symBinAddr: 0x5EE00, symSize: 0xE0 }
  - { offset: 0xE0BDB, size: 0x8, addend: 0x0, symName: __RNvMs_NtCslJiobkLta79_5alloc3vecINtB4_3VechE16into_boxed_sliceCsdGrGZaRBwMb_3syn, symObjAddr: 0x5420, symBinAddr: 0x5EEE0, symSize: 0x160 }
  - { offset: 0xE0DAB, size: 0x8, addend: 0x0, symName: __RNvMs_NtCslJiobkLta79_5alloc3vecINtB4_3VechE3lenCsdGrGZaRBwMb_3syn, symObjAddr: 0x5580, symBinAddr: 0x5F040, symSize: 0x10 }
  - { offset: 0xE0DE0, size: 0x8, addend: 0x0, symName: __RNvMs_NtCslJiobkLta79_5alloc3vecINtB4_3VechE4pushCsdGrGZaRBwMb_3syn, symObjAddr: 0x5590, symBinAddr: 0x5F050, symSize: 0x20 }
  - { offset: 0xE0E94, size: 0x8, addend: 0x0, symName: __RNvMs_NtCslJiobkLta79_5alloc3vecINtB4_3VechE8as_sliceCsdGrGZaRBwMb_3syn, symObjAddr: 0x55B0, symBinAddr: 0x5F070, symSize: 0x50 }
  - { offset: 0xE103A, size: 0x8, addend: 0x0, symName: __RNvMs_NtCslJiobkLta79_5alloc3vecINtB4_3VechE8push_mutCsdGrGZaRBwMb_3syn, symObjAddr: 0x5600, symBinAddr: 0x5F0C0, symSize: 0xC0 }
  - { offset: 0xE1429, size: 0x8, addend: 0x0, symName: __RNvMs_NtCslJiobkLta79_5alloc3vecINtB4_3VechE9split_offCsdGrGZaRBwMb_3syn, symObjAddr: 0x56C0, symBinAddr: 0x5F180, symSize: 0x290 }
  - { offset: 0xE722C, size: 0x8, addend: 0x0, symName: __RINvXNvMNtCslJiobkLta79_5alloc5sliceSp9to_vec_inNtNtCsdGrGZaRBwMb_3syn4expr3ArmNtB3_10ConvertVec6to_vecNtNtB8_5alloc6GlobalEBO_, symObjAddr: 0x0, symBinAddr: 0x62A30, symSize: 0x490 }
  - { offset: 0xE859A, size: 0x8, addend: 0x0, symName: __RINvXNvMNtCslJiobkLta79_5alloc5sliceSp9to_vec_inNtNtCsdGrGZaRBwMb_3syn4expr3ArmNtB3_10ConvertVec6to_vecNtNtB8_5alloc6GlobalEBO_, symObjAddr: 0x0, symBinAddr: 0x62A30, symSize: 0x490 }
  - { offset: 0xE8AEE, size: 0x8, addend: 0x0, symName: __RINvXNvMNtCslJiobkLta79_5alloc5sliceSp9to_vec_inTNtNtCsdGrGZaRBwMb_3syn4expr10FieldValueNtNtBP_5token5CommaENtB3_10ConvertVec6to_vecNtNtB8_5alloc6GlobalEBP_, symObjAddr: 0x490, symBinAddr: 0x62EC0, symSize: 0x490 }
  - { offset: 0xE9042, size: 0x8, addend: 0x0, symName: __RINvXNvMNtCslJiobkLta79_5alloc5sliceSp9to_vec_inTNtNtCsdGrGZaRBwMb_3syn4expr4ExprNtNtBP_5token5CommaENtB3_10ConvertVec6to_vecNtNtB8_5alloc6GlobalEBP_, symObjAddr: 0x920, symBinAddr: 0x63350, symSize: 0x490 }
  - { offset: 0xEC117, size: 0x8, addend: 0x0, symName: __RNcNtNtNtCsdGrGZaRBwMb_3syn4expr11RangeLimits6Closed0B7_, symObjAddr: 0xDB0, symBinAddr: 0x637E0, symSize: 0x20 }
  - { offset: 0xEC147, size: 0x8, addend: 0x0, symName: __RNcNtNtNtCsdGrGZaRBwMb_3syn4expr11RangeLimits8HalfOpen0B7_, symObjAddr: 0xDD0, symBinAddr: 0x63800, symSize: 0x30 }
  - { offset: 0xEC17D, size: 0x8, addend: 0x0, symName: __RNcNtNtNtCsdGrGZaRBwMb_3syn4expr4Expr2If0B7_, symObjAddr: 0xE00, symBinAddr: 0x63830, symSize: 0x40 }
  - { offset: 0xEC1AC, size: 0x8, addend: 0x0, symName: __RNcNtNtNtCsdGrGZaRBwMb_3syn4expr4Expr3Let0B7_, symObjAddr: 0xE40, symBinAddr: 0x63870, symSize: 0x40 }
  - { offset: 0xEC1DB, size: 0x8, addend: 0x0, symName: __RNcNtNtNtCsdGrGZaRBwMb_3syn4expr4Expr3Lit0B7_, symObjAddr: 0xE80, symBinAddr: 0x638B0, symSize: 0x40 }
  - { offset: 0xEC20A, size: 0x8, addend: 0x0, symName: __RNcNtNtNtCsdGrGZaRBwMb_3syn4expr4Expr4Loop0B7_, symObjAddr: 0xEC0, symBinAddr: 0x638F0, symSize: 0x40 }
  - { offset: 0xEC239, size: 0x8, addend: 0x0, symName: __RNcNtNtNtCsdGrGZaRBwMb_3syn4expr4Expr5Async0B7_, symObjAddr: 0xF00, symBinAddr: 0x63930, symSize: 0x40 }
  - { offset: 0xEC268, size: 0x8, addend: 0x0, symName: __RNcNtNtNtCsdGrGZaRBwMb_3syn4expr4Expr5Block0B7_, symObjAddr: 0xF40, symBinAddr: 0x63970, symSize: 0x40 }
  - { offset: 0xEC297, size: 0x8, addend: 0x0, symName: __RNcNtNtNtCsdGrGZaRBwMb_3syn4expr4Expr5Break0B7_, symObjAddr: 0xF80, symBinAddr: 0x639B0, symSize: 0x40 }
  - { offset: 0xEC2C6, size: 0x8, addend: 0x0, symName: __RNcNtNtNtCsdGrGZaRBwMb_3syn4expr4Expr5Const0B7_, symObjAddr: 0xFC0, symBinAddr: 0x639F0, symSize: 0x40 }
  - { offset: 0xEC2F5, size: 0x8, addend: 0x0, symName: __RNcNtNtNtCsdGrGZaRBwMb_3syn4expr4Expr5Infer0B7_, symObjAddr: 0x1000, symBinAddr: 0x63A30, symSize: 0x30 }
  - { offset: 0xEC323, size: 0x8, addend: 0x0, symName: __RNcNtNtNtCsdGrGZaRBwMb_3syn4expr4Expr5Match0B7_, symObjAddr: 0x1030, symBinAddr: 0x63A60, symSize: 0x40 }
  - { offset: 0xEC352, size: 0x8, addend: 0x0, symName: __RNcNtNtNtCsdGrGZaRBwMb_3syn4expr4Expr5Range0B7_, symObjAddr: 0x1070, symBinAddr: 0x63AA0, symSize: 0x40 }
  - { offset: 0xEC381, size: 0x8, addend: 0x0, symName: __RNcNtNtNtCsdGrGZaRBwMb_3syn4expr4Expr5Unary0B7_, symObjAddr: 0x10B0, symBinAddr: 0x63AE0, symSize: 0x40 }
  - { offset: 0xEC3B0, size: 0x8, addend: 0x0, symName: __RNcNtNtNtCsdGrGZaRBwMb_3syn4expr4Expr5While0B7_, symObjAddr: 0x10F0, symBinAddr: 0x63B20, symSize: 0x40 }
  - { offset: 0xEC3DF, size: 0x8, addend: 0x0, symName: __RNcNtNtNtCsdGrGZaRBwMb_3syn4expr4Expr5Yield0B7_, symObjAddr: 0x1130, symBinAddr: 0x63B60, symSize: 0x40 }
  - { offset: 0xEC40E, size: 0x8, addend: 0x0, symName: __RNcNtNtNtCsdGrGZaRBwMb_3syn4expr4Expr6Return0B7_, symObjAddr: 0x1170, symBinAddr: 0x63BA0, symSize: 0x40 }
  - { offset: 0xEC43D, size: 0x8, addend: 0x0, symName: __RNcNtNtNtCsdGrGZaRBwMb_3syn4expr4Expr6Struct0B7_, symObjAddr: 0x11B0, symBinAddr: 0x63BE0, symSize: 0x40 }
  - { offset: 0xEC46C, size: 0x8, addend: 0x0, symName: __RNcNtNtNtCsdGrGZaRBwMb_3syn4expr4Expr6Unsafe0B7_, symObjAddr: 0x11F0, symBinAddr: 0x63C20, symSize: 0x40 }
  - { offset: 0xEC49B, size: 0x8, addend: 0x0, symName: __RNcNtNtNtCsdGrGZaRBwMb_3syn4expr4Expr7Closure0B7_, symObjAddr: 0x1230, symBinAddr: 0x63C60, symSize: 0x40 }
  - { offset: 0xEC4CA, size: 0x8, addend: 0x0, symName: __RNcNtNtNtCsdGrGZaRBwMb_3syn4expr4Expr7ForLoop0B7_, symObjAddr: 0x1270, symBinAddr: 0x63CA0, symSize: 0x40 }
  - { offset: 0xEC4F9, size: 0x8, addend: 0x0, symName: __RNcNtNtNtCsdGrGZaRBwMb_3syn4expr4Expr8Continue0B7_, symObjAddr: 0x12B0, symBinAddr: 0x63CE0, symSize: 0x40 }
  - { offset: 0xEC528, size: 0x8, addend: 0x0, symName: __RNcNtNtNtCsdGrGZaRBwMb_3syn4expr4Expr8TryBlock0B7_, symObjAddr: 0x12F0, symBinAddr: 0x63D20, symSize: 0x40 }
  - { offset: 0xEC55D, size: 0x8, addend: 0x0, symName: __RNcNtNtNtCsdGrGZaRBwMb_3syn4expr6Member5Named0B7_, symObjAddr: 0x1330, symBinAddr: 0x63D60, symSize: 0x20 }
  - { offset: 0xEC58D, size: 0x8, addend: 0x0, symName: __RNcNtNtNtCsdGrGZaRBwMb_3syn4expr6Member7Unnamed0B7_, symObjAddr: 0x1350, symBinAddr: 0x63D80, symSize: 0x20 }
  - { offset: 0xEC5C3, size: 0x8, addend: 0x0, symName: __RNvXNtNtCsdGrGZaRBwMb_3syn4expr7parsingNtB4_4ExprNtNtB6_5parse5Parse5parse, symObjAddr: 0x42A0, symBinAddr: 0x66CD0, symSize: 0x30 }
  - { offset: 0xEC5F7, size: 0x8, addend: 0x0, symName: __RNvXs4_NtNtCsdGrGZaRBwMb_3syn4expr7parsingNtB7_7ExprLitNtNtB9_5parse5Parse5parse, symObjAddr: 0x78B0, symBinAddr: 0x67C50, symSize: 0x190 }
  - { offset: 0xEC64A, size: 0x8, addend: 0x0, symName: __RNvXs7_NtNtCsdGrGZaRBwMb_3syn4expr7parsingNtB7_6ExprIfNtNtB9_5parse5Parse5parse, symObjAddr: 0x8100, symBinAddr: 0x67F00, symSize: 0x1460 }
  - { offset: 0xEC8C0, size: 0x8, addend: 0x0, symName: __RNvXs8_NtNtCsdGrGZaRBwMb_3syn4expr7parsingNtB7_9ExprInferNtNtB9_5parse5Parse5parse, symObjAddr: 0x9E10, symBinAddr: 0x693A0, symSize: 0x250 }
  - { offset: 0xEC950, size: 0x8, addend: 0x0, symName: __RNvXs9_NtNtCsdGrGZaRBwMb_3syn4expr7parsingNtB7_11ExprForLoopNtNtB9_5parse5Parse5parse, symObjAddr: 0xA0F0, symBinAddr: 0x69660, symSize: 0xD40 }
  - { offset: 0xECC1F, size: 0x8, addend: 0x0, symName: __RNvXsA_NtNtCsdGrGZaRBwMb_3syn4expr7parsingNtB7_5IndexNtNtB9_5parse5Parse5parse, symObjAddr: 0xB030, symBinAddr: 0x6A560, symSize: 0x300 }
  - { offset: 0xECCC6, size: 0x8, addend: 0x0, symName: __RNvXsa_NtNtCsdGrGZaRBwMb_3syn4expr7parsingNtB7_8ExprLoopNtNtB9_5parse5Parse5parse, symObjAddr: 0x12730, symBinAddr: 0x6CB70, symSize: 0x810 }
  - { offset: 0xECE79, size: 0x8, addend: 0x0, symName: __RNvXsb_NtNtCsdGrGZaRBwMb_3syn4expr7parsingNtB7_9ExprMatchNtNtB9_5parse5Parse5parse, symObjAddr: 0x12FD0, symBinAddr: 0x6D3C0, symSize: 0x850 }
  - { offset: 0xED06A, size: 0x8, addend: 0x0, symName: __RNvXsh_NtNtCsdGrGZaRBwMb_3syn4expr7parsingNtB7_10ExprReturnNtNtB9_5parse5Parse5parse, symObjAddr: 0x147D0, symBinAddr: 0x6E040, symSize: 0x270 }
  - { offset: 0xED0CB, size: 0x8, addend: 0x0, symName: __RNvXsi_NtNtCsdGrGZaRBwMb_3syn4expr7parsingNtB7_12ExprTryBlockNtNtB9_5parse5Parse5parse, symObjAddr: 0x14AD0, symBinAddr: 0x6E300, symSize: 0x290 }
  - { offset: 0xED13D, size: 0x8, addend: 0x0, symName: __RNvXsj_NtNtCsdGrGZaRBwMb_3syn4expr7parsingNtB7_9ExprYieldNtNtB9_5parse5Parse5parse, symObjAddr: 0x14E20, symBinAddr: 0x6E610, symSize: 0x270 }
  - { offset: 0xED19E, size: 0x8, addend: 0x0, symName: __RNvXsk_NtNtCsdGrGZaRBwMb_3syn4expr7parsingNtB7_9ExprAsyncNtNtB9_5parse5Parse5parse, symObjAddr: 0x15F50, symBinAddr: 0x6F700, symSize: 0x390 }
  - { offset: 0xED22F, size: 0x8, addend: 0x0, symName: __RNvXsl_NtNtCsdGrGZaRBwMb_3syn4expr7parsingNtB7_9ExprWhileNtNtB9_5parse5Parse5parse, symObjAddr: 0x164D0, symBinAddr: 0x6FC40, symSize: 0xA80 }
  - { offset: 0xED465, size: 0x8, addend: 0x0, symName: __RNvXsm_NtNtCsdGrGZaRBwMb_3syn4expr7parsingNtB7_9ExprConstNtNtB9_5parse5Parse5parse, symObjAddr: 0x17C00, symBinAddr: 0x71330, symSize: 0x540 }
  - { offset: 0xED5BC, size: 0x8, addend: 0x0, symName: __RNvXsn_NtNtCsdGrGZaRBwMb_3syn4expr7parsingNtB7_5LabelNtNtB9_5parse5Parse5parse, symObjAddr: 0x18310, symBinAddr: 0x719C0, symSize: 0x260 }
  - { offset: 0xED64C, size: 0x8, addend: 0x0, symName: __RNvXsp_NtNtCsdGrGZaRBwMb_3syn4expr7parsingNtB7_12ExprContinueNtNtB9_5parse5Parse5parse, symObjAddr: 0x188D0, symBinAddr: 0x71EC0, symSize: 0x2A0 }
  - { offset: 0xED6BE, size: 0x8, addend: 0x0, symName: __RNvXsq_NtNtCsdGrGZaRBwMb_3syn4expr7parsingNtB7_10FieldValueNtNtB9_5parse5Parse5parse, symObjAddr: 0x18D90, symBinAddr: 0x72340, symSize: 0x6D0 }
  - { offset: 0xED85D, size: 0x8, addend: 0x0, symName: __RNvXss_NtNtCsdGrGZaRBwMb_3syn4expr7parsingNtB7_10ExprUnsafeNtNtB9_5parse5Parse5parse, symObjAddr: 0x19A50, symBinAddr: 0x72CD0, symSize: 0x540 }
  - { offset: 0xED9B4, size: 0x8, addend: 0x0, symName: __RNvXst_NtNtCsdGrGZaRBwMb_3syn4expr7parsingNtB7_9ExprBlockNtNtB9_5parse5Parse5parse, symObjAddr: 0x1A140, symBinAddr: 0x73340, symSize: 0x740 }
  - { offset: 0xEDB3A, size: 0x8, addend: 0x0, symName: __RNvXsu_NtNtCsdGrGZaRBwMb_3syn4expr7parsingNtB7_11RangeLimitsNtNtB9_5parse5Parse5parse, symObjAddr: 0x1AC90, symBinAddr: 0x73E50, symSize: 0x260 }
  - { offset: 0xEDBC9, size: 0x8, addend: 0x0, symName: __RNvXsw_NtNtCsdGrGZaRBwMb_3syn4expr7parsingNtB7_8ExprPathNtNtB9_5parse5Parse5parse, symObjAddr: 0x1B1E0, symBinAddr: 0x742E0, symSize: 0x310 }
  - { offset: 0xEDCB7, size: 0x8, addend: 0x0, symName: __RNvXsx_NtNtCsdGrGZaRBwMb_3syn4expr7parsingNtB7_6MemberNtNtB9_5parse5Parse5parse, symObjAddr: 0x1B6E0, symBinAddr: 0x74760, symSize: 0xD0 }
  - { offset: 0xEDCEB, size: 0x8, addend: 0x0, symName: __RNvXsz_NtNtCsdGrGZaRBwMb_3syn4expr7parsingNtB7_3ArmNtNtB9_5parse5Parse5parse, symObjAddr: 0x1BBB0, symBinAddr: 0x74B70, symSize: 0xB00 }
  - { offset: 0xEDF28, size: 0x8, addend: 0x0, symName: __RNvXNtNtCsdGrGZaRBwMb_3syn4expr8printingNtB4_9ExprArrayNtNtCs9OU1sGv5X54_5quote9to_tokens8ToTokens9to_tokens, symObjAddr: 0x42D0, symBinAddr: 0x66D00, symSize: 0x50 }
  - { offset: 0xEDF67, size: 0x8, addend: 0x0, symName: __RNvXs0_NtNtCsdGrGZaRBwMb_3syn4expr8printingNtB7_9ExprAsyncNtNtCs9OU1sGv5X54_5quote9to_tokens8ToTokens9to_tokens, symObjAddr: 0x4600, symBinAddr: 0x67010, symSize: 0x70 }
  - { offset: 0xEDFA6, size: 0x8, addend: 0x0, symName: __RNvXs1_NtNtCsdGrGZaRBwMb_3syn4expr8printingNtB7_9ExprAwaitNtNtCs9OU1sGv5X54_5quote9to_tokens8ToTokens9to_tokens, symObjAddr: 0x5710, symBinAddr: 0x675C0, symSize: 0x40 }
  - { offset: 0xEDFE5, size: 0x8, addend: 0x0, symName: __RNvXs2_NtNtCsdGrGZaRBwMb_3syn4expr8printingNtB7_10ExprBinaryNtNtCs9OU1sGv5X54_5quote9to_tokens8ToTokens9to_tokens, symObjAddr: 0x69F0, symBinAddr: 0x67860, symSize: 0x40 }
  - { offset: 0xEE024, size: 0x8, addend: 0x0, symName: __RNvXs3_NtNtCsdGrGZaRBwMb_3syn4expr8printingNtB7_9ExprBlockNtNtCs9OU1sGv5X54_5quote9to_tokens8ToTokens9to_tokens, symObjAddr: 0x7590, symBinAddr: 0x67960, symSize: 0x70 }
  - { offset: 0xEE063, size: 0x8, addend: 0x0, symName: __RNvXs4_NtNtCsdGrGZaRBwMb_3syn4expr8printingNtB7_9ExprBreakNtNtCs9OU1sGv5X54_5quote9to_tokens8ToTokens9to_tokens, symObjAddr: 0x7A40, symBinAddr: 0x67DE0, symSize: 0x40 }
  - { offset: 0xEE0A2, size: 0x8, addend: 0x0, symName: __RNvXs5_NtNtCsdGrGZaRBwMb_3syn4expr8printingNtB7_8ExprCallNtNtCs9OU1sGv5X54_5quote9to_tokens8ToTokens9to_tokens, symObjAddr: 0x7FE0, symBinAddr: 0x67E20, symSize: 0x40 }
  - { offset: 0xEE0E1, size: 0x8, addend: 0x0, symName: __RNvXs6_NtNtCsdGrGZaRBwMb_3syn4expr8printingNtB7_8ExprCastNtNtCs9OU1sGv5X54_5quote9to_tokens8ToTokens9to_tokens, symObjAddr: 0x8060, symBinAddr: 0x67E60, symSize: 0x40 }
  - { offset: 0xEE120, size: 0x8, addend: 0x0, symName: __RNvXs7_NtNtCsdGrGZaRBwMb_3syn4expr8printingNtB7_11ExprClosureNtNtCs9OU1sGv5X54_5quote9to_tokens8ToTokens9to_tokens, symObjAddr: 0x9560, symBinAddr: 0x69360, symSize: 0x40 }
  - { offset: 0xEE15F, size: 0x8, addend: 0x0, symName: __RNvXs8_NtNtCsdGrGZaRBwMb_3syn4expr8printingNtB7_9ExprConstNtNtCs9OU1sGv5X54_5quote9to_tokens8ToTokens9to_tokens, symObjAddr: 0xA060, symBinAddr: 0x695F0, symSize: 0x70 }
  - { offset: 0xEE19E, size: 0x8, addend: 0x0, symName: __RNvXs9_NtNtCsdGrGZaRBwMb_3syn4expr8printingNtB7_12ExprContinueNtNtCs9OU1sGv5X54_5quote9to_tokens8ToTokens9to_tokens, symObjAddr: 0xAE30, symBinAddr: 0x6A3A0, symSize: 0x60 }
  - { offset: 0xEE1DD, size: 0x8, addend: 0x0, symName: __RNvXsA_NtNtCsdGrGZaRBwMb_3syn4expr8printingNtB7_9ExprYieldNtNtCs9OU1sGv5X54_5quote9to_tokens8ToTokens9to_tokens, symObjAddr: 0xB330, symBinAddr: 0x6A860, symSize: 0x40 }
  - { offset: 0xEE21C, size: 0x8, addend: 0x0, symName: __RNvXsB_NtNtCsdGrGZaRBwMb_3syn4expr8printingNtB7_3ArmNtNtCs9OU1sGv5X54_5quote9to_tokens8ToTokens9to_tokens, symObjAddr: 0xB830, symBinAddr: 0x6A9A0, symSize: 0x140 }
  - { offset: 0xEE289, size: 0x8, addend: 0x0, symName: __RNvXsC_NtNtCsdGrGZaRBwMb_3syn4expr8printingNtB7_10FieldValueNtNtCs9OU1sGv5X54_5quote9to_tokens8ToTokens9to_tokens, symObjAddr: 0xBEB0, symBinAddr: 0x6AB80, symSize: 0xA0 }
  - { offset: 0xEE2E6, size: 0x8, addend: 0x0, symName: __RNvXsD_NtNtCsdGrGZaRBwMb_3syn4expr8printingNtB7_5IndexNtNtCs9OU1sGv5X54_5quote9to_tokens8ToTokens9to_tokens, symObjAddr: 0xD560, symBinAddr: 0x6AD40, symSize: 0xC0 }
  - { offset: 0xEE33C, size: 0x8, addend: 0x0, symName: __RNvXsE_NtNtCsdGrGZaRBwMb_3syn4expr8printingNtB7_5LabelNtNtCs9OU1sGv5X54_5quote9to_tokens8ToTokens9to_tokens, symObjAddr: 0xDB70, symBinAddr: 0x6AEB0, symSize: 0x40 }
  - { offset: 0xEE37B, size: 0x8, addend: 0x0, symName: __RNvXsF_NtNtCsdGrGZaRBwMb_3syn4expr8printingNtB7_6MemberNtNtCs9OU1sGv5X54_5quote9to_tokens8ToTokens9to_tokens, symObjAddr: 0xE220, symBinAddr: 0x6B020, symSize: 0x70 }
  - { offset: 0xEE3EE, size: 0x8, addend: 0x0, symName: __RNvXsG_NtNtCsdGrGZaRBwMb_3syn4expr8printingNtB7_11RangeLimitsNtNtCs9OU1sGv5X54_5quote9to_tokens8ToTokens9to_tokens, symObjAddr: 0xE800, symBinAddr: 0x6B160, symSize: 0x70 }
  - { offset: 0xEE461, size: 0x8, addend: 0x0, symName: __RNvXsH_NtNtCsdGrGZaRBwMb_3syn4expr8printingNtB7_17PointerMutabilityNtNtCs9OU1sGv5X54_5quote9to_tokens8ToTokens9to_tokens, symObjAddr: 0xEF00, symBinAddr: 0x6B310, symSize: 0x70 }
  - { offset: 0xEE4D4, size: 0x8, addend: 0x0, symName: __RNvXs_NtNtCsdGrGZaRBwMb_3syn4expr8printingNtB6_10ExprAssignNtNtCs9OU1sGv5X54_5quote9to_tokens8ToTokens9to_tokens, symObjAddr: 0x126F0, symBinAddr: 0x6CB30, symSize: 0x40 }
  - { offset: 0xEE513, size: 0x8, addend: 0x0, symName: __RNvXsa_NtNtCsdGrGZaRBwMb_3syn4expr8printingNtB7_9ExprFieldNtNtCs9OU1sGv5X54_5quote9to_tokens8ToTokens9to_tokens, symObjAddr: 0x12F40, symBinAddr: 0x6D380, symSize: 0x40 }
  - { offset: 0xEE552, size: 0x8, addend: 0x0, symName: __RNvXsb_NtNtCsdGrGZaRBwMb_3syn4expr8printingNtB7_11ExprForLoopNtNtCs9OU1sGv5X54_5quote9to_tokens8ToTokens9to_tokens, symObjAddr: 0x13820, symBinAddr: 0x6DC10, symSize: 0x100 }
  - { offset: 0xEE591, size: 0x8, addend: 0x0, symName: __RNvXsc_NtNtCsdGrGZaRBwMb_3syn4expr8printingNtB7_9ExprGroupNtNtCs9OU1sGv5X54_5quote9to_tokens8ToTokens9to_tokens, symObjAddr: 0x139B0, symBinAddr: 0x6DD10, symSize: 0x50 }
  - { offset: 0xEE5D0, size: 0x8, addend: 0x0, symName: __RNvXsd_NtNtCsdGrGZaRBwMb_3syn4expr8printingNtB7_6ExprIfNtNtCs9OU1sGv5X54_5quote9to_tokens8ToTokens9to_tokens, symObjAddr: 0x13A80, symBinAddr: 0x6DD60, symSize: 0x210 }
  - { offset: 0xEE6A6, size: 0x8, addend: 0x0, symName: __RNvXse_NtNtCsdGrGZaRBwMb_3syn4expr8printingNtB7_9ExprIndexNtNtCs9OU1sGv5X54_5quote9to_tokens8ToTokens9to_tokens, symObjAddr: 0x141E0, symBinAddr: 0x6DF70, symSize: 0x40 }
  - { offset: 0xEE6E5, size: 0x8, addend: 0x0, symName: __RNvXsf_NtNtCsdGrGZaRBwMb_3syn4expr8printingNtB7_9ExprInferNtNtCs9OU1sGv5X54_5quote9to_tokens8ToTokens9to_tokens, symObjAddr: 0x14680, symBinAddr: 0x6DFB0, symSize: 0x50 }
  - { offset: 0xEE724, size: 0x8, addend: 0x0, symName: __RNvXsg_NtNtCsdGrGZaRBwMb_3syn4expr8printingNtB7_7ExprLetNtNtCs9OU1sGv5X54_5quote9to_tokens8ToTokens9to_tokens, symObjAddr: 0x14750, symBinAddr: 0x6E000, symSize: 0x40 }
  - { offset: 0xEE763, size: 0x8, addend: 0x0, symName: __RNvXsh_NtNtCsdGrGZaRBwMb_3syn4expr8printingNtB7_7ExprLitNtNtCs9OU1sGv5X54_5quote9to_tokens8ToTokens9to_tokens, symObjAddr: 0x14A40, symBinAddr: 0x6E2B0, symSize: 0x50 }
  - { offset: 0xEE7A2, size: 0x8, addend: 0x0, symName: __RNvXsi_NtNtCsdGrGZaRBwMb_3syn4expr8printingNtB7_8ExprLoopNtNtCs9OU1sGv5X54_5quote9to_tokens8ToTokens9to_tokens, symObjAddr: 0x14D60, symBinAddr: 0x6E590, symSize: 0x80 }
  - { offset: 0xEE7E1, size: 0x8, addend: 0x0, symName: __RNvXsj_NtNtCsdGrGZaRBwMb_3syn4expr8printingNtB7_9ExprMacroNtNtCs9OU1sGv5X54_5quote9to_tokens8ToTokens9to_tokens, symObjAddr: 0x15090, symBinAddr: 0x6E880, symSize: 0x50 }
  - { offset: 0xEE820, size: 0x8, addend: 0x0, symName: __RNvXsk_NtNtCsdGrGZaRBwMb_3syn4expr8printingNtB7_9ExprMatchNtNtCs9OU1sGv5X54_5quote9to_tokens8ToTokens9to_tokens, symObjAddr: 0x162E0, symBinAddr: 0x6FA90, symSize: 0xD0 }
  - { offset: 0xEE85F, size: 0x8, addend: 0x0, symName: __RNvXsl_NtNtCsdGrGZaRBwMb_3syn4expr8printingNtB7_14ExprMethodCallNtNtCs9OU1sGv5X54_5quote9to_tokens8ToTokens9to_tokens, symObjAddr: 0x16F50, symBinAddr: 0x706C0, symSize: 0x40 }
  - { offset: 0xEE89E, size: 0x8, addend: 0x0, symName: __RNvXsm_NtNtCsdGrGZaRBwMb_3syn4expr8printingNtB7_9ExprParenNtNtCs9OU1sGv5X54_5quote9to_tokens8ToTokens9to_tokens, symObjAddr: 0x18140, symBinAddr: 0x71870, symSize: 0x50 }
  - { offset: 0xEE8DD, size: 0x8, addend: 0x0, symName: __RNvXsn_NtNtCsdGrGZaRBwMb_3syn4expr8printingNtB7_8ExprPathNtNtCs9OU1sGv5X54_5quote9to_tokens8ToTokens9to_tokens, symObjAddr: 0x18570, symBinAddr: 0x71C20, symSize: 0x60 }
  - { offset: 0xEE91C, size: 0x8, addend: 0x0, symName: __RNvXso_NtNtCsdGrGZaRBwMb_3syn4expr8printingNtB7_9ExprRangeNtNtCs9OU1sGv5X54_5quote9to_tokens8ToTokens9to_tokens, symObjAddr: 0x18710, symBinAddr: 0x71D80, symSize: 0x40 }
  - { offset: 0xEE95B, size: 0x8, addend: 0x0, symName: __RNvXsp_NtNtCsdGrGZaRBwMb_3syn4expr8printingNtB7_11ExprRawAddrNtNtCs9OU1sGv5X54_5quote9to_tokens8ToTokens9to_tokens, symObjAddr: 0x18B70, symBinAddr: 0x72160, symSize: 0x40 }
  - { offset: 0xEE99A, size: 0x8, addend: 0x0, symName: __RNvXsq_NtNtCsdGrGZaRBwMb_3syn4expr8printingNtB7_13ExprReferenceNtNtCs9OU1sGv5X54_5quote9to_tokens8ToTokens9to_tokens, symObjAddr: 0x19460, symBinAddr: 0x72A10, symSize: 0x40 }
  - { offset: 0xEE9D9, size: 0x8, addend: 0x0, symName: __RNvXsr_NtNtCsdGrGZaRBwMb_3syn4expr8printingNtB7_10ExprRepeatNtNtCs9OU1sGv5X54_5quote9to_tokens8ToTokens9to_tokens, symObjAddr: 0x198A0, symBinAddr: 0x72B60, symSize: 0x50 }
  - { offset: 0xEEA18, size: 0x8, addend: 0x0, symName: __RNvXss_NtNtCsdGrGZaRBwMb_3syn4expr8printingNtB7_10ExprReturnNtNtCs9OU1sGv5X54_5quote9to_tokens8ToTokens9to_tokens, symObjAddr: 0x19F90, symBinAddr: 0x73210, symSize: 0x40 }
  - { offset: 0xEEA57, size: 0x8, addend: 0x0, symName: __RNvXst_NtNtCsdGrGZaRBwMb_3syn4expr8printingNtB7_10ExprStructNtNtCs9OU1sGv5X54_5quote9to_tokens8ToTokens9to_tokens, symObjAddr: 0x1A880, symBinAddr: 0x73A80, symSize: 0x70 }
  - { offset: 0xEEA96, size: 0x8, addend: 0x0, symName: __RNvXsu_NtNtCsdGrGZaRBwMb_3syn4expr8printingNtB7_7ExprTryNtNtCs9OU1sGv5X54_5quote9to_tokens8ToTokens9to_tokens, symObjAddr: 0x1AEF0, symBinAddr: 0x740B0, symSize: 0x40 }
  - { offset: 0xEEAD5, size: 0x8, addend: 0x0, symName: __RNvXsv_NtNtCsdGrGZaRBwMb_3syn4expr8printingNtB7_12ExprTryBlockNtNtCs9OU1sGv5X54_5quote9to_tokens8ToTokens9to_tokens, symObjAddr: 0x1B070, symBinAddr: 0x741B0, symSize: 0x60 }
  - { offset: 0xEEB14, size: 0x8, addend: 0x0, symName: __RNvXsw_NtNtCsdGrGZaRBwMb_3syn4expr8printingNtB7_9ExprTupleNtNtCs9OU1sGv5X54_5quote9to_tokens8ToTokens9to_tokens, symObjAddr: 0x1B4F0, symBinAddr: 0x745F0, symSize: 0x50 }
  - { offset: 0xEEB53, size: 0x8, addend: 0x0, symName: __RNvXsx_NtNtCsdGrGZaRBwMb_3syn4expr8printingNtB7_9ExprUnaryNtNtCs9OU1sGv5X54_5quote9to_tokens8ToTokens9to_tokens, symObjAddr: 0x1B7B0, symBinAddr: 0x74830, symSize: 0x40 }
  - { offset: 0xEEB92, size: 0x8, addend: 0x0, symName: __RNvXsy_NtNtCsdGrGZaRBwMb_3syn4expr8printingNtB7_10ExprUnsafeNtNtCs9OU1sGv5X54_5quote9to_tokens8ToTokens9to_tokens, symObjAddr: 0x1BA10, symBinAddr: 0x74A50, symSize: 0x70 }
  - { offset: 0xEEBD1, size: 0x8, addend: 0x0, symName: __RNvXsz_NtNtCsdGrGZaRBwMb_3syn4expr8printingNtB7_9ExprWhileNtNtCs9OU1sGv5X54_5quote9to_tokens8ToTokens9to_tokens, symObjAddr: 0x1C6B0, symBinAddr: 0x75670, symSize: 0xE0 }
  - { offset: 0xEEC11, size: 0x8, addend: 0x0, symName: __RNvXs7_NtCsdGrGZaRBwMb_3syn4exprNtB5_5IndexINtNtCsieiGu2EXtoJ_4core7convert4FromjE4from, symObjAddr: 0x80A0, symBinAddr: 0x67EA0, symSize: 0x60 }
  - { offset: 0xEEC45, size: 0x8, addend: 0x0, symName: __RNvXsP_NtCsdGrGZaRBwMb_3syn4exprNtB5_4ExprNtNtCs9OU1sGv5X54_5quote9to_tokens8ToTokens9to_tokens, symObjAddr: 0x111C0, symBinAddr: 0x6BBD0, symSize: 0x640 }
  - { offset: 0xF1AB2, size: 0x8, addend: 0x0, symName: __RNvXs0_NtNtCsdGrGZaRBwMb_3syn3gen5cloneNtNtB9_4expr3ArmNtNtCsieiGu2EXtoJ_4core5clone5Clone5clone, symObjAddr: 0x43E0, symBinAddr: 0x66DF0, symSize: 0x220 }
  - { offset: 0xF1AE4, size: 0x8, addend: 0x0, symName: __RNvXs11_NtNtCsdGrGZaRBwMb_3syn3gen5cloneNtNtBa_4expr10FieldValueNtNtCsieiGu2EXtoJ_4core5clone5Clone5clone, symObjAddr: 0x46D0, symBinAddr: 0x67080, symSize: 0x180 }
  - { offset: 0xF1B18, size: 0x8, addend: 0x0, symName: __RNvXs1C_NtNtCsdGrGZaRBwMb_3syn3gen5cloneNtNtBa_4expr5LabelNtNtCsieiGu2EXtoJ_4core5clone5Clone5clone, symObjAddr: 0x4D30, symBinAddr: 0x67260, symSize: 0xB0 }
  - { offset: 0xF1B4C, size: 0x8, addend: 0x0, symName: __RNvXs1K_NtNtCsdGrGZaRBwMb_3syn3gen5cloneNtNtBa_4expr6MemberNtNtCsieiGu2EXtoJ_4core5clone5Clone5clone, symObjAddr: 0x50E0, symBinAddr: 0x673F0, symSize: 0xA0 }
  - { offset: 0xF1BB4, size: 0x8, addend: 0x0, symName: __RNvXs1l_NtNtCsdGrGZaRBwMb_3syn3gen5cloneNtNtBa_4expr5IndexNtNtCsieiGu2EXtoJ_4core5clone5Clone5clone, symObjAddr: 0x5B30, symBinAddr: 0x67600, symSize: 0x30 }
  - { offset: 0xF1BE8, size: 0x8, addend: 0x0, symName: __RNvXs24_NtNtCsdGrGZaRBwMb_3syn3gen5cloneNtNtBa_4expr17PointerMutabilityNtNtCsieiGu2EXtoJ_4core5clone5Clone5clone, symObjAddr: 0x6240, symBinAddr: 0x67630, symSize: 0x70 }
  - { offset: 0xF1C50, size: 0x8, addend: 0x0, symName: __RNvXs2a_NtNtCsdGrGZaRBwMb_3syn3gen5cloneNtNtBa_4expr11RangeLimitsNtNtCsieiGu2EXtoJ_4core5clone5Clone5clone, symObjAddr: 0x6D30, symBinAddr: 0x678A0, symSize: 0x30 }
  - { offset: 0xF1C84, size: 0x8, addend: 0x0, symName: __RNvXsA_NtNtCsdGrGZaRBwMb_3syn3gen5cloneNtNtB9_4expr6ExprIfNtNtCsieiGu2EXtoJ_4core5clone5Clone5clone, symObjAddr: 0xAED0, symBinAddr: 0x6A400, symSize: 0x160 }
  - { offset: 0xF1CB8, size: 0x8, addend: 0x0, symName: __RNvXsB_NtNtCsdGrGZaRBwMb_3syn3gen5cloneNtNtB9_4expr9ExprIndexNtNtCsieiGu2EXtoJ_4core5clone5Clone5clone, symObjAddr: 0xB3B0, symBinAddr: 0x6A8A0, symSize: 0x100 }
  - { offset: 0xF1CEC, size: 0x8, addend: 0x0, symName: __RNvXsC_NtNtCsdGrGZaRBwMb_3syn3gen5cloneNtNtB9_4expr9ExprInferNtNtCsieiGu2EXtoJ_4core5clone5Clone5clone, symObjAddr: 0xB9B0, symBinAddr: 0x6AAE0, symSize: 0xA0 }
  - { offset: 0xF1D20, size: 0x8, addend: 0x0, symName: __RNvXsD_NtNtCsdGrGZaRBwMb_3syn3gen5cloneNtNtB9_4expr7ExprLetNtNtCsieiGu2EXtoJ_4core5clone5Clone5clone, symObjAddr: 0xCFA0, symBinAddr: 0x6AC20, symSize: 0x120 }
  - { offset: 0xF1D54, size: 0x8, addend: 0x0, symName: __RNvXsE_NtNtCsdGrGZaRBwMb_3syn3gen5cloneNtNtB9_4expr7ExprLitNtNtCsieiGu2EXtoJ_4core5clone5Clone5clone, symObjAddr: 0xD660, symBinAddr: 0x6AE00, symSize: 0xB0 }
  - { offset: 0xF1D88, size: 0x8, addend: 0x0, symName: __RNvXsF_NtNtCsdGrGZaRBwMb_3syn3gen5cloneNtNtB9_4expr8ExprLoopNtNtCsieiGu2EXtoJ_4core5clone5Clone5clone, symObjAddr: 0xDC50, symBinAddr: 0x6AEF0, symSize: 0x130 }
  - { offset: 0xF1DBC, size: 0x8, addend: 0x0, symName: __RNvXsG_NtNtCsdGrGZaRBwMb_3syn3gen5cloneNtNtB9_4expr9ExprMacroNtNtCsieiGu2EXtoJ_4core5clone5Clone5clone, symObjAddr: 0xE2D0, symBinAddr: 0x6B090, symSize: 0xD0 }
  - { offset: 0xF1DF0, size: 0x8, addend: 0x0, symName: __RNvXsH_NtNtCsdGrGZaRBwMb_3syn3gen5cloneNtNtB9_4expr9ExprMatchNtNtCsieiGu2EXtoJ_4core5clone5Clone5clone, symObjAddr: 0xE940, symBinAddr: 0x6B1D0, symSize: 0x140 }
  - { offset: 0xF1E24, size: 0x8, addend: 0x0, symName: __RNvXsI_NtNtCsdGrGZaRBwMb_3syn3gen5cloneNtNtB9_4expr14ExprMethodCallNtNtCsieiGu2EXtoJ_4core5clone5Clone5clone, symObjAddr: 0xEFB0, symBinAddr: 0x6B380, symSize: 0x240 }
  - { offset: 0xF1E58, size: 0x8, addend: 0x0, symName: __RNvXsJ_NtNtCsdGrGZaRBwMb_3syn3gen5cloneNtNtB9_4expr9ExprParenNtNtCsieiGu2EXtoJ_4core5clone5Clone5clone, symObjAddr: 0xF720, symBinAddr: 0x6B5C0, symSize: 0xC0 }
  - { offset: 0xF1E8C, size: 0x8, addend: 0x0, symName: __RNvXsK_NtNtCsdGrGZaRBwMb_3syn3gen5cloneNtNtB9_4expr8ExprPathNtNtCsieiGu2EXtoJ_4core5clone5Clone5clone, symObjAddr: 0xFCC0, symBinAddr: 0x6B680, symSize: 0x110 }
  - { offset: 0xF1EC0, size: 0x8, addend: 0x0, symName: __RNvXsL_NtNtCsdGrGZaRBwMb_3syn3gen5cloneNtNtB9_4expr9ExprRangeNtNtCsieiGu2EXtoJ_4core5clone5Clone5clone, symObjAddr: 0x102D0, symBinAddr: 0x6B790, symSize: 0x100 }
  - { offset: 0xF1EF4, size: 0x8, addend: 0x0, symName: __RNvXsM_NtNtCsdGrGZaRBwMb_3syn3gen5cloneNtNtB9_4expr11ExprRawAddrNtNtCsieiGu2EXtoJ_4core5clone5Clone5clone, symObjAddr: 0x108B0, symBinAddr: 0x6B890, symSize: 0x110 }
  - { offset: 0xF1F28, size: 0x8, addend: 0x0, symName: __RNvXsN_NtNtCsdGrGZaRBwMb_3syn3gen5cloneNtNtB9_4expr13ExprReferenceNtNtCsieiGu2EXtoJ_4core5clone5Clone5clone, symObjAddr: 0x10F10, symBinAddr: 0x6B9A0, symSize: 0x100 }
  - { offset: 0xF1F5C, size: 0x8, addend: 0x0, symName: __RNvXsO_NtNtCsdGrGZaRBwMb_3syn3gen5cloneNtNtB9_4expr10ExprRepeatNtNtCsieiGu2EXtoJ_4core5clone5Clone5clone, symObjAddr: 0x11090, symBinAddr: 0x6BAA0, symSize: 0x130 }
  - { offset: 0xF1F90, size: 0x8, addend: 0x0, symName: __RNvXsP_NtNtCsdGrGZaRBwMb_3syn3gen5cloneNtNtB9_4expr10ExprReturnNtNtCsieiGu2EXtoJ_4core5clone5Clone5clone, symObjAddr: 0x11890, symBinAddr: 0x6C210, symSize: 0xB0 }
  - { offset: 0xF1FC4, size: 0x8, addend: 0x0, symName: __RNvXsQ_NtNtCsdGrGZaRBwMb_3syn3gen5cloneNtNtB9_4expr10ExprStructNtNtCsieiGu2EXtoJ_4core5clone5Clone5clone, symObjAddr: 0x11980, symBinAddr: 0x6C2C0, symSize: 0x230 }
  - { offset: 0xF1FF8, size: 0x8, addend: 0x0, symName: __RNvXsR_NtNtCsdGrGZaRBwMb_3syn3gen5cloneNtNtB9_4expr7ExprTryNtNtCsieiGu2EXtoJ_4core5clone5Clone5clone, symObjAddr: 0x11C40, symBinAddr: 0x6C4F0, symSize: 0xE0 }
  - { offset: 0xF202C, size: 0x8, addend: 0x0, symName: __RNvXsS_NtNtCsdGrGZaRBwMb_3syn3gen5cloneNtNtB9_4expr12ExprTryBlockNtNtCsieiGu2EXtoJ_4core5clone5Clone5clone, symObjAddr: 0x11D60, symBinAddr: 0x6C5D0, symSize: 0xC0 }
  - { offset: 0xF2060, size: 0x8, addend: 0x0, symName: __RNvXsT_NtNtCsdGrGZaRBwMb_3syn3gen5cloneNtNtB9_4expr9ExprTupleNtNtCsieiGu2EXtoJ_4core5clone5Clone5clone, symObjAddr: 0x11EB0, symBinAddr: 0x6C690, symSize: 0xE0 }
  - { offset: 0xF2094, size: 0x8, addend: 0x0, symName: __RNvXsU_NtNtCsdGrGZaRBwMb_3syn3gen5cloneNtNtB9_4expr9ExprUnaryNtNtCsieiGu2EXtoJ_4core5clone5Clone5clone, symObjAddr: 0x11FD0, symBinAddr: 0x6C770, symSize: 0xD0 }
  - { offset: 0xF20C8, size: 0x8, addend: 0x0, symName: __RNvXsV_NtNtCsdGrGZaRBwMb_3syn3gen5cloneNtNtB9_4expr10ExprUnsafeNtNtCsieiGu2EXtoJ_4core5clone5Clone5clone, symObjAddr: 0x12130, symBinAddr: 0x6C840, symSize: 0xC0 }
  - { offset: 0xF20FC, size: 0x8, addend: 0x0, symName: __RNvXsW_NtNtCsdGrGZaRBwMb_3syn3gen5cloneNtNtB9_4expr9ExprWhileNtNtCsieiGu2EXtoJ_4core5clone5Clone5clone, symObjAddr: 0x12230, symBinAddr: 0x6C900, symSize: 0x180 }
  - { offset: 0xF2130, size: 0x8, addend: 0x0, symName: __RNvXsX_NtNtCsdGrGZaRBwMb_3syn3gen5cloneNtNtB9_4expr9ExprYieldNtNtCsieiGu2EXtoJ_4core5clone5Clone5clone, symObjAddr: 0x12530, symBinAddr: 0x6CA80, symSize: 0xB0 }
  - { offset: 0xF2164, size: 0x8, addend: 0x0, symName: __RNvXsk_NtNtCsdGrGZaRBwMb_3syn3gen5cloneNtNtB9_4expr4ExprNtNtCsieiGu2EXtoJ_4core5clone5Clone5clone, symObjAddr: 0x15120, symBinAddr: 0x6E8D0, symSize: 0xE30 }
  - { offset: 0xF2657, size: 0x8, addend: 0x0, symName: __RNvXsl_NtNtCsdGrGZaRBwMb_3syn3gen5cloneNtNtB9_4expr9ExprArrayNtNtCsieiGu2EXtoJ_4core5clone5Clone5clone, symObjAddr: 0x163F0, symBinAddr: 0x6FB60, symSize: 0xE0 }
  - { offset: 0xF268B, size: 0x8, addend: 0x0, symName: __RNvXsm_NtNtCsdGrGZaRBwMb_3syn3gen5cloneNtNtB9_4expr10ExprAssignNtNtCsieiGu2EXtoJ_4core5clone5Clone5clone, symObjAddr: 0x16FD0, symBinAddr: 0x70700, symSize: 0x100 }
  - { offset: 0xF26BF, size: 0x8, addend: 0x0, symName: __RNvXsn_NtNtCsdGrGZaRBwMb_3syn3gen5cloneNtNtB9_4expr9ExprAsyncNtNtCsieiGu2EXtoJ_4core5clone5Clone5clone, symObjAddr: 0x181D0, symBinAddr: 0x718C0, symSize: 0x100 }
  - { offset: 0xF26F3, size: 0x8, addend: 0x0, symName: __RNvXso_NtNtCsdGrGZaRBwMb_3syn3gen5cloneNtNtB9_4expr9ExprAwaitNtNtCsieiGu2EXtoJ_4core5clone5Clone5clone, symObjAddr: 0x18610, symBinAddr: 0x71C80, symSize: 0x100 }
  - { offset: 0xF2727, size: 0x8, addend: 0x0, symName: __RNvXsp_NtNtCsdGrGZaRBwMb_3syn3gen5cloneNtNtB9_4expr10ExprBinaryNtNtCsieiGu2EXtoJ_4core5clone5Clone5clone, symObjAddr: 0x18790, symBinAddr: 0x71DC0, symSize: 0x100 }
  - { offset: 0xF275B, size: 0x8, addend: 0x0, symName: __RNvXsq_NtNtCsdGrGZaRBwMb_3syn3gen5cloneNtNtB9_4expr9ExprBlockNtNtCsieiGu2EXtoJ_4core5clone5Clone5clone, symObjAddr: 0x18C80, symBinAddr: 0x72230, symSize: 0x110 }
  - { offset: 0xF278F, size: 0x8, addend: 0x0, symName: __RNvXsr_NtNtCsdGrGZaRBwMb_3syn3gen5cloneNtNtB9_4expr9ExprBreakNtNtCsieiGu2EXtoJ_4core5clone5Clone5clone, symObjAddr: 0x194E0, symBinAddr: 0x72A50, symSize: 0x110 }
  - { offset: 0xF27C3, size: 0x8, addend: 0x0, symName: __RNvXss_NtNtCsdGrGZaRBwMb_3syn3gen5cloneNtNtB9_4expr8ExprCallNtNtCsieiGu2EXtoJ_4core5clone5Clone5clone, symObjAddr: 0x19930, symBinAddr: 0x72BB0, symSize: 0x120 }
  - { offset: 0xF27F7, size: 0x8, addend: 0x0, symName: __RNvXst_NtNtCsdGrGZaRBwMb_3syn3gen5cloneNtNtB9_4expr8ExprCastNtNtCsieiGu2EXtoJ_4core5clone5Clone5clone, symObjAddr: 0x1A010, symBinAddr: 0x73250, symSize: 0xF0 }
  - { offset: 0xF282B, size: 0x8, addend: 0x0, symName: __RNvXsu_NtNtCsdGrGZaRBwMb_3syn3gen5cloneNtNtB9_4expr11ExprClosureNtNtCsieiGu2EXtoJ_4core5clone5Clone5clone, symObjAddr: 0x1A930, symBinAddr: 0x73AF0, symSize: 0x360 }
  - { offset: 0xF285F, size: 0x8, addend: 0x0, symName: __RNvXsv_NtNtCsdGrGZaRBwMb_3syn3gen5cloneNtNtB9_4expr9ExprConstNtNtCsieiGu2EXtoJ_4core5clone5Clone5clone, symObjAddr: 0x1AF70, symBinAddr: 0x740F0, symSize: 0xC0 }
  - { offset: 0xF2893, size: 0x8, addend: 0x0, symName: __RNvXsw_NtNtCsdGrGZaRBwMb_3syn3gen5cloneNtNtB9_4expr12ExprContinueNtNtCsieiGu2EXtoJ_4core5clone5Clone5clone, symObjAddr: 0x1B110, symBinAddr: 0x74210, symSize: 0xD0 }
  - { offset: 0xF28C7, size: 0x8, addend: 0x0, symName: __RNvXsx_NtNtCsdGrGZaRBwMb_3syn3gen5cloneNtNtB9_4expr9ExprFieldNtNtCsieiGu2EXtoJ_4core5clone5Clone5clone, symObjAddr: 0x1B580, symBinAddr: 0x74640, symSize: 0x120 }
  - { offset: 0xF28FB, size: 0x8, addend: 0x0, symName: __RNvXsy_NtNtCsdGrGZaRBwMb_3syn3gen5cloneNtNtB9_4expr11ExprForLoopNtNtCsieiGu2EXtoJ_4core5clone5Clone5clone, symObjAddr: 0x1B830, symBinAddr: 0x74870, symSize: 0x1E0 }
  - { offset: 0xF292F, size: 0x8, addend: 0x0, symName: __RNvXsz_NtNtCsdGrGZaRBwMb_3syn3gen5cloneNtNtB9_4expr9ExprGroupNtNtCsieiGu2EXtoJ_4core5clone5Clone5clone, symObjAddr: 0x1BAC0, symBinAddr: 0x74AC0, symSize: 0xB0 }
  - { offset: 0xF2969, size: 0x8, addend: 0x0, symName: __RNvXs1G_NtNtCsdGrGZaRBwMb_3syn3gen5debugNtNtBa_4expr10FieldValueNtNtCsieiGu2EXtoJ_4core3fmt5Debug3fmt, symObjAddr: 0x4F40, symBinAddr: 0x67310, symSize: 0xE0 }
  - { offset: 0xF29CA, size: 0x8, addend: 0x0, symName: __RNvXs1_NtNtCsdGrGZaRBwMb_3syn3gen5debugNtNtB9_4expr3ArmNtNtCsieiGu2EXtoJ_4core3fmt5Debug3fmt, symObjAddr: 0x5430, symBinAddr: 0x67490, symSize: 0x130 }
  - { offset: 0xF2A27, size: 0x8, addend: 0x0, symName: __RNvXs2G_NtNtCsdGrGZaRBwMb_3syn3gen5debugNtNtBa_4expr5LabelNtNtCsieiGu2EXtoJ_4core3fmt5Debug3fmt, symObjAddr: 0x62B0, symBinAddr: 0x676A0, symSize: 0x90 }
  - { offset: 0xF2A88, size: 0x8, addend: 0x0, symName: __RNvXs2Q_NtNtCsdGrGZaRBwMb_3syn3gen5debugNtNtBa_4expr6MemberNtNtCsieiGu2EXtoJ_4core3fmt5Debug3fmt, symObjAddr: 0x6340, symBinAddr: 0x67730, symSize: 0x130 }
  - { offset: 0xF2B5A, size: 0x8, addend: 0x0, symName: __RNvXs2a_NtNtCsdGrGZaRBwMb_3syn3gen5debugNtNtBa_4expr5IndexNtNtCsieiGu2EXtoJ_4core3fmt5Debug3fmt, symObjAddr: 0x6D60, symBinAddr: 0x678D0, symSize: 0x90 }
  - { offset: 0xF2BBB, size: 0x8, addend: 0x0, symName: __RNvXs3p_NtNtCsdGrGZaRBwMb_3syn3gen5debugNtNtBa_4expr17PointerMutabilityNtNtCsieiGu2EXtoJ_4core3fmt5Debug3fmt, symObjAddr: 0x7630, symBinAddr: 0x679D0, symSize: 0x140 }
  - { offset: 0xF2C8D, size: 0x8, addend: 0x0, symName: __RNvXs3u_NtNtCsdGrGZaRBwMb_3syn3gen5debugNtNtBa_4expr11RangeLimitsNtNtCsieiGu2EXtoJ_4core3fmt5Debug3fmt, symObjAddr: 0x7770, symBinAddr: 0x67B10, symSize: 0x140 }
  - { offset: 0xF2D5F, size: 0x8, addend: 0x0, symName: __RNvXsm_NtNtCsdGrGZaRBwMb_3syn3gen5debugNtNtB9_4expr4ExprNtNtCsieiGu2EXtoJ_4core3fmt5Debug3fmt, symObjAddr: 0x170D0, symBinAddr: 0x70800, symSize: 0xB30 }
  - { offset: 0xF67DA, size: 0x8, addend: 0x0, symName: __RNvMNtCsieiGu2EXtoJ_4core5sliceSNtNtCsdGrGZaRBwMb_3syn4expr3Arm4iterBy_, symObjAddr: 0x1BB0, symBinAddr: 0x645E0, symSize: 0x20 }
  - { offset: 0xF6811, size: 0x8, addend: 0x0, symName: __RNvMNtCsieiGu2EXtoJ_4core5sliceSTNtNtCsdGrGZaRBwMb_3syn4expr10FieldValueNtNtBz_5token5CommaE4iterBz_, symObjAddr: 0x1BD0, symBinAddr: 0x64600, symSize: 0x20 }
  - { offset: 0xF6848, size: 0x8, addend: 0x0, symName: __RNvMNtCsieiGu2EXtoJ_4core5sliceSTNtNtCsdGrGZaRBwMb_3syn4expr4ExprNtNtBz_5token5CommaE4iterBz_, symObjAddr: 0x1BF0, symBinAddr: 0x64620, symSize: 0x20 }
  - { offset: 0xF7A50, size: 0x8, addend: 0x0, symName: __RNvXs19_NtCsieiGu2EXtoJ_4core3fmtRNtNtCsdGrGZaRBwMb_3syn4expr3ArmNtB6_5Debug3fmtBA_, symObjAddr: 0x4B10, symBinAddr: 0x67200, symSize: 0x20 }
  - { offset: 0xF7A96, size: 0x8, addend: 0x0, symName: __RNvXs19_NtCsieiGu2EXtoJ_4core3fmtRNtNtCsdGrGZaRBwMb_3syn4expr4ExprNtB6_5Debug3fmtBA_, symObjAddr: 0x4B30, symBinAddr: 0x67220, symSize: 0x20 }
  - { offset: 0xF7ADC, size: 0x8, addend: 0x0, symName: __RNvXs19_NtCsieiGu2EXtoJ_4core3fmtRNtNtCsdGrGZaRBwMb_3syn4expr5LabelNtB6_5Debug3fmtBA_, symObjAddr: 0x4B50, symBinAddr: 0x67240, symSize: 0x20 }
  - { offset: 0xF7B28, size: 0x8, addend: 0x0, symName: __RNvXsq_NtCsieiGu2EXtoJ_4core3fmtSNtNtCsdGrGZaRBwMb_3syn4expr3ArmNtB5_5Debug3fmtBz_, symObjAddr: 0x18BF0, symBinAddr: 0x721A0, symSize: 0x90 }
  - { offset: 0xF7CF2, size: 0x8, addend: 0x0, symName: __RNvXNtNtCsieiGu2EXtoJ_4core5clone6uninitNtNtCsdGrGZaRBwMb_3syn4expr10FieldValueNtB2_8CopySpec9clone_oneBG_, symObjAddr: 0x4320, symBinAddr: 0x66D50, symSize: 0x50 }
  - { offset: 0xF7D57, size: 0x8, addend: 0x0, symName: __RNvXNtNtCsieiGu2EXtoJ_4core5clone6uninitNtNtCsdGrGZaRBwMb_3syn4expr4ExprNtB2_8CopySpec9clone_oneBG_, symObjAddr: 0x4370, symBinAddr: 0x66DA0, symSize: 0x50 }
  - { offset: 0xF8F27, size: 0x8, addend: 0x0, symName: __RNvMNtCsdGrGZaRBwMb_3syn4exprNtB2_4Expr13replace_attrs, symObjAddr: 0x1370, symBinAddr: 0x63DA0, symSize: 0x540 }
  - { offset: 0xF8FCC, size: 0x8, addend: 0x0, symName: __RNvMNtCsdGrGZaRBwMb_3syn4exprNtB2_4Expr25parse_without_eager_brace, symObjAddr: 0x18B0, symBinAddr: 0x642E0, symSize: 0x30 }
  - { offset: 0xF8FEF, size: 0x8, addend: 0x0, symName: __RNvMNtCsdGrGZaRBwMb_3syn4exprNtB2_4Expr32parse_with_earlier_boundary_rule, symObjAddr: 0x18E0, symBinAddr: 0x64310, symSize: 0x30 }
  - { offset: 0xF9012, size: 0x8, addend: 0x0, symName: __RNvMNtCsdGrGZaRBwMb_3syn4exprNtB2_4Expr4peek, symObjAddr: 0x1910, symBinAddr: 0x64340, symSize: 0x2A0 }
  - { offset: 0xF909E, size: 0x8, addend: 0x0, symName: __RNvMs10_NtNtCsdGrGZaRBwMb_3syn3gen5debugNtNtBa_4expr7ExprLit5debug, symObjAddr: 0x1C10, symBinAddr: 0x64640, symSize: 0x90 }
  - { offset: 0xF910A, size: 0x8, addend: 0x0, symName: __RNvMs12_NtNtCsdGrGZaRBwMb_3syn3gen5debugNtNtBa_4expr8ExprLoop5debug, symObjAddr: 0x1CA0, symBinAddr: 0x646D0, symSize: 0xD0 }
  - { offset: 0xF9176, size: 0x8, addend: 0x0, symName: __RNvMs14_NtNtCsdGrGZaRBwMb_3syn3gen5debugNtNtBa_4expr9ExprMacro5debug, symObjAddr: 0x1D70, symBinAddr: 0x647A0, symSize: 0x90 }
  - { offset: 0xF91E2, size: 0x8, addend: 0x0, symName: __RNvMs16_NtNtCsdGrGZaRBwMb_3syn3gen5debugNtNtBa_4expr9ExprMatch5debug, symObjAddr: 0x1E00, symBinAddr: 0x64830, symSize: 0xF0 }
  - { offset: 0xF924E, size: 0x8, addend: 0x0, symName: __RNvMs18_NtNtCsdGrGZaRBwMb_3syn3gen5debugNtNtBa_4expr14ExprMethodCall5debug, symObjAddr: 0x1EF0, symBinAddr: 0x64920, symSize: 0x140 }
  - { offset: 0xF92BA, size: 0x8, addend: 0x0, symName: __RNvMs1A_NtNtCsdGrGZaRBwMb_3syn3gen5debugNtNtBa_4expr9ExprWhile5debug, symObjAddr: 0x2030, symBinAddr: 0x64A60, symSize: 0xF0 }
  - { offset: 0xF9326, size: 0x8, addend: 0x0, symName: __RNvMs1C_NtNtCsdGrGZaRBwMb_3syn3gen5debugNtNtBa_4expr9ExprYield5debug, symObjAddr: 0x2120, symBinAddr: 0x64B50, symSize: 0xB0 }
  - { offset: 0xF9392, size: 0x8, addend: 0x0, symName: __RNvMs1a_NtNtCsdGrGZaRBwMb_3syn3gen5debugNtNtBa_4expr9ExprParen5debug, symObjAddr: 0x21D0, symBinAddr: 0x64C00, symSize: 0xB0 }
  - { offset: 0xF93FE, size: 0x8, addend: 0x0, symName: __RNvMs1c_NtNtCsdGrGZaRBwMb_3syn3gen5debugNtNtBa_4expr8ExprPath5debug, symObjAddr: 0x2280, symBinAddr: 0x64CB0, symSize: 0xB0 }
  - { offset: 0xF946A, size: 0x8, addend: 0x0, symName: __RNvMs1e_NtNtCsdGrGZaRBwMb_3syn3gen5debugNtNtBa_4expr9ExprRange5debug, symObjAddr: 0x2330, symBinAddr: 0x64D60, symSize: 0xD0 }
  - { offset: 0xF94D6, size: 0x8, addend: 0x0, symName: __RNvMs1g_NtNtCsdGrGZaRBwMb_3syn3gen5debugNtNtBa_4expr11ExprRawAddr5debug, symObjAddr: 0x2400, symBinAddr: 0x64E30, symSize: 0xF0 }
  - { offset: 0xF9542, size: 0x8, addend: 0x0, symName: __RNvMs1i_NtNtCsdGrGZaRBwMb_3syn3gen5debugNtNtBa_4expr13ExprReference5debug, symObjAddr: 0x24F0, symBinAddr: 0x64F20, symSize: 0xD0 }
  - { offset: 0xF95AE, size: 0x8, addend: 0x0, symName: __RNvMs1k_NtNtCsdGrGZaRBwMb_3syn3gen5debugNtNtBa_4expr10ExprRepeat5debug, symObjAddr: 0x25C0, symBinAddr: 0x64FF0, symSize: 0xF0 }
  - { offset: 0xF961A, size: 0x8, addend: 0x0, symName: __RNvMs1m_NtNtCsdGrGZaRBwMb_3syn3gen5debugNtNtBa_4expr10ExprReturn5debug, symObjAddr: 0x26B0, symBinAddr: 0x650E0, symSize: 0xB0 }
  - { offset: 0xF9686, size: 0x8, addend: 0x0, symName: __RNvMs1o_NtNtCsdGrGZaRBwMb_3syn3gen5debugNtNtBa_4expr10ExprStruct5debug, symObjAddr: 0x2760, symBinAddr: 0x65190, symSize: 0x140 }
  - { offset: 0xF96F2, size: 0x8, addend: 0x0, symName: __RNvMs1q_NtNtCsdGrGZaRBwMb_3syn3gen5debugNtNtBa_4expr7ExprTry5debug, symObjAddr: 0x28A0, symBinAddr: 0x652D0, symSize: 0xB0 }
  - { offset: 0xF975E, size: 0x8, addend: 0x0, symName: __RNvMs1s_NtNtCsdGrGZaRBwMb_3syn3gen5debugNtNtBa_4expr12ExprTryBlock5debug, symObjAddr: 0x2950, symBinAddr: 0x65380, symSize: 0xB0 }
  - { offset: 0xF97CA, size: 0x8, addend: 0x0, symName: __RNvMs1u_NtNtCsdGrGZaRBwMb_3syn3gen5debugNtNtBa_4expr9ExprTuple5debug, symObjAddr: 0x2A00, symBinAddr: 0x65430, symSize: 0xB0 }
  - { offset: 0xF9836, size: 0x8, addend: 0x0, symName: __RNvMs1w_NtNtCsdGrGZaRBwMb_3syn3gen5debugNtNtBa_4expr9ExprUnary5debug, symObjAddr: 0x2AB0, symBinAddr: 0x654E0, symSize: 0xB0 }
  - { offset: 0xF98A2, size: 0x8, addend: 0x0, symName: __RNvMs1y_NtNtCsdGrGZaRBwMb_3syn3gen5debugNtNtBa_4expr10ExprUnsafe5debug, symObjAddr: 0x2B60, symBinAddr: 0x65590, symSize: 0xB0 }
  - { offset: 0xF990E, size: 0x8, addend: 0x0, symName: __RNvMs6_NtCsdGrGZaRBwMb_3syn4exprNtB5_6Member8is_named, symObjAddr: 0x2C10, symBinAddr: 0x65640, symSize: 0x40 }
  - { offset: 0xF993E, size: 0x8, addend: 0x0, symName: __RNvMsA_NtNtCsdGrGZaRBwMb_3syn3gen5debugNtNtB9_4expr9ExprBreak5debug, symObjAddr: 0x2C50, symBinAddr: 0x65680, symSize: 0xD0 }
  - { offset: 0xF99AA, size: 0x8, addend: 0x0, symName: __RNvMsC_NtNtCsdGrGZaRBwMb_3syn3gen5debugNtNtB9_4expr8ExprCall5debug, symObjAddr: 0x2D20, symBinAddr: 0x65750, symSize: 0xD0 }
  - { offset: 0xF9A16, size: 0x8, addend: 0x0, symName: __RNvMsE_NtNtCsdGrGZaRBwMb_3syn3gen5debugNtNtB9_4expr8ExprCast5debug, symObjAddr: 0x2DF0, symBinAddr: 0x65820, symSize: 0xD0 }
  - { offset: 0xF9A82, size: 0x8, addend: 0x0, symName: __RNvMsG_NtNtCsdGrGZaRBwMb_3syn3gen5debugNtNtB9_4expr11ExprClosure5debug, symObjAddr: 0x2EC0, symBinAddr: 0x658F0, symSize: 0x1E0 }
  - { offset: 0xF9AEE, size: 0x8, addend: 0x0, symName: __RNvMsI_NtNtCsdGrGZaRBwMb_3syn3gen5debugNtNtB9_4expr9ExprConst5debug, symObjAddr: 0x30A0, symBinAddr: 0x65AD0, symSize: 0xB0 }
  - { offset: 0xF9B5A, size: 0x8, addend: 0x0, symName: __RNvMsK_NtNtCsdGrGZaRBwMb_3syn3gen5debugNtNtB9_4expr12ExprContinue5debug, symObjAddr: 0x3150, symBinAddr: 0x65B80, symSize: 0xB0 }
  - { offset: 0xF9BC6, size: 0x8, addend: 0x0, symName: __RNvMsM_NtNtCsdGrGZaRBwMb_3syn3gen5debugNtNtB9_4expr9ExprField5debug, symObjAddr: 0x3200, symBinAddr: 0x65C30, symSize: 0xD0 }
  - { offset: 0xF9C32, size: 0x8, addend: 0x0, symName: __RNvMsO_NtNtCsdGrGZaRBwMb_3syn3gen5debugNtNtB9_4expr11ExprForLoop5debug, symObjAddr: 0x32D0, symBinAddr: 0x65D00, symSize: 0x140 }
  - { offset: 0xF9C9E, size: 0x8, addend: 0x0, symName: __RNvMsQ_NtNtCsdGrGZaRBwMb_3syn3gen5debugNtNtB9_4expr9ExprGroup5debug, symObjAddr: 0x3410, symBinAddr: 0x65E40, symSize: 0xB0 }
  - { offset: 0xF9D0A, size: 0x8, addend: 0x0, symName: __RNvMsS_NtNtCsdGrGZaRBwMb_3syn3gen5debugNtNtB9_4expr6ExprIf5debug, symObjAddr: 0x34C0, symBinAddr: 0x65EF0, symSize: 0xF0 }
  - { offset: 0xF9D76, size: 0x8, addend: 0x0, symName: __RNvMsU_NtNtCsdGrGZaRBwMb_3syn3gen5debugNtNtB9_4expr9ExprIndex5debug, symObjAddr: 0x35B0, symBinAddr: 0x65FE0, symSize: 0xD0 }
  - { offset: 0xF9DE2, size: 0x8, addend: 0x0, symName: __RNvMsW_NtNtCsdGrGZaRBwMb_3syn3gen5debugNtNtB9_4expr9ExprInfer5debug, symObjAddr: 0x3680, symBinAddr: 0x660B0, symSize: 0x90 }
  - { offset: 0xF9E4E, size: 0x8, addend: 0x0, symName: __RNvMsY_NtNtCsdGrGZaRBwMb_3syn3gen5debugNtNtB9_4expr7ExprLet5debug, symObjAddr: 0x3710, symBinAddr: 0x66140, symSize: 0xF0 }
  - { offset: 0xF9EBA, size: 0x8, addend: 0x0, symName: __RNvMso_NtNtCsdGrGZaRBwMb_3syn3gen5debugNtNtB9_4expr9ExprArray5debug, symObjAddr: 0x3800, symBinAddr: 0x66230, symSize: 0xB0 }
  - { offset: 0xF9F26, size: 0x8, addend: 0x0, symName: __RNvMsq_NtNtCsdGrGZaRBwMb_3syn3gen5debugNtNtB9_4expr10ExprAssign5debug, symObjAddr: 0x38B0, symBinAddr: 0x662E0, symSize: 0xD0 }
  - { offset: 0xF9F92, size: 0x8, addend: 0x0, symName: __RNvMss_NtNtCsdGrGZaRBwMb_3syn3gen5debugNtNtB9_4expr9ExprAsync5debug, symObjAddr: 0x3980, symBinAddr: 0x663B0, symSize: 0xD0 }
  - { offset: 0xF9FFE, size: 0x8, addend: 0x0, symName: __RNvMsu_NtNtCsdGrGZaRBwMb_3syn3gen5debugNtNtB9_4expr9ExprAwait5debug, symObjAddr: 0x3A50, symBinAddr: 0x66480, symSize: 0xD0 }
  - { offset: 0xFA05D, size: 0x8, addend: 0x0, symName: __RNvMsv_NtNtCsdGrGZaRBwMb_3syn4expr7parsingNtB7_11RangeLimits14parse_obsolete, symObjAddr: 0x3B20, symBinAddr: 0x66550, symSize: 0x3C0 }
  - { offset: 0xFA126, size: 0x8, addend: 0x0, symName: __RNvMsw_NtNtCsdGrGZaRBwMb_3syn3gen5debugNtNtB9_4expr10ExprBinary5debug, symObjAddr: 0x3EE0, symBinAddr: 0x66910, symSize: 0xD0 }
  - { offset: 0xFA192, size: 0x8, addend: 0x0, symName: __RNvMsy_NtNtCsdGrGZaRBwMb_3syn3gen5debugNtNtB9_4expr9ExprBlock5debug, symObjAddr: 0x3FB0, symBinAddr: 0x669E0, symSize: 0xB0 }
  - { offset: 0xFA1F1, size: 0x8, addend: 0x0, symName: __RNvMsy_NtNtCsdGrGZaRBwMb_3syn4expr7parsingNtB7_3Arm14parse_multiple, symObjAddr: 0x4060, symBinAddr: 0x66A90, symSize: 0x1E0 }
  - { offset: 0xFA259, size: 0x8, addend: 0x0, symName: __RNvXNtCs9OU1sGv5X54_5quote9to_tokensRNtNtCsdGrGZaRBwMb_3syn4expr10FieldValueNtB2_8ToTokens9to_tokensBD_, symObjAddr: 0x4240, symBinAddr: 0x66C70, symSize: 0x30 }
  - { offset: 0xFA298, size: 0x8, addend: 0x0, symName: __RNvXNtCs9OU1sGv5X54_5quote9to_tokensRNtNtCsdGrGZaRBwMb_3syn4expr4ExprNtB2_8ToTokens9to_tokensBD_, symObjAddr: 0x4270, symBinAddr: 0x66CA0, symSize: 0x30 }
  - { offset: 0xFB13C, size: 0x8, addend: 0x0, symName: __RNvNvMsd_NtNtCsieiGu2EXtoJ_4core3num7nonzeroINtB7_7NonZeropE13new_unchecked18precondition_checkCsdGrGZaRBwMb_3syn, symObjAddr: 0x17360, symBinAddr: 0x8AF80, symSize: 0x80 }
  - { offset: 0xFBBF8, size: 0x8, addend: 0x0, symName: __RNvNvMNtNtCsieiGu2EXtoJ_4core3ptr9const_ptrPp20offset_from_unsigned18precondition_checkCsdGrGZaRBwMb_3syn, symObjAddr: 0x171B0, symBinAddr: 0x8ADD0, symSize: 0xA0 }
  - { offset: 0xFBD31, size: 0x8, addend: 0x0, symName: __RNvNvMNtNtCsieiGu2EXtoJ_4core3ptr9const_ptrPp6offset18precondition_checkCsdGrGZaRBwMb_3syn, symObjAddr: 0x17250, symBinAddr: 0x8AE70, symSize: 0x110 }
  - { offset: 0xFC40E, size: 0x8, addend: 0x0, symName: __RNvXs0_NtCsieiGu2EXtoJ_4core4cellINtB5_4CellNtNtCsdGrGZaRBwMb_3syn6buffer6CursorENtNtB7_5clone5Clone5cloneBK_, symObjAddr: 0x17B50, symBinAddr: 0x8B770, symSize: 0x20 }
  - { offset: 0xFC469, size: 0x8, addend: 0x0, symName: __RNvXsD_NtCsieiGu2EXtoJ_4core4cellNtB5_12BorrowRefMutNtNtNtB7_3ops4drop4Drop4dropCsdGrGZaRBwMb_3syn, symObjAddr: 0x191B0, symBinAddr: 0x8C250, symSize: 0x20 }
  - { offset: 0xFC4D9, size: 0x8, addend: 0x0, symName: __RNvXsG_NtCsieiGu2EXtoJ_4core4cellINtB5_6RefMutINtNtCslJiobkLta79_5alloc3vec3VecReEENtNtNtB7_3ops5deref8DerefMut9deref_mutCsdGrGZaRBwMb_3syn, symObjAddr: 0x191D0, symBinAddr: 0x8C270, symSize: 0x10 }
  - { offset: 0xFE7AB, size: 0x8, addend: 0x0, symName: __RNvXs19_NtCsieiGu2EXtoJ_4core3fmtRNtNtCsdGrGZaRBwMb_3syn4attr9AttributeNtB6_5Debug3fmtBA_, symObjAddr: 0x17E00, symBinAddr: 0x8B800, symSize: 0x20 }
  - { offset: 0xFE7F1, size: 0x8, addend: 0x0, symName: __RNvXs19_NtCsieiGu2EXtoJ_4core3fmtRNtNtCsdGrGZaRBwMb_3syn5error12ErrorMessageNtB6_5Debug3fmtBA_, symObjAddr: 0x17E20, symBinAddr: 0x8B820, symSize: 0x20 }
  - { offset: 0xFE837, size: 0x8, addend: 0x0, symName: __RNvXs19_NtCsieiGu2EXtoJ_4core3fmtRNtNtCsdGrGZaRBwMb_3syn8lifetime8LifetimeNtB6_5Debug3fmtBA_, symObjAddr: 0x17E40, symBinAddr: 0x8B840, symSize: 0x20 }
  - { offset: 0xFE883, size: 0x8, addend: 0x0, symName: __RNvXse_NtCsieiGu2EXtoJ_4core3fmtbNtB5_5Debug3fmtCsdGrGZaRBwMb_3syn, symObjAddr: 0x19BA0, symBinAddr: 0x8C4D0, symSize: 0x20 }
  - { offset: 0xFE8C6, size: 0x8, addend: 0x0, symName: __RNvXsq_NtCsieiGu2EXtoJ_4core3fmtSNtNtCsdGrGZaRBwMb_3syn4attr9AttributeNtB5_5Debug3fmtBz_, symObjAddr: 0x19C60, symBinAddr: 0x8C590, symSize: 0x80 }
  - { offset: 0xFEA13, size: 0x8, addend: 0x0, symName: __RNvXsq_NtCsieiGu2EXtoJ_4core3fmtSNtNtCsdGrGZaRBwMb_3syn5error12ErrorMessageNtB5_5Debug3fmtBz_, symObjAddr: 0x19CE0, symBinAddr: 0x8C610, symSize: 0x80 }
  - { offset: 0xFFA5B, size: 0x8, addend: 0x0, symName: __RINvNtCsieiGu2EXtoJ_4core3mem7replaceINtNtCslJiobkLta79_5alloc3vec3VecNtNtCsdGrGZaRBwMb_3syn4attr9AttributeEEB1a_, symObjAddr: 0x1450, symBinAddr: 0x76AF0, symSize: 0x40 }
  - { offset: 0xFFAA1, size: 0x8, addend: 0x0, symName: __RINvNtCsieiGu2EXtoJ_4core3mem7replaceNtNtCsdGrGZaRBwMb_3syn4expr4ExprEBD_, symObjAddr: 0x1490, symBinAddr: 0x76B30, symSize: 0x50 }
  - { offset: 0xFFFB0, size: 0x8, addend: 0x0, symName: __RNvXs_NtNtCsieiGu2EXtoJ_4core5slice4iterRSNtNtCsdGrGZaRBwMb_3syn4attr9AttributeNtNtNtNtB8_4iter6traits7collect12IntoIterator9into_iterBI_, symObjAddr: 0x196F0, symBinAddr: 0x8C480, symSize: 0x50 }
  - { offset: 0x1001E1, size: 0x8, addend: 0x0, symName: __RNvMNtCsieiGu2EXtoJ_4core5sliceSNtNtCsdGrGZaRBwMb_3syn4attr9Attribute4iterBy_, symObjAddr: 0x4080, symBinAddr: 0x78C20, symSize: 0x20 }
  - { offset: 0x100218, size: 0x8, addend: 0x0, symName: __RNvMNtCsieiGu2EXtoJ_4core5sliceSTNtNtCsdGrGZaRBwMb_3syn8lifetime8LifetimeNtNtBz_5token4PlusE4iterBz_, symObjAddr: 0x40C0, symBinAddr: 0x78C40, symSize: 0x20 }
  - { offset: 0x100605, size: 0x8, addend: 0x0, symName: __RNvXNtNtCsieiGu2EXtoJ_4core5clone6uninitNtNtCsdGrGZaRBwMb_3syn8lifetime8LifetimeNtB2_8CopySpec9clone_oneBG_, symObjAddr: 0x179D0, symBinAddr: 0x8B5F0, symSize: 0x50 }
  - { offset: 0x101B41, size: 0x8, addend: 0x0, symName: __RNvXsB_NtCslJiobkLta79_5alloc6stringNtNtCsieiGu2EXtoJ_4core3fmt9ArgumentsNtB5_12SpecToString14spec_to_stringCsdGrGZaRBwMb_3syn, symObjAddr: 0x19170, symBinAddr: 0x8C210, symSize: 0x40 }
  - { offset: 0x101B75, size: 0x8, addend: 0x0, symName: __RNvXsw_NtCslJiobkLta79_5alloc6stringNtNtCsdGrGZaRBwMb_3syn5error5ErrorNtB5_8ToString9to_stringBC_, symObjAddr: 0x19D60, symBinAddr: 0x8C690, symSize: 0x30 }
  - { offset: 0x101BAC, size: 0x8, addend: 0x0, symName: __RNvXsw_NtCslJiobkLta79_5alloc6stringNtNtCsieiGu2EXtoJ_4core3fmt9ArgumentsNtB5_8ToString9to_stringCsdGrGZaRBwMb_3syn, symObjAddr: 0x19D90, symBinAddr: 0x8C6C0, symSize: 0x30 }
  - { offset: 0x101BE9, size: 0x8, addend: 0x0, symName: __RNvXsx_NtCslJiobkLta79_5alloc6stringNtNtCsdGrGZaRBwMb_3syn5error5ErrorNtB5_12SpecToString14spec_to_stringBC_, symObjAddr: 0x19DC0, symBinAddr: 0x8C6F0, symSize: 0x120 }
  - { offset: 0x101D79, size: 0x8, addend: 0x0, symName: __RINvMNtCslJiobkLta79_5alloc5sliceSNtNtCsdGrGZaRBwMb_3syn5error12ErrorMessage8into_vecNtNtB5_5alloc6GlobalEBA_, symObjAddr: 0xD50, symBinAddr: 0x763F0, symSize: 0x40 }
  - { offset: 0x101E2D, size: 0x8, addend: 0x0, symName: __RINvXNvMNtCslJiobkLta79_5alloc5sliceSp9to_vec_inNtNtCsdGrGZaRBwMb_3syn4attr9AttributeNtB3_10ConvertVec6to_vecNtNtB8_5alloc6GlobalEBO_, symObjAddr: 0x18F0, symBinAddr: 0x76F90, symSize: 0x490 }
  - { offset: 0x102381, size: 0x8, addend: 0x0, symName: __RINvXNvMNtCslJiobkLta79_5alloc5sliceSp9to_vec_inTNtNtCsdGrGZaRBwMb_3syn8lifetime8LifetimeNtNtBP_5token4PlusENtB3_10ConvertVec6to_vecNtNtB8_5alloc6GlobalEBP_, symObjAddr: 0x2210, symBinAddr: 0x77420, symSize: 0x490 }
  - { offset: 0x10341E, size: 0x8, addend: 0x0, symName: __RINvNtNtCsdGrGZaRBwMb_3syn5token7parsing5punctKj1_EB6_, symObjAddr: 0x14E0, symBinAddr: 0x76B80, symSize: 0x150 }
  - { offset: 0x103498, size: 0x8, addend: 0x0, symName: __RINvNtNtCsdGrGZaRBwMb_3syn5token7parsing5punctKj2_EB6_, symObjAddr: 0x1630, symBinAddr: 0x76CD0, symSize: 0x150 }
  - { offset: 0x103512, size: 0x8, addend: 0x0, symName: __RINvNtNtCsdGrGZaRBwMb_3syn5token7parsing5punctKj3_EB6_, symObjAddr: 0x1780, symBinAddr: 0x76E20, symSize: 0x170 }
  - { offset: 0x103592, size: 0x8, addend: 0x0, symName: __RNCNvNtNtCsdGrGZaRBwMb_3syn5token7parsing12punct_helper0B7_, symObjAddr: 0x27E0, symBinAddr: 0x779F0, symSize: 0x4B0 }
  - { offset: 0x1036F5, size: 0x8, addend: 0x0, symName: __RNCNvNtNtCsdGrGZaRBwMb_3syn5token7parsing7keyword0B7_, symObjAddr: 0x2C90, symBinAddr: 0x77EA0, symSize: 0x2E0 }
  - { offset: 0x10379C, size: 0x8, addend: 0x0, symName: __RNvNtNtCsdGrGZaRBwMb_3syn5token7parsing10peek_punct, symObjAddr: 0x16550, symBinAddr: 0x8A170, symSize: 0x250 }
  - { offset: 0x10383D, size: 0x8, addend: 0x0, symName: __RNvNtNtCsdGrGZaRBwMb_3syn5token7parsing12peek_keyword, symObjAddr: 0x167A0, symBinAddr: 0x8A3C0, symSize: 0x100 }
  - { offset: 0x1038A2, size: 0x8, addend: 0x0, symName: __RNvNtNtCsdGrGZaRBwMb_3syn5token7parsing12punct_helper, symObjAddr: 0x168A0, symBinAddr: 0x8A4C0, symSize: 0x50 }
  - { offset: 0x1038EE, size: 0x8, addend: 0x0, symName: __RNvNtNtCsdGrGZaRBwMb_3syn5token7parsing7keyword, symObjAddr: 0x168F0, symBinAddr: 0x8A510, symSize: 0x40 }
  - { offset: 0x103931, size: 0x8, addend: 0x0, symName: __RNvNtNtCsdGrGZaRBwMb_3syn5token8printing5delim, symObjAddr: 0x16930, symBinAddr: 0x8A550, symSize: 0xC0 }
  - { offset: 0x1039A1, size: 0x8, addend: 0x0, symName: __RNvNtNtCsdGrGZaRBwMb_3syn5token8printing5punct, symObjAddr: 0x169F0, symBinAddr: 0x8A610, symSize: 0x2A0 }
  - { offset: 0x103B3C, size: 0x8, addend: 0x0, symName: __RNvNtNtCsdGrGZaRBwMb_3syn5token8printing7keyword, symObjAddr: 0x16C90, symBinAddr: 0x8A8B0, symSize: 0x60 }
  - { offset: 0x103B8A, size: 0x8, addend: 0x0, symName: __RNvXsq_NtCsdGrGZaRBwMb_3syn5tokenNtNtB7_8lifetime8LifetimeNtB5_5Token4peek, symObjAddr: 0x19BC0, symBinAddr: 0x8C4F0, symSize: 0x80 }
  - { offset: 0x103BB6, size: 0x8, addend: 0x0, symName: __RNvXsq_NtCsdGrGZaRBwMb_3syn5tokenNtNtB7_8lifetime8LifetimeNtB5_5Token7display, symObjAddr: 0x19C40, symBinAddr: 0x8C570, symSize: 0x20 }
  - { offset: 0x104006, size: 0x8, addend: 0x0, symName: __RNvXNtNtCsdGrGZaRBwMb_3syn8lifetime7parsingNtB4_8LifetimeNtNtB6_5parse5Parse5parse, symObjAddr: 0x17940, symBinAddr: 0x8B560, symSize: 0x30 }
  - { offset: 0x10403E, size: 0x8, addend: 0x0, symName: __RNvXNtNtCsdGrGZaRBwMb_3syn8lifetime8printingNtB4_8LifetimeNtNtCs9OU1sGv5X54_5quote9to_tokens8ToTokens9to_tokens, symObjAddr: 0x17970, symBinAddr: 0x8B590, symSize: 0x60 }
  - { offset: 0x10407B, size: 0x8, addend: 0x0, symName: __RNvXs0_NtCsdGrGZaRBwMb_3syn8lifetimeNtB5_8LifetimeNtNtCsieiGu2EXtoJ_4core5clone5Clone5clone, symObjAddr: 0x17AF0, symBinAddr: 0x8B710, symSize: 0x60 }
  - { offset: 0x105630, size: 0x8, addend: 0x0, symName: __RNCNvNtNtCsdGrGZaRBwMb_3syn4expr7parsing11multi_index0B7_, symObjAddr: 0x27B0, symBinAddr: 0x779C0, symSize: 0x30 }
  - { offset: 0x10567B, size: 0x8, addend: 0x0, symName: __RNCNvXsA_NtNtCsdGrGZaRBwMb_3syn4expr7parsingNtB9_5IndexNtNtBb_5parse5Parse5parse0Bb_, symObjAddr: 0x3030, symBinAddr: 0x78240, symSize: 0x50 }
  - { offset: 0x1056BC, size: 0x8, addend: 0x0, symName: __RNvNtNtCsdGrGZaRBwMb_3syn4expr7parsing10check_cast, symObjAddr: 0x5E90, symBinAddr: 0x79AB0, symSize: 0x300 }
  - { offset: 0x105765, size: 0x8, addend: 0x0, symName: __RNvNtNtCsdGrGZaRBwMb_3syn4expr7parsing10expr_attrs, symObjAddr: 0x6190, symBinAddr: 0x79DB0, symSize: 0x200 }
  - { offset: 0x1057C9, size: 0x8, addend: 0x0, symName: __RNvNtNtCsdGrGZaRBwMb_3syn4expr7parsing10expr_break, symObjAddr: 0x6390, symBinAddr: 0x79FB0, symSize: 0x760 }
  - { offset: 0x10595E, size: 0x8, addend: 0x0, symName: __RNvNtNtCsdGrGZaRBwMb_3syn4expr7parsing10expr_group, symObjAddr: 0x6AF0, symBinAddr: 0x7A710, symSize: 0x9C0 }
  - { offset: 0x105B2D, size: 0x8, addend: 0x0, symName: __RNvNtNtCsdGrGZaRBwMb_3syn4expr7parsing10expr_range, symObjAddr: 0x74B0, symBinAddr: 0x7B0D0, symSize: 0x260 }
  - { offset: 0x105C1B, size: 0x8, addend: 0x0, symName: __RNvNtNtCsdGrGZaRBwMb_3syn4expr7parsing10expr_unary, symObjAddr: 0x7710, symBinAddr: 0x7B330, symSize: 0x340 }
  - { offset: 0x105CC5, size: 0x8, addend: 0x0, symName: __RNvNtNtCsdGrGZaRBwMb_3syn4expr7parsing10parse_expr, symObjAddr: 0x7A50, symBinAddr: 0x7B670, symSize: 0x12D0 }
  - { offset: 0x106045, size: 0x8, addend: 0x0, symName: __RNvNtNtCsdGrGZaRBwMb_3syn4expr7parsing10unary_expr, symObjAddr: 0x8D20, symBinAddr: 0x7C940, symSize: 0xC50 }
  - { offset: 0x106265, size: 0x8, addend: 0x0, symName: __RNvNtNtCsdGrGZaRBwMb_3syn4expr7parsing11closure_arg, symObjAddr: 0x9970, symBinAddr: 0x7D590, symSize: 0x1330 }
  - { offset: 0x1064E7, size: 0x8, addend: 0x0, symName: __RNvNtNtCsdGrGZaRBwMb_3syn4expr7parsing11expr_become, symObjAddr: 0xACA0, symBinAddr: 0x7E8C0, symSize: 0x290 }
  - { offset: 0x106579, size: 0x8, addend: 0x0, symName: __RNvNtNtCsdGrGZaRBwMb_3syn4expr7parsing11multi_index, symObjAddr: 0xAF30, symBinAddr: 0x7EB50, symSize: 0x8E0 }
  - { offset: 0x106721, size: 0x8, addend: 0x0, symName: __RNvNtNtCsdGrGZaRBwMb_3syn4expr7parsing12atom_labeled, symObjAddr: 0xB810, symBinAddr: 0x7F430, symSize: 0x8D0 }
  - { offset: 0x106836, size: 0x8, addend: 0x0, symName: __RNvNtNtCsdGrGZaRBwMb_3syn4expr7parsing12expr_builtin, symObjAddr: 0xC0E0, symBinAddr: 0x7FD00, symSize: 0x620 }
  - { offset: 0x106961, size: 0x8, addend: 0x0, symName: __RNvNtNtCsdGrGZaRBwMb_3syn4expr7parsing12expr_closure, symObjAddr: 0xC700, symBinAddr: 0x80320, symSize: 0x12F0 }
  - { offset: 0x106D43, size: 0x8, addend: 0x0, symName: __RNvNtNtCsdGrGZaRBwMb_3syn4expr7parsing12trailer_expr, symObjAddr: 0xD9F0, symBinAddr: 0x81610, symSize: 0x740 }
  - { offset: 0x106EF8, size: 0x8, addend: 0x0, symName: __RNvNtNtCsdGrGZaRBwMb_3syn4expr7parsing14ambiguous_expr, symObjAddr: 0xE130, symBinAddr: 0x81D50, symSize: 0x1C0 }
  - { offset: 0x106F92, size: 0x8, addend: 0x0, symName: __RNvNtNtCsdGrGZaRBwMb_3syn4expr7parsing14paren_or_tuple, symObjAddr: 0xE2F0, symBinAddr: 0x81F10, symSize: 0x9A0 }
  - { offset: 0x107131, size: 0x8, addend: 0x0, symName: __RNvNtNtCsdGrGZaRBwMb_3syn4expr7parsing14trailer_helper, symObjAddr: 0xEC90, symBinAddr: 0x828B0, symSize: 0x22E0 }
  - { offset: 0x107528, size: 0x8, addend: 0x0, symName: __RNvNtNtCsdGrGZaRBwMb_3syn4expr7parsing15array_or_repeat, symObjAddr: 0x10F70, symBinAddr: 0x84B90, symSize: 0xD60 }
  - { offset: 0x10776B, size: 0x8, addend: 0x0, symName: __RNvNtNtCsdGrGZaRBwMb_3syn4expr7parsing15parse_binop_rhs, symObjAddr: 0x11CD0, symBinAddr: 0x858F0, symSize: 0x4B0 }
  - { offset: 0x107871, size: 0x8, addend: 0x0, symName: __RNvNtNtCsdGrGZaRBwMb_3syn4expr7parsing15parse_range_end, symObjAddr: 0x12180, symBinAddr: 0x85DA0, symSize: 0x3F0 }
  - { offset: 0x1078F9, size: 0x8, addend: 0x0, symName: __RNvNtNtCsdGrGZaRBwMb_3syn4expr7parsing15peek_precedence, symObjAddr: 0x12570, symBinAddr: 0x86190, symSize: 0x190 }
  - { offset: 0x10793D, size: 0x8, addend: 0x0, symName: __RNvNtNtCsdGrGZaRBwMb_3syn4expr7parsing18expr_struct_helper, symObjAddr: 0x12700, symBinAddr: 0x86320, symSize: 0xC50 }
  - { offset: 0x107A9F, size: 0x8, addend: 0x0, symName: __RNvNtNtCsdGrGZaRBwMb_3syn4expr7parsing22continue_parsing_early, symObjAddr: 0x13350, symBinAddr: 0x86F70, symSize: 0x140 }
  - { offset: 0x107AE3, size: 0x8, addend: 0x0, symName: __RNvNtNtCsdGrGZaRBwMb_3syn4expr7parsing23path_or_macro_or_struct, symObjAddr: 0x13490, symBinAddr: 0x870B0, symSize: 0x290 }
  - { offset: 0x107B85, size: 0x8, addend: 0x0, symName: __RNvNtNtCsdGrGZaRBwMb_3syn4expr7parsing31rest_of_path_or_macro_or_struct, symObjAddr: 0x13720, symBinAddr: 0x87340, symSize: 0x720 }
  - { offset: 0x107C50, size: 0x8, addend: 0x0, symName: __RNvNtNtCsdGrGZaRBwMb_3syn4expr7parsing32parse_with_earlier_boundary_rule, symObjAddr: 0x13E40, symBinAddr: 0x87A60, symSize: 0x1540 }
  - { offset: 0x107F27, size: 0x8, addend: 0x0, symName: __RNvNtNtCsdGrGZaRBwMb_3syn4expr7parsing8expr_let, symObjAddr: 0x15380, symBinAddr: 0x88FA0, symSize: 0x780 }
  - { offset: 0x10806C, size: 0x8, addend: 0x0, symName: __RNvNtNtCsdGrGZaRBwMb_3syn4expr7parsing9atom_expr, symObjAddr: 0x15B00, symBinAddr: 0x89720, symSize: 0xA50 }
  - { offset: 0x108309, size: 0x8, addend: 0x0, symName: __RNcNtNtNtCsdGrGZaRBwMb_3syn4attr4Meta4List0B7_, symObjAddr: 0x3330, symBinAddr: 0x78290, symSize: 0x40 }
  - { offset: 0x10833A, size: 0x8, addend: 0x0, symName: __RNcNtNtNtCsdGrGZaRBwMb_3syn4attr4Meta9NameValue0B7_, symObjAddr: 0x3370, symBinAddr: 0x782D0, symSize: 0x30 }
  - { offset: 0x108371, size: 0x8, addend: 0x0, symName: __RNvNvXs1_NtCsdGrGZaRBwMb_3syn4attrRSNtB7_9AttributeNtB7_11FilterAttrs5inner8is_inner, symObjAddr: 0x175D0, symBinAddr: 0x8B1F0, symSize: 0x40 }
  - { offset: 0x1083A5, size: 0x8, addend: 0x0, symName: __RNvNvXs1_NtCsdGrGZaRBwMb_3syn4attrRSNtB7_9AttributeNtB7_11FilterAttrs5outer8is_outer, symObjAddr: 0x17610, symBinAddr: 0x8B230, symSize: 0x40 }
  - { offset: 0x1083D4, size: 0x8, addend: 0x0, symName: __RNvXs1_NtCsdGrGZaRBwMb_3syn4attrRSNtB5_9AttributeNtB5_11FilterAttrs5inner, symObjAddr: 0x181A0, symBinAddr: 0x8BBA0, symSize: 0x60 }
  - { offset: 0x108402, size: 0x8, addend: 0x0, symName: __RNvXs1_NtCsdGrGZaRBwMb_3syn4attrRSNtB5_9AttributeNtB5_11FilterAttrs5outer, symObjAddr: 0x18200, symBinAddr: 0x8BC00, symSize: 0x60 }
  - { offset: 0x10843B, size: 0x8, addend: 0x0, symName: __RNvXNtNtCsdGrGZaRBwMb_3syn4attr7parsingNtB4_4MetaNtNtB6_5parse5Parse5parse, symObjAddr: 0x176B0, symBinAddr: 0x8B2D0, symSize: 0x200 }
  - { offset: 0x1084D2, size: 0x8, addend: 0x0, symName: __RNvXNtNtCsdGrGZaRBwMb_3syn4attr8printingNtB4_9AttributeNtNtCs9OU1sGv5X54_5quote9to_tokens8ToTokens9to_tokens, symObjAddr: 0x178B0, symBinAddr: 0x8B4D0, symSize: 0x90 }
  - { offset: 0x10852F, size: 0x8, addend: 0x0, symName: __RNvXs0_NtNtCsdGrGZaRBwMb_3syn4attr8printingNtB7_8MetaListNtNtCs9OU1sGv5X54_5quote9to_tokens8ToTokens9to_tokens, symObjAddr: 0x17D70, symBinAddr: 0x8B790, symSize: 0x70 }
  - { offset: 0x10856E, size: 0x8, addend: 0x0, symName: __RNvXs1_NtNtCsdGrGZaRBwMb_3syn4attr8printingNtB7_13MetaNameValueNtNtCs9OU1sGv5X54_5quote9to_tokens8ToTokens9to_tokens, symObjAddr: 0x182E0, symBinAddr: 0x8BC90, symSize: 0x70 }
  - { offset: 0x1085AD, size: 0x8, addend: 0x0, symName: __RNvXs_NtNtCsdGrGZaRBwMb_3syn4attr8printingNtB6_4MetaNtNtCs9OU1sGv5X54_5quote9to_tokens8ToTokens9to_tokens, symObjAddr: 0x19640, symBinAddr: 0x8C3D0, symSize: 0xB0 }
  - { offset: 0x10AF52, size: 0x8, addend: 0x0, symName: __RINvNtCsdGrGZaRBwMb_3syn5error4new2NtNtCslJiobkLta79_5alloc6string6StringEB4_, symObjAddr: 0xDD0, symBinAddr: 0x76470, symSize: 0x90 }
  - { offset: 0x10AFA9, size: 0x8, addend: 0x0, symName: __RINvNtCsdGrGZaRBwMb_3syn5error4new2ReEB4_, symObjAddr: 0xE60, symBinAddr: 0x76500, symSize: 0x80 }
  - { offset: 0x10AFFE, size: 0x8, addend: 0x0, symName: __RINvNtCsdGrGZaRBwMb_3syn5error6new_atNtNtCsieiGu2EXtoJ_4core3fmt9ArgumentsEB4_, symObjAddr: 0xEE0, symBinAddr: 0x76580, symSize: 0x1E0 }
  - { offset: 0x10B0B0, size: 0x8, addend: 0x0, symName: __RINvNtCsdGrGZaRBwMb_3syn5error6new_atNtNtCslJiobkLta79_5alloc6string6StringEB4_, symObjAddr: 0x10C0, symBinAddr: 0x76760, symSize: 0x1E0 }
  - { offset: 0x10B162, size: 0x8, addend: 0x0, symName: __RINvNtCsdGrGZaRBwMb_3syn5error6new_atReEB4_, symObjAddr: 0x12A0, symBinAddr: 0x76940, symSize: 0x1B0 }
  - { offset: 0x10B223, size: 0x8, addend: 0x0, symName: __RNCNvNvMNtCsdGrGZaRBwMb_3syn5errorNtB6_5Error11new_spanned11new_spanned0B8_, symObjAddr: 0x2F70, symBinAddr: 0x78180, symSize: 0x60 }
  - { offset: 0x10B25A, size: 0x8, addend: 0x0, symName: __RNCNvNvMNtCsdGrGZaRBwMb_3syn5errorNtB6_5Error11new_spanned11new_spanneds_0B8_, symObjAddr: 0x2FD0, symBinAddr: 0x781E0, symSize: 0x60 }
  - { offset: 0x10B2A0, size: 0x8, addend: 0x0, symName: __RNvNvMNtCsdGrGZaRBwMb_3syn5errorNtB4_5Error11new_spanned11new_spanned, symObjAddr: 0x16CF0, symBinAddr: 0x8A910, symSize: 0x2E0 }
  - { offset: 0x10B322, size: 0x8, addend: 0x0, symName: __RNvNvMNtCsdGrGZaRBwMb_3syn5errorNtB4_5Error3new3new, symObjAddr: 0x16FD0, symBinAddr: 0x8ABF0, symSize: 0x1E0 }
  - { offset: 0x10B364, size: 0x8, addend: 0x0, symName: __RNvNvNtCsdGrGZaRBwMb_3syn5error4new24new2, symObjAddr: 0x173E0, symBinAddr: 0x8B000, symSize: 0x1F0 }
  - { offset: 0x10B3B7, size: 0x8, addend: 0x0, symName: __RNvXs0_NtCsdGrGZaRBwMb_3syn5errorNtB5_5ErrorNtNtCsieiGu2EXtoJ_4core3fmt5Debug3fmt, symObjAddr: 0x17A20, symBinAddr: 0x8B640, symSize: 0xD0 }
  - { offset: 0x10B3FA, size: 0x8, addend: 0x0, symName: __RNvXs1_NtCsdGrGZaRBwMb_3syn5errorNtB5_12ErrorMessageNtNtCsieiGu2EXtoJ_4core3fmt5Debug3fmt, symObjAddr: 0x18260, symBinAddr: 0x8BC60, symSize: 0x30 }
  - { offset: 0x10B43D, size: 0x8, addend: 0x0, symName: __RNvXs2_NtCsdGrGZaRBwMb_3syn5errorNtB5_5ErrorNtNtCsieiGu2EXtoJ_4core3fmt7Display3fmt, symObjAddr: 0x18590, symBinAddr: 0x8BE80, symSize: 0x50 }
  - { offset: 0x10B480, size: 0x8, addend: 0x0, symName: __RNvXs8_NtCsdGrGZaRBwMb_3syn5errorNtB5_5ErrorINtNtCsieiGu2EXtoJ_4core7convert4FromNtCsaKzlTDPUHDb_11proc_macro28LexErrorE4from, symObjAddr: 0x19000, symBinAddr: 0x8C1D0, symSize: 0x40 }
  - { offset: 0x10BC60, size: 0x8, addend: 0x0, symName: __RNCNvMNtCsdGrGZaRBwMb_3syn9lookaheadNtB4_10Lookahead15error0B6_, symObjAddr: 0x26A0, symBinAddr: 0x778B0, symSize: 0x110 }
  - { offset: 0x10BC9F, size: 0x8, addend: 0x0, symName: __RNvNtCsdGrGZaRBwMb_3syn9lookahead3new, symObjAddr: 0x5D20, symBinAddr: 0x79940, symSize: 0x90 }
  - { offset: 0x10BCD9, size: 0x8, addend: 0x0, symName: __RNvNtCsdGrGZaRBwMb_3syn9lookahead9peek_impl, symObjAddr: 0x5DB0, symBinAddr: 0x799D0, symSize: 0xE0 }
  - { offset: 0x10BD26, size: 0x8, addend: 0x0, symName: __RNvXs_NtCsdGrGZaRBwMb_3syn9lookaheadNtB4_14CommaSeparatedNtNtCsieiGu2EXtoJ_4core3fmt7Display3fmt, symObjAddr: 0x192F0, symBinAddr: 0x8C280, symSize: 0x150 }
  - { offset: 0x10BFEF, size: 0x8, addend: 0x0, symName: __RNvNtCsdGrGZaRBwMb_3syn5ident6xid_ok, symObjAddr: 0x5C00, symBinAddr: 0x79830, symSize: 0x110 }
  - { offset: 0x10C09D, size: 0x8, addend: 0x0, symName: __RNvXs1L_NtNtCsdGrGZaRBwMb_3syn3gen5cloneNtNtBa_4attr4MetaNtNtCsieiGu2EXtoJ_4core5clone5Clone5clone, symObjAddr: 0x17E60, symBinAddr: 0x8B860, symSize: 0x150 }
  - { offset: 0x10C123, size: 0x8, addend: 0x0, symName: __RNvXs1M_NtNtCsdGrGZaRBwMb_3syn3gen5cloneNtNtBa_4attr8MetaListNtNtCsieiGu2EXtoJ_4core5clone5Clone5clone, symObjAddr: 0x17FB0, symBinAddr: 0x8B9B0, symSize: 0xE0 }
  - { offset: 0x10C157, size: 0x8, addend: 0x0, symName: __RNvXs1N_NtNtCsdGrGZaRBwMb_3syn3gen5cloneNtNtBa_4attr13MetaNameValueNtNtCsieiGu2EXtoJ_4core5clone5Clone5clone, symObjAddr: 0x18090, symBinAddr: 0x8BA90, symSize: 0x110 }
  - { offset: 0x10C18B, size: 0x8, addend: 0x0, symName: __RNvXs4_NtNtCsdGrGZaRBwMb_3syn3gen5cloneNtNtB9_4attr9AttrStyleNtNtCsieiGu2EXtoJ_4core5clone5Clone5clone, symObjAddr: 0x18C50, symBinAddr: 0x8BED0, symSize: 0x20 }
  - { offset: 0x10C1BD, size: 0x8, addend: 0x0, symName: __RNvXs5_NtNtCsdGrGZaRBwMb_3syn3gen5cloneNtNtB9_4attr9AttributeNtNtCsieiGu2EXtoJ_4core5clone5Clone5clone, symObjAddr: 0x18D90, symBinAddr: 0x8BFF0, symSize: 0x100 }
  - { offset: 0x10C1F5, size: 0x8, addend: 0x0, symName: __RNvXs2H_NtNtCsdGrGZaRBwMb_3syn3gen5debugNtNtBa_8lifetime8LifetimeNtNtCsieiGu2EXtoJ_4core3fmt5Debug3fmt, symObjAddr: 0x18350, symBinAddr: 0x8BD00, symSize: 0x40 }
  - { offset: 0x10C238, size: 0x8, addend: 0x0, symName: __RNvXs2R_NtNtCsdGrGZaRBwMb_3syn3gen5debugNtNtBa_4attr4MetaNtNtCsieiGu2EXtoJ_4core3fmt5Debug3fmt, symObjAddr: 0x18390, symBinAddr: 0x8BD40, symSize: 0x140 }
  - { offset: 0x10C2EB, size: 0x8, addend: 0x0, symName: __RNvXs4_NtNtCsdGrGZaRBwMb_3syn3gen5debugNtNtB9_4attr9AttrStyleNtNtCsieiGu2EXtoJ_4core3fmt5Debug3fmt, symObjAddr: 0x18C70, symBinAddr: 0x8BEF0, symSize: 0x100 }
  - { offset: 0x10C37A, size: 0x8, addend: 0x0, symName: __RNvXs5_NtNtCsdGrGZaRBwMb_3syn3gen5debugNtNtB9_4attr9AttributeNtNtCsieiGu2EXtoJ_4core3fmt5Debug3fmt, symObjAddr: 0x18E90, symBinAddr: 0x8C0F0, symSize: 0xE0 }
  - { offset: 0x10C9A3, size: 0x8, addend: 0x0, symName: __RINvMNtCsdGrGZaRBwMb_3syn5errorNtB3_5Error11new_spannedRNtNtB5_2ty4TypeReEB5_, symObjAddr: 0xB0, symBinAddr: 0x75750, symSize: 0xB0 }
  - { offset: 0x10C9E6, size: 0x8, addend: 0x0, symName: __RINvMNtCsdGrGZaRBwMb_3syn5errorNtB3_5Error3newBt_EB5_, symObjAddr: 0x160, symBinAddr: 0x75800, symSize: 0x80 }
  - { offset: 0x10CA21, size: 0x8, addend: 0x0, symName: __RINvMNtCsdGrGZaRBwMb_3syn5errorNtB3_5Error3newNtCsaKzlTDPUHDb_11proc_macro28LexErrorEB5_, symObjAddr: 0x1E0, symBinAddr: 0x75880, symSize: 0x70 }
  - { offset: 0x10CB55, size: 0x8, addend: 0x0, symName: __RINvMNtCsdGrGZaRBwMb_3syn5errorNtB3_5Error3newNtNtCsieiGu2EXtoJ_4core3fmt9ArgumentsEB5_, symObjAddr: 0x250, symBinAddr: 0x758F0, symSize: 0x70 }
  - { offset: 0x10CB90, size: 0x8, addend: 0x0, symName: __RINvMNtCsdGrGZaRBwMb_3syn5errorNtB3_5Error3newNtNtCslJiobkLta79_5alloc6string6StringEB5_, symObjAddr: 0x2C0, symBinAddr: 0x75960, symSize: 0x80 }
  - { offset: 0x10CBCB, size: 0x8, addend: 0x0, symName: __RINvMNtCsdGrGZaRBwMb_3syn5errorNtB3_5Error3newNtNtNtCsieiGu2EXtoJ_4core3num5error13ParseIntErrorEB5_, symObjAddr: 0x340, symBinAddr: 0x759E0, symSize: 0x70 }
  - { offset: 0x10CC04, size: 0x8, addend: 0x0, symName: __RINvMNtCsdGrGZaRBwMb_3syn5errorNtB3_5Error3newReEB5_, symObjAddr: 0x3B0, symBinAddr: 0x75A50, symSize: 0x70 }
  - { offset: 0x10CC83, size: 0x8, addend: 0x0, symName: __RINvMNtCsdGrGZaRBwMb_3syn9lookaheadNtB3_10Lookahead14peekINvNtB5_5token10UnderscoreNtB3_11TokenMarkerEEB5_, symObjAddr: 0x420, symBinAddr: 0x75AC0, symSize: 0x30 }
  - { offset: 0x10CCD4, size: 0x8, addend: 0x0, symName: __RINvMNtCsdGrGZaRBwMb_3syn9lookaheadNtB3_10Lookahead14peekINvNtB5_5token2EqNtB3_11TokenMarkerEEB5_, symObjAddr: 0x450, symBinAddr: 0x75AF0, symSize: 0x30 }
  - { offset: 0x10CD25, size: 0x8, addend: 0x0, symName: __RINvMNtCsdGrGZaRBwMb_3syn9lookaheadNtB3_10Lookahead14peekINvNtB5_5token2FnNtB3_11TokenMarkerEEB5_, symObjAddr: 0x480, symBinAddr: 0x75B20, symSize: 0x30 }
  - { offset: 0x10CD76, size: 0x8, addend: 0x0, symName: __RINvMNtCsdGrGZaRBwMb_3syn9lookaheadNtB3_10Lookahead14peekINvNtB5_5token2GtNtB3_11TokenMarkerEEB5_, symObjAddr: 0x4B0, symBinAddr: 0x75B50, symSize: 0x30 }
  - { offset: 0x10CDC7, size: 0x8, addend: 0x0, symName: __RINvMNtCsdGrGZaRBwMb_3syn9lookaheadNtB3_10Lookahead14peekINvNtB5_5token2IfNtB3_11TokenMarkerEEB5_, symObjAddr: 0x4E0, symBinAddr: 0x75B80, symSize: 0x30 }
  - { offset: 0x10CE18, size: 0x8, addend: 0x0, symName: __RINvMNtCsdGrGZaRBwMb_3syn9lookaheadNtB3_10Lookahead14peekINvNtB5_5token2LtNtB3_11TokenMarkerEEB5_, symObjAddr: 0x510, symBinAddr: 0x75BB0, symSize: 0x30 }
  - { offset: 0x10CE69, size: 0x8, addend: 0x0, symName: __RINvMNtCsdGrGZaRBwMb_3syn9lookaheadNtB3_10Lookahead14peekINvNtB5_5token3AndNtB3_11TokenMarkerEEB5_, symObjAddr: 0x540, symBinAddr: 0x75BE0, symSize: 0x30 }
  - { offset: 0x10CEBA, size: 0x8, addend: 0x0, symName: __RINvMNtCsdGrGZaRBwMb_3syn9lookaheadNtB3_10Lookahead14peekINvNtB5_5token3DynNtB3_11TokenMarkerEEB5_, symObjAddr: 0x570, symBinAddr: 0x75C10, symSize: 0x30 }
  - { offset: 0x10CF0B, size: 0x8, addend: 0x0, symName: __RINvMNtCsdGrGZaRBwMb_3syn9lookaheadNtB3_10Lookahead14peekINvNtB5_5token3ForNtB3_11TokenMarkerEEB5_, symObjAddr: 0x5A0, symBinAddr: 0x75C40, symSize: 0x30 }
  - { offset: 0x10CF5C, size: 0x8, addend: 0x0, symName: __RINvMNtCsdGrGZaRBwMb_3syn9lookaheadNtB3_10Lookahead14peekINvNtB5_5token3ModNtB3_11TokenMarkerEEB5_, symObjAddr: 0x5D0, symBinAddr: 0x75C70, symSize: 0x30 }
  - { offset: 0x10CFAD, size: 0x8, addend: 0x0, symName: __RINvMNtCsdGrGZaRBwMb_3syn9lookaheadNtB3_10Lookahead14peekINvNtB5_5token3MutNtB3_11TokenMarkerEEB5_, symObjAddr: 0x600, symBinAddr: 0x75CA0, symSize: 0x30 }
  - { offset: 0x10CFFE, size: 0x8, addend: 0x0, symName: __RINvMNtCsdGrGZaRBwMb_3syn9lookaheadNtB3_10Lookahead14peekINvNtB5_5token3NotNtB3_11TokenMarkerEEB5_, symObjAddr: 0x630, symBinAddr: 0x75CD0, symSize: 0x30 }
  - { offset: 0x10D04F, size: 0x8, addend: 0x0, symName: __RINvMNtCsdGrGZaRBwMb_3syn9lookaheadNtB3_10Lookahead14peekINvNtB5_5token3RefNtB3_11TokenMarkerEEB5_, symObjAddr: 0x660, symBinAddr: 0x75D00, symSize: 0x30 }
  - { offset: 0x10D0A0, size: 0x8, addend: 0x0, symName: __RINvMNtCsdGrGZaRBwMb_3syn9lookaheadNtB3_10Lookahead14peekINvNtB5_5token3TryNtB3_11TokenMarkerEEB5_, symObjAddr: 0x690, symBinAddr: 0x75D30, symSize: 0x30 }
  - { offset: 0x10D0F1, size: 0x8, addend: 0x0, symName: __RINvMNtCsdGrGZaRBwMb_3syn9lookaheadNtB3_10Lookahead14peekINvNtB5_5token3UseNtB3_11TokenMarkerEEB5_, symObjAddr: 0x6C0, symBinAddr: 0x75D60, symSize: 0x30 }
  - { offset: 0x10D142, size: 0x8, addend: 0x0, symName: __RINvMNtCsdGrGZaRBwMb_3syn9lookaheadNtB3_10Lookahead14peekINvNtB5_5token4AutoNtB3_11TokenMarkerEEB5_, symObjAddr: 0x6F0, symBinAddr: 0x75D90, symSize: 0x30 }
  - { offset: 0x10D193, size: 0x8, addend: 0x0, symName: __RINvMNtCsdGrGZaRBwMb_3syn9lookaheadNtB3_10Lookahead14peekINvNtB5_5token4EnumNtB3_11TokenMarkerEEB5_, symObjAddr: 0x720, symBinAddr: 0x75DC0, symSize: 0x30 }
  - { offset: 0x10D1E4, size: 0x8, addend: 0x0, symName: __RINvMNtCsdGrGZaRBwMb_3syn9lookaheadNtB3_10Lookahead14peekINvNtB5_5token4ImplNtB3_11TokenMarkerEEB5_, symObjAddr: 0x750, symBinAddr: 0x75DF0, symSize: 0x30 }
  - { offset: 0x10D235, size: 0x8, addend: 0x0, symName: __RINvMNtCsdGrGZaRBwMb_3syn9lookaheadNtB3_10Lookahead14peekINvNtB5_5token4SemiNtB3_11TokenMarkerEEB5_, symObjAddr: 0x780, symBinAddr: 0x75E20, symSize: 0x30 }
  - { offset: 0x10D286, size: 0x8, addend: 0x0, symName: __RINvMNtCsdGrGZaRBwMb_3syn9lookaheadNtB3_10Lookahead14peekINvNtB5_5token4StarNtB3_11TokenMarkerEEB5_, symObjAddr: 0x7B0, symBinAddr: 0x75E50, symSize: 0x30 }
  - { offset: 0x10D2D7, size: 0x8, addend: 0x0, symName: __RINvMNtCsdGrGZaRBwMb_3syn9lookaheadNtB3_10Lookahead14peekINvNtB5_5token4TypeNtB3_11TokenMarkerEEB5_, symObjAddr: 0x7E0, symBinAddr: 0x75E80, symSize: 0x30 }
  - { offset: 0x10D328, size: 0x8, addend: 0x0, symName: __RINvMNtCsdGrGZaRBwMb_3syn9lookaheadNtB3_10Lookahead14peekINvNtB5_5token5AsyncNtB3_11TokenMarkerEEB5_, symObjAddr: 0x810, symBinAddr: 0x75EB0, symSize: 0x30 }
  - { offset: 0x10D379, size: 0x8, addend: 0x0, symName: __RINvMNtCsdGrGZaRBwMb_3syn9lookaheadNtB3_10Lookahead14peekINvNtB5_5token5BraceNtB3_11TokenMarkerEEB5_, symObjAddr: 0x840, symBinAddr: 0x75EE0, symSize: 0x30 }
  - { offset: 0x10D3CA, size: 0x8, addend: 0x0, symName: __RINvMNtCsdGrGZaRBwMb_3syn9lookaheadNtB3_10Lookahead14peekINvNtB5_5token5ColonNtB3_11TokenMarkerEEB5_, symObjAddr: 0x870, symBinAddr: 0x75F10, symSize: 0x30 }
  - { offset: 0x10D41B, size: 0x8, addend: 0x0, symName: __RINvMNtCsdGrGZaRBwMb_3syn9lookaheadNtB3_10Lookahead14peekINvNtB5_5token5CommaNtB3_11TokenMarkerEEB5_, symObjAddr: 0x8A0, symBinAddr: 0x75F40, symSize: 0x30 }
  - { offset: 0x10D46C, size: 0x8, addend: 0x0, symName: __RINvMNtCsdGrGZaRBwMb_3syn9lookaheadNtB3_10Lookahead14peekINvNtB5_5token5ConstNtB3_11TokenMarkerEEB5_, symObjAddr: 0x8D0, symBinAddr: 0x75F70, symSize: 0x30 }
  - { offset: 0x10D4BD, size: 0x8, addend: 0x0, symName: __RINvMNtCsdGrGZaRBwMb_3syn9lookaheadNtB3_10Lookahead14peekINvNtB5_5token5CrateNtB3_11TokenMarkerEEB5_, symObjAddr: 0x900, symBinAddr: 0x75FA0, symSize: 0x30 }
  - { offset: 0x10D50E, size: 0x8, addend: 0x0, symName: __RINvMNtCsdGrGZaRBwMb_3syn9lookaheadNtB3_10Lookahead14peekINvNtB5_5token5MacroNtB3_11TokenMarkerEEB5_, symObjAddr: 0x930, symBinAddr: 0x75FD0, symSize: 0x30 }
  - { offset: 0x10D55F, size: 0x8, addend: 0x0, symName: __RINvMNtCsdGrGZaRBwMb_3syn9lookaheadNtB3_10Lookahead14peekINvNtB5_5token5MinusNtB3_11TokenMarkerEEB5_, symObjAddr: 0x960, symBinAddr: 0x76000, symSize: 0x30 }
  - { offset: 0x10D5B0, size: 0x8, addend: 0x0, symName: __RINvMNtCsdGrGZaRBwMb_3syn9lookaheadNtB3_10Lookahead14peekINvNtB5_5token5ParenNtB3_11TokenMarkerEEB5_, symObjAddr: 0x990, symBinAddr: 0x76030, symSize: 0x30 }
  - { offset: 0x10D601, size: 0x8, addend: 0x0, symName: __RINvMNtCsdGrGZaRBwMb_3syn9lookaheadNtB3_10Lookahead14peekINvNtB5_5token5SuperNtB3_11TokenMarkerEEB5_, symObjAddr: 0x9C0, symBinAddr: 0x76060, symSize: 0x30 }
  - { offset: 0x10D652, size: 0x8, addend: 0x0, symName: __RINvMNtCsdGrGZaRBwMb_3syn9lookaheadNtB3_10Lookahead14peekINvNtB5_5token5TraitNtB3_11TokenMarkerEEB5_, symObjAddr: 0x9F0, symBinAddr: 0x76090, symSize: 0x30 }
  - { offset: 0x10D6A3, size: 0x8, addend: 0x0, symName: __RINvMNtCsdGrGZaRBwMb_3syn9lookaheadNtB3_10Lookahead14peekINvNtB5_5token5UnionNtB3_11TokenMarkerEEB5_, symObjAddr: 0xA20, symBinAddr: 0x760C0, symSize: 0x30 }
  - { offset: 0x10D6F4, size: 0x8, addend: 0x0, symName: __RINvMNtCsdGrGZaRBwMb_3syn9lookaheadNtB3_10Lookahead14peekINvNtB5_5token5WhereNtB3_11TokenMarkerEEB5_, symObjAddr: 0xA50, symBinAddr: 0x760F0, symSize: 0x30 }
  - { offset: 0x10D745, size: 0x8, addend: 0x0, symName: __RINvMNtCsdGrGZaRBwMb_3syn9lookaheadNtB3_10Lookahead14peekINvNtB5_5token6DotDotNtB3_11TokenMarkerEEB5_, symObjAddr: 0xA80, symBinAddr: 0x76120, symSize: 0x30 }
  - { offset: 0x10D796, size: 0x8, addend: 0x0, symName: __RINvMNtCsdGrGZaRBwMb_3syn9lookaheadNtB3_10Lookahead14peekINvNtB5_5token6ExternNtB3_11TokenMarkerEEB5_, symObjAddr: 0xAB0, symBinAddr: 0x76150, symSize: 0x30 }
  - { offset: 0x10D7E7, size: 0x8, addend: 0x0, symName: __RINvMNtCsdGrGZaRBwMb_3syn9lookaheadNtB3_10Lookahead14peekINvNtB5_5token6StaticNtB3_11TokenMarkerEEB5_, symObjAddr: 0xAE0, symBinAddr: 0x76180, symSize: 0x30 }
  - { offset: 0x10D838, size: 0x8, addend: 0x0, symName: __RINvMNtCsdGrGZaRBwMb_3syn9lookaheadNtB3_10Lookahead14peekINvNtB5_5token6StructNtB3_11TokenMarkerEEB5_, symObjAddr: 0xB10, symBinAddr: 0x761B0, symSize: 0x30 }
  - { offset: 0x10D889, size: 0x8, addend: 0x0, symName: __RINvMNtCsdGrGZaRBwMb_3syn9lookaheadNtB3_10Lookahead14peekINvNtB5_5token6UnsafeNtB3_11TokenMarkerEEB5_, symObjAddr: 0xB40, symBinAddr: 0x761E0, symSize: 0x30 }
  - { offset: 0x10D8DA, size: 0x8, addend: 0x0, symName: __RINvMNtCsdGrGZaRBwMb_3syn9lookaheadNtB3_10Lookahead14peekINvNtB5_5token7BracketNtB3_11TokenMarkerEEB5_, symObjAddr: 0xB70, symBinAddr: 0x76210, symSize: 0x30 }
  - { offset: 0x10D92B, size: 0x8, addend: 0x0, symName: __RINvMNtCsdGrGZaRBwMb_3syn9lookaheadNtB3_10Lookahead14peekINvNtB5_5token7DefaultNtB3_11TokenMarkerEEB5_, symObjAddr: 0xBA0, symBinAddr: 0x76240, symSize: 0x30 }
  - { offset: 0x10D97C, size: 0x8, addend: 0x0, symName: __RINvMNtCsdGrGZaRBwMb_3syn9lookaheadNtB3_10Lookahead14peekINvNtB5_5token7PathSepNtB3_11TokenMarkerEEB5_, symObjAddr: 0xBD0, symBinAddr: 0x76270, symSize: 0x30 }
  - { offset: 0x10D9CD, size: 0x8, addend: 0x0, symName: __RINvMNtCsdGrGZaRBwMb_3syn9lookaheadNtB3_10Lookahead14peekINvNtB5_5token8DotDotEqNtB3_11TokenMarkerEEB5_, symObjAddr: 0xC00, symBinAddr: 0x762A0, symSize: 0x30 }
  - { offset: 0x10DA1E, size: 0x8, addend: 0x0, symName: __RINvMNtCsdGrGZaRBwMb_3syn9lookaheadNtB3_10Lookahead14peekINvNtB5_5token8SelfTypeNtB3_11TokenMarkerEEB5_, symObjAddr: 0xC30, symBinAddr: 0x762D0, symSize: 0x30 }
  - { offset: 0x10DA6F, size: 0x8, addend: 0x0, symName: __RINvMNtCsdGrGZaRBwMb_3syn9lookaheadNtB3_10Lookahead14peekINvNtB5_5token9SelfValueNtB3_11TokenMarkerEEB5_, symObjAddr: 0xC60, symBinAddr: 0x76300, symSize: 0x30 }
  - { offset: 0x10DAC0, size: 0x8, addend: 0x0, symName: __RINvMNtCsdGrGZaRBwMb_3syn9lookaheadNtB3_10Lookahead14peekNvNtB5_3lit3LitEB5_, symObjAddr: 0xC90, symBinAddr: 0x76330, symSize: 0x30 }
  - { offset: 0x10DB11, size: 0x8, addend: 0x0, symName: __RINvMNtCsdGrGZaRBwMb_3syn9lookaheadNtB3_10Lookahead14peekNvNtB5_3lit6LitStrEB5_, symObjAddr: 0xCC0, symBinAddr: 0x76360, symSize: 0x30 }
  - { offset: 0x10DB62, size: 0x8, addend: 0x0, symName: __RINvMNtCsdGrGZaRBwMb_3syn9lookaheadNtB3_10Lookahead14peekNvNtB5_5ident5IdentEB5_, symObjAddr: 0xCF0, symBinAddr: 0x76390, symSize: 0x30 }
  - { offset: 0x10DBB3, size: 0x8, addend: 0x0, symName: __RINvMNtCsdGrGZaRBwMb_3syn9lookaheadNtB3_10Lookahead14peekNvNtB5_8lifetime8LifetimeEB5_, symObjAddr: 0xD20, symBinAddr: 0x763C0, symSize: 0x30 }
  - { offset: 0x10DC83, size: 0x8, addend: 0x0, symName: __RINvMs_NtNtCsieiGu2EXtoJ_4core3fmt2rtNtB7_9Arguments6new_v1Kj2_KBW_ECsdGrGZaRBwMb_3syn, symObjAddr: 0xD90, symBinAddr: 0x76430, symSize: 0x40 }
  - { offset: 0x10E5A6, size: 0x8, addend: 0x0, symName: __RNvMNtCsdGrGZaRBwMb_3syn4attrNtB2_9Attribute11parse_inner, symObjAddr: 0x33A0, symBinAddr: 0x78300, symSize: 0x160 }
  - { offset: 0x10E5FF, size: 0x8, addend: 0x0, symName: __RNvMNtCsdGrGZaRBwMb_3syn4attrNtB2_9Attribute11parse_outer, symObjAddr: 0x3500, symBinAddr: 0x78460, symSize: 0x1E0 }
  - { offset: 0x10E665, size: 0x8, addend: 0x0, symName: __RNvMNtCsdGrGZaRBwMb_3syn4attrNtB2_9Attribute4path, symObjAddr: 0x36E0, symBinAddr: 0x78640, symSize: 0x20 }
  - { offset: 0x10E694, size: 0x8, addend: 0x0, symName: __RNvMNtCsdGrGZaRBwMb_3syn5errorNtB2_5Error16to_compile_error, symObjAddr: 0x3700, symBinAddr: 0x78660, symSize: 0x110 }
  - { offset: 0x10E71D, size: 0x8, addend: 0x0, symName: __RNvMNtCsdGrGZaRBwMb_3syn9lookaheadNtB2_10Lookahead15error, symObjAddr: 0x3BD0, symBinAddr: 0x78770, symSize: 0x4B0 }
  - { offset: 0x10E882, size: 0x8, addend: 0x0, symName: __RNvMs2I_NtNtCsdGrGZaRBwMb_3syn3gen5debugNtNtBa_8lifetime8Lifetime5debug, symObjAddr: 0x40E0, symBinAddr: 0x78C60, symSize: 0x90 }
  - { offset: 0x10E8EE, size: 0x8, addend: 0x0, symName: __RNvMs2T_NtNtCsdGrGZaRBwMb_3syn3gen5debugNtNtBa_4attr8MetaList5debug, symObjAddr: 0x4170, symBinAddr: 0x78CF0, symSize: 0xB0 }
  - { offset: 0x10E95A, size: 0x8, addend: 0x0, symName: __RNvMs2V_NtNtCsdGrGZaRBwMb_3syn3gen5debugNtNtBa_4attr13MetaNameValue5debug, symObjAddr: 0x4220, symBinAddr: 0x78DA0, symSize: 0xB0 }
  - { offset: 0x10E9B9, size: 0x8, addend: 0x0, symName: __RNvMs7_NtCsieiGu2EXtoJ_4core4cellINtB5_4CellINtNtB7_6option6OptionINtNtCslJiobkLta79_5alloc2rc2RcIBw_NtNtCsdGrGZaRBwMb_3syn5parse10UnexpectedEEEE3newB1F_, symObjAddr: 0x42D0, symBinAddr: 0x78E50, symSize: 0x10 }
  - { offset: 0x10EA1A, size: 0x8, addend: 0x0, symName: __RNvMs7_NtCsieiGu2EXtoJ_4core4cellINtB5_4CellINtNtB7_6option6OptionINtNtCslJiobkLta79_5alloc2rc2RcIBw_NtNtCsdGrGZaRBwMb_3syn5parse10UnexpectedEEEE3setB1F_, symObjAddr: 0x42E0, symBinAddr: 0x78E60, symSize: 0x30 }
  - { offset: 0x10EAA0, size: 0x8, addend: 0x0, symName: __RNvMs7_NtCsieiGu2EXtoJ_4core4cellINtB5_4CellNtNtCsdGrGZaRBwMb_3syn5parse10UnexpectedE3newBK_, symObjAddr: 0x4310, symBinAddr: 0x78E90, symSize: 0x30 }
  - { offset: 0x10EB16, size: 0x8, addend: 0x0, symName: __RNvMs7_NtCsieiGu2EXtoJ_4core4cellINtB5_4CellNtNtCsdGrGZaRBwMb_3syn5parse10UnexpectedE3setBK_, symObjAddr: 0x4340, symBinAddr: 0x78EC0, symSize: 0x40 }
  - { offset: 0x10EB8D, size: 0x8, addend: 0x0, symName: __RNvMs7_NtCsieiGu2EXtoJ_4core4cellINtB5_4CellNtNtCsdGrGZaRBwMb_3syn6buffer6CursorE3newBK_, symObjAddr: 0x4380, symBinAddr: 0x78F00, symSize: 0x20 }
  - { offset: 0x10EBEE, size: 0x8, addend: 0x0, symName: __RNvMs7_NtCsieiGu2EXtoJ_4core4cellINtB5_4CellNtNtCsdGrGZaRBwMb_3syn6buffer6CursorE3setBK_, symObjAddr: 0x43A0, symBinAddr: 0x78F20, symSize: 0x20 }
  - { offset: 0x10EC64, size: 0x8, addend: 0x0, symName: __RNvMs8_NtCsieiGu2EXtoJ_4core4cellINtB5_4CellNtNtCsdGrGZaRBwMb_3syn6buffer6CursorE3getBK_, symObjAddr: 0x43C0, symBinAddr: 0x78F40, symSize: 0x20 }
  - { offset: 0x10ECEE, size: 0x8, addend: 0x0, symName: __RNvMs9_NtCsieiGu2EXtoJ_4core3fmtNtB5_9Formatter9write_fmtCsdGrGZaRBwMb_3syn, symObjAddr: 0x43E0, symBinAddr: 0x78F60, symSize: 0x190 }
  - { offset: 0x10EDA1, size: 0x8, addend: 0x0, symName: __RNvMs_NtCsdGrGZaRBwMb_3syn4attrNtB4_4Meta4path, symObjAddr: 0x4B80, symBinAddr: 0x790F0, symSize: 0xA0 }
  - { offset: 0x10EE2B, size: 0x8, addend: 0x0, symName: __RNvMs_NtCsdGrGZaRBwMb_3syn5errorNtB4_12ErrorMessage16to_compile_error, symObjAddr: 0x4C20, symBinAddr: 0x79190, symSize: 0x4C0 }
  - { offset: 0x10EEFF, size: 0x8, addend: 0x0, symName: __RNvMsa_NtCsieiGu2EXtoJ_4core4cellINtB5_4CellINtNtB7_6option6OptionINtNtCslJiobkLta79_5alloc2rc2RcIBw_NtNtCsdGrGZaRBwMb_3syn5parse10UnexpectedEEEE4takeB1F_, symObjAddr: 0x50E0, symBinAddr: 0x79650, symSize: 0x30 }
  - { offset: 0x10EF8E, size: 0x8, addend: 0x0, symName: __RNvMsa_NtCsieiGu2EXtoJ_4core4cellINtB5_4CellNtNtCsdGrGZaRBwMb_3syn5parse10UnexpectedE4takeBK_, symObjAddr: 0x5110, symBinAddr: 0x79680, symSize: 0x50 }
  - { offset: 0x10EFF5, size: 0x8, addend: 0x0, symName: __RNvMsh_NtCsieiGu2EXtoJ_4core4cellINtB5_7RefCellINtNtCslJiobkLta79_5alloc3vec3VecReEE10into_innerCsdGrGZaRBwMb_3syn, symObjAddr: 0x5160, symBinAddr: 0x796D0, symSize: 0x20 }
  - { offset: 0x10F031, size: 0x8, addend: 0x0, symName: __RNvMsh_NtCsieiGu2EXtoJ_4core4cellINtB5_7RefCellINtNtCslJiobkLta79_5alloc3vec3VecReEE3newCsdGrGZaRBwMb_3syn, symObjAddr: 0x5180, symBinAddr: 0x796F0, symSize: 0x40 }
  - { offset: 0x10F0A6, size: 0x8, addend: 0x0, symName: __RNvMsi_NtCsieiGu2EXtoJ_4core4cellINtB5_7RefCellINtNtCslJiobkLta79_5alloc3vec3VecReEE10borrow_mutCsdGrGZaRBwMb_3syn, symObjAddr: 0x51C0, symBinAddr: 0x79730, symSize: 0x60 }
  - { offset: 0x10F17D, size: 0x8, addend: 0x0, symName: __RNvMsi_NtCsieiGu2EXtoJ_4core4cellINtB5_7RefCellINtNtCslJiobkLta79_5alloc3vec3VecReEE14try_borrow_mutCsdGrGZaRBwMb_3syn, symObjAddr: 0x5220, symBinAddr: 0x79790, symSize: 0xA0 }
  - { offset: 0x10F3AE, size: 0x8, addend: 0x0, symName: __RNvXNtCs9OU1sGv5X54_5quote9to_tokensRNtNtCsdGrGZaRBwMb_3syn4attr9AttributeNtB2_8ToTokens9to_tokensBD_, symObjAddr: 0x17650, symBinAddr: 0x8B270, symSize: 0x30 }
  - { offset: 0x10F3ED, size: 0x8, addend: 0x0, symName: __RNvXNtCs9OU1sGv5X54_5quote9to_tokensRNtNtCsdGrGZaRBwMb_3syn8lifetime8LifetimeNtB2_8ToTokens9to_tokensBD_, symObjAddr: 0x17680, symBinAddr: 0x8B2A0, symSize: 0x30 }
  - { offset: 0x10FA13, size: 0x8, addend: 0x0, symName: __RINvMNtCsieiGu2EXtoJ_4core3stre3getINtNtNtB5_3ops5range5RangejEECsdGrGZaRBwMb_3syn, symObjAddr: 0x0, symBinAddr: 0x8C810, symSize: 0x40 }
  - { offset: 0x113B5C, size: 0x8, addend: 0x0, symName: __RNCNvNtNtCsdGrGZaRBwMb_3syn4item7parsing22parse_rest_of_receiver0B7_, symObjAddr: 0x2A0, symBinAddr: 0x8CAB0, symSize: 0x30 }
  - { offset: 0x113BA7, size: 0x8, addend: 0x0, symName: __RNCNvXsp_NtNtCsdGrGZaRBwMb_3syn4item7parsingNtB9_11TraitItemFnNtNtBb_5parse5Parse5parse0Bb_, symObjAddr: 0x3A0, symBinAddr: 0x8CBB0, symSize: 0x50 }
  - { offset: 0x113CB0, size: 0x8, addend: 0x0, symName: __RNvNtNtCsdGrGZaRBwMb_3syn4item7parsing10parse_impl, symObjAddr: 0x31D0, symBinAddr: 0x8F980, symSize: 0x1EA0 }
  - { offset: 0x11411A, size: 0x8, addend: 0x0, symName: __RNvNtNtCsdGrGZaRBwMb_3syn4item7parsing12parse_macro2, symObjAddr: 0x5070, symBinAddr: 0x91820, symSize: 0xAA0 }
  - { offset: 0x1142CF, size: 0x8, addend: 0x0, symName: __RNvNtNtCsdGrGZaRBwMb_3syn4item7parsing13parse_fn_args, symObjAddr: 0x5B10, symBinAddr: 0x922C0, symSize: 0xE20 }
  - { offset: 0x1144F9, size: 0x8, addend: 0x0, symName: __RNvNtNtCsdGrGZaRBwMb_3syn4item7parsing14parse_item_use, symObjAddr: 0x6930, symBinAddr: 0x930E0, symSize: 0x8A0 }
  - { offset: 0x1146EC, size: 0x8, addend: 0x0, symName: __RNvNtNtCsdGrGZaRBwMb_3syn4item7parsing14parse_use_tree, symObjAddr: 0x71D0, symBinAddr: 0x93980, symSize: 0x15B0 }
  - { offset: 0x1149DF, size: 0x8, addend: 0x0, symName: __RNvNtNtCsdGrGZaRBwMb_3syn4item7parsing14peek_signature, symObjAddr: 0x8780, symBinAddr: 0x94F30, symSize: 0x370 }
  - { offset: 0x114A33, size: 0x8, addend: 0x0, symName: __RNvNtNtCsdGrGZaRBwMb_3syn4item7parsing15parse_item_type, symObjAddr: 0x8AF0, symBinAddr: 0x952A0, symSize: 0x780 }
  - { offset: 0x114B6A, size: 0x8, addend: 0x0, symName: __RNvNtNtCsdGrGZaRBwMb_3syn4item7parsing15parse_signature, symObjAddr: 0x9270, symBinAddr: 0x95A20, symSize: 0x1180 }
  - { offset: 0x114EC5, size: 0x8, addend: 0x0, symName: __RNvNtNtCsdGrGZaRBwMb_3syn4item7parsing16parse_rest_of_fn, symObjAddr: 0xA3F0, symBinAddr: 0x96BA0, symSize: 0x6B0 }
  - { offset: 0x115011, size: 0x8, addend: 0x0, symName: __RNvNtNtCsdGrGZaRBwMb_3syn4item7parsing18parse_impl_item_fn, symObjAddr: 0xAAA0, symBinAddr: 0x97250, symSize: 0xB30 }
  - { offset: 0x115250, size: 0x8, addend: 0x0, symName: __RNvNtNtCsdGrGZaRBwMb_3syn4item7parsing18parse_rest_of_item, symObjAddr: 0xB5D0, symBinAddr: 0x97D80, symSize: 0x42E0 }
  - { offset: 0x115B35, size: 0x8, addend: 0x0, symName: __RNvNtNtCsdGrGZaRBwMb_3syn4item7parsing19parse_rest_of_trait, symObjAddr: 0xF8B0, symBinAddr: 0x9C060, symSize: 0xD30 }
  - { offset: 0x115D55, size: 0x8, addend: 0x0, symName: __RNvNtNtCsdGrGZaRBwMb_3syn4item7parsing20parse_impl_item_type, symObjAddr: 0x105E0, symBinAddr: 0x9CD90, symSize: 0x6F0 }
  - { offset: 0x115E7D, size: 0x8, addend: 0x0, symName: __RNvNtNtCsdGrGZaRBwMb_3syn4item7parsing20parse_receiver_begin, symObjAddr: 0x10CD0, symBinAddr: 0x9D480, symSize: 0x4C0 }
  - { offset: 0x115F98, size: 0x8, addend: 0x0, symName: __RNvNtNtCsdGrGZaRBwMb_3syn4item7parsing21parse_trait_item_type, symObjAddr: 0x11190, symBinAddr: 0x9D940, symSize: 0x610 }
  - { offset: 0x116082, size: 0x8, addend: 0x0, symName: __RNvNtNtCsdGrGZaRBwMb_3syn4item7parsing22parse_rest_of_receiver, symObjAddr: 0x117A0, symBinAddr: 0x9DF50, symSize: 0x880 }
  - { offset: 0x1161FF, size: 0x8, addend: 0x0, symName: __RNvNtNtCsdGrGZaRBwMb_3syn4item7parsing23parse_foreign_item_type, symObjAddr: 0x12020, symBinAddr: 0x9E7D0, symSize: 0x5C0 }
  - { offset: 0x1162F7, size: 0x8, addend: 0x0, symName: __RNvNtNtCsdGrGZaRBwMb_3syn4item7parsing24parse_fn_arg_or_variadic, symObjAddr: 0x125E0, symBinAddr: 0x9ED90, symSize: 0x1000 }
  - { offset: 0x1164FF, size: 0x8, addend: 0x0, symName: __RNvNtNtCsdGrGZaRBwMb_3syn4item7parsing25parse_rest_of_trait_alias, symObjAddr: 0x135E0, symBinAddr: 0x9FD90, symSize: 0x860 }
  - { offset: 0x116668, size: 0x8, addend: 0x0, symName: __RNvNtNtCsdGrGZaRBwMb_3syn4item7parsing26parse_start_of_trait_alias, symObjAddr: 0x13E40, symBinAddr: 0xA05F0, symSize: 0x620 }
  - { offset: 0x1167F0, size: 0x8, addend: 0x0, symName: __RNvNtNtCsdGrGZaRBwMb_3syn4item7parsing26parse_trait_or_trait_alias, symObjAddr: 0x14460, symBinAddr: 0xA0C10, symSize: 0x6C0 }
  - { offset: 0x116A87, size: 0x8, addend: 0x0, symName: __RNvXNtNtCsdGrGZaRBwMb_3syn11restriction7parsingNtB4_10VisibilityNtNtB6_5parse5Parse5parse, symObjAddr: 0x150E0, symBinAddr: 0xA1410, symSize: 0x2D0 }
  - { offset: 0x116B1F, size: 0x8, addend: 0x0, symName: __RNvXNtNtCsdGrGZaRBwMb_3syn11restriction8printingNtB4_10VisibilityNtNtCs9OU1sGv5X54_5quote9to_tokens8ToTokens9to_tokens, symObjAddr: 0x153B0, symBinAddr: 0xA16E0, symSize: 0x90 }
  - { offset: 0x116B95, size: 0x8, addend: 0x0, symName: __RNvXs_NtNtCsdGrGZaRBwMb_3syn11restriction8printingNtB6_13VisRestrictedNtNtCs9OU1sGv5X54_5quote9to_tokens8ToTokens9to_tokens, symObjAddr: 0x17020, symBinAddr: 0xA27A0, symSize: 0x50 }
  - { offset: 0x11707D, size: 0x8, addend: 0x0, symName: __RNCNvNtNtCsdGrGZaRBwMb_3syn8generics8printing20print_const_argument0B7_, symObjAddr: 0x2D0, symBinAddr: 0x8CAE0, symSize: 0x40 }
  - { offset: 0x1170C3, size: 0x8, addend: 0x0, symName: __RNCNvXs5_NtNtCsdGrGZaRBwMb_3syn8generics8printingNtB9_10TraitBoundNtNtCs9OU1sGv5X54_5quote9to_tokens8ToTokens9to_tokens0Bb_, symObjAddr: 0x340, symBinAddr: 0x8CB50, symSize: 0x60 }
  - { offset: 0x117101, size: 0x8, addend: 0x0, symName: __RNvNtNtCsdGrGZaRBwMb_3syn8generics8printing20print_const_argument, symObjAddr: 0x14B20, symBinAddr: 0xA12D0, symSize: 0x140 }
  - { offset: 0x117774, size: 0x8, addend: 0x0, symName: __RNCNvXNtNtCsdGrGZaRBwMb_3syn6derive8printingNtB6_11DeriveInputNtNtCs9OU1sGv5X54_5quote9to_tokens8ToTokens9to_tokens0B8_, symObjAddr: 0x310, symBinAddr: 0x8CB20, symSize: 0x30 }
  - { offset: 0x117A45, size: 0x8, addend: 0x0, symName: __RNvXs1E_NtNtCsdGrGZaRBwMb_3syn3gen5debugNtNtBa_11restriction15FieldMutabilityNtNtCsieiGu2EXtoJ_4core3fmt5Debug3fmt, symObjAddr: 0x15D70, symBinAddr: 0xA1B30, symSize: 0x90 }
  - { offset: 0x117AA6, size: 0x8, addend: 0x0, symName: __RNvXs4t_NtNtCsdGrGZaRBwMb_3syn3gen5debugNtNtBa_11restriction10VisibilityNtNtCsieiGu2EXtoJ_4core3fmt5Debug3fmt, symObjAddr: 0x16B90, symBinAddr: 0xA24B0, symSize: 0x150 }
  - { offset: 0x117B67, size: 0x8, addend: 0x0, symName: __RNvXs2Q_NtNtCsdGrGZaRBwMb_3syn3gen5cloneNtNtBa_11restriction13VisRestrictedNtNtCsieiGu2EXtoJ_4core5clone5Clone5clone, symObjAddr: 0x16130, symBinAddr: 0xA1EB0, symSize: 0xA0 }
  - { offset: 0x117B9B, size: 0x8, addend: 0x0, symName: __RNvXs2R_NtNtCsdGrGZaRBwMb_3syn3gen5cloneNtNtBa_11restriction10VisibilityNtNtCsieiGu2EXtoJ_4core5clone5Clone5clone, symObjAddr: 0x161D0, symBinAddr: 0xA1F50, symSize: 0xD0 }
  - { offset: 0x117C0B, size: 0x8, addend: 0x0, symName: __RNvXsZ_NtNtCsdGrGZaRBwMb_3syn3gen5cloneNtNtB9_11restriction15FieldMutabilityNtNtCsieiGu2EXtoJ_4core5clone5Clone5clone, symObjAddr: 0x16F60, symBinAddr: 0xA26E0, symSize: 0x20 }
  - { offset: 0x11BAF6, size: 0x8, addend: 0x0, symName: __RINvMNtCsieiGu2EXtoJ_4core3stre3getINtNtNtB5_3ops5range5RangejEECsdGrGZaRBwMb_3syn, symObjAddr: 0x0, symBinAddr: 0x8C810, symSize: 0x40 }
  - { offset: 0x11BB3C, size: 0x8, addend: 0x0, symName: __RINvMNtCsieiGu2EXtoJ_4core3stre3getINtNtNtB5_3ops5range9RangeFromjEECsdGrGZaRBwMb_3syn, symObjAddr: 0x40, symBinAddr: 0x8C850, symSize: 0x30 }
  - { offset: 0x11BB82, size: 0x8, addend: 0x0, symName: __RINvMNtCsieiGu2EXtoJ_4core3stre5parseNtCsaKzlTDPUHDb_11proc_macro27LiteralECsdGrGZaRBwMb_3syn, symObjAddr: 0x70, symBinAddr: 0x8C880, symSize: 0x30 }
  - { offset: 0x11BBB9, size: 0x8, addend: 0x0, symName: __RINvMNtCsieiGu2EXtoJ_4core3stre5parsemECsdGrGZaRBwMb_3syn, symObjAddr: 0xA0, symBinAddr: 0x8C8B0, symSize: 0x30 }
  - { offset: 0x11BBFD, size: 0x8, addend: 0x0, symName: __RINvMNtCsieiGu2EXtoJ_4core3stre5rfindcECsdGrGZaRBwMb_3syn, symObjAddr: 0xD0, symBinAddr: 0x8C8E0, symSize: 0xD0 }
  - { offset: 0x11BC8A, size: 0x8, addend: 0x0, symName: __RINvMNtCsieiGu2EXtoJ_4core3stre5splitcECsdGrGZaRBwMb_3syn, symObjAddr: 0x1A0, symBinAddr: 0x8C9B0, symSize: 0xB0 }
  - { offset: 0x11BCD0, size: 0x8, addend: 0x0, symName: __RINvMNtCsieiGu2EXtoJ_4core3stre9ends_withcECsdGrGZaRBwMb_3syn, symObjAddr: 0x250, symBinAddr: 0x8CA60, symSize: 0x30 }
  - { offset: 0x11BD16, size: 0x8, addend: 0x0, symName: __RNvMNtCsieiGu2EXtoJ_4core3stre3lenCsdGrGZaRBwMb_3syn, symObjAddr: 0x3F0, symBinAddr: 0x8CC00, symSize: 0x20 }
  - { offset: 0x11BD42, size: 0x8, addend: 0x0, symName: __RNvMNtCsieiGu2EXtoJ_4core3stre5bytesCsdGrGZaRBwMb_3syn, symObjAddr: 0x410, symBinAddr: 0x8CC20, symSize: 0x20 }
  - { offset: 0x11BDB0, size: 0x8, addend: 0x0, symName: __RNvMNtCsieiGu2EXtoJ_4core3stre5charsCsdGrGZaRBwMb_3syn, symObjAddr: 0x430, symBinAddr: 0x8CC40, symSize: 0x20 }
  - { offset: 0x11BE1E, size: 0x8, addend: 0x0, symName: __RNvMNtCsieiGu2EXtoJ_4core3stre8is_emptyCsdGrGZaRBwMb_3syn, symObjAddr: 0x450, symBinAddr: 0x8CC60, symSize: 0x20 }
  - { offset: 0x11C00B, size: 0x8, addend: 0x0, symName: __RNvXs_NtCsieiGu2EXtoJ_4core3streINtNtB6_7convert5AsRefShE6as_refCsdGrGZaRBwMb_3syn, symObjAddr: 0x17000, symBinAddr: 0xA2780, symSize: 0x20 }
  - { offset: 0x11C151, size: 0x8, addend: 0x0, symName: __RINvNtCsieiGu2EXtoJ_4core3cmp3minjECsdGrGZaRBwMb_3syn, symObjAddr: 0x280, symBinAddr: 0x8CA90, symSize: 0x20 }
  - { offset: 0x11C292, size: 0x8, addend: 0x0, symName: __RNvXsa_NtCsieiGu2EXtoJ_4core3cmpNtB5_8OrderingNtB5_9PartialEq2eqCsdGrGZaRBwMb_3syn, symObjAddr: 0x17070, symBinAddr: 0xA27F0, symSize: 0x20 }
  - { offset: 0x11D5FA, size: 0x8, addend: 0x0, symName: __RNvXsW_NtNtCsieiGu2EXtoJ_4core3fmt3nummNtB7_5Debug3fmtCsdGrGZaRBwMb_3syn, symObjAddr: 0x16EE0, symBinAddr: 0xA2660, symSize: 0x80 }
  - { offset: 0x11D674, size: 0x8, addend: 0x0, symName: __RNvXsZ_NtNtCsieiGu2EXtoJ_4core3fmt3numjNtB7_5Debug3fmtCsdGrGZaRBwMb_3syn, symObjAddr: 0x16F80, symBinAddr: 0xA2700, symSize: 0x80 }
  - { offset: 0x11D7B2, size: 0x8, addend: 0x0, symName: __RNvXs1_NtCsieiGu2EXtoJ_4core7convertNtNtCslJiobkLta79_5alloc6string6StringINtB5_4IntoINtNtBC_3vec3VechEE4intoCsdGrGZaRBwMb_3syn, symObjAddr: 0x15F30, symBinAddr: 0xA1CD0, symSize: 0x20 }
  - { offset: 0x11D909, size: 0x8, addend: 0x0, symName: __RNvYINtNtNtCslJiobkLta79_5alloc3vec9into_iter8IntoIterNtNtCsdGrGZaRBwMb_3syn4attr9AttributeENtNtNtNtCsieiGu2EXtoJ_4core4iter6traits10exact_size17ExactSizeIterator3lenBU_, symObjAddr: 0x17570, symBinAddr: 0xA2B40, symSize: 0xE0 }
  - { offset: 0x11DA09, size: 0x8, addend: 0x0, symName: __RNvYINtNtNtCslJiobkLta79_5alloc3vec9into_iter8IntoIterNtNtCsdGrGZaRBwMb_3syn8generics14TypeParamBoundENtNtNtNtCsieiGu2EXtoJ_4core4iter6traits10exact_size17ExactSizeIterator3lenBU_, symObjAddr: 0x17730, symBinAddr: 0xA2C20, symSize: 0xE0 }
  - { offset: 0x11DB09, size: 0x8, addend: 0x0, symName: __RNvYINtNtNtCslJiobkLta79_5alloc3vec9into_iter8IntoIterTNtNtCsdGrGZaRBwMb_3syn4path11PathSegmentNtNtBV_5token7PathSepEENtNtNtNtCsieiGu2EXtoJ_4core4iter6traits10exact_size17ExactSizeIterator3lenBV_, symObjAddr: 0x179D0, symBinAddr: 0xA2D00, symSize: 0xE0 }
  - { offset: 0x11DC09, size: 0x8, addend: 0x0, symName: __RNvYINtNtNtCslJiobkLta79_5alloc3vec9into_iter8IntoIterTNtNtCsdGrGZaRBwMb_3syn8generics14TypeParamBoundNtNtBV_5token4PlusEENtNtNtNtCsieiGu2EXtoJ_4core4iter6traits10exact_size17ExactSizeIterator3lenBV_, symObjAddr: 0x17AB0, symBinAddr: 0xA2DE0, symSize: 0xE0 }
  - { offset: 0x11E76C, size: 0x8, addend: 0x0, symName: __RNvXNvXsd_NtNtCslJiobkLta79_5alloc3vec9into_iterINtB8_8IntoIterppENtNtNtCsieiGu2EXtoJ_4core3ops4drop4Drop4dropINtB2_9DropGuardNtNtCsdGrGZaRBwMb_3syn4attr9AttributeNtNtBc_5alloc6GlobalEB12_4dropB24_, symObjAddr: 0x15640, symBinAddr: 0xA1970, symSize: 0x70 }
  - { offset: 0x11E881, size: 0x8, addend: 0x0, symName: __RNvXNvXsd_NtNtCslJiobkLta79_5alloc3vec9into_iterINtB8_8IntoIterppENtNtNtCsieiGu2EXtoJ_4core3ops4drop4Drop4dropINtB2_9DropGuardNtNtCsdGrGZaRBwMb_3syn8generics14TypeParamBoundNtNtBc_5alloc6GlobalEB12_4dropB24_, symObjAddr: 0x15720, symBinAddr: 0xA19E0, symSize: 0x70 }
  - { offset: 0x11E996, size: 0x8, addend: 0x0, symName: __RNvXNvXsd_NtNtCslJiobkLta79_5alloc3vec9into_iterINtB8_8IntoIterppENtNtNtCsieiGu2EXtoJ_4core3ops4drop4Drop4dropINtB2_9DropGuardTNtNtCsdGrGZaRBwMb_3syn4path11PathSegmentNtNtB25_5token7PathSepENtNtBc_5alloc6GlobalEB12_4dropB25_, symObjAddr: 0x15870, symBinAddr: 0xA1A50, symSize: 0x70 }
  - { offset: 0x11EAAB, size: 0x8, addend: 0x0, symName: __RNvXNvXsd_NtNtCslJiobkLta79_5alloc3vec9into_iterINtB8_8IntoIterppENtNtNtCsieiGu2EXtoJ_4core3ops4drop4Drop4dropINtB2_9DropGuardTNtNtCsdGrGZaRBwMb_3syn8generics14TypeParamBoundNtNtB25_5token4PlusENtNtBc_5alloc6GlobalEB12_4dropB25_, symObjAddr: 0x158E0, symBinAddr: 0xA1AC0, symSize: 0x70 }
  - { offset: 0x11EC5E, size: 0x8, addend: 0x0, symName: __RNvXsd_NtNtCslJiobkLta79_5alloc3vec9into_iterINtB5_8IntoIterNtNtCsdGrGZaRBwMb_3syn4attr9AttributeENtNtNtCsieiGu2EXtoJ_4core3ops4drop4Drop4dropB10_, symObjAddr: 0x17090, symBinAddr: 0xA2810, symSize: 0x90 }
  - { offset: 0x11ECF9, size: 0x8, addend: 0x0, symName: __RNvXsd_NtNtCslJiobkLta79_5alloc3vec9into_iterINtB5_8IntoIterNtNtCsdGrGZaRBwMb_3syn8generics14TypeParamBoundENtNtNtCsieiGu2EXtoJ_4core3ops4drop4Drop4dropB10_, symObjAddr: 0x171B0, symBinAddr: 0xA28A0, symSize: 0x90 }
  - { offset: 0x11ED94, size: 0x8, addend: 0x0, symName: __RNvXsd_NtNtCslJiobkLta79_5alloc3vec9into_iterINtB5_8IntoIterTNtNtCsdGrGZaRBwMb_3syn4path11PathSegmentNtNtB11_5token7PathSepEENtNtNtCsieiGu2EXtoJ_4core3ops4drop4Drop4dropB11_, symObjAddr: 0x17360, symBinAddr: 0xA2930, symSize: 0x90 }
  - { offset: 0x11EE2F, size: 0x8, addend: 0x0, symName: __RNvXsd_NtNtCslJiobkLta79_5alloc3vec9into_iterINtB5_8IntoIterTNtNtCsdGrGZaRBwMb_3syn8generics14TypeParamBoundNtNtB11_5token4PlusEENtNtNtCsieiGu2EXtoJ_4core3ops4drop4Drop4dropB11_, symObjAddr: 0x173F0, symBinAddr: 0xA29C0, symSize: 0x90 }
  - { offset: 0x11EED0, size: 0x8, addend: 0x0, symName: __RNvXs3_NtNtCslJiobkLta79_5alloc3vec9into_iterINtB5_8IntoIterNtNtCsdGrGZaRBwMb_3syn4attr9AttributeENtNtNtNtCsieiGu2EXtoJ_4core4iter6traits8iterator8Iterator9size_hintB10_, symObjAddr: 0x162A0, symBinAddr: 0xA2020, symSize: 0x60 }
  - { offset: 0x11EF2B, size: 0x8, addend: 0x0, symName: __RNvXs3_NtNtCslJiobkLta79_5alloc3vec9into_iterINtB5_8IntoIterNtNtCsdGrGZaRBwMb_3syn8generics14TypeParamBoundENtNtNtNtCsieiGu2EXtoJ_4core4iter6traits8iterator8Iterator4nextB10_, symObjAddr: 0x16460, symBinAddr: 0xA2080, symSize: 0x100 }
  - { offset: 0x11F089, size: 0x8, addend: 0x0, symName: __RNvXs3_NtNtCslJiobkLta79_5alloc3vec9into_iterINtB5_8IntoIterNtNtCsdGrGZaRBwMb_3syn8generics14TypeParamBoundENtNtNtNtCsieiGu2EXtoJ_4core4iter6traits8iterator8Iterator9size_hintB10_, symObjAddr: 0x16560, symBinAddr: 0xA2180, symSize: 0x60 }
  - { offset: 0x11F0E4, size: 0x8, addend: 0x0, symName: __RNvXs3_NtNtCslJiobkLta79_5alloc3vec9into_iterINtB5_8IntoIterTNtNtCsdGrGZaRBwMb_3syn4path11PathSegmentNtNtB11_5token7PathSepEENtNtNtNtCsieiGu2EXtoJ_4core4iter6traits8iterator8Iterator4nextB11_, symObjAddr: 0x16880, symBinAddr: 0xA21E0, symSize: 0x100 }
  - { offset: 0x11F242, size: 0x8, addend: 0x0, symName: __RNvXs3_NtNtCslJiobkLta79_5alloc3vec9into_iterINtB5_8IntoIterTNtNtCsdGrGZaRBwMb_3syn4path11PathSegmentNtNtB11_5token7PathSepEENtNtNtNtCsieiGu2EXtoJ_4core4iter6traits8iterator8Iterator9size_hintB11_, symObjAddr: 0x16980, symBinAddr: 0xA22E0, symSize: 0x60 }
  - { offset: 0x11F29D, size: 0x8, addend: 0x0, symName: __RNvXs3_NtNtCslJiobkLta79_5alloc3vec9into_iterINtB5_8IntoIterTNtNtCsdGrGZaRBwMb_3syn8generics14TypeParamBoundNtNtB11_5token4PlusEENtNtNtNtCsieiGu2EXtoJ_4core4iter6traits8iterator8Iterator4nextB11_, symObjAddr: 0x169E0, symBinAddr: 0xA2340, symSize: 0x110 }
  - { offset: 0x11F3FB, size: 0x8, addend: 0x0, symName: __RNvXs3_NtNtCslJiobkLta79_5alloc3vec9into_iterINtB5_8IntoIterTNtNtCsdGrGZaRBwMb_3syn8generics14TypeParamBoundNtNtB11_5token4PlusEENtNtNtNtCsieiGu2EXtoJ_4core4iter6traits8iterator8Iterator9size_hintB11_, symObjAddr: 0x16AF0, symBinAddr: 0xA2450, symSize: 0x60 }
  - { offset: 0x120173, size: 0x8, addend: 0x0, symName: __RNvXss_NtCslJiobkLta79_5alloc6stringNtB5_6StringNtNtNtCsieiGu2EXtoJ_4core3ops5deref5Deref5derefCsdGrGZaRBwMb_3syn, symObjAddr: 0x174F0, symBinAddr: 0xA2AC0, symSize: 0x20 }
  - { offset: 0x12020A, size: 0x8, addend: 0x0, symName: __RNvXs1I_NtCslJiobkLta79_5alloc6stringNtB6_6StringNtB6_12SpecToString14spec_to_stringCsdGrGZaRBwMb_3syn, symObjAddr: 0x15E00, symBinAddr: 0xA1BC0, symSize: 0xB0 }
  - { offset: 0x12047A, size: 0x8, addend: 0x0, symName: __RNvXs1U_NtCslJiobkLta79_5alloc6stringReNtB6_12SpecToString14spec_to_stringCsdGrGZaRBwMb_3syn, symObjAddr: 0x15EB0, symBinAddr: 0xA1C70, symSize: 0x60 }
  - { offset: 0x1205A4, size: 0x8, addend: 0x0, symName: __RNvXs1g_NtCslJiobkLta79_5alloc6stringNtB6_13FromUtf8ErrorNtNtCsieiGu2EXtoJ_4core3fmt5Debug3fmtCsdGrGZaRBwMb_3syn, symObjAddr: 0x15F70, symBinAddr: 0xA1CF0, symSize: 0x90 }
  - { offset: 0x120621, size: 0x8, addend: 0x0, symName: __RNvXs1n_NtCslJiobkLta79_5alloc6stringNtB6_6StringINtNtCsieiGu2EXtoJ_4core3cmp9PartialEqReE2eqCsdGrGZaRBwMb_3syn, symObjAddr: 0x16000, symBinAddr: 0xA1D80, symSize: 0x130 }
  - { offset: 0x120903, size: 0x8, addend: 0x0, symName: __RNvXsT_NtCslJiobkLta79_5alloc6stringNtB5_6StringNtNtCsieiGu2EXtoJ_4core3fmt5Write10write_charCsdGrGZaRBwMb_3syn, symObjAddr: 0x16E80, symBinAddr: 0xA2600, symSize: 0x30 }
  - { offset: 0x120940, size: 0x8, addend: 0x0, symName: __RNvXsT_NtCslJiobkLta79_5alloc6stringNtB5_6StringNtNtCsieiGu2EXtoJ_4core3fmt5Write9write_strCsdGrGZaRBwMb_3syn, symObjAddr: 0x16EB0, symBinAddr: 0xA2630, symSize: 0x30 }
  - { offset: 0x120983, size: 0x8, addend: 0x0, symName: __RNvXsm_NtCslJiobkLta79_5alloc6stringNtB5_6StringNtNtCsieiGu2EXtoJ_4core3fmt5Debug3fmtCsdGrGZaRBwMb_3syn, symObjAddr: 0x17480, symBinAddr: 0xA2A50, symSize: 0x70 }
  - { offset: 0x120AE8, size: 0x8, addend: 0x0, symName: __RNvXsw_NtCslJiobkLta79_5alloc6stringNtB5_6StringNtB5_8ToString9to_stringCsdGrGZaRBwMb_3syn, symObjAddr: 0x17510, symBinAddr: 0xA2AE0, symSize: 0x30 }
  - { offset: 0x120B1F, size: 0x8, addend: 0x0, symName: __RNvXsw_NtCslJiobkLta79_5alloc6stringReNtB5_8ToString9to_stringCsdGrGZaRBwMb_3syn, symObjAddr: 0x17540, symBinAddr: 0xA2B10, symSize: 0x30 }
  - { offset: 0x120D3A, size: 0x8, addend: 0x0, symName: __RNvXNvMs_NtNtCslJiobkLta79_5alloc3ffi5c_strNtB7_7CString3newNtNtBb_6string6StringNtB2_11SpecNewImpl13spec_new_implCsdGrGZaRBwMb_3syn, symObjAddr: 0x15440, symBinAddr: 0xA1770, symSize: 0x200 }
  - { offset: 0x1215C6, size: 0x8, addend: 0x0, symName: __RNvMNtCslJiobkLta79_5alloc6stringNtB2_6String10into_bytesCsdGrGZaRBwMb_3syn, symObjAddr: 0x470, symBinAddr: 0x8CC80, symSize: 0x20 }
  - { offset: 0x1216B0, size: 0x8, addend: 0x0, symName: __RNvMNtCslJiobkLta79_5alloc6stringNtB2_6String13with_capacityCsdGrGZaRBwMb_3syn, symObjAddr: 0x490, symBinAddr: 0x8CCA0, symSize: 0x70 }
  - { offset: 0x1217AF, size: 0x8, addend: 0x0, symName: __RNvMNtCslJiobkLta79_5alloc6stringNtB2_6String14into_boxed_strCsdGrGZaRBwMb_3syn, symObjAddr: 0x500, symBinAddr: 0x8CD10, symSize: 0x70 }
  - { offset: 0x1218C1, size: 0x8, addend: 0x0, symName: __RNvMNtCslJiobkLta79_5alloc6stringNtB2_6String3lenCsdGrGZaRBwMb_3syn, symObjAddr: 0x570, symBinAddr: 0x8CD80, symSize: 0x10 }
  - { offset: 0x121909, size: 0x8, addend: 0x0, symName: __RNvMNtCslJiobkLta79_5alloc6stringNtB2_6String3newCsdGrGZaRBwMb_3syn, symObjAddr: 0x580, symBinAddr: 0x8CD90, symSize: 0x40 }
  - { offset: 0x121AD5, size: 0x8, addend: 0x0, symName: __RNvMNtCslJiobkLta79_5alloc6stringNtB2_6String4pushCsdGrGZaRBwMb_3syn, symObjAddr: 0x5C0, symBinAddr: 0x8CDD0, symSize: 0x130 }
  - { offset: 0x121DBC, size: 0x8, addend: 0x0, symName: __RNvMNtCslJiobkLta79_5alloc6stringNtB2_6String6as_strCsdGrGZaRBwMb_3syn, symObjAddr: 0x6F0, symBinAddr: 0x8CF00, symSize: 0x60 }
  - { offset: 0x122091, size: 0x8, addend: 0x0, symName: __RNvMNtCslJiobkLta79_5alloc6stringNtB2_6String6insertCsdGrGZaRBwMb_3syn, symObjAddr: 0x750, symBinAddr: 0x8CF60, symSize: 0x370 }
  - { offset: 0x1225A5, size: 0x8, addend: 0x0, symName: __RNvMNtCslJiobkLta79_5alloc6stringNtB2_6String8is_emptyCsdGrGZaRBwMb_3syn, symObjAddr: 0xAC0, symBinAddr: 0x8D2D0, symSize: 0x20 }
  - { offset: 0x1226B3, size: 0x8, addend: 0x0, symName: __RNvMNtCslJiobkLta79_5alloc6stringNtB2_6String8push_strCsdGrGZaRBwMb_3syn, symObjAddr: 0xAE0, symBinAddr: 0x8D2F0, symSize: 0x50 }
  - { offset: 0x122971, size: 0x8, addend: 0x0, symName: __RNvMNtCslJiobkLta79_5alloc6stringNtB2_6String8truncateCsdGrGZaRBwMb_3syn, symObjAddr: 0xB30, symBinAddr: 0x8D340, symSize: 0x1C0 }
  - { offset: 0x122D02, size: 0x8, addend: 0x0, symName: __RNvMNtCslJiobkLta79_5alloc6stringNtB2_6String9from_utf8CsdGrGZaRBwMb_3syn, symObjAddr: 0xCF0, symBinAddr: 0x8D500, symSize: 0x1C0 }
  - { offset: 0x122EC1, size: 0x8, addend: 0x0, symName: __RNvMNtCslJiobkLta79_5alloc6stringNtB2_6String9split_offCsdGrGZaRBwMb_3syn, symObjAddr: 0xEB0, symBinAddr: 0x8D6C0, symSize: 0x180 }
  - { offset: 0x12311B, size: 0x8, addend: 0x0, symName: __RNvMs4s_NtNtCsdGrGZaRBwMb_3syn3gen5debugNtNtBa_11restriction13VisRestricted5debug, symObjAddr: 0x1030, symBinAddr: 0x8D840, symSize: 0xD0 }
  - { offset: 0x123187, size: 0x8, addend: 0x0, symName: __RNvMs_NtNtCsdGrGZaRBwMb_3syn11restriction7parsingNtB6_10Visibility7is_some, symObjAddr: 0x1100, symBinAddr: 0x8D910, symSize: 0x50 }
  - { offset: 0x123205, size: 0x8, addend: 0x0, symName: __RNvMs_NtNtCsdGrGZaRBwMb_3syn11restriction7parsingNtB6_10Visibility9parse_pub, symObjAddr: 0x1150, symBinAddr: 0x8D960, symSize: 0xAF0 }
  - { offset: 0x1233EA, size: 0x8, addend: 0x0, symName: __RNvMs_NtNtCsdGrGZaRBwMb_3syn4item7parsingNtB4_16FlexibleItemType21parse_optional_bounds, symObjAddr: 0x1C40, symBinAddr: 0x8E450, symSize: 0x4A0 }
  - { offset: 0x1234D3, size: 0x8, addend: 0x0, symName: __RNvMs_NtNtCsdGrGZaRBwMb_3syn4item7parsingNtB4_16FlexibleItemType25parse_optional_definition, symObjAddr: 0x20E0, symBinAddr: 0x8E8F0, symSize: 0x230 }
  - { offset: 0x123589, size: 0x8, addend: 0x0, symName: __RNvMs_NtNtCsdGrGZaRBwMb_3syn4item7parsingNtB4_16FlexibleItemType5parse, symObjAddr: 0x2310, symBinAddr: 0x8EB20, symSize: 0xDB0 }
  - { offset: 0x123863, size: 0x8, addend: 0x0, symName: __RNvMs_NtNtCslJiobkLta79_5alloc3vec9into_iterINtB4_8IntoIterNtNtCsdGrGZaRBwMb_3syn4attr9AttributeE8as_sliceBZ_, symObjAddr: 0x30C0, symBinAddr: 0x8F8D0, symSize: 0x60 }
  - { offset: 0x1238C9, size: 0x8, addend: 0x0, symName: __RNvMsy_NtNtCsdGrGZaRBwMb_3syn4item7parsingNtNtB9_11restriction10Visibility12is_inherited, symObjAddr: 0x3180, symBinAddr: 0x8F930, symSize: 0x50 }
  - { offset: 0x124415, size: 0x8, addend: 0x0, symName: __RINvNtNtCsdGrGZaRBwMb_3syn3lit5value11backslash_uShEB6_, symObjAddr: 0x0, symBinAddr: 0xA2EC0, symSize: 0x500 }
  - { offset: 0x124CCD, size: 0x8, addend: 0x0, symName: __RNvXs_NtNtCslJiobkLta79_5alloc3vec15set_len_on_dropNtB4_12SetLenOnDropNtNtNtCsieiGu2EXtoJ_4core3ops4drop4Drop4dropCsdGrGZaRBwMb_3syn, symObjAddr: 0x18670, symBinAddr: 0xB8390, symSize: 0x20 }
  - { offset: 0x12586C, size: 0x8, addend: 0x0, symName: __RINvXNvMNtCslJiobkLta79_5alloc5sliceSp9to_vec_inTNtNtCsdGrGZaRBwMb_3syn3pat3PatNtNtBP_5token2OrENtB3_10ConvertVec6to_vecNtNtB8_5alloc6GlobalEBP_, symObjAddr: 0x10F0, symBinAddr: 0xA3FB0, symSize: 0x4A0 }
  - { offset: 0x125DC0, size: 0x8, addend: 0x0, symName: __RINvXNvMNtCslJiobkLta79_5alloc5sliceSp9to_vec_inTNtNtCsdGrGZaRBwMb_3syn3pat3PatNtNtBP_5token5CommaENtB3_10ConvertVec6to_vecNtNtB8_5alloc6GlobalEBP_, symObjAddr: 0x1590, symBinAddr: 0xA4450, symSize: 0x4A0 }
  - { offset: 0x126314, size: 0x8, addend: 0x0, symName: __RINvXNvMNtCslJiobkLta79_5alloc5sliceSp9to_vec_inTNtNtCsdGrGZaRBwMb_3syn3pat8FieldPatNtNtBP_5token5CommaENtB3_10ConvertVec6to_vecNtNtB8_5alloc6GlobalEBP_, symObjAddr: 0x1A30, symBinAddr: 0xA48F0, symSize: 0x490 }
  - { offset: 0x127587, size: 0x8, addend: 0x0, symName: __RNvXs5_NtNtCsieiGu2EXtoJ_4core3str6traitsINtNtNtB9_3ops5range5RangejEINtNtNtB9_5slice5index10SliceIndexeE3getCsdGrGZaRBwMb_3syn, symObjAddr: 0x17590, symBinAddr: 0xB7CF0, symSize: 0x1F0 }
  - { offset: 0x127752, size: 0x8, addend: 0x0, symName: __RNvXs9_NtNtCsieiGu2EXtoJ_4core3str6traitsINtNtNtB9_3ops5range9RangeFromjEINtNtNtB9_5slice5index10SliceIndexeE3getCsdGrGZaRBwMb_3syn, symObjAddr: 0x17ED0, symBinAddr: 0xB8170, symSize: 0x130 }
  - { offset: 0x129E7C, size: 0x8, addend: 0x0, symName: __RNvXs5_NtNtCsieiGu2EXtoJ_4core5slice5indexINtNtNtB9_3ops5range9RangeFromjEINtB5_10SliceIndexShE3getCsdGrGZaRBwMb_3syn, symObjAddr: 0x17780, symBinAddr: 0xB7EE0, symSize: 0x80 }
  - { offset: 0x12A1CA, size: 0x8, addend: 0x0, symName: __RNvMNtCsieiGu2EXtoJ_4core5sliceSTNtNtCsdGrGZaRBwMb_3syn3pat3PatNtNtBz_5token2OrE4iterBz_, symObjAddr: 0x29E0, symBinAddr: 0xA58A0, symSize: 0x20 }
  - { offset: 0x12A201, size: 0x8, addend: 0x0, symName: __RNvMNtCsieiGu2EXtoJ_4core5sliceSTNtNtCsdGrGZaRBwMb_3syn3pat3PatNtNtBz_5token5CommaE4iterBz_, symObjAddr: 0x2A00, symBinAddr: 0xA58C0, symSize: 0x20 }
  - { offset: 0x12A238, size: 0x8, addend: 0x0, symName: __RNvMNtCsieiGu2EXtoJ_4core5sliceSTNtNtCsdGrGZaRBwMb_3syn3pat8FieldPatNtNtBz_5token5CommaE4iterBz_, symObjAddr: 0x2A20, symBinAddr: 0xA58E0, symSize: 0x20 }
  - { offset: 0x12A9A4, size: 0x8, addend: 0x0, symName: __RINvYNtNtCsaKzlTDPUHDb_11proc_macro212token_stream8IntoIterNtNtNtNtCsieiGu2EXtoJ_4core4iter6traits8iterator8Iterator4foldINtNtB13_6option6OptionNtB7_9TokenTreeEINvNvBV_4last4someB2i_EECsdGrGZaRBwMb_3syn, symObjAddr: 0x1EC0, symBinAddr: 0xA4D80, symSize: 0x230 }
  - { offset: 0x12AA3C, size: 0x8, addend: 0x0, symName: __RNvYNtNtCsaKzlTDPUHDb_11proc_macro212token_stream8IntoIterNtNtNtNtCsieiGu2EXtoJ_4core4iter6traits8iterator8Iterator4lastCsdGrGZaRBwMb_3syn, symObjAddr: 0x194C0, symBinAddr: 0xB8680, symSize: 0x30 }
  - { offset: 0x12B442, size: 0x8, addend: 0x0, symName: __RNvXs19_NtCsieiGu2EXtoJ_4core3fmtRNtNtCsdGrGZaRBwMb_3syn3pat7PatRestNtB6_5Debug3fmtBA_, symObjAddr: 0x137C0, symBinAddr: 0xB5CA0, symSize: 0x20 }
  - { offset: 0x12B524, size: 0x8, addend: 0x0, symName: __RNvNvNtCsieiGu2EXtoJ_4core9ub_checks23maybe_is_nonoverlapping7runtimeCsdGrGZaRBwMb_3syn, symObjAddr: 0x10A60, symBinAddr: 0xB36F0, symSize: 0xC0 }
  - { offset: 0x12B6E1, size: 0x8, addend: 0x0, symName: __RNvXNtNtCsieiGu2EXtoJ_4core5clone6uninitNtNtCsdGrGZaRBwMb_3syn3pat3PatNtB2_8CopySpec9clone_oneBG_, symObjAddr: 0x13270, symBinAddr: 0xB5AA0, symSize: 0x50 }
  - { offset: 0x12B746, size: 0x8, addend: 0x0, symName: __RNvXNtNtCsieiGu2EXtoJ_4core5clone6uninitNtNtCsdGrGZaRBwMb_3syn3pat8FieldPatNtB2_8CopySpec9clone_oneBG_, symObjAddr: 0x132C0, symBinAddr: 0xB5AF0, symSize: 0x40 }
  - { offset: 0x12DE52, size: 0x8, addend: 0x0, symName: __RNCNvXNtNtCsdGrGZaRBwMb_3syn4stmt8printingNtB6_5BlockNtNtCs9OU1sGv5X54_5quote9to_tokens8ToTokens9to_tokens0B8_, symObjAddr: 0x26F0, symBinAddr: 0xA55B0, symSize: 0x30 }
  - { offset: 0x12DE99, size: 0x8, addend: 0x0, symName: __RNCNvXs0_NtNtCsdGrGZaRBwMb_3syn4stmt8printingNtB9_5LocalNtNtCs9OU1sGv5X54_5quote9to_tokens8ToTokens9to_tokens0Bb_, symObjAddr: 0x2720, symBinAddr: 0xA55E0, symSize: 0x40 }
  - { offset: 0x12E5DD, size: 0x8, addend: 0x0, symName: __RNcNtNtNtCsdGrGZaRBwMb_3syn3pat3Pat11TupleStruct0B7_, symObjAddr: 0x2760, symBinAddr: 0xA5620, symSize: 0x40 }
  - { offset: 0x12E60C, size: 0x8, addend: 0x0, symName: __RNcNtNtNtCsdGrGZaRBwMb_3syn3pat3Pat4Wild0B7_, symObjAddr: 0x27A0, symBinAddr: 0xA5660, symSize: 0x40 }
  - { offset: 0x12E63A, size: 0x8, addend: 0x0, symName: __RNcNtNtNtCsdGrGZaRBwMb_3syn3pat3Pat5Ident0B7_, symObjAddr: 0x27E0, symBinAddr: 0xA56A0, symSize: 0x40 }
  - { offset: 0x12E669, size: 0x8, addend: 0x0, symName: __RNcNtNtNtCsdGrGZaRBwMb_3syn3pat3Pat5Slice0B7_, symObjAddr: 0x2820, symBinAddr: 0xA56E0, symSize: 0x40 }
  - { offset: 0x12E698, size: 0x8, addend: 0x0, symName: __RNcNtNtNtCsdGrGZaRBwMb_3syn3pat3Pat6Struct0B7_, symObjAddr: 0x2860, symBinAddr: 0xA5720, symSize: 0x30 }
  - { offset: 0x12E6C7, size: 0x8, addend: 0x0, symName: __RNcNtNtNtCsdGrGZaRBwMb_3syn3pat3Pat8Verbatim0B7_, symObjAddr: 0x2890, symBinAddr: 0xA5750, symSize: 0x40 }
  - { offset: 0x12E6F5, size: 0x8, addend: 0x0, symName: __RNcNtNtNtCsdGrGZaRBwMb_3syn3pat3Pat9Reference0B7_, symObjAddr: 0x28D0, symBinAddr: 0xA5790, symSize: 0x40 }
  - { offset: 0x12E7DD, size: 0x8, addend: 0x0, symName: __RNvNtNtCsdGrGZaRBwMb_3syn3pat7parsing10pat_struct, symObjAddr: 0x99A0, symBinAddr: 0xAC630, symSize: 0xD40 }
  - { offset: 0x12E9AB, size: 0x8, addend: 0x0, symName: __RNvNtNtCsdGrGZaRBwMb_3syn3pat7parsing13pat_reference, symObjAddr: 0xA6E0, symBinAddr: 0xAD370, symSize: 0x420 }
  - { offset: 0x12EA55, size: 0x8, addend: 0x0, symName: __RNvNtNtCsdGrGZaRBwMb_3syn3pat7parsing14multi_pat_impl, symObjAddr: 0xAB00, symBinAddr: 0xAD790, symSize: 0x680 }
  - { offset: 0x12EB8A, size: 0x8, addend: 0x0, symName: __RNvNtNtCsdGrGZaRBwMb_3syn3pat7parsing15pat_range_bound, symObjAddr: 0xB180, symBinAddr: 0xADE10, symSize: 0x730 }
  - { offset: 0x12EC33, size: 0x8, addend: 0x0, symName: __RNvNtNtCsdGrGZaRBwMb_3syn3pat7parsing16pat_lit_or_range, symObjAddr: 0xB8B0, symBinAddr: 0xAE540, symSize: 0x610 }
  - { offset: 0x12ED50, size: 0x8, addend: 0x0, symName: __RNvNtNtCsdGrGZaRBwMb_3syn3pat7parsing16pat_tuple_struct, symObjAddr: 0xBEC0, symBinAddr: 0xAEB50, symSize: 0x710 }
  - { offset: 0x12EE9B, size: 0x8, addend: 0x0, symName: __RNvNtNtCsdGrGZaRBwMb_3syn3pat7parsing18pat_paren_or_tuple, symObjAddr: 0xC5D0, symBinAddr: 0xAF260, symSize: 0x7E0 }
  - { offset: 0x12EFE5, size: 0x8, addend: 0x0, symName: __RNvNtNtCsdGrGZaRBwMb_3syn3pat7parsing19pat_range_half_open, symObjAddr: 0xCDB0, symBinAddr: 0xAFA40, symSize: 0x490 }
  - { offset: 0x12F0BD, size: 0x8, addend: 0x0, symName: __RNvNtNtCsdGrGZaRBwMb_3syn3pat7parsing36pat_path_or_macro_or_struct_or_range, symObjAddr: 0xD240, symBinAddr: 0xAFED0, symSize: 0xA40 }
  - { offset: 0x12F1B5, size: 0x8, addend: 0x0, symName: __RNvNtNtCsdGrGZaRBwMb_3syn3pat7parsing7pat_box, symObjAddr: 0xDC80, symBinAddr: 0xB0910, symSize: 0x2A0 }
  - { offset: 0x12F240, size: 0x8, addend: 0x0, symName: __RNvNtNtCsdGrGZaRBwMb_3syn3pat7parsing8pat_wild, symObjAddr: 0xDF20, symBinAddr: 0xB0BB0, symSize: 0x180 }
  - { offset: 0x12F28C, size: 0x8, addend: 0x0, symName: __RNvNtNtCsdGrGZaRBwMb_3syn3pat7parsing9field_pat, symObjAddr: 0xE0A0, symBinAddr: 0xB0D30, symSize: 0xDE0 }
  - { offset: 0x12F4CC, size: 0x8, addend: 0x0, symName: __RNvNtNtCsdGrGZaRBwMb_3syn3pat7parsing9pat_const, symObjAddr: 0xEE80, symBinAddr: 0xB1B10, symSize: 0x500 }
  - { offset: 0x12F5E0, size: 0x8, addend: 0x0, symName: __RNvNtNtCsdGrGZaRBwMb_3syn3pat7parsing9pat_ident, symObjAddr: 0xF380, symBinAddr: 0xB2010, symSize: 0x810 }
  - { offset: 0x12F752, size: 0x8, addend: 0x0, symName: __RNvNtNtCsdGrGZaRBwMb_3syn3pat7parsing9pat_range, symObjAddr: 0xFB90, symBinAddr: 0xB2820, symSize: 0x690 }
  - { offset: 0x12F859, size: 0x8, addend: 0x0, symName: __RNvNtNtCsdGrGZaRBwMb_3syn3pat7parsing9pat_slice, symObjAddr: 0x10220, symBinAddr: 0xB2EB0, symSize: 0x840 }
  - { offset: 0x12FA2A, size: 0x8, addend: 0x0, symName: __RNvXNtNtCsdGrGZaRBwMb_3syn3pat8printingNtB4_8PatIdentNtNtCs9OU1sGv5X54_5quote9to_tokens8ToTokens9to_tokens, symObjAddr: 0x10FE0, symBinAddr: 0xB3C20, symSize: 0xE0 }
  - { offset: 0x12FA97, size: 0x8, addend: 0x0, symName: __RNvXs0_NtNtCsdGrGZaRBwMb_3syn3pat8printingNtB7_8PatParenNtNtCs9OU1sGv5X54_5quote9to_tokens8ToTokens9to_tokens, symObjAddr: 0x13550, symBinAddr: 0xB5B30, symSize: 0x60 }
  - { offset: 0x12FAD6, size: 0x8, addend: 0x0, symName: __RNvXs1_NtNtCsdGrGZaRBwMb_3syn3pat8printingNtB7_12PatReferenceNtNtCs9OU1sGv5X54_5quote9to_tokens8ToTokens9to_tokens, symObjAddr: 0x150B0, symBinAddr: 0xB71B0, symSize: 0x80 }
  - { offset: 0x12FB15, size: 0x8, addend: 0x0, symName: __RNvXs2_NtNtCsdGrGZaRBwMb_3syn3pat8printingNtB7_7PatRestNtNtCs9OU1sGv5X54_5quote9to_tokens8ToTokens9to_tokens, symObjAddr: 0x15D10, symBinAddr: 0xB7AD0, symSize: 0x60 }
  - { offset: 0x12FB54, size: 0x8, addend: 0x0, symName: __RNvXs3_NtNtCsdGrGZaRBwMb_3syn3pat8printingNtB7_8PatSliceNtNtCs9OU1sGv5X54_5quote9to_tokens8ToTokens9to_tokens, symObjAddr: 0x17070, symBinAddr: 0xB7B70, symSize: 0x60 }
  - { offset: 0x12FB93, size: 0x8, addend: 0x0, symName: __RNvXs4_NtNtCsdGrGZaRBwMb_3syn3pat8printingNtB7_9PatStructNtNtCs9OU1sGv5X54_5quote9to_tokens8ToTokens9to_tokens, symObjAddr: 0x17460, symBinAddr: 0xB7C10, symSize: 0x80 }
  - { offset: 0x12FBD2, size: 0x8, addend: 0x0, symName: __RNvXs5_NtNtCsdGrGZaRBwMb_3syn3pat8printingNtB7_8PatTupleNtNtCs9OU1sGv5X54_5quote9to_tokens8ToTokens9to_tokens, symObjAddr: 0x17530, symBinAddr: 0xB7C90, symSize: 0x60 }
  - { offset: 0x12FC11, size: 0x8, addend: 0x0, symName: __RNvXs6_NtNtCsdGrGZaRBwMb_3syn3pat8printingNtB7_14PatTupleStructNtNtCs9OU1sGv5X54_5quote9to_tokens8ToTokens9to_tokens, symObjAddr: 0x17850, symBinAddr: 0xB7F60, symSize: 0x80 }
  - { offset: 0x12FC50, size: 0x8, addend: 0x0, symName: __RNvXs7_NtNtCsdGrGZaRBwMb_3syn3pat8printingNtB7_7PatTypeNtNtCs9OU1sGv5X54_5quote9to_tokens8ToTokens9to_tokens, symObjAddr: 0x17910, symBinAddr: 0xB7FE0, symSize: 0x80 }
  - { offset: 0x12FC8F, size: 0x8, addend: 0x0, symName: __RNvXs8_NtNtCsdGrGZaRBwMb_3syn3pat8printingNtB7_7PatWildNtNtCs9OU1sGv5X54_5quote9to_tokens8ToTokens9to_tokens, symObjAddr: 0x17D90, symBinAddr: 0xB8060, symSize: 0x60 }
  - { offset: 0x12FCCE, size: 0x8, addend: 0x0, symName: __RNvXs9_NtNtCsdGrGZaRBwMb_3syn3pat8printingNtB7_8FieldPatNtNtCs9OU1sGv5X54_5quote9to_tokens8ToTokens9to_tokens, symObjAddr: 0x17E20, symBinAddr: 0xB80C0, symSize: 0xB0 }
  - { offset: 0x12FD2B, size: 0x8, addend: 0x0, symName: __RNvXs_NtNtCsdGrGZaRBwMb_3syn3pat8printingNtB6_5PatOrNtNtCs9OU1sGv5X54_5quote9to_tokens8ToTokens9to_tokens, symObjAddr: 0x18600, symBinAddr: 0xB8320, symSize: 0x70 }
  - { offset: 0x12FD6B, size: 0x8, addend: 0x0, symName: __RNvXse_NtCsdGrGZaRBwMb_3syn3patNtB5_3PatNtNtCs9OU1sGv5X54_5quote9to_tokens8ToTokens9to_tokens, symObjAddr: 0x187C0, symBinAddr: 0xB83B0, symSize: 0x2D0 }
  - { offset: 0x13025C, size: 0x8, addend: 0x0, symName: __RINvNtNtCsdGrGZaRBwMb_3syn3lit5value11backslash_uShEB6_, symObjAddr: 0x0, symBinAddr: 0xA2EC0, symSize: 0x500 }
  - { offset: 0x1303E7, size: 0x8, addend: 0x0, symName: __RINvNtNtCsdGrGZaRBwMb_3syn3lit5value11backslash_ueEB6_, symObjAddr: 0x500, symBinAddr: 0xA33C0, symSize: 0x3C0 }
  - { offset: 0x1304D1, size: 0x8, addend: 0x0, symName: __RINvNtNtCsdGrGZaRBwMb_3syn3lit5value11backslash_xShEB6_, symObjAddr: 0x8C0, symBinAddr: 0xA3780, symSize: 0x390 }
  - { offset: 0x130571, size: 0x8, addend: 0x0, symName: __RINvNtNtCsdGrGZaRBwMb_3syn3lit5value11backslash_xeEB6_, symObjAddr: 0xC50, symBinAddr: 0xA3B10, symSize: 0x380 }
  - { offset: 0x1305EA, size: 0x8, addend: 0x0, symName: __RINvNtNtCsdGrGZaRBwMb_3syn3lit5value4byteShEB6_, symObjAddr: 0xFD0, symBinAddr: 0xA3E90, symSize: 0x90 }
  - { offset: 0x130646, size: 0x8, addend: 0x0, symName: __RINvNtNtCsdGrGZaRBwMb_3syn3lit5value4byteeEB6_, symObjAddr: 0x1060, symBinAddr: 0xA3F20, symSize: 0x90 }
  - { offset: 0x1306A7, size: 0x8, addend: 0x0, symName: __RNCNvNtNtCsdGrGZaRBwMb_3syn3lit5value15parse_lit_float0B7_, symObjAddr: 0x26C0, symBinAddr: 0xA5580, symSize: 0x30 }
  - { offset: 0x1306E8, size: 0x8, addend: 0x0, symName: __RNvNtNtCsdGrGZaRBwMb_3syn3lit5value13parse_lit_int, symObjAddr: 0x4350, symBinAddr: 0xA6FE0, symSize: 0xAF0 }
  - { offset: 0x130837, size: 0x8, addend: 0x0, symName: __RNvNtNtCsdGrGZaRBwMb_3syn3lit5value13parse_lit_str, symObjAddr: 0x4E40, symBinAddr: 0xA7AD0, symSize: 0xB0 }
  - { offset: 0x130865, size: 0x8, addend: 0x0, symName: __RNvNtNtCsdGrGZaRBwMb_3syn3lit5value14parse_lit_byte, symObjAddr: 0x4EF0, symBinAddr: 0xA7B80, symSize: 0x640 }
  - { offset: 0x130A5F, size: 0x8, addend: 0x0, symName: __RNvNtNtCsdGrGZaRBwMb_3syn3lit5value14parse_lit_char, symObjAddr: 0x5530, symBinAddr: 0xA81C0, symSize: 0x780 }
  - { offset: 0x130C11, size: 0x8, addend: 0x0, symName: __RNvNtNtCsdGrGZaRBwMb_3syn3lit5value15parse_lit_c_str, symObjAddr: 0x5CB0, symBinAddr: 0xA8940, symSize: 0x120 }
  - { offset: 0x130C8B, size: 0x8, addend: 0x0, symName: __RNvNtNtCsdGrGZaRBwMb_3syn3lit5value15parse_lit_float, symObjAddr: 0x5DD0, symBinAddr: 0xA8A60, symSize: 0xD30 }
  - { offset: 0x130E07, size: 0x8, addend: 0x0, symName: __RNvNtNtCsdGrGZaRBwMb_3syn3lit5value17parse_lit_str_raw, symObjAddr: 0x6B00, symBinAddr: 0xA9790, symSize: 0x5F0 }
  - { offset: 0x130F71, size: 0x8, addend: 0x0, symName: __RNvNtNtCsdGrGZaRBwMb_3syn3lit5value18parse_lit_byte_str, symObjAddr: 0x70F0, symBinAddr: 0xA9D80, symSize: 0x120 }
  - { offset: 0x130FEB, size: 0x8, addend: 0x0, symName: __RNvNtNtCsdGrGZaRBwMb_3syn3lit5value19parse_lit_c_str_raw, symObjAddr: 0x7210, symBinAddr: 0xA9EA0, symSize: 0x340 }
  - { offset: 0x1310E8, size: 0x8, addend: 0x0, symName: __RNvNtNtCsdGrGZaRBwMb_3syn3lit5value20parse_lit_str_cooked, symObjAddr: 0x7550, symBinAddr: 0xAA1E0, symSize: 0xA60 }
  - { offset: 0x1312BE, size: 0x8, addend: 0x0, symName: __RNvNtNtCsdGrGZaRBwMb_3syn3lit5value22parse_lit_byte_str_raw, symObjAddr: 0x7FB0, symBinAddr: 0xAAC40, symSize: 0x280 }
  - { offset: 0x13137E, size: 0x8, addend: 0x0, symName: __RNvNtNtCsdGrGZaRBwMb_3syn3lit5value22parse_lit_c_str_cooked, symObjAddr: 0x8230, symBinAddr: 0xAAEC0, symSize: 0xD20 }
  - { offset: 0x131672, size: 0x8, addend: 0x0, symName: __RNvNtNtCsdGrGZaRBwMb_3syn3lit5value25parse_lit_byte_str_cooked, symObjAddr: 0x8F50, symBinAddr: 0xABBE0, symSize: 0xA10 }
  - { offset: 0x1318F8, size: 0x8, addend: 0x0, symName: __RNvNtNtCsdGrGZaRBwMb_3syn3lit5value8next_chr, symObjAddr: 0x9960, symBinAddr: 0xAC5F0, symSize: 0x40 }
  - { offset: 0x131A2F, size: 0x8, addend: 0x0, symName: __RNCNvNtCsdGrGZaRBwMb_3syn3mac15parse_delimiter0B5_, symObjAddr: 0x20F0, symBinAddr: 0xA4FB0, symSize: 0x5D0 }
  - { offset: 0x131AC1, size: 0x8, addend: 0x0, symName: __RNvNtCsdGrGZaRBwMb_3syn3mac15parse_delimiter, symObjAddr: 0x4320, symBinAddr: 0xA6FB0, symSize: 0x30 }
  - { offset: 0x131AF7, size: 0x8, addend: 0x0, symName: __RNvXNtNtCsdGrGZaRBwMb_3syn3mac7parsingNtB4_5MacroNtNtB6_5parse5Parse5parse, symObjAddr: 0x10BD0, symBinAddr: 0xB3810, symSize: 0x410 }
  - { offset: 0x131BAD, size: 0x8, addend: 0x0, symName: __RNvXs_NtNtCsdGrGZaRBwMb_3syn3mac8printingNtB6_5MacroNtNtCs9OU1sGv5X54_5quote9to_tokens8ToTokens9to_tokens, symObjAddr: 0x18130, symBinAddr: 0xB82A0, symSize: 0x80 }
  - { offset: 0x133A24, size: 0x8, addend: 0x0, symName: __RNvXNtNtCsdGrGZaRBwMb_3syn6derive7parsingNtB4_11DeriveInputNtNtB6_5parse5Parse5parse, symObjAddr: 0x114D0, symBinAddr: 0xB3D00, symSize: 0x19E0 }
  - { offset: 0x133E4F, size: 0x8, addend: 0x0, symName: __RNvXNtNtCsdGrGZaRBwMb_3syn6derive8printingNtB4_11DeriveInputNtNtCs9OU1sGv5X54_5quote9to_tokens8ToTokens9to_tokens, symObjAddr: 0x12EB0, symBinAddr: 0xB56E0, symSize: 0x3C0 }
  - { offset: 0x134270, size: 0x8, addend: 0x0, symName: __RNvXs10_NtNtCsdGrGZaRBwMb_3syn3gen5cloneNtNtBa_3pat8FieldPatNtNtCsieiGu2EXtoJ_4core5clone5Clone5clone, symObjAddr: 0x135B0, symBinAddr: 0xB5B90, symSize: 0x110 }
  - { offset: 0x1342A4, size: 0x8, addend: 0x0, symName: __RNvXs1I_NtNtCsdGrGZaRBwMb_3syn3gen5cloneNtNtBa_3mac5MacroNtNtCsieiGu2EXtoJ_4core5clone5Clone5clone, symObjAddr: 0x138B0, symBinAddr: 0xB5D90, symSize: 0x120 }
  - { offset: 0x1342D8, size: 0x8, addend: 0x0, symName: __RNvXs1J_NtNtCsdGrGZaRBwMb_3syn3gen5cloneNtNtBa_3mac14MacroDelimiterNtNtCsieiGu2EXtoJ_4core5clone5Clone5clone, symObjAddr: 0x139D0, symBinAddr: 0xB5EB0, symSize: 0xF0 }
  - { offset: 0x13435E, size: 0x8, addend: 0x0, symName: __RNvXs1P_NtNtCsdGrGZaRBwMb_3syn3gen5cloneNtNtBa_3pat3PatNtNtCsieiGu2EXtoJ_4core5clone5Clone5clone, symObjAddr: 0x13B70, symBinAddr: 0xB5FA0, symSize: 0x6B0 }
  - { offset: 0x134592, size: 0x8, addend: 0x0, symName: __RNvXs1Q_NtNtCsdGrGZaRBwMb_3syn3gen5cloneNtNtBa_3pat8PatIdentNtNtCsieiGu2EXtoJ_4core5clone5Clone5clone, symObjAddr: 0x14220, symBinAddr: 0xB6650, symSize: 0x170 }
  - { offset: 0x1345C6, size: 0x8, addend: 0x0, symName: __RNvXs1R_NtNtCsdGrGZaRBwMb_3syn3gen5cloneNtNtBa_3pat5PatOrNtNtCsieiGu2EXtoJ_4core5clone5Clone5clone, symObjAddr: 0x14390, symBinAddr: 0xB67C0, symSize: 0xF0 }
  - { offset: 0x1345FA, size: 0x8, addend: 0x0, symName: __RNvXs1S_NtNtCsdGrGZaRBwMb_3syn3gen5cloneNtNtBa_3pat8PatParenNtNtCsieiGu2EXtoJ_4core5clone5Clone5clone, symObjAddr: 0x14480, symBinAddr: 0xB68B0, symSize: 0xC0 }
  - { offset: 0x13462E, size: 0x8, addend: 0x0, symName: __RNvXs1T_NtNtCsdGrGZaRBwMb_3syn3gen5cloneNtNtBa_3pat12PatReferenceNtNtCsieiGu2EXtoJ_4core5clone5Clone5clone, symObjAddr: 0x14540, symBinAddr: 0xB6970, symSize: 0x100 }
  - { offset: 0x134662, size: 0x8, addend: 0x0, symName: __RNvXs1U_NtNtCsdGrGZaRBwMb_3syn3gen5cloneNtNtBa_3pat7PatRestNtNtCsieiGu2EXtoJ_4core5clone5Clone5clone, symObjAddr: 0x14640, symBinAddr: 0xB6A70, symSize: 0xB0 }
  - { offset: 0x134696, size: 0x8, addend: 0x0, symName: __RNvXs1V_NtNtCsdGrGZaRBwMb_3syn3gen5cloneNtNtBa_3pat8PatSliceNtNtCsieiGu2EXtoJ_4core5clone5Clone5clone, symObjAddr: 0x146F0, symBinAddr: 0xB6B20, symSize: 0xE0 }
  - { offset: 0x1346CA, size: 0x8, addend: 0x0, symName: __RNvXs1W_NtNtCsdGrGZaRBwMb_3syn3gen5cloneNtNtBa_3pat9PatStructNtNtCsieiGu2EXtoJ_4core5clone5Clone5clone, symObjAddr: 0x147D0, symBinAddr: 0xB6C00, symSize: 0x220 }
  - { offset: 0x1346FE, size: 0x8, addend: 0x0, symName: __RNvXs1X_NtNtCsdGrGZaRBwMb_3syn3gen5cloneNtNtBa_3pat8PatTupleNtNtCsieiGu2EXtoJ_4core5clone5Clone5clone, symObjAddr: 0x149F0, symBinAddr: 0xB6E20, symSize: 0xE0 }
  - { offset: 0x134732, size: 0x8, addend: 0x0, symName: __RNvXs1Y_NtNtCsdGrGZaRBwMb_3syn3gen5cloneNtNtBa_3pat14PatTupleStructNtNtCsieiGu2EXtoJ_4core5clone5Clone5clone, symObjAddr: 0x14AD0, symBinAddr: 0xB6F00, symSize: 0x1B0 }
  - { offset: 0x134766, size: 0x8, addend: 0x0, symName: __RNvXs1Z_NtNtCsdGrGZaRBwMb_3syn3gen5cloneNtNtBa_3pat7PatTypeNtNtCsieiGu2EXtoJ_4core5clone5Clone5clone, symObjAddr: 0x14D30, symBinAddr: 0xB70B0, symSize: 0x100 }
  - { offset: 0x13479A, size: 0x8, addend: 0x0, symName: __RNvXs20_NtNtCsdGrGZaRBwMb_3syn3gen5cloneNtNtBa_3pat7PatWildNtNtCsieiGu2EXtoJ_4core5clone5Clone5clone, symObjAddr: 0x15130, symBinAddr: 0xB7230, symSize: 0xA0 }
  - { offset: 0x1347D4, size: 0x8, addend: 0x0, symName: __RNvXs1F_NtNtCsdGrGZaRBwMb_3syn3gen5debugNtNtBa_3pat8FieldPatNtNtCsieiGu2EXtoJ_4core3fmt5Debug3fmt, symObjAddr: 0x137E0, symBinAddr: 0xB5CC0, symSize: 0xD0 }
  - { offset: 0x134835, size: 0x8, addend: 0x0, symName: __RNvXs2O_NtNtCsdGrGZaRBwMb_3syn3gen5debugNtNtBa_3mac5MacroNtNtCsieiGu2EXtoJ_4core3fmt5Debug3fmt, symObjAddr: 0x15260, symBinAddr: 0xB72D0, symSize: 0xD0 }
  - { offset: 0x134896, size: 0x8, addend: 0x0, symName: __RNvXs2P_NtNtCsdGrGZaRBwMb_3syn3gen5debugNtNtBa_3mac14MacroDelimiterNtNtCsieiGu2EXtoJ_4core3fmt5Debug3fmt, symObjAddr: 0x15330, symBinAddr: 0xB73A0, symSize: 0x1E0 }
  - { offset: 0x1349A6, size: 0x8, addend: 0x0, symName: __RNvXs2Y_NtNtCsdGrGZaRBwMb_3syn3gen5debugNtNtBa_3pat3PatNtNtCsieiGu2EXtoJ_4core3fmt5Debug3fmt, symObjAddr: 0x15510, symBinAddr: 0xB7580, symSize: 0x550 }
  - { offset: 0x134C28, size: 0x8, addend: 0x0, symName: __RNvXs37_NtNtCsdGrGZaRBwMb_3syn3gen5debugNtNtBa_3pat7PatRestNtNtCsieiGu2EXtoJ_4core3fmt5Debug3fmt, symObjAddr: 0x16130, symBinAddr: 0xB7B30, symSize: 0x40 }
  - { offset: 0x134C6B, size: 0x8, addend: 0x0, symName: __RNvXs3h_NtNtCsdGrGZaRBwMb_3syn3gen5debugNtNtBa_3pat7PatTypeNtNtCsieiGu2EXtoJ_4core3fmt5Debug3fmt, symObjAddr: 0x17190, symBinAddr: 0xB7BD0, symSize: 0x40 }
  - { offset: 0x1369E2, size: 0x8, addend: 0x0, symName: __RNvMNtCsdGrGZaRBwMb_3syn3macNtB2_14MacroDelimiter4span, symObjAddr: 0x2910, symBinAddr: 0xA57D0, symSize: 0x80 }
  - { offset: 0x136A5B, size: 0x8, addend: 0x0, symName: __RNvMNtCsdGrGZaRBwMb_3syn3macNtB2_14MacroDelimiter8is_brace, symObjAddr: 0x2990, symBinAddr: 0xA5850, symSize: 0x50 }
  - { offset: 0x136A8A, size: 0x8, addend: 0x0, symName: __RNvMNtNtCsdGrGZaRBwMb_3syn3mac8printingNtB4_14MacroDelimiter8surround, symObjAddr: 0x2A40, symBinAddr: 0xA5900, symSize: 0x200 }
  - { offset: 0x136BA1, size: 0x8, addend: 0x0, symName: __RNvMNtNtCsdGrGZaRBwMb_3syn3pat7parsingNtB4_3Pat12parse_single, symObjAddr: 0x2C80, symBinAddr: 0xA5B00, symSize: 0x840 }
  - { offset: 0x136BF2, size: 0x8, addend: 0x0, symName: __RNvMNtNtCsdGrGZaRBwMb_3syn3pat7parsingNtB4_3Pat29parse_multi_with_leading_vert, symObjAddr: 0x34C0, symBinAddr: 0xA6340, symSize: 0xD0 }
  - { offset: 0x136C51, size: 0x8, addend: 0x0, symName: __RNvMs0_NtNtCsdGrGZaRBwMb_3syn3pat7parsingNtB5_13PatRangeBound8into_pat, symObjAddr: 0x3590, symBinAddr: 0xA6410, symSize: 0x170 }
  - { offset: 0x136CCA, size: 0x8, addend: 0x0, symName: __RNvMs0_NtNtCsdGrGZaRBwMb_3syn3pat7parsingNtB5_13PatRangeBound9into_expr, symObjAddr: 0x3700, symBinAddr: 0xA6580, symSize: 0x1A0 }
  - { offset: 0x136DCB, size: 0x8, addend: 0x0, symName: __RNvMs30_NtNtCsdGrGZaRBwMb_3syn3gen5debugNtNtBa_3pat8PatIdent5debug, symObjAddr: 0x38A0, symBinAddr: 0xA6720, symSize: 0xF0 }
  - { offset: 0x136E37, size: 0x8, addend: 0x0, symName: __RNvMs32_NtNtCsdGrGZaRBwMb_3syn3gen5debugNtNtBa_3pat5PatOr5debug, symObjAddr: 0x3990, symBinAddr: 0xA6810, symSize: 0xB0 }
  - { offset: 0x136EA3, size: 0x8, addend: 0x0, symName: __RNvMs34_NtNtCsdGrGZaRBwMb_3syn3gen5debugNtNtBa_3pat8PatParen5debug, symObjAddr: 0x3A40, symBinAddr: 0xA68C0, symSize: 0xB0 }
  - { offset: 0x136F0F, size: 0x8, addend: 0x0, symName: __RNvMs36_NtNtCsdGrGZaRBwMb_3syn3gen5debugNtNtBa_3pat12PatReference5debug, symObjAddr: 0x3AF0, symBinAddr: 0xA6970, symSize: 0xD0 }
  - { offset: 0x136F7B, size: 0x8, addend: 0x0, symName: __RNvMs38_NtNtCsdGrGZaRBwMb_3syn3gen5debugNtNtBa_3pat7PatRest5debug, symObjAddr: 0x3BC0, symBinAddr: 0xA6A40, symSize: 0x90 }
  - { offset: 0x136FE7, size: 0x8, addend: 0x0, symName: __RNvMs3a_NtNtCsdGrGZaRBwMb_3syn3gen5debugNtNtBa_3pat8PatSlice5debug, symObjAddr: 0x3C50, symBinAddr: 0xA6AD0, symSize: 0xB0 }
  - { offset: 0x137053, size: 0x8, addend: 0x0, symName: __RNvMs3c_NtNtCsdGrGZaRBwMb_3syn3gen5debugNtNtBa_3pat9PatStruct5debug, symObjAddr: 0x3D00, symBinAddr: 0xA6B80, symSize: 0x120 }
  - { offset: 0x1370BF, size: 0x8, addend: 0x0, symName: __RNvMs3e_NtNtCsdGrGZaRBwMb_3syn3gen5debugNtNtBa_3pat8PatTuple5debug, symObjAddr: 0x3E20, symBinAddr: 0xA6CA0, symSize: 0xB0 }
  - { offset: 0x13712B, size: 0x8, addend: 0x0, symName: __RNvMs3g_NtNtCsdGrGZaRBwMb_3syn3gen5debugNtNtBa_3pat14PatTupleStruct5debug, symObjAddr: 0x3ED0, symBinAddr: 0xA6D50, symSize: 0x100 }
  - { offset: 0x137197, size: 0x8, addend: 0x0, symName: __RNvMs3i_NtNtCsdGrGZaRBwMb_3syn3gen5debugNtNtBa_3pat7PatType5debug, symObjAddr: 0x3FD0, symBinAddr: 0xA6E50, symSize: 0xD0 }
  - { offset: 0x137203, size: 0x8, addend: 0x0, symName: __RNvMs3k_NtNtCsdGrGZaRBwMb_3syn3gen5debugNtNtBa_3pat7PatWild5debug, symObjAddr: 0x40A0, symBinAddr: 0xA6F20, symSize: 0x90 }
  - { offset: 0x13734F, size: 0x8, addend: 0x0, symName: __RNvXNtCs9OU1sGv5X54_5quote9to_tokensRNtNtCsdGrGZaRBwMb_3syn3pat3PatNtB2_8ToTokens9to_tokensBD_, symObjAddr: 0x10B20, symBinAddr: 0xB37B0, symSize: 0x30 }
  - { offset: 0x13738E, size: 0x8, addend: 0x0, symName: __RNvXNtCs9OU1sGv5X54_5quote9to_tokensRNtNtCsdGrGZaRBwMb_3syn3pat8FieldPatNtB2_8ToTokens9to_tokensBD_, symObjAddr: 0x10B50, symBinAddr: 0xB37E0, symSize: 0x30 }
  - { offset: 0x137775, size: 0x8, addend: 0x0, symName: __RINvMs_NtCsdGrGZaRBwMb_3syn4pathNtB5_4Path8is_identeEB7_, symObjAddr: 0x0, symBinAddr: 0xB86B0, symSize: 0x80 }
  - { offset: 0x13E5BA, size: 0x8, addend: 0x0, symName: __RINvNtNtNtCsieiGu2EXtoJ_4core4iter7sources5empty5emptyQNtNtCsdGrGZaRBwMb_3syn4data5FieldEBV_, symObjAddr: 0x80, symBinAddr: 0xB8730, symSize: 0x10 }
  - { offset: 0x13E5DD, size: 0x8, addend: 0x0, symName: __RINvNtNtNtCsieiGu2EXtoJ_4core4iter7sources5empty5emptyRNtNtCsdGrGZaRBwMb_3syn4data5FieldEBV_, symObjAddr: 0x90, symBinAddr: 0xB8740, symSize: 0x10 }
  - { offset: 0x13E605, size: 0x8, addend: 0x0, symName: __RNvXs0_NtNtNtCsieiGu2EXtoJ_4core4iter7sources5emptyINtB5_5EmptyQNtNtCsdGrGZaRBwMb_3syn4data5FieldENtNtNtB9_6traits12double_ended19DoubleEndedIterator9next_backB14_, symObjAddr: 0x5C30, symBinAddr: 0xBE080, symSize: 0x10 }
  - { offset: 0x13E63A, size: 0x8, addend: 0x0, symName: __RNvXs0_NtNtNtCsieiGu2EXtoJ_4core4iter7sources5emptyINtB5_5EmptyRNtNtCsdGrGZaRBwMb_3syn4data5FieldENtNtNtB9_6traits12double_ended19DoubleEndedIterator9next_backB14_, symObjAddr: 0x5C40, symBinAddr: 0xBE090, symSize: 0x10 }
  - { offset: 0x13E675, size: 0x8, addend: 0x0, symName: __RNvXs1_NtNtNtCsieiGu2EXtoJ_4core4iter7sources5emptyINtB5_5EmptyQNtNtCsdGrGZaRBwMb_3syn4data5FieldENtNtNtB9_6traits10exact_size17ExactSizeIterator3lenB14_, symObjAddr: 0x6B30, symBinAddr: 0xBEE60, symSize: 0x10 }
  - { offset: 0x13E6AA, size: 0x8, addend: 0x0, symName: __RNvXs1_NtNtNtCsieiGu2EXtoJ_4core4iter7sources5emptyINtB5_5EmptyRNtNtCsdGrGZaRBwMb_3syn4data5FieldENtNtNtB9_6traits10exact_size17ExactSizeIterator3lenB14_, symObjAddr: 0x6B40, symBinAddr: 0xBEE70, symSize: 0x10 }
  - { offset: 0x13E6E5, size: 0x8, addend: 0x0, symName: __RNvXs4_NtNtNtCsieiGu2EXtoJ_4core4iter7sources5emptyINtB5_5EmptyRNtNtCsdGrGZaRBwMb_3syn4data5FieldENtNtBb_5clone5Clone5cloneB14_, symObjAddr: 0xA100, symBinAddr: 0xC1960, symSize: 0x10 }
  - { offset: 0x13E71C, size: 0x8, addend: 0x0, symName: __RNvXs_NtNtNtCsieiGu2EXtoJ_4core4iter7sources5emptyINtB4_5EmptyQNtNtCsdGrGZaRBwMb_3syn4data5FieldENtNtNtB8_6traits8iterator8Iterator4nextB13_, symObjAddr: 0xBE20, symBinAddr: 0xC3280, symSize: 0x10 }
  - { offset: 0x13E751, size: 0x8, addend: 0x0, symName: __RNvXs_NtNtNtCsieiGu2EXtoJ_4core4iter7sources5emptyINtB4_5EmptyQNtNtCsdGrGZaRBwMb_3syn4data5FieldENtNtNtB8_6traits8iterator8Iterator9size_hintB13_, symObjAddr: 0xBE30, symBinAddr: 0xC3290, symSize: 0x30 }
  - { offset: 0x13E786, size: 0x8, addend: 0x0, symName: __RNvXs_NtNtNtCsieiGu2EXtoJ_4core4iter7sources5emptyINtB4_5EmptyRNtNtCsdGrGZaRBwMb_3syn4data5FieldENtNtNtB8_6traits8iterator8Iterator4nextB13_, symObjAddr: 0xBE60, symBinAddr: 0xC32C0, symSize: 0x10 }
  - { offset: 0x13E7BB, size: 0x8, addend: 0x0, symName: __RNvXs_NtNtNtCsieiGu2EXtoJ_4core4iter7sources5emptyINtB4_5EmptyRNtNtCsdGrGZaRBwMb_3syn4data5FieldENtNtNtB8_6traits8iterator8Iterator9size_hintB13_, symObjAddr: 0xBE70, symBinAddr: 0xC32D0, symSize: 0x30 }
  - { offset: 0x13EB31, size: 0x8, addend: 0x0, symName: __RINvYINtNtNtCsieiGu2EXtoJ_4core5slice4iter4IterNtNtCsdGrGZaRBwMb_3syn4attr9AttributeENtNtNtNtBa_4iter6traits8iterator8Iterator6filterFG0_RL1_RL0_BJ_EbEBN_, symObjAddr: 0xB10, symBinAddr: 0xB91C0, symSize: 0x20 }
  - { offset: 0x13EB95, size: 0x8, addend: 0x0, symName: __RINvYINtNtNtNtCsieiGu2EXtoJ_4core4iter7sources5empty5EmptyQNtNtCsdGrGZaRBwMb_3syn4data5FieldENtNtNtBa_6traits8iterator8Iterator8try_foldINtNtNtBc_3num7nonzero7NonZerojENCNvXs_NvB1t_10advance_byB3_NtB2N_13SpecAdvanceBy15spec_advance_by0INtNtBc_6option6OptionB2a_EEBZ_, symObjAddr: 0xB30, symBinAddr: 0xB91E0, symSize: 0x130 }
  - { offset: 0x13EC49, size: 0x8, addend: 0x0, symName: __RINvYINtNtNtNtCsieiGu2EXtoJ_4core4iter7sources5empty5EmptyRNtNtCsdGrGZaRBwMb_3syn4data5FieldENtNtNtBa_6traits8iterator8Iterator8try_foldINtNtNtBc_3num7nonzero7NonZerojENCNvXs_NvB1t_10advance_byB3_NtB2N_13SpecAdvanceBy15spec_advance_by0INtNtBc_6option6OptionB2a_EEBZ_, symObjAddr: 0xC60, symBinAddr: 0xB9310, symSize: 0x130 }
  - { offset: 0x13ED07, size: 0x8, addend: 0x0, symName: __RNvXs_NvNtNtNtNtCsieiGu2EXtoJ_4core4iter6traits8iterator8Iterator10advance_byINtNtNtBc_7sources5empty5EmptyQNtNtCsdGrGZaRBwMb_3syn4data5FieldENtB4_13SpecAdvanceBy15spec_advance_byB1M_, symObjAddr: 0xBEA0, symBinAddr: 0xC3300, symSize: 0x90 }
  - { offset: 0x13EDB5, size: 0x8, addend: 0x0, symName: __RNvXs_NvNtNtNtNtCsieiGu2EXtoJ_4core4iter6traits8iterator8Iterator10advance_byINtNtNtBc_7sources5empty5EmptyRNtNtCsdGrGZaRBwMb_3syn4data5FieldENtB4_13SpecAdvanceBy15spec_advance_byB1M_, symObjAddr: 0xBF30, symBinAddr: 0xC3390, symSize: 0x90 }
  - { offset: 0x13EE79, size: 0x8, addend: 0x0, symName: __RNvYINtNtNtCsieiGu2EXtoJ_4core5slice4iter4IterNtNtCsdGrGZaRBwMb_3syn4expr3ArmENtNtNtNtB9_4iter6traits8iterator8Iterator9enumerateBM_, symObjAddr: 0xC3B0, symBinAddr: 0xC3780, symSize: 0x20 }
  - { offset: 0x13EEC5, size: 0x8, addend: 0x0, symName: __RNvYINtNtNtCsieiGu2EXtoJ_4core5slice4iter4IterhENtNtNtNtB9_4iter6traits8iterator8Iterator3revCsdGrGZaRBwMb_3syn, symObjAddr: 0xC3D0, symBinAddr: 0xC37A0, symSize: 0x20 }
  - { offset: 0x13EEFC, size: 0x8, addend: 0x0, symName: __RNvYINtNtNtNtCsieiGu2EXtoJ_4core4iter7sources5empty5EmptyQNtNtCsdGrGZaRBwMb_3syn4data5FieldENtNtNtB9_6traits8iterator8Iterator10advance_byBY_, symObjAddr: 0xC620, symBinAddr: 0xC39F0, symSize: 0x20 }
  - { offset: 0x13EF42, size: 0x8, addend: 0x0, symName: __RNvYINtNtNtNtCsieiGu2EXtoJ_4core4iter7sources5empty5EmptyQNtNtCsdGrGZaRBwMb_3syn4data5FieldENtNtNtB9_6traits8iterator8Iterator3nthBY_, symObjAddr: 0xC640, symBinAddr: 0xC3A10, symSize: 0x80 }
  - { offset: 0x13F012, size: 0x8, addend: 0x0, symName: __RNvYINtNtNtNtCsieiGu2EXtoJ_4core4iter7sources5empty5EmptyRNtNtCsdGrGZaRBwMb_3syn4data5FieldENtNtNtB9_6traits8iterator8Iterator10advance_byBY_, symObjAddr: 0xC8F0, symBinAddr: 0xC3CC0, symSize: 0x20 }
  - { offset: 0x13F058, size: 0x8, addend: 0x0, symName: __RNvYINtNtNtNtCsieiGu2EXtoJ_4core4iter7sources5empty5EmptyRNtNtCsdGrGZaRBwMb_3syn4data5FieldENtNtNtB9_6traits8iterator8Iterator3nthBY_, symObjAddr: 0xC910, symBinAddr: 0xC3CE0, symSize: 0x80 }
  - { offset: 0x13F134, size: 0x8, addend: 0x0, symName: __RNvXNtNtNtCsieiGu2EXtoJ_4core4iter6traits7collectINtNtNtB8_5slice4iter4IterNtCsaKzlTDPUHDb_11proc_macro24SpanENtB2_12IntoIterator9into_iterCsdGrGZaRBwMb_3syn, symObjAddr: 0x5A60, symBinAddr: 0xBDEB0, symSize: 0x20 }
  - { offset: 0x13F16B, size: 0x8, addend: 0x0, symName: __RNvXNtNtNtCsieiGu2EXtoJ_4core4iter6traits7collectINtNtNtB8_5slice4iter4IterNtNtCsdGrGZaRBwMb_3syn4attr9AttributeENtB2_12IntoIterator9into_iterB1f_, symObjAddr: 0x5A80, symBinAddr: 0xBDED0, symSize: 0x20 }
  - { offset: 0x13F1A2, size: 0x8, addend: 0x0, symName: __RNvXNtNtNtCsieiGu2EXtoJ_4core4iter6traits7collectINtNtNtB8_5slice4iter4IterNtNtCsdGrGZaRBwMb_3syn4expr3ArmENtB2_12IntoIterator9into_iterB1f_, symObjAddr: 0x5AA0, symBinAddr: 0xBDEF0, symSize: 0x20 }
